Archive member included to satisfy reference by file (symbol)

/usr/lib/gcc/arm-none-eabi/16.1.0/../../../../arm-none-eabi/lib/thumb/v8-m.main+dp/hard/libc_nano.a(libc_a-atexit.o)
                              /usr/lib/gcc/arm-none-eabi/16.1.0/../../../../arm-none-eabi/lib/thumb/v8-m.main+dp/hard/crt0.o (atexit)
/usr/lib/gcc/arm-none-eabi/16.1.0/../../../../arm-none-eabi/lib/thumb/v8-m.main+dp/hard/libc_nano.a(libc_a-exit.o)
                              /usr/lib/gcc/arm-none-eabi/16.1.0/../../../../arm-none-eabi/lib/thumb/v8-m.main+dp/hard/crt0.o (exit)
/usr/lib/gcc/arm-none-eabi/16.1.0/../../../../arm-none-eabi/lib/thumb/v8-m.main+dp/hard/libc_nano.a(libc_a-findfp.o)
                              /usr/lib/gcc/arm-none-eabi/16.1.0/../../../../arm-none-eabi/lib/thumb/v8-m.main+dp/hard/libc_nano.a(libc_a-exit.o) (__stdio_exit_handler)
/usr/lib/gcc/arm-none-eabi/16.1.0/../../../../arm-none-eabi/lib/thumb/v8-m.main+dp/hard/libc_nano.a(libc_a-fwalk.o)
                              /usr/lib/gcc/arm-none-eabi/16.1.0/../../../../arm-none-eabi/lib/thumb/v8-m.main+dp/hard/libc_nano.a(libc_a-findfp.o) (_fwalk_sglue)
/usr/lib/gcc/arm-none-eabi/16.1.0/../../../../arm-none-eabi/lib/thumb/v8-m.main+dp/hard/libc_nano.a(libc_a-printf.o)
                              build/main.o (printf)
/usr/lib/gcc/arm-none-eabi/16.1.0/../../../../arm-none-eabi/lib/thumb/v8-m.main+dp/hard/libc_nano.a(libc_a-stdio.o)
                              /usr/lib/gcc/arm-none-eabi/16.1.0/../../../../arm-none-eabi/lib/thumb/v8-m.main+dp/hard/libc_nano.a(libc_a-findfp.o) (__sread)
/usr/lib/gcc/arm-none-eabi/16.1.0/../../../../arm-none-eabi/lib/thumb/v8-m.main+dp/hard/libc_nano.a(libc_a-memset.o)
                              /usr/lib/gcc/arm-none-eabi/16.1.0/../../../../arm-none-eabi/lib/thumb/v8-m.main+dp/hard/crt0.o (memset)
/usr/lib/gcc/arm-none-eabi/16.1.0/../../../../arm-none-eabi/lib/thumb/v8-m.main+dp/hard/libc_nano.a(libc_a-closer.o)
                              /usr/lib/gcc/arm-none-eabi/16.1.0/../../../../arm-none-eabi/lib/thumb/v8-m.main+dp/hard/libc_nano.a(libc_a-stdio.o) (_close_r)
/usr/lib/gcc/arm-none-eabi/16.1.0/../../../../arm-none-eabi/lib/thumb/v8-m.main+dp/hard/libc_nano.a(libc_a-reent.o)
                              /usr/lib/gcc/arm-none-eabi/16.1.0/../../../../arm-none-eabi/lib/thumb/v8-m.main+dp/hard/libc_nano.a(libc_a-closer.o) (errno)
/usr/lib/gcc/arm-none-eabi/16.1.0/../../../../arm-none-eabi/lib/thumb/v8-m.main+dp/hard/libc_nano.a(libc_a-impure.o)
                              /usr/lib/gcc/arm-none-eabi/16.1.0/../../../../arm-none-eabi/lib/thumb/v8-m.main+dp/hard/libc_nano.a(libc_a-printf.o) (_impure_ptr)
/usr/lib/gcc/arm-none-eabi/16.1.0/../../../../arm-none-eabi/lib/thumb/v8-m.main+dp/hard/libc_nano.a(libc_a-lseekr.o)
                              /usr/lib/gcc/arm-none-eabi/16.1.0/../../../../arm-none-eabi/lib/thumb/v8-m.main+dp/hard/libc_nano.a(libc_a-stdio.o) (_lseek_r)
/usr/lib/gcc/arm-none-eabi/16.1.0/../../../../arm-none-eabi/lib/thumb/v8-m.main+dp/hard/libc_nano.a(libc_a-readr.o)
                              /usr/lib/gcc/arm-none-eabi/16.1.0/../../../../arm-none-eabi/lib/thumb/v8-m.main+dp/hard/libc_nano.a(libc_a-stdio.o) (_read_r)
/usr/lib/gcc/arm-none-eabi/16.1.0/../../../../arm-none-eabi/lib/thumb/v8-m.main+dp/hard/libc_nano.a(libc_a-writer.o)
                              /usr/lib/gcc/arm-none-eabi/16.1.0/../../../../arm-none-eabi/lib/thumb/v8-m.main+dp/hard/libc_nano.a(libc_a-stdio.o) (_write_r)
/usr/lib/gcc/arm-none-eabi/16.1.0/../../../../arm-none-eabi/lib/thumb/v8-m.main+dp/hard/libc_nano.a(libc_a-errno.o)
                              build/sysmem.o (__errno)
/usr/lib/gcc/arm-none-eabi/16.1.0/../../../../arm-none-eabi/lib/thumb/v8-m.main+dp/hard/libc_nano.a(libc_a-init.o)
                              /usr/lib/gcc/arm-none-eabi/16.1.0/../../../../arm-none-eabi/lib/thumb/v8-m.main+dp/hard/crt0.o (__libc_init_array)
/usr/lib/gcc/arm-none-eabi/16.1.0/../../../../arm-none-eabi/lib/thumb/v8-m.main+dp/hard/libc_nano.a(libc_a-fini.o)
                              /usr/lib/gcc/arm-none-eabi/16.1.0/../../../../arm-none-eabi/lib/thumb/v8-m.main+dp/hard/crt0.o (__libc_fini_array)
/usr/lib/gcc/arm-none-eabi/16.1.0/../../../../arm-none-eabi/lib/thumb/v8-m.main+dp/hard/libc_nano.a(libc_a-lock.o)
                              /usr/lib/gcc/arm-none-eabi/16.1.0/../../../../arm-none-eabi/lib/thumb/v8-m.main+dp/hard/libc_nano.a(libc_a-findfp.o) (__retarget_lock_init_recursive)
/usr/lib/gcc/arm-none-eabi/16.1.0/../../../../arm-none-eabi/lib/thumb/v8-m.main+dp/hard/libc_nano.a(libc_a-memcpy-stub.o)
                              build/stm32n6xx_hal_dcmipp.o (memcpy)
/usr/lib/gcc/arm-none-eabi/16.1.0/../../../../arm-none-eabi/lib/thumb/v8-m.main+dp/hard/libc_nano.a(libc_a-__atexit.o)
                              /usr/lib/gcc/arm-none-eabi/16.1.0/../../../../arm-none-eabi/lib/thumb/v8-m.main+dp/hard/libc_nano.a(libc_a-atexit.o) (__register_exitproc)
/usr/lib/gcc/arm-none-eabi/16.1.0/../../../../arm-none-eabi/lib/thumb/v8-m.main+dp/hard/libc_nano.a(libc_a-__call_atexit.o)
                              /usr/lib/gcc/arm-none-eabi/16.1.0/../../../../arm-none-eabi/lib/thumb/v8-m.main+dp/hard/libc_nano.a(libc_a-__atexit.o) (__call_exitprocs)
/usr/lib/gcc/arm-none-eabi/16.1.0/../../../../arm-none-eabi/lib/thumb/v8-m.main+dp/hard/libc_nano.a(libc_a-freer.o)
                              /usr/lib/gcc/arm-none-eabi/16.1.0/../../../../arm-none-eabi/lib/thumb/v8-m.main+dp/hard/libc_nano.a(libc_a-reent.o) (_free_r)
/usr/lib/gcc/arm-none-eabi/16.1.0/../../../../arm-none-eabi/lib/thumb/v8-m.main+dp/hard/libc_nano.a(libc_a-mallocr.o)
                              /usr/lib/gcc/arm-none-eabi/16.1.0/../../../../arm-none-eabi/lib/thumb/v8-m.main+dp/hard/libc_nano.a(libc_a-findfp.o) (_malloc_r)
/usr/lib/gcc/arm-none-eabi/16.1.0/../../../../arm-none-eabi/lib/thumb/v8-m.main+dp/hard/libc_nano.a(libc_a-mlock.o)
                              /usr/lib/gcc/arm-none-eabi/16.1.0/../../../../arm-none-eabi/lib/thumb/v8-m.main+dp/hard/libc_nano.a(libc_a-freer.o) (__malloc_lock)
/usr/lib/gcc/arm-none-eabi/16.1.0/../../../../arm-none-eabi/lib/thumb/v8-m.main+dp/hard/libc_nano.a(libc_a-nano-vfprintf.o)
                              /usr/lib/gcc/arm-none-eabi/16.1.0/../../../../arm-none-eabi/lib/thumb/v8-m.main+dp/hard/libc_nano.a(libc_a-printf.o) (_vfprintf_r)
/usr/lib/gcc/arm-none-eabi/16.1.0/../../../../arm-none-eabi/lib/thumb/v8-m.main+dp/hard/libc_nano.a(libc_a-nano-vfprintf_i.o)
                              /usr/lib/gcc/arm-none-eabi/16.1.0/../../../../arm-none-eabi/lib/thumb/v8-m.main+dp/hard/libc_nano.a(libc_a-nano-vfprintf.o) (_printf_i)
/usr/lib/gcc/arm-none-eabi/16.1.0/../../../../arm-none-eabi/lib/thumb/v8-m.main+dp/hard/libc_nano.a(libc_a-fflush.o)
                              /usr/lib/gcc/arm-none-eabi/16.1.0/../../../../arm-none-eabi/lib/thumb/v8-m.main+dp/hard/libc_nano.a(libc_a-findfp.o) (_fflush_r)
/usr/lib/gcc/arm-none-eabi/16.1.0/../../../../arm-none-eabi/lib/thumb/v8-m.main+dp/hard/libc_nano.a(libc_a-fvwrite.o)
                              /usr/lib/gcc/arm-none-eabi/16.1.0/../../../../arm-none-eabi/lib/thumb/v8-m.main+dp/hard/libc_nano.a(libc_a-nano-vfprintf.o) (__sfvwrite_r)
/usr/lib/gcc/arm-none-eabi/16.1.0/../../../../arm-none-eabi/lib/thumb/v8-m.main+dp/hard/libc_nano.a(libc_a-wbuf.o)
                              /usr/lib/gcc/arm-none-eabi/16.1.0/../../../../arm-none-eabi/lib/thumb/v8-m.main+dp/hard/libc_nano.a(libc_a-nano-vfprintf.o) (__swbuf_r)
/usr/lib/gcc/arm-none-eabi/16.1.0/../../../../arm-none-eabi/lib/thumb/v8-m.main+dp/hard/libc_nano.a(libc_a-wsetup.o)
                              /usr/lib/gcc/arm-none-eabi/16.1.0/../../../../arm-none-eabi/lib/thumb/v8-m.main+dp/hard/libc_nano.a(libc_a-nano-vfprintf.o) (__swsetup_r)
/usr/lib/gcc/arm-none-eabi/16.1.0/../../../../arm-none-eabi/lib/thumb/v8-m.main+dp/hard/libc_nano.a(libc_a-memmove.o)
                              /usr/lib/gcc/arm-none-eabi/16.1.0/../../../../arm-none-eabi/lib/thumb/v8-m.main+dp/hard/libc_nano.a(libc_a-fvwrite.o) (memmove)
/usr/lib/gcc/arm-none-eabi/16.1.0/../../../../arm-none-eabi/lib/thumb/v8-m.main+dp/hard/libc_nano.a(libc_a-sbrkr.o)
                              /usr/lib/gcc/arm-none-eabi/16.1.0/../../../../arm-none-eabi/lib/thumb/v8-m.main+dp/hard/libc_nano.a(libc_a-mallocr.o) (_sbrk_r)
/usr/lib/gcc/arm-none-eabi/16.1.0/../../../../arm-none-eabi/lib/thumb/v8-m.main+dp/hard/libc_nano.a(libc_a-memchr-stub.o)
                              /usr/lib/gcc/arm-none-eabi/16.1.0/../../../../arm-none-eabi/lib/thumb/v8-m.main+dp/hard/libc_nano.a(libc_a-nano-vfprintf.o) (memchr)
/usr/lib/gcc/arm-none-eabi/16.1.0/../../../../arm-none-eabi/lib/thumb/v8-m.main+dp/hard/libc_nano.a(libc_a-reallocr.o)
                              /usr/lib/gcc/arm-none-eabi/16.1.0/../../../../arm-none-eabi/lib/thumb/v8-m.main+dp/hard/libc_nano.a(libc_a-fvwrite.o) (_realloc_r)
/usr/lib/gcc/arm-none-eabi/16.1.0/../../../../arm-none-eabi/lib/thumb/v8-m.main+dp/hard/libc_nano.a(libc_a-makebuf.o)
                              /usr/lib/gcc/arm-none-eabi/16.1.0/../../../../arm-none-eabi/lib/thumb/v8-m.main+dp/hard/libc_nano.a(libc_a-wsetup.o) (__smakebuf_r)
/usr/lib/gcc/arm-none-eabi/16.1.0/../../../../arm-none-eabi/lib/thumb/v8-m.main+dp/hard/libc_nano.a(libc_a-fstatr.o)
                              /usr/lib/gcc/arm-none-eabi/16.1.0/../../../../arm-none-eabi/lib/thumb/v8-m.main+dp/hard/libc_nano.a(libc_a-makebuf.o) (_fstat_r)
/usr/lib/gcc/arm-none-eabi/16.1.0/../../../../arm-none-eabi/lib/thumb/v8-m.main+dp/hard/libc_nano.a(libc_a-isattyr.o)
                              /usr/lib/gcc/arm-none-eabi/16.1.0/../../../../arm-none-eabi/lib/thumb/v8-m.main+dp/hard/libc_nano.a(libc_a-makebuf.o) (_isatty_r)
/usr/lib/gcc/arm-none-eabi/16.1.0/../../../../arm-none-eabi/lib/thumb/v8-m.main+dp/hard/libc_nano.a(libc_a-msizer.o)
                              /usr/lib/gcc/arm-none-eabi/16.1.0/../../../../arm-none-eabi/lib/thumb/v8-m.main+dp/hard/libc_nano.a(libc_a-reallocr.o) (_malloc_usable_size_r)
/usr/lib/gcc/arm-none-eabi/16.1.0/thumb/v8-m.main+dp/hard/libgcc.a(_aeabi_uldivmod.o)
                              build/stm32n6xx_hal_uart.o (__aeabi_uldivmod)
/usr/lib/gcc/arm-none-eabi/16.1.0/thumb/v8-m.main+dp/hard/libgcc.a(_udivmoddi4.o)
                              /usr/lib/gcc/arm-none-eabi/16.1.0/thumb/v8-m.main+dp/hard/libgcc.a(_aeabi_uldivmod.o) (__udivmoddi4)
/usr/lib/gcc/arm-none-eabi/16.1.0/thumb/v8-m.main+dp/hard/libgcc.a(_dvmd_tls.o)
                              /usr/lib/gcc/arm-none-eabi/16.1.0/thumb/v8-m.main+dp/hard/libgcc.a(_aeabi_uldivmod.o) (__aeabi_ldiv0)

Merging object attributes


Discarded input sections

 .text          0x00000000        0x0 /usr/lib/gcc/arm-none-eabi/16.1.0/thumb/v8-m.main+dp/hard/crti.o
 .data          0x00000000        0x0 /usr/lib/gcc/arm-none-eabi/16.1.0/thumb/v8-m.main+dp/hard/crti.o
 .bss           0x00000000        0x0 /usr/lib/gcc/arm-none-eabi/16.1.0/thumb/v8-m.main+dp/hard/crti.o
 .text          0x00000000        0x0 /usr/lib/gcc/arm-none-eabi/16.1.0/thumb/v8-m.main+dp/hard/crtbegin.o
 .data          0x00000000        0x0 /usr/lib/gcc/arm-none-eabi/16.1.0/thumb/v8-m.main+dp/hard/crtbegin.o
 .bss           0x00000000        0x0 /usr/lib/gcc/arm-none-eabi/16.1.0/thumb/v8-m.main+dp/hard/crtbegin.o
 .rodata.all_implied_fbits
                0x00000000       0x24 /usr/lib/gcc/arm-none-eabi/16.1.0/thumb/v8-m.main+dp/hard/crtbegin.o
 .data.__dso_handle
                0x00000000        0x4 /usr/lib/gcc/arm-none-eabi/16.1.0/thumb/v8-m.main+dp/hard/crtbegin.o
 .text          0x00000000       0x70 /usr/lib/gcc/arm-none-eabi/16.1.0/../../../../arm-none-eabi/lib/thumb/v8-m.main+dp/hard/crt0.o
 .data          0x00000000        0x0 /usr/lib/gcc/arm-none-eabi/16.1.0/../../../../arm-none-eabi/lib/thumb/v8-m.main+dp/hard/crt0.o
 .bss           0x00000000        0x0 /usr/lib/gcc/arm-none-eabi/16.1.0/../../../../arm-none-eabi/lib/thumb/v8-m.main+dp/hard/crt0.o
 .ARM.extab     0x00000000        0x0 /usr/lib/gcc/arm-none-eabi/16.1.0/../../../../arm-none-eabi/lib/thumb/v8-m.main+dp/hard/crt0.o
 .ARM.exidx     0x00000000       0x10 /usr/lib/gcc/arm-none-eabi/16.1.0/../../../../arm-none-eabi/lib/thumb/v8-m.main+dp/hard/crt0.o
 .debug_line_str
                0x00000000       0x98 /usr/lib/gcc/arm-none-eabi/16.1.0/../../../../arm-none-eabi/lib/thumb/v8-m.main+dp/hard/crt0.o
 .ARM.attributes
                0x00000000       0x22 /usr/lib/gcc/arm-none-eabi/16.1.0/../../../../arm-none-eabi/lib/thumb/v8-m.main+dp/hard/crt0.o
 .text          0x00000000        0x0 build/main.o
 .data          0x00000000        0x0 build/main.o
 .bss           0x00000000        0x0 build/main.o
 .text          0x00000000        0x0 build/stm32n6xx_it.o
 .data          0x00000000        0x0 build/stm32n6xx_it.o
 .bss           0x00000000        0x0 build/stm32n6xx_it.o
 .text          0x00000000        0x0 build/stm32n6xx_hal_msp.o
 .data          0x00000000        0x0 build/stm32n6xx_hal_msp.o
 .bss           0x00000000        0x0 build/stm32n6xx_hal_msp.o
 .text.HAL_CACHEAXI_MspDeInit
                0x00000000       0x20 build/stm32n6xx_hal_msp.o
 .text.HAL_DCMIPP_MspDeInit
                0x00000000       0x50 build/stm32n6xx_hal_msp.o
 .text.HAL_UART_MspDeInit
                0x00000000       0x2c build/stm32n6xx_hal_msp.o
 .text.HAL_RAMCFG_MspDeInit
                0x00000000       0x10 build/stm32n6xx_hal_msp.o
 .text          0x00000000        0x0 build/secure_nsc.o
 .data          0x00000000        0x0 build/secure_nsc.o
 .bss           0x00000000        0x0 build/secure_nsc.o
 .text          0x00000000        0x0 build/system_stm32n6xx_s.o
 .data          0x00000000        0x0 build/system_stm32n6xx_s.o
 .bss           0x00000000        0x0 build/system_stm32n6xx_s.o
 .text          0x00000000        0x0 build/stm32n6xx_nucleo.o
 .data          0x00000000        0x0 build/stm32n6xx_nucleo.o
 .bss           0x00000000        0x0 build/stm32n6xx_nucleo.o
 .text.UART_MspDeInit
                0x00000000       0x58 build/stm32n6xx_nucleo.o
 .text.BSP_GetVersion
                0x00000000        0x6 build/stm32n6xx_nucleo.o
 .rodata.BSP_GetBoardName.str1.4
                0x00000000       0x11 build/stm32n6xx_nucleo.o
 .text.BSP_GetBoardName
                0x00000000        0x8 build/stm32n6xx_nucleo.o
 .rodata.BSP_GetBoardID.str1.4
                0x00000000        0x7 build/stm32n6xx_nucleo.o
 .text.BSP_GetBoardID
                0x00000000        0x8 build/stm32n6xx_nucleo.o
 .text.BSP_SMPS_Init
                0x00000000       0x50 build/stm32n6xx_nucleo.o
 .text.BSP_LED_On
                0x00000000       0x20 build/stm32n6xx_nucleo.o
 .text.BSP_LED_Off
                0x00000000       0x20 build/stm32n6xx_nucleo.o
 .text.BSP_LED_Init
                0x00000000       0x78 build/stm32n6xx_nucleo.o
 .text.BSP_LED_DeInit
                0x00000000       0x2c build/stm32n6xx_nucleo.o
 .text.BSP_LED_GetState
                0x00000000       0x24 build/stm32n6xx_nucleo.o
 .text.BSP_PB_Init
                0x00000000       0xc0 build/stm32n6xx_nucleo.o
 .text.BSP_PB_DeInit
                0x00000000       0x24 build/stm32n6xx_nucleo.o
 .text.BSP_PB_GetState
                0x00000000       0x14 build/stm32n6xx_nucleo.o
 .text.BSP_PB_Callback
                0x00000000        0x2 build/stm32n6xx_nucleo.o
 .text.BUTTON_USER_EXTI_Callback
                0x00000000        0xa build/stm32n6xx_nucleo.o
 .text.BSP_PB_IRQHandler
                0x00000000       0x18 build/stm32n6xx_nucleo.o
 .text.BSP_COM_DeInit
                0x00000000       0x34 build/stm32n6xx_nucleo.o
 .text.BSP_COM_SelectLogPort
                0x00000000       0x14 build/stm32n6xx_nucleo.o
 .bss.hpb_exti  0x00000000        0xc build/stm32n6xx_nucleo.o
 .text          0x00000000        0x0 build/sysmem.o
 .data          0x00000000        0x0 build/sysmem.o
 .bss           0x00000000        0x0 build/sysmem.o
 .text          0x00000000        0x0 build/syscalls.o
 .data          0x00000000        0x0 build/syscalls.o
 .bss           0x00000000        0x0 build/syscalls.o
 .text.initialise_monitor_handles
                0x00000000        0x2 build/syscalls.o
 .text._getpid  0x00000000        0x4 build/syscalls.o
 .text._kill    0x00000000       0x10 build/syscalls.o
 .text._exit    0x00000000        0xc build/syscalls.o
 .text._open    0x00000000        0xa build/syscalls.o
 .text._wait    0x00000000       0x10 build/syscalls.o
 .text._unlink  0x00000000       0x10 build/syscalls.o
 .text._times   0x00000000        0x6 build/syscalls.o
 .text._stat    0x00000000        0xa build/syscalls.o
 .text._link    0x00000000       0x10 build/syscalls.o
 .text._fork    0x00000000       0x10 build/syscalls.o
 .text._execve  0x00000000       0x10 build/syscalls.o
 .data.environ  0x00000000        0x4 build/syscalls.o
 .bss.__env     0x00000000        0x4 build/syscalls.o
 .text          0x00000000        0x0 build/stm32n6xx_hal.o
 .data          0x00000000        0x0 build/stm32n6xx_hal.o
 .bss           0x00000000        0x0 build/stm32n6xx_hal.o
 .text.HAL_MspInit
                0x00000000        0x2 build/stm32n6xx_hal.o
 .text.HAL_MspDeInit
                0x00000000        0x2 build/stm32n6xx_hal.o
 .text.HAL_DeInit
                0x00000000       0x9c build/stm32n6xx_hal.o
 .text.HAL_GetTickPrio
                0x00000000        0xc build/stm32n6xx_hal.o
 .text.HAL_SetTickFreq
                0x00000000       0x2c build/stm32n6xx_hal.o
 .text.HAL_GetTickFreq
                0x00000000        0xc build/stm32n6xx_hal.o
 .text.HAL_SuspendTick
                0x00000000        0xe build/stm32n6xx_hal.o
 .text.HAL_ResumeTick
                0x00000000        0xe build/stm32n6xx_hal.o
 .text.HAL_GetHalVersion
                0x00000000        0x8 build/stm32n6xx_hal.o
 .text.HAL_GetREVID
                0x00000000        0xc build/stm32n6xx_hal.o
 .text.HAL_GetDEVID
                0x00000000        0x6 build/stm32n6xx_hal.o
 .text.HAL_GetUIDw0
                0x00000000        0xc build/stm32n6xx_hal.o
 .text.HAL_GetUIDw1
                0x00000000        0xc build/stm32n6xx_hal.o
 .text.HAL_GetUIDw2
                0x00000000        0xc build/stm32n6xx_hal.o
 .text.HAL_DBGMCU_EnableDBGSleepMode
                0x00000000       0x10 build/stm32n6xx_hal.o
 .text.HAL_DBGMCU_DisableDBGSleepMode
                0x00000000       0x10 build/stm32n6xx_hal.o
 .text.HAL_DBGMCU_EnableDBGStopMode
                0x00000000       0x10 build/stm32n6xx_hal.o
 .text.HAL_DBGMCU_DisableDBGStopMode
                0x00000000       0x10 build/stm32n6xx_hal.o
 .text.HAL_DBGMCU_EnableDBGStandbyMode
                0x00000000       0x10 build/stm32n6xx_hal.o
 .text.HAL_DBGMCU_DisableDBGStandbyMode
                0x00000000       0x10 build/stm32n6xx_hal.o
 .text.HAL_SYSCFG_EnablePullDown
                0x00000000       0x10 build/stm32n6xx_hal.o
 .text.HAL_SYSCFG_DisablePullDown
                0x00000000       0x10 build/stm32n6xx_hal.o
 .text.HAL_SYSCFG_Lock
                0x00000000       0x14 build/stm32n6xx_hal.o
 .text.HAL_SYSCFG_GetLock
                0x00000000       0x18 build/stm32n6xx_hal.o
 .text.HAL_SYSCFG_SetTCMSize
                0x00000000       0x14 build/stm32n6xx_hal.o
 .text.HAL_SYSCFG_GetTCMSize
                0x00000000       0x24 build/stm32n6xx_hal.o
 .text.HAL_SYSCFG_LockWriteAccess
                0x00000000       0x14 build/stm32n6xx_hal.o
 .text.HAL_SYSCFG_GetLockWriteAccess
                0x00000000       0x18 build/stm32n6xx_hal.o
 .text.HAL_SYSCFG_EnableITCMWaiteState
                0x00000000       0x10 build/stm32n6xx_hal.o
 .text.HAL_SYSCFG_DisableITCMWaiteState
                0x00000000       0x10 build/stm32n6xx_hal.o
 .text.HAL_SYSCFG_EnableDTCMWaiteState
                0x00000000       0x10 build/stm32n6xx_hal.o
 .text.HAL_SYSCFG_DisableDTCMWaiteState
                0x00000000       0x10 build/stm32n6xx_hal.o
 .text.HAL_SYSCFG_EnableTCMExternalMargin
                0x00000000       0x10 build/stm32n6xx_hal.o
 .text.HAL_SYSCFG_DisableTCMExternalMargin
                0x00000000       0x10 build/stm32n6xx_hal.o
 .text.HAL_SYSCFG_SetTCMRWMarginInput
                0x00000000       0x14 build/stm32n6xx_hal.o
 .text.HAL_SYSCFG_GetTCMRWMarginInput
                0x00000000       0x18 build/stm32n6xx_hal.o
 .text.HAL_SYSCFG_SetTCMBiasingLevel
                0x00000000       0x14 build/stm32n6xx_hal.o
 .text.HAL_SYSCFG_GetTCMBiasingLevel
                0x00000000       0x18 build/stm32n6xx_hal.o
 .text.HAL_SYSCFG_EnableCacheExternalMargin
                0x00000000       0x10 build/stm32n6xx_hal.o
 .text.HAL_SYSCFG_DisableCacheExternalMargin
                0x00000000       0x10 build/stm32n6xx_hal.o
 .text.HAL_SYSCFG_SetCacheRWMarginInput
                0x00000000       0x14 build/stm32n6xx_hal.o
 .text.HAL_SYSCFG_GetCacheRWMarginInput
                0x00000000       0x18 build/stm32n6xx_hal.o
 .text.HAL_SYSCFG_SetCacheBiasingLevel
                0x00000000       0x14 build/stm32n6xx_hal.o
 .text.HAL_SYSCFG_GetCacheBiasingLevel
                0x00000000       0x18 build/stm32n6xx_hal.o
 .text.HAL_SYSCFG_SetSVTORAddress
                0x00000000        0xc build/stm32n6xx_hal.o
 .text.HAL_SYSCFG_GetSVTORAddress
                0x00000000       0x14 build/stm32n6xx_hal.o
 .text.HAL_SYSCFG_SetNSVTORAddress
                0x00000000        0xc build/stm32n6xx_hal.o
 .text.HAL_SYSCFG_GetNSVTORAddress
                0x00000000       0x14 build/stm32n6xx_hal.o
 .text.HAL_SYSCFG_EnablePowerOnReset
                0x00000000       0x10 build/stm32n6xx_hal.o
 .text.HAL_SYSCFG_DisablePowerOnReset
                0x00000000       0x10 build/stm32n6xx_hal.o
 .text.HAL_SYSCFG_EnableLockupWarmResetonRCC
                0x00000000       0x10 build/stm32n6xx_hal.o
 .text.HAL_SYSCFG_DisableLockupWarmResetonRCC
                0x00000000       0x10 build/stm32n6xx_hal.o
 .text.HAL_SYSCFG_EnableLockupGenerateNMI
                0x00000000       0x10 build/stm32n6xx_hal.o
 .text.HAL_SYSCFG_DisableLockupGenerateNMI
                0x00000000       0x10 build/stm32n6xx_hal.o
 .text.HAL_SYSCFG_ReEnableWritePostingErrorCapture
                0x00000000       0x1c build/stm32n6xx_hal.o
 .text.HAL_SYSCFG_EnableVENCRAMReserved
                0x00000000       0x10 build/stm32n6xx_hal.o
 .text.HAL_SYSCFG_DisableVENCRAMReserved
                0x00000000       0x10 build/stm32n6xx_hal.o
 .text.HAL_SYSCFG_EnableCRYPPotentialTamper
                0x00000000       0x10 build/stm32n6xx_hal.o
 .text.HAL_SYSCFG_DisableCRYPPotentialTamper
                0x00000000       0x10 build/stm32n6xx_hal.o
 .text.HAL_SYSCFG_SetWriteQosNP1
                0x00000000       0x14 build/stm32n6xx_hal.o
 .text.HAL_SYSCFG_GetWriteQosNP1
                0x00000000       0x18 build/stm32n6xx_hal.o
 .text.HAL_SYSCFG_SetReadQosNP1
                0x00000000       0x14 build/stm32n6xx_hal.o
 .text.HAL_SYSCFG_GetReadQosNP1
                0x00000000       0x18 build/stm32n6xx_hal.o
 .text.HAL_SYSCFG_SetWriteQosNP2
                0x00000000       0x14 build/stm32n6xx_hal.o
 .text.HAL_SYSCFG_GetWriteQosNP2
                0x00000000       0x18 build/stm32n6xx_hal.o
 .text.HAL_SYSCFG_SetReadQosNP2
                0x00000000       0x14 build/stm32n6xx_hal.o
 .text.HAL_SYSCFG_GetReadQosNP2
                0x00000000       0x18 build/stm32n6xx_hal.o
 .text.HAL_SYSCFG_SetWriteQosCPUSS
                0x00000000       0x14 build/stm32n6xx_hal.o
 .text.HAL_SYSCFG_GetwriteQosCPUSS
                0x00000000       0x18 build/stm32n6xx_hal.o
 .text.HAL_SYSCFG_SetReadQosCPUSS
                0x00000000       0x14 build/stm32n6xx_hal.o
 .text.HAL_SYSCFG_GetReadQosCPUSS
                0x00000000       0x18 build/stm32n6xx_hal.o
 .text.HAL_SYSCFG_EnableSDMMCEarlyWRRESP
                0x00000000       0x10 build/stm32n6xx_hal.o
 .text.HAL_SYSCFG_DisableSDMMCEarlyWRRSP
                0x00000000       0x10 build/stm32n6xx_hal.o
 .text.HAL_SYSCFG_EnableUSBEarlyEarlyWRRESP
                0x00000000       0x10 build/stm32n6xx_hal.o
 .text.HAL_SYSCFG_DisableUSBEarlyEarlyWRRESP
                0x00000000       0x10 build/stm32n6xx_hal.o
 .text.HAL_SYSCFG_EnablexPUClockGating
                0x00000000       0x10 build/stm32n6xx_hal.o
 .text.HAL_SYSCFG_DisablexPUClockGating
                0x00000000       0x10 build/stm32n6xx_hal.o
 .text.HAL_SYSCFG_EnableVDDIO2CompensationCell
                0x00000000       0x10 build/stm32n6xx_hal.o
 .text.HAL_SYSCFG_DisableVDDIO2CompensationCell
                0x00000000       0x10 build/stm32n6xx_hal.o
 .text.HAL_SYSCFG_EnableVDDIO3CompensationCell
                0x00000000       0x10 build/stm32n6xx_hal.o
 .text.HAL_SYSCFG_DisableVDDIO3CompensationCell
                0x00000000       0x10 build/stm32n6xx_hal.o
 .text.HAL_SYSCFG_EnableVDDIO4CompensationCell
                0x00000000       0x10 build/stm32n6xx_hal.o
 .text.HAL_SYSCFG_DisableVDDIO4CompensationCell
                0x00000000       0x10 build/stm32n6xx_hal.o
 .text.HAL_SYSCFG_EnableVDDIO5CompensationCell
                0x00000000       0x10 build/stm32n6xx_hal.o
 .text.HAL_SYSCFG_DisableVDDIO5CompensationCell
                0x00000000       0x10 build/stm32n6xx_hal.o
 .text.HAL_SYSCFG_ConfigVDDIOCompensationCell
                0x00000000       0xc8 build/stm32n6xx_hal.o
 .text.HAL_SYSCFG_GetVDDIOCompensationCell
                0x00000000       0x90 build/stm32n6xx_hal.o
 .text.HAL_SYSCFG_GetCompVDDIO2CellReadyStatus
                0x00000000       0x10 build/stm32n6xx_hal.o
 .text.HAL_SYSCFG_GetCompVDDIO3CellReadyStatus
                0x00000000       0x10 build/stm32n6xx_hal.o
 .text.HAL_SYSCFG_GetCompVDDIO4CellReadyStatus
                0x00000000       0x10 build/stm32n6xx_hal.o
 .text.HAL_SYSCFG_GetCompVDDIO5CellReadyStatus
                0x00000000       0x10 build/stm32n6xx_hal.o
 .text.HAL_SYSCFG_ConfigVDDCompensationCell
                0x00000000       0x2c build/stm32n6xx_hal.o
 .text.HAL_SYSCFG_EnableVDDCompensationCell
                0x00000000       0x10 build/stm32n6xx_hal.o
 .text.HAL_SYSCFG_DisableVDDCompensationCell
                0x00000000       0x10 build/stm32n6xx_hal.o
 .text.HAL_SYSCFG_GetVDDCompensationCell
                0x00000000       0x30 build/stm32n6xx_hal.o
 .text.HAL_SYSCFG_GetCompensationVDDCellReadyStatus
                0x00000000       0x10 build/stm32n6xx_hal.o
 .text.HAL_SYSCFG_ConfigTimerBreakInput
                0x00000000       0x10 build/stm32n6xx_hal.o
 .text.HAL_SYSCFG_GetTimerBreakInputConfig
                0x00000000       0x14 build/stm32n6xx_hal.o
 .text.HAL_SYSCFG_SetPerceivedCID
                0x00000000       0x14 build/stm32n6xx_hal.o
 .text.HAL_SYSCFG_GetPerceivedCID
                0x00000000       0x10 build/stm32n6xx_hal.o
 .text.HAL_SYSCFG_SetPerceivedPrivCID
                0x00000000       0x18 build/stm32n6xx_hal.o
 .text.HAL_SYSCFG_GetPerceivedPrivCID
                0x00000000       0x10 build/stm32n6xx_hal.o
 .text.HAL_SYSCFG_EnableReTimingRXpath
                0x00000000       0x10 build/stm32n6xx_hal.o
 .text.HAL_SYSCFG_DisableReTimingRXpath
                0x00000000       0x10 build/stm32n6xx_hal.o
 .text.HAL_SYSCFG_EnableReTimingTXpath
                0x00000000       0x10 build/stm32n6xx_hal.o
 .text.HAL_SYSCFG_DisableReTimingTXpath
                0x00000000       0x10 build/stm32n6xx_hal.o
 .text.HAL_SYSCFG_SetDelayOnFeedbackClock
                0x00000000       0x14 build/stm32n6xx_hal.o
 .text.HAL_SYSCFG_GetDelayOnFeedbackClock
                0x00000000       0x10 build/stm32n6xx_hal.o
 .text.HAL_SYSCFG_EnableInterleavingCpuRam
                0x00000000       0x10 build/stm32n6xx_hal.o
 .text.HAL_SYSCFG_DisableInterleavingCpuRam
                0x00000000       0x10 build/stm32n6xx_hal.o
 .text.HAL_SYSCFG_GetBootPinConnection
                0x00000000       0x18 build/stm32n6xx_hal.o
 .text.HAL_SYSCFG_GetAddressWritePostingBuffer
                0x00000000        0xc build/stm32n6xx_hal.o
 .text.HAL_FMC_SetBankSwapConfig
                0x00000000       0x14 build/stm32n6xx_hal.o
 .text.HAL_FMC_GetBankSwapConfig
                0x00000000       0x10 build/stm32n6xx_hal.o
 .text          0x00000000        0x0 build/stm32n6xx_hal_rcc.o
 .data          0x00000000        0x0 build/stm32n6xx_hal_rcc.o
 .bss           0x00000000        0x0 build/stm32n6xx_hal_rcc.o
 .text.LL_RCC_ConfigMCO
                0x00000000       0x30 build/stm32n6xx_hal_rcc.o
 .text.RCC_PLL_IsNewConfig
                0x00000000       0x94 build/stm32n6xx_hal_rcc.o
 .text.RCC_PLL_Source_IsReady
                0x00000000       0x40 build/stm32n6xx_hal_rcc.o
 .text.RCC_IC_CheckPLLSources
                0x00000000      0x114 build/stm32n6xx_hal_rcc.o
 .text.RCC_ATTR_ConfigItemGroup
                0x00000000       0xcc build/stm32n6xx_hal_rcc.o
 .text.RCC_PLL_Config
                0x00000000      0x174 build/stm32n6xx_hal_rcc.o
 .text.RCC_PLL_Enable
                0x00000000       0x34 build/stm32n6xx_hal_rcc.o
 .text.HAL_RCC_DeInit
                0x00000000      0x13c build/stm32n6xx_hal_rcc.o
 .text.HAL_RCC_OscConfig
                0x00000000      0x6b8 build/stm32n6xx_hal_rcc.o
 .text.HAL_RCC_MCOConfig
                0x00000000       0xf0 build/stm32n6xx_hal_rcc.o
 .text.HAL_RCC_EnableCSS
                0x00000000       0x10 build/stm32n6xx_hal_rcc.o
 .text.HAL_RCC_GetCpuClockFreq
                0x00000000       0xb4 build/stm32n6xx_hal_rcc.o
 .text.HAL_RCC_ClockConfig
                0x00000000      0x30c build/stm32n6xx_hal_rcc.o
 .text.HAL_RCC_GetNPUClockFreq
                0x00000000       0x20 build/stm32n6xx_hal_rcc.o
 .text.HAL_RCC_GetNPURAMSClockFreq
                0x00000000       0x20 build/stm32n6xx_hal_rcc.o
 .text.HAL_RCC_GetHCLKFreq
                0x00000000       0x18 build/stm32n6xx_hal_rcc.o
 .text.HAL_RCC_GetPCLK1Freq
                0x00000000       0x20 build/stm32n6xx_hal_rcc.o
 .text.HAL_RCC_GetPCLK2Freq
                0x00000000       0x20 build/stm32n6xx_hal_rcc.o
 .text.HAL_RCC_GetPCLK4Freq
                0x00000000       0x20 build/stm32n6xx_hal_rcc.o
 .text.HAL_RCC_GetPCLK5Freq
                0x00000000       0x20 build/stm32n6xx_hal_rcc.o
 .text.HAL_RCC_GetOscConfig
                0x00000000      0x23c build/stm32n6xx_hal_rcc.o
 .text.HAL_RCC_GetClockConfig
                0x00000000       0x84 build/stm32n6xx_hal_rcc.o
 .text.HAL_RCC_CSSCallback
                0x00000000        0x2 build/stm32n6xx_hal_rcc.o
 .text.HAL_RCC_NMI_IRQHandler
                0x00000000       0x28 build/stm32n6xx_hal_rcc.o
 .text.HAL_RCC_ConfigAttributes
                0x00000000       0x80 build/stm32n6xx_hal_rcc.o
 .text.HAL_RCC_GetConfigAttributes
                0x00000000       0x84 build/stm32n6xx_hal_rcc.o
 .text          0x00000000        0x0 build/stm32n6xx_hal_rcc_ex.o
 .data          0x00000000        0x0 build/stm32n6xx_hal_rcc_ex.o
 .bss           0x00000000        0x0 build/stm32n6xx_hal_rcc_ex.o
 .text.HAL_RCCEx_GetPeriphCLKConfig
                0x00000000      0x3a8 build/stm32n6xx_hal_rcc_ex.o
 .text.HAL_RCCEx_GetTIMGFreq
                0x00000000       0x18 build/stm32n6xx_hal_rcc_ex.o
 .text.HAL_RCCEx_WakeUpStopCLKConfig
                0x00000000       0x14 build/stm32n6xx_hal_rcc_ex.o
 .text.HAL_RCCEx_EnableLSECSS
                0x00000000       0x10 build/stm32n6xx_hal_rcc_ex.o
 .text.HAL_RCCEx_DisableLSECSS
                0x00000000       0x1c build/stm32n6xx_hal_rcc_ex.o
 .text.HAL_RCCEx_EnableLSECSS_IT
                0x00000000       0x1c build/stm32n6xx_hal_rcc_ex.o
 .text.HAL_RCCEx_DisableLSECSS_IT
                0x00000000       0x1c build/stm32n6xx_hal_rcc_ex.o
 .text.HAL_RCCEx_ReArmLSECSS
                0x00000000       0x10 build/stm32n6xx_hal_rcc_ex.o
 .text.HAL_RCCEx_LSECSS_Callback
                0x00000000        0x2 build/stm32n6xx_hal_rcc_ex.o
 .text.HAL_RCCEx_LSECSS_IRQHandler
                0x00000000       0x24 build/stm32n6xx_hal_rcc_ex.o
 .text.HAL_RCCEx_PLLSSCGConfig
                0x00000000      0x11c build/stm32n6xx_hal_rcc_ex.o
 .text          0x00000000        0x0 build/stm32n6xx_hal_gpio.o
 .data          0x00000000        0x0 build/stm32n6xx_hal_gpio.o
 .bss           0x00000000        0x0 build/stm32n6xx_hal_gpio.o
 .text.HAL_GPIO_DeInit
                0x00000000      0x1a8 build/stm32n6xx_hal_gpio.o
 .text.HAL_GPIO_ReadPin
                0x00000000        0xe build/stm32n6xx_hal_gpio.o
 .text.HAL_GPIO_WritePin
                0x00000000        0xa build/stm32n6xx_hal_gpio.o
 .text.HAL_GPIO_WriteMultipleStatePin
                0x00000000        0x8 build/stm32n6xx_hal_gpio.o
 .text.HAL_GPIO_LockPin
                0x00000000       0x2e build/stm32n6xx_hal_gpio.o
 .text.HAL_GPIO_SetRetime
                0x00000000       0x56 build/stm32n6xx_hal_gpio.o
 .text.HAL_GPIO_GetRetime
                0x00000000       0x4c build/stm32n6xx_hal_gpio.o
 .text.HAL_GPIO_SetDelay
                0x00000000       0x6a build/stm32n6xx_hal_gpio.o
 .text.HAL_GPIO_GetDelay
                0x00000000       0x50 build/stm32n6xx_hal_gpio.o
 .text.HAL_GPIO_EXTI_Rising_Callback
                0x00000000        0x2 build/stm32n6xx_hal_gpio.o
 .text.HAL_GPIO_EXTI_Falling_Callback
                0x00000000        0x2 build/stm32n6xx_hal_gpio.o
 .text.HAL_GPIO_EXTI_IRQHandler
                0x00000000       0x30 build/stm32n6xx_hal_gpio.o
 .text.HAL_GPIO_LockPinAttributes
                0x00000000        0x4 build/stm32n6xx_hal_gpio.o
 .text.HAL_GPIO_GetLockPinAttributes
                0x00000000        0x4 build/stm32n6xx_hal_gpio.o
 .text.HAL_GPIO_GetConfigPinAttributes
                0x00000000       0x3c build/stm32n6xx_hal_gpio.o
 .text          0x00000000        0x0 build/stm32n6xx_hal_pwr.o
 .data          0x00000000        0x0 build/stm32n6xx_hal_pwr.o
 .bss           0x00000000        0x0 build/stm32n6xx_hal_pwr.o
 .text.HAL_PWR_DeInit
                0x00000000        0x2 build/stm32n6xx_hal_pwr.o
 .text.HAL_PWR_EnableBkUpAccess
                0x00000000        0xc build/stm32n6xx_hal_pwr.o
 .text.HAL_PWR_DisableBkUpAccess
                0x00000000        0xc build/stm32n6xx_hal_pwr.o
 .text.HAL_PWR_ConfigPVD
                0x00000000       0x80 build/stm32n6xx_hal_pwr.o
 .text.HAL_PWR_EnablePVD
                0x00000000       0x10 build/stm32n6xx_hal_pwr.o
 .text.HAL_PWR_DisablePVD
                0x00000000       0x10 build/stm32n6xx_hal_pwr.o
 .text.HAL_PWR_EnableWakeUpPin
                0x00000000       0x10 build/stm32n6xx_hal_pwr.o
 .text.HAL_PWR_DisableWakeUpPin
                0x00000000       0x14 build/stm32n6xx_hal_pwr.o
 .text.HAL_PWR_GetWakeupFlag
                0x00000000        0xc build/stm32n6xx_hal_pwr.o
 .text.HAL_PWR_ClearWakeupFlag
                0x00000000       0x18 build/stm32n6xx_hal_pwr.o
 .text.HAL_PWR_EnterSLEEPMode
                0x00000000       0x24 build/stm32n6xx_hal_pwr.o
 .text.HAL_PWR_EnterSTOPMode
                0x00000000       0x44 build/stm32n6xx_hal_pwr.o
 .text.HAL_PWR_EnterSTANDBYMode
                0x00000000       0x28 build/stm32n6xx_hal_pwr.o
 .text.HAL_PWR_EnableSleepOnExit
                0x00000000       0x10 build/stm32n6xx_hal_pwr.o
 .text.HAL_PWR_DisableSleepOnExit
                0x00000000       0x10 build/stm32n6xx_hal_pwr.o
 .text.HAL_PWR_EnableSEVOnPend
                0x00000000       0x10 build/stm32n6xx_hal_pwr.o
 .text.HAL_PWR_DisableSEVOnPend
                0x00000000       0x10 build/stm32n6xx_hal_pwr.o
 .text.HAL_PWR_PVD_Rising_Callback
                0x00000000        0x2 build/stm32n6xx_hal_pwr.o
 .text.HAL_PWR_PVD_Falling_Callback
                0x00000000        0x2 build/stm32n6xx_hal_pwr.o
 .text.HAL_PWR_WKUP1_Callback
                0x00000000        0x2 build/stm32n6xx_hal_pwr.o
 .text.HAL_PWR_WKUP2_Callback
                0x00000000        0x2 build/stm32n6xx_hal_pwr.o
 .text.HAL_PWR_WKUP3_Callback
                0x00000000        0x2 build/stm32n6xx_hal_pwr.o
 .text.HAL_PWR_WKUP4_Callback
                0x00000000        0x2 build/stm32n6xx_hal_pwr.o
 .text.HAL_PWR_WAKEUP_PIN_IRQHandler
                0x00000000       0x70 build/stm32n6xx_hal_pwr.o
 .text.HAL_PWR_ConfigAttributes
                0x00000000       0x64 build/stm32n6xx_hal_pwr.o
 .text.HAL_PWR_GetConfigAttributes
                0x00000000       0x3c build/stm32n6xx_hal_pwr.o
 .debug_info    0x00000000      0xd14 build/stm32n6xx_hal_pwr.o
 .debug_abbrev  0x00000000      0x1e4 build/stm32n6xx_hal_pwr.o
 .debug_loc     0x00000000      0x18e build/stm32n6xx_hal_pwr.o
 .debug_aranges
                0x00000000       0xe8 build/stm32n6xx_hal_pwr.o
 .debug_ranges  0x00000000       0xd8 build/stm32n6xx_hal_pwr.o
 .debug_line    0x00000000      0x574 build/stm32n6xx_hal_pwr.o
 .debug_str     0x00000000      0x783 build/stm32n6xx_hal_pwr.o
 .comment       0x00000000       0x1f build/stm32n6xx_hal_pwr.o
 .debug_frame   0x00000000      0x1b8 build/stm32n6xx_hal_pwr.o
 .ARM.attributes
                0x00000000       0x3e build/stm32n6xx_hal_pwr.o
 .text          0x00000000        0x0 build/stm32n6xx_hal_pwr_ex.o
 .data          0x00000000        0x0 build/stm32n6xx_hal_pwr_ex.o
 .bss           0x00000000        0x0 build/stm32n6xx_hal_pwr_ex.o
 .text.HAL_PWREx_ConfigSupply
                0x00000000       0x38 build/stm32n6xx_hal_pwr_ex.o
 .text.HAL_PWREx_GetSupplyConfig
                0x00000000       0x10 build/stm32n6xx_hal_pwr_ex.o
 .text.HAL_PWREx_ControlVoltageScaling
                0x00000000       0x38 build/stm32n6xx_hal_pwr_ex.o
 .text.HAL_PWREx_GetVoltageRange
                0x00000000       0x10 build/stm32n6xx_hal_pwr_ex.o
 .text.HAL_PWREx_ControlStopModeVoltageScaling
                0x00000000       0x14 build/stm32n6xx_hal_pwr_ex.o
 .text.HAL_PWREx_GetStopModeVoltageRange
                0x00000000       0x10 build/stm32n6xx_hal_pwr_ex.o
 .text.HAL_PWREx_EnableWakeUpPin
                0x00000000       0xac build/stm32n6xx_hal_pwr_ex.o
 .text.HAL_PWREx_EnableBkupRAMRetention
                0x00000000       0x10 build/stm32n6xx_hal_pwr_ex.o
 .text.HAL_PWREx_DisableBkupRAMRetention
                0x00000000       0x10 build/stm32n6xx_hal_pwr_ex.o
 .text.HAL_PWREx_EnableTCMRetention
                0x00000000       0x10 build/stm32n6xx_hal_pwr_ex.o
 .text.HAL_PWREx_DisableTCMRetention
                0x00000000       0x10 build/stm32n6xx_hal_pwr_ex.o
 .text.HAL_PWREx_EnableTCMFLXRetention
                0x00000000       0x10 build/stm32n6xx_hal_pwr_ex.o
 .text.HAL_PWREx_DisableTCMFLXRetention
                0x00000000       0x10 build/stm32n6xx_hal_pwr_ex.o
 .text.HAL_PWREx_SetPulseLow
                0x00000000       0x14 build/stm32n6xx_hal_pwr_ex.o
 .text.HAL_PWREx_GetPulseLow
                0x00000000       0x10 build/stm32n6xx_hal_pwr_ex.o
 .text.HAL_PWREx_EnableSMPSPWM
                0x00000000       0x10 build/stm32n6xx_hal_pwr_ex.o
 .text.HAL_PWREx_DisableSMPSPWM
                0x00000000       0x10 build/stm32n6xx_hal_pwr_ex.o
 .text.HAL_PWREx_EnablePullDownOutput
                0x00000000       0x10 build/stm32n6xx_hal_pwr_ex.o
 .text.HAL_PWREx_DisablePullDownOutput
                0x00000000       0x10 build/stm32n6xx_hal_pwr_ex.o
 .text.HAL_PWREx_EnableMonitoring
                0x00000000       0x10 build/stm32n6xx_hal_pwr_ex.o
 .text.HAL_PWREx_DisableMonitoring
                0x00000000       0x10 build/stm32n6xx_hal_pwr_ex.o
 .text.HAL_PWREx_GetTemperatureLevel
                0x00000000       0x1c build/stm32n6xx_hal_pwr_ex.o
 .text.HAL_PWREx_GetVBATLevel
                0x00000000       0x1c build/stm32n6xx_hal_pwr_ex.o
 .text.HAL_PWREx_EnableVDDCOREMonitoring
                0x00000000       0x10 build/stm32n6xx_hal_pwr_ex.o
 .text.HAL_PWREx_DisableVDDCOREMonitoring
                0x00000000       0x10 build/stm32n6xx_hal_pwr_ex.o
 .text.HAL_PWREx_ConfigVDDCOREVM
                0x00000000       0x94 build/stm32n6xx_hal_pwr_ex.o
 .text.HAL_PWREx_GetVDDCORELevel
                0x00000000       0x1c build/stm32n6xx_hal_pwr_ex.o
 .text.HAL_PWREx_ConfigVddIORange
                0x00000000       0x64 build/stm32n6xx_hal_pwr_ex.o
 .text.HAL_PWREx_GetVddIORange
                0x00000000       0x48 build/stm32n6xx_hal_pwr_ex.o
 .text.HAL_PWREx_EnableVddIO4RangeSTBY
                0x00000000       0x10 build/stm32n6xx_hal_pwr_ex.o
 .text.HAL_PWREx_DisableVddIO4RangeSTBY
                0x00000000       0x10 build/stm32n6xx_hal_pwr_ex.o
 .text.HAL_PWREx_EnableVddIO5RangeSTBY
                0x00000000       0x10 build/stm32n6xx_hal_pwr_ex.o
 .text.HAL_PWREx_DisableVddIO5RangeSTBY
                0x00000000       0x10 build/stm32n6xx_hal_pwr_ex.o
 .text.HAL_PWREx_EnableVddUSB
                0x00000000       0x10 build/stm32n6xx_hal_pwr_ex.o
 .text.HAL_PWREx_DisableVddUSB
                0x00000000       0x10 build/stm32n6xx_hal_pwr_ex.o
 .text.HAL_PWREx_DisableVddIO2
                0x00000000       0x10 build/stm32n6xx_hal_pwr_ex.o
 .text.HAL_PWREx_DisableVddIO3
                0x00000000       0x10 build/stm32n6xx_hal_pwr_ex.o
 .text.HAL_PWREx_DisableVddIO4
                0x00000000       0x10 build/stm32n6xx_hal_pwr_ex.o
 .text.HAL_PWREx_DisableVddIO5
                0x00000000       0x10 build/stm32n6xx_hal_pwr_ex.o
 .text.HAL_PWREx_EnableVddA
                0x00000000       0x10 build/stm32n6xx_hal_pwr_ex.o
 .text.HAL_PWREx_DisableVddA
                0x00000000       0x10 build/stm32n6xx_hal_pwr_ex.o
 .text.HAL_PWREx_EnableVddUSBVMEN
                0x00000000       0x10 build/stm32n6xx_hal_pwr_ex.o
 .text.HAL_PWREx_DisableVddUSBVMEN
                0x00000000       0x10 build/stm32n6xx_hal_pwr_ex.o
 .text.HAL_PWREx_EnableVddIO2VMEN
                0x00000000       0x10 build/stm32n6xx_hal_pwr_ex.o
 .text.HAL_PWREx_DisableVddIO2VMEN
                0x00000000       0x10 build/stm32n6xx_hal_pwr_ex.o
 .text.HAL_PWREx_EnableVddIO3VMEN
                0x00000000       0x10 build/stm32n6xx_hal_pwr_ex.o
 .text.HAL_PWREx_DisableVddIO3VMEN
                0x00000000       0x10 build/stm32n6xx_hal_pwr_ex.o
 .text.HAL_PWREx_EnableVddIO4VMEN
                0x00000000       0x10 build/stm32n6xx_hal_pwr_ex.o
 .text.HAL_PWREx_DisableVddIO4VMEN
                0x00000000       0x10 build/stm32n6xx_hal_pwr_ex.o
 .text.HAL_PWREx_EnableVddIO5VMEN
                0x00000000       0x10 build/stm32n6xx_hal_pwr_ex.o
 .text.HAL_PWREx_DisableVddIO5VMEN
                0x00000000       0x10 build/stm32n6xx_hal_pwr_ex.o
 .text.HAL_PWREx_EnableVddAVMEN
                0x00000000       0x10 build/stm32n6xx_hal_pwr_ex.o
 .text.HAL_PWREx_DisableVddAVMEN
                0x00000000       0x10 build/stm32n6xx_hal_pwr_ex.o
 .text.HAL_PWREx_ConfigPVM
                0x00000000      0x318 build/stm32n6xx_hal_pwr_ex.o
 .text.HAL_PWREx_VDDCORE_Rising_Callback
                0x00000000        0x2 build/stm32n6xx_hal_pwr_ex.o
 .text.HAL_PWREx_VDDCORE_Falling_Callback
                0x00000000        0x2 build/stm32n6xx_hal_pwr_ex.o
 .text.HAL_PWREx_USBVM_Rising_Callback
                0x00000000        0x2 build/stm32n6xx_hal_pwr_ex.o
 .text.HAL_PWREx_USBVM_Falling_Callback
                0x00000000        0x2 build/stm32n6xx_hal_pwr_ex.o
 .text.HAL_PWREx_IO2VM_Rising_Callback
                0x00000000        0x2 build/stm32n6xx_hal_pwr_ex.o
 .text.HAL_PWREx_IO2VM_Falling_Callback
                0x00000000        0x2 build/stm32n6xx_hal_pwr_ex.o
 .text.HAL_PWREx_IO3VM_Rising_Callback
                0x00000000        0x2 build/stm32n6xx_hal_pwr_ex.o
 .text.HAL_PWREx_IO3VM_Falling_Callback
                0x00000000        0x2 build/stm32n6xx_hal_pwr_ex.o
 .text.HAL_PWREx_IO4VM_Rising_Callback
                0x00000000        0x2 build/stm32n6xx_hal_pwr_ex.o
 .text.HAL_PWREx_IO4VM_Falling_Callback
                0x00000000        0x2 build/stm32n6xx_hal_pwr_ex.o
 .text.HAL_PWREx_IO5VM_Rising_Callback
                0x00000000        0x2 build/stm32n6xx_hal_pwr_ex.o
 .text.HAL_PWREx_IO5VM_Falling_Callback
                0x00000000        0x2 build/stm32n6xx_hal_pwr_ex.o
 .text.HAL_PWREx_ADCVM_Rising_Callback
                0x00000000        0x2 build/stm32n6xx_hal_pwr_ex.o
 .text.HAL_PWREx_ADCVM_Falling_Callback
                0x00000000        0x2 build/stm32n6xx_hal_pwr_ex.o
 .text.HAL_PWREx_PVD_PVM_IRQHandler
                0x00000000      0x138 build/stm32n6xx_hal_pwr_ex.o
 .text          0x00000000        0x0 build/stm32n6xx_hal_uart.o
 .data          0x00000000        0x0 build/stm32n6xx_hal_uart.o
 .bss           0x00000000        0x0 build/stm32n6xx_hal_uart.o
 .text.UART_EndTxTransfer
                0x00000000       0x32 build/stm32n6xx_hal_uart.o
 .text.UART_TxISR_8BIT
                0x00000000       0x50 build/stm32n6xx_hal_uart.o
 .text.UART_TxISR_16BIT
                0x00000000       0x54 build/stm32n6xx_hal_uart.o
 .text.UART_TxISR_8BIT_FIFOEN
                0x00000000       0x6e build/stm32n6xx_hal_uart.o
 .text.UART_TxISR_16BIT_FIFOEN
                0x00000000       0x72 build/stm32n6xx_hal_uart.o
 .text.HAL_UART_MspInit
                0x00000000        0x2 build/stm32n6xx_hal_uart.o
 .text.HAL_UART_MspDeInit
                0x00000000        0x2 build/stm32n6xx_hal_uart.o
 .text.HAL_UART_DeInit
                0x00000000       0x44 build/stm32n6xx_hal_uart.o
 .text.HAL_UART_Transmit_IT
                0x00000000       0xa4 build/stm32n6xx_hal_uart.o
 .text.HAL_UART_Transmit_DMA
                0x00000000       0xe0 build/stm32n6xx_hal_uart.o
 .text.HAL_UART_DMAPause
                0x00000000       0xae build/stm32n6xx_hal_uart.o
 .text.HAL_UART_DMAResume
                0x00000000       0x7c build/stm32n6xx_hal_uart.o
 .text.HAL_UART_DMAStop
                0x00000000       0xac build/stm32n6xx_hal_uart.o
 .text.HAL_UART_Abort
                0x00000000      0x112 build/stm32n6xx_hal_uart.o
 .text.HAL_UART_AbortTransmit
                0x00000000       0x90 build/stm32n6xx_hal_uart.o
 .text.HAL_UART_AbortReceive
                0x00000000       0xb2 build/stm32n6xx_hal_uart.o
 .text.HAL_UART_TxCpltCallback
                0x00000000        0x2 build/stm32n6xx_hal_uart.o
 .text.UART_DMATransmitCplt
                0x00000000       0x3e build/stm32n6xx_hal_uart.o
 .text.UART_EndTransmit_IT
                0x00000000       0x22 build/stm32n6xx_hal_uart.o
 .text.HAL_UART_TxHalfCpltCallback
                0x00000000        0x2 build/stm32n6xx_hal_uart.o
 .text.UART_DMATxHalfCplt
                0x00000000        0xa build/stm32n6xx_hal_uart.o
 .text.HAL_UART_RxCpltCallback
                0x00000000        0x2 build/stm32n6xx_hal_uart.o
 .text.HAL_UART_RxHalfCpltCallback
                0x00000000        0x2 build/stm32n6xx_hal_uart.o
 .text.HAL_UART_ErrorCallback
                0x00000000        0x2 build/stm32n6xx_hal_uart.o
 .text.UART_DMAError
                0x00000000       0x4e build/stm32n6xx_hal_uart.o
 .text.UART_DMAAbortOnError
                0x00000000        0xa build/stm32n6xx_hal_uart.o
 .text.HAL_UART_AbortCpltCallback
                0x00000000        0x2 build/stm32n6xx_hal_uart.o
 .text.HAL_UART_Abort_IT
                0x00000000      0x14c build/stm32n6xx_hal_uart.o
 .text.UART_DMARxAbortCallback
                0x00000000       0x3c build/stm32n6xx_hal_uart.o
 .text.UART_DMATxAbortCallback
                0x00000000       0x46 build/stm32n6xx_hal_uart.o
 .text.HAL_UART_AbortTransmitCpltCallback
                0x00000000        0x2 build/stm32n6xx_hal_uart.o
 .text.HAL_UART_AbortTransmit_IT
                0x00000000       0xa4 build/stm32n6xx_hal_uart.o
 .text.UART_DMATxOnlyAbortCallback
                0x00000000       0x24 build/stm32n6xx_hal_uart.o
 .text.HAL_UART_AbortReceiveCpltCallback
                0x00000000        0x2 build/stm32n6xx_hal_uart.o
 .text.HAL_UART_AbortReceive_IT
                0x00000000       0xd0 build/stm32n6xx_hal_uart.o
 .text.UART_DMARxOnlyAbortCallback
                0x00000000       0x24 build/stm32n6xx_hal_uart.o
 .text.HAL_UARTEx_RxEventCallback
                0x00000000        0x2 build/stm32n6xx_hal_uart.o
 .text.HAL_UART_IRQHandler
                0x00000000      0x368 build/stm32n6xx_hal_uart.o
 .text.UART_RxISR_8BIT
                0x00000000       0xdc build/stm32n6xx_hal_uart.o
 .text.UART_RxISR_16BIT
                0x00000000       0xd8 build/stm32n6xx_hal_uart.o
 .text.UART_RxISR_8BIT_FIFOEN
                0x00000000      0x1c8 build/stm32n6xx_hal_uart.o
 .text.UART_RxISR_16BIT_FIFOEN
                0x00000000      0x1c4 build/stm32n6xx_hal_uart.o
 .text.UART_DMARxHalfCplt
                0x00000000       0x3c build/stm32n6xx_hal_uart.o
 .text.UART_DMAReceiveCplt
                0x00000000       0xa2 build/stm32n6xx_hal_uart.o
 .text.HAL_UART_ReceiverTimeout_Config
                0x00000000       0x20 build/stm32n6xx_hal_uart.o
 .text.HAL_UART_EnableReceiverTimeout
                0x00000000       0x50 build/stm32n6xx_hal_uart.o
 .text.HAL_UART_DisableReceiverTimeout
                0x00000000       0x50 build/stm32n6xx_hal_uart.o
 .text.HAL_MultiProcessor_EnterMuteMode
                0x00000000        0xc build/stm32n6xx_hal_uart.o
 .text.HAL_HalfDuplex_EnableTransmitter
                0x00000000       0x4a build/stm32n6xx_hal_uart.o
 .text.HAL_HalfDuplex_EnableReceiver
                0x00000000       0x4a build/stm32n6xx_hal_uart.o
 .text.HAL_LIN_SendBreak
                0x00000000       0x32 build/stm32n6xx_hal_uart.o
 .text.HAL_UART_GetState
                0x00000000        0xc build/stm32n6xx_hal_uart.o
 .text.HAL_UART_GetError
                0x00000000        0x6 build/stm32n6xx_hal_uart.o
 .text.HAL_UART_Receive
                0x00000000      0x11c build/stm32n6xx_hal_uart.o
 .text.HAL_HalfDuplex_Init
                0x00000000       0x72 build/stm32n6xx_hal_uart.o
 .text.HAL_LIN_Init
                0x00000000       0x94 build/stm32n6xx_hal_uart.o
 .text.HAL_MultiProcessor_Init
                0x00000000       0x8e build/stm32n6xx_hal_uart.o
 .text.HAL_MultiProcessor_EnableMuteMode
                0x00000000       0x38 build/stm32n6xx_hal_uart.o
 .text.HAL_MultiProcessor_DisableMuteMode
                0x00000000       0x38 build/stm32n6xx_hal_uart.o
 .text.UART_Start_Receive_IT
                0x00000000      0x138 build/stm32n6xx_hal_uart.o
 .text.HAL_UART_Receive_IT
                0x00000000       0x54 build/stm32n6xx_hal_uart.o
 .text.UART_Start_Receive_DMA
                0x00000000      0x104 build/stm32n6xx_hal_uart.o
 .text.HAL_UART_Receive_DMA
                0x00000000       0x54 build/stm32n6xx_hal_uart.o
 .text          0x00000000        0x0 build/stm32n6xx_hal_dcmipp.o
 .data          0x00000000        0x0 build/stm32n6xx_hal_dcmipp.o
 .bss           0x00000000        0x0 build/stm32n6xx_hal_dcmipp.o
 .text.DCMIPP_CSI_WritePHYReg
                0x00000000       0x74 build/stm32n6xx_hal_dcmipp.o
 .text.DCMIPP_SetConfig
                0x00000000       0x98 build/stm32n6xx_hal_dcmipp.o
 .text.DCMIPP_SetDBMConfig
                0x00000000       0xd2 build/stm32n6xx_hal_dcmipp.o
 .text.DCMIPP_EnableCapture
                0x00000000       0x68 build/stm32n6xx_hal_dcmipp.o
 .text.DCMIPP_Stop
                0x00000000      0x12e build/stm32n6xx_hal_dcmipp.o
 .text.DCMIPP_CSI_SetVCConfig
                0x00000000       0xc8 build/stm32n6xx_hal_dcmipp.o
 .text.DCMIPP_CSI_VCStop
                0x00000000       0x80 build/stm32n6xx_hal_dcmipp.o
 .text.HAL_DCMIPP_MspInit
                0x00000000        0x2 build/stm32n6xx_hal_dcmipp.o
 .text.HAL_DCMIPP_MspDeInit
                0x00000000        0x2 build/stm32n6xx_hal_dcmipp.o
 .text.HAL_DCMIPP_DeInit
                0x00000000       0x74 build/stm32n6xx_hal_dcmipp.o
 .text.HAL_DCMIPP_CSI_SetConfig
                0x00000000      0x15c build/stm32n6xx_hal_dcmipp.o
 .text.HAL_DCMIPP_CSI_PIPE_SetConfig
                0x00000000       0xd0 build/stm32n6xx_hal_dcmipp.o
 .text.HAL_DCMIPP_CSI_SetVCFilteringConfig
                0x00000000       0xec build/stm32n6xx_hal_dcmipp.o
 .text.HAL_DCMIPP_CSI_SetVCConfig
                0x00000000       0x48 build/stm32n6xx_hal_dcmipp.o
 .text.HAL_DCMIPP_SetIPPlugConfig
                0x00000000      0x11a build/stm32n6xx_hal_dcmipp.o
 .text.HAL_DCMIPP_PIPE_Start
                0x00000000       0x3e build/stm32n6xx_hal_dcmipp.o
 .text.HAL_DCMIPP_PIPE_DoubleBufferStart
                0x00000000       0x4c build/stm32n6xx_hal_dcmipp.o
 .text.HAL_DCMIPP_PIPE_Stop
                0x00000000       0x34 build/stm32n6xx_hal_dcmipp.o
 .text.HAL_DCMIPP_PIPE_SemiPlanarStart
                0x00000000       0x56 build/stm32n6xx_hal_dcmipp.o
 .text.HAL_DCMIPP_PIPE_SemiPlanarDoubleBufferStart
                0x00000000       0x7c build/stm32n6xx_hal_dcmipp.o
 .text.HAL_DCMIPP_PIPE_FullPlanarStart
                0x00000000       0x66 build/stm32n6xx_hal_dcmipp.o
 .text.HAL_DCMIPP_PIPE_FullPlanarDoubleBufferStart
                0x00000000       0x9c build/stm32n6xx_hal_dcmipp.o
 .text.HAL_DCMIPP_CSI_PIPE_Start
                0x00000000       0x52 build/stm32n6xx_hal_dcmipp.o
 .text.HAL_DCMIPP_CSI_PIPE_DoubleBufferStart
                0x00000000       0x62 build/stm32n6xx_hal_dcmipp.o
 .text.HAL_DCMIPP_CSI_PIPE_Stop
                0x00000000       0x42 build/stm32n6xx_hal_dcmipp.o
 .text.HAL_DCMIPP_CSI_PIPE_SemiPlanarStart
                0x00000000       0x6e build/stm32n6xx_hal_dcmipp.o
 .text.HAL_DCMIPP_CSI_PIPE_SemiPlanarDoubleBufferStart
                0x00000000       0x98 build/stm32n6xx_hal_dcmipp.o
 .text.HAL_DCMIPP_CSI_PIPE_FullPlanarStart
                0x00000000       0x80 build/stm32n6xx_hal_dcmipp.o
 .text.HAL_DCMIPP_CSI_PIPE_FullPlanarDoubleBufferStart
                0x00000000       0xbc build/stm32n6xx_hal_dcmipp.o
 .text.HAL_DCMIPP_PIPE_Suspend
                0x00000000       0xda build/stm32n6xx_hal_dcmipp.o
 .text.HAL_DCMIPP_PIPE_Resume
                0x00000000       0x5e build/stm32n6xx_hal_dcmipp.o
 .text.HAL_DCMIPP_PIPE_FrameEventCallback
                0x00000000        0x2 build/stm32n6xx_hal_dcmipp.o
 .text.HAL_DCMIPP_PIPE_VsyncEventCallback
                0x00000000        0x2 build/stm32n6xx_hal_dcmipp.o
 .text.HAL_DCMIPP_PIPE_LineEventCallback
                0x00000000        0x2 build/stm32n6xx_hal_dcmipp.o
 .text.HAL_DCMIPP_PIPE_LimitEventCallback
                0x00000000        0x2 build/stm32n6xx_hal_dcmipp.o
 .text.HAL_DCMIPP_PIPE_ErrorCallback
                0x00000000        0x2 build/stm32n6xx_hal_dcmipp.o
 .text.HAL_DCMIPP_ErrorCallback
                0x00000000        0x2 build/stm32n6xx_hal_dcmipp.o
 .text.HAL_DCMIPP_IRQHandler
                0x00000000      0x2e0 build/stm32n6xx_hal_dcmipp.o
 .text.HAL_DCMIPP_CSI_LineErrorCallback
                0x00000000        0x2 build/stm32n6xx_hal_dcmipp.o
 .text.HAL_DCMIPP_CSI_ClockChangerFifoFullEventCallback
                0x00000000        0x2 build/stm32n6xx_hal_dcmipp.o
 .text.HAL_DCMIPP_CSI_ShortPacketDetectionEventCallback
                0x00000000        0x2 build/stm32n6xx_hal_dcmipp.o
 .text.HAL_DCMIPP_CSI_EndOfFrameEventCallback
                0x00000000        0x2 build/stm32n6xx_hal_dcmipp.o
 .text.HAL_DCMIPP_CSI_StartOfFrameEventCallback
                0x00000000        0x2 build/stm32n6xx_hal_dcmipp.o
 .text.HAL_DCMIPP_CSI_TimerCounterEventCallback
                0x00000000        0x2 build/stm32n6xx_hal_dcmipp.o
 .text.HAL_DCMIPP_CSI_LineByteEventCallback
                0x00000000        0x2 build/stm32n6xx_hal_dcmipp.o
 .text.HAL_DCMIPP_CSI_IRQHandler
                0x00000000      0x77c build/stm32n6xx_hal_dcmipp.o
 .text.HAL_DCMIPP_PIPE_SetCropConfig
                0x00000000       0xe4 build/stm32n6xx_hal_dcmipp.o
 .text.HAL_DCMIPP_PIPE_EnableCrop
                0x00000000       0x62 build/stm32n6xx_hal_dcmipp.o
 .text.HAL_DCMIPP_PIPE_DisableCrop
                0x00000000       0x42 build/stm32n6xx_hal_dcmipp.o
 .text.HAL_DCMIPP_PIPE_SetBytesDecimationConfig
                0x00000000       0x36 build/stm32n6xx_hal_dcmipp.o
 .text.HAL_DCMIPP_PIPE_SetLinesDecimationConfig
                0x00000000       0x2e build/stm32n6xx_hal_dcmipp.o
 .text.HAL_DCMIPP_PIPE_EnableLimitEvent
                0x00000000       0x24 build/stm32n6xx_hal_dcmipp.o
 .text.HAL_DCMIPP_PIPE_DisableLimitEvent
                0x00000000       0x28 build/stm32n6xx_hal_dcmipp.o
 .text.HAL_DCMIPP_PIPE_SetISPDecimationConfig
                0x00000000       0x2e build/stm32n6xx_hal_dcmipp.o
 .text.HAL_DCMIPP_PIPE_EnableISPDecimation
                0x00000000       0x1c build/stm32n6xx_hal_dcmipp.o
 .text.HAL_DCMIPP_PIPE_DisableISPDecimation
                0x00000000       0x1c build/stm32n6xx_hal_dcmipp.o
 .text.HAL_DCMIPP_PIPE_SetDecimationConfig
                0x00000000       0x48 build/stm32n6xx_hal_dcmipp.o
 .text.HAL_DCMIPP_PIPE_EnableDecimation
                0x00000000       0x30 build/stm32n6xx_hal_dcmipp.o
 .text.HAL_DCMIPP_PIPE_DisableDecimation
                0x00000000       0x30 build/stm32n6xx_hal_dcmipp.o
 .text.HAL_DCMIPP_PIPE_SetDownsizeConfig
                0x00000000       0xaa build/stm32n6xx_hal_dcmipp.o
 .text.HAL_DCMIPP_PIPE_EnableDownsize
                0x00000000       0x30 build/stm32n6xx_hal_dcmipp.o
 .text.HAL_DCMIPP_PIPE_DisableDownsize
                0x00000000       0x30 build/stm32n6xx_hal_dcmipp.o
 .text.HAL_DCMIPP_PIPE_EnableGammaConversion
                0x00000000       0x30 build/stm32n6xx_hal_dcmipp.o
 .text.HAL_DCMIPP_PIPE_DisableGammaConversion
                0x00000000       0x30 build/stm32n6xx_hal_dcmipp.o
 .text.HAL_DCMIPP_PIPE_IsEnabledGammaConversion
                0x00000000       0x24 build/stm32n6xx_hal_dcmipp.o
 .text.HAL_DCMIPP_PIPE_SetISPRawBayer2RGBConfig
                0x00000000       0x40 build/stm32n6xx_hal_dcmipp.o
 .text.HAL_DCMIPP_PIPE_EnableISPRawBayer2RGB
                0x00000000       0x1c build/stm32n6xx_hal_dcmipp.o
 .text.HAL_DCMIPP_PIPE_DisableISPRawBayer2RGB
                0x00000000       0x1c build/stm32n6xx_hal_dcmipp.o
 .text.HAL_DCMIPP_PIPE_SetISPRemovalStatisticConfig
                0x00000000       0x22 build/stm32n6xx_hal_dcmipp.o
 .text.HAL_DCMIPP_PIPE_EnableISPRemovalStatistic
                0x00000000       0x1c build/stm32n6xx_hal_dcmipp.o
 .text.HAL_DCMIPP_PIPE_DisableISPRemovalStatistic
                0x00000000       0x1c build/stm32n6xx_hal_dcmipp.o
 .text.HAL_DCMIPP_PIPE_SetISPBadPixelRemovalConfig
                0x00000000       0x20 build/stm32n6xx_hal_dcmipp.o
 .text.HAL_DCMIPP_PIPE_EnableISPBadPixelRemoval
                0x00000000       0x1c build/stm32n6xx_hal_dcmipp.o
 .text.HAL_DCMIPP_PIPE_DisableISPBadPixelRemoval
                0x00000000       0x1c build/stm32n6xx_hal_dcmipp.o
 .text.HAL_DCMIPP_PIPE_GetISPBadPixelRemovalConfig
                0x00000000        0xc build/stm32n6xx_hal_dcmipp.o
 .text.HAL_DCMIPP_PIPE_IsEnabledISPBadPixelRemoval
                0x00000000       0x14 build/stm32n6xx_hal_dcmipp.o
 .text.HAL_DCMIPP_PIPE_GetISPRemovedBadPixelCounter
                0x00000000       0x1e build/stm32n6xx_hal_dcmipp.o
 .text.HAL_DCMIPP_PIPE_SetRegionOfInterestConfig
                0x00000000       0x96 build/stm32n6xx_hal_dcmipp.o
 .text.HAL_DCMIPP_PIPE_EnableRegionOfInterest
                0x00000000       0x4a build/stm32n6xx_hal_dcmipp.o
 .text.HAL_DCMIPP_PIPE_DisableRegionOfInterest
                0x00000000       0x3e build/stm32n6xx_hal_dcmipp.o
 .text.HAL_DCMIPP_PIPE_SetISPColorConversionConfig
                0x00000000      0x1b0 build/stm32n6xx_hal_dcmipp.o
 .text.HAL_DCMIPP_PIPE_EnableISPColorConversion
                0x00000000       0x1c build/stm32n6xx_hal_dcmipp.o
 .text.HAL_DCMIPP_PIPE_DisableISPColorConversion
                0x00000000       0x1c build/stm32n6xx_hal_dcmipp.o
 .text.HAL_DCMIPP_PIPE_SetYUVConversionConfig
                0x00000000      0x1b0 build/stm32n6xx_hal_dcmipp.o
 .text.HAL_DCMIPP_PIPE_EnableYUVConversion
                0x00000000       0x1c build/stm32n6xx_hal_dcmipp.o
 .text.HAL_DCMIPP_PIPE_DisableYUVConversion
                0x00000000       0x1c build/stm32n6xx_hal_dcmipp.o
 .text.HAL_DCMIPP_PIPE_SetISPBlackLevelCalibrationConfig
                0x00000000       0x30 build/stm32n6xx_hal_dcmipp.o
 .text.HAL_DCMIPP_PIPE_EnableISPBlackLevelCalibration
                0x00000000       0x1c build/stm32n6xx_hal_dcmipp.o
 .text.HAL_DCMIPP_PIPE_DisableISPBlackLevelCalibration
                0x00000000       0x1c build/stm32n6xx_hal_dcmipp.o
 .text.HAL_DCMIPP_PIPE_GetISPBlackLevelCalibrationConfig
                0x00000000       0x1e build/stm32n6xx_hal_dcmipp.o
 .text.HAL_DCMIPP_PIPE_IsEnabledISPBlackLevelCalibration
                0x00000000       0x14 build/stm32n6xx_hal_dcmipp.o
 .text.HAL_DCMIPP_PIPE_SetISPStatisticExtractionConfig
                0x00000000       0x5e build/stm32n6xx_hal_dcmipp.o
 .text.HAL_DCMIPP_PIPE_SetISPAreaStatisticExtractionConfig
                0x00000000       0x48 build/stm32n6xx_hal_dcmipp.o
 .text.HAL_DCMIPP_PIPE_EnableISPStatisticExtraction
                0x00000000       0x44 build/stm32n6xx_hal_dcmipp.o
 .text.HAL_DCMIPP_PIPE_DisableISPStatisticExtraction
                0x00000000       0x48 build/stm32n6xx_hal_dcmipp.o
 .text.HAL_DCMIPP_PIPE_EnableISPAreaStatisticExtraction
                0x00000000       0x1c build/stm32n6xx_hal_dcmipp.o
 .text.HAL_DCMIPP_PIPE_DisableISPAreaStatisticExtraction
                0x00000000       0x1c build/stm32n6xx_hal_dcmipp.o
 .text.HAL_DCMIPP_PIPE_SetISPExposureConfig
                0x00000000       0x4e build/stm32n6xx_hal_dcmipp.o
 .text.HAL_DCMIPP_PIPE_EnableISPExposure
                0x00000000       0x1c build/stm32n6xx_hal_dcmipp.o
 .text.HAL_DCMIPP_PIPE_DisableISPExposure
                0x00000000       0x1c build/stm32n6xx_hal_dcmipp.o
 .text.HAL_DCMIPP_PIPE_SetISPCtrlContrastConfig
                0x00000000       0x62 build/stm32n6xx_hal_dcmipp.o
 .text.HAL_DCMIPP_PIPE_EnableISPCtrlContrast
                0x00000000       0x1c build/stm32n6xx_hal_dcmipp.o
 .text.HAL_DCMIPP_PIPE_DisableISPCtrlContrast
                0x00000000       0x1c build/stm32n6xx_hal_dcmipp.o
 .text.HAL_DCMIPP_PIPE_SetFrameRate
                0x00000000       0x48 build/stm32n6xx_hal_dcmipp.o
 .text.HAL_DCMIPP_PIPE_SetPitch
                0x00000000       0x34 build/stm32n6xx_hal_dcmipp.o
 .text.HAL_DCMIPP_PIPE_SetPixelPackerFormat
                0x00000000       0x34 build/stm32n6xx_hal_dcmipp.o
 .text.HAL_DCMIPP_PIPE_SetCaptureMode
                0x00000000       0x48 build/stm32n6xx_hal_dcmipp.o
 .text.HAL_DCMIPP_PIPE_EnableCapture
                0x00000000       0x42 build/stm32n6xx_hal_dcmipp.o
 .text.HAL_DCMIPP_PIPE_SetMemoryAddress
                0x00000000       0x52 build/stm32n6xx_hal_dcmipp.o
 .text.HAL_DCMIPP_PIPE_SetSemiPlanarMemoryAddress
                0x00000000       0x20 build/stm32n6xx_hal_dcmipp.o
 .text.HAL_DCMIPP_PIPE_SetFullPlanarMemoryAddress
                0x00000000       0x28 build/stm32n6xx_hal_dcmipp.o
 .text.HAL_DCMIPP_PIPE_PARALLEL_SetInputPixelFormat
                0x00000000       0x1c build/stm32n6xx_hal_dcmipp.o
 .text.HAL_DCMIPP_PARALLEL_SetSyncUnmask
                0x00000000       0x3c build/stm32n6xx_hal_dcmipp.o
 .text.HAL_DCMIPP_PIPE_EnableComponentsSwap
                0x00000000       0x24 build/stm32n6xx_hal_dcmipp.o
 .text.HAL_DCMIPP_PIPE_DisableComponentsSwap
                0x00000000       0x24 build/stm32n6xx_hal_dcmipp.o
 .text.HAL_DCMIPP_PIPE_EnableRedBlueSwap
                0x00000000       0x38 build/stm32n6xx_hal_dcmipp.o
 .text.HAL_DCMIPP_PIPE_DisableRedBlueSwap
                0x00000000       0x38 build/stm32n6xx_hal_dcmipp.o
 .text.HAL_DCMIPP_PIPE_EnableYUVSwap
                0x00000000       0x24 build/stm32n6xx_hal_dcmipp.o
 .text.HAL_DCMIPP_PIPE_DisableYUVSwap
                0x00000000       0x24 build/stm32n6xx_hal_dcmipp.o
 .text.HAL_DCMIPP_PIPE_EnableLineEvent
                0x00000000       0x70 build/stm32n6xx_hal_dcmipp.o
 .text.HAL_DCMIPP_PIPE_DisableLineEvent
                0x00000000       0x40 build/stm32n6xx_hal_dcmipp.o
 .text.HAL_DCMIPP_PIPE_SetLineWrappingConfig
                0x00000000       0x34 build/stm32n6xx_hal_dcmipp.o
 .text.HAL_DCMIPP_PIPE_EnableLineWrapping
                0x00000000       0x30 build/stm32n6xx_hal_dcmipp.o
 .text.HAL_DCMIPP_PIPE_DisableLineWrapping
                0x00000000       0x30 build/stm32n6xx_hal_dcmipp.o
 .text.HAL_DCMIPP_PIPE_CSI_EnableShare
                0x00000000       0x2a build/stm32n6xx_hal_dcmipp.o
 .text.HAL_DCMIPP_PIPE_CSI_DisableShare
                0x00000000       0x2a build/stm32n6xx_hal_dcmipp.o
 .text.HAL_DCMIPP_PIPE_CSI_ForceDataTypeFormat
                0x00000000       0x5c build/stm32n6xx_hal_dcmipp.o
 .text.HAL_DCMIPP_PIPE_CSI_SetDTMode
                0x00000000       0x34 build/stm32n6xx_hal_dcmipp.o
 .text.HAL_DCMIPP_PIPE_CSI_SetDTSelection
                0x00000000       0x6c build/stm32n6xx_hal_dcmipp.o
 .text.HAL_DCMIPP_PIPE_CSI_EnableHeader
                0x00000000       0x18 build/stm32n6xx_hal_dcmipp.o
 .text.HAL_DCMIPP_PIPE_CSI_DisableHeader
                0x00000000       0x18 build/stm32n6xx_hal_dcmipp.o
 .text.HAL_DCMIPP_PIPE_SetFrameCounterConfig
                0x00000000       0x22 build/stm32n6xx_hal_dcmipp.o
 .text.HAL_DCMIPP_PIPE_ResetFrameCounter
                0x00000000       0x1e build/stm32n6xx_hal_dcmipp.o
 .text.HAL_DCMIPP_PIPE_ReadFrameCounter
                0x00000000       0x1a build/stm32n6xx_hal_dcmipp.o
 .text.HAL_DCMIPP_PIPE_GetDataCounter
                0x00000000       0x1a build/stm32n6xx_hal_dcmipp.o
 .text.HAL_DCMIPP_PIPE_GetISPAccumulatedStatisticsCounter
                0x00000000       0x44 build/stm32n6xx_hal_dcmipp.o
 .text.HAL_DCMIPP_GetMode
                0x00000000        0xc build/stm32n6xx_hal_dcmipp.o
 .text.HAL_DCMIPP_PIPE_GetMemoryAddress
                0x00000000       0x34 build/stm32n6xx_hal_dcmipp.o
 .text.HAL_DCMIPP_PIPE_GetISPDecimationConfig
                0x00000000       0x1a build/stm32n6xx_hal_dcmipp.o
 .text.HAL_DCMIPP_PIPE_GetISPStatisticExtractionConfig
                0x00000000       0x38 build/stm32n6xx_hal_dcmipp.o
 .text.HAL_DCMIPP_PIPE_GetISPAreaStatisticExtractionConfig
                0x00000000       0x2c build/stm32n6xx_hal_dcmipp.o
 .text.HAL_DCMIPP_PIPE_GetISPCtrlContrastConfig
                0x00000000       0x50 build/stm32n6xx_hal_dcmipp.o
 .text.HAL_DCMIPP_PIPE_GetISPExposureConfig
                0x00000000       0x38 build/stm32n6xx_hal_dcmipp.o
 .text.HAL_DCMIPP_PIPE_GetISPRawBayer2RGBConfig
                0x00000000       0x2c build/stm32n6xx_hal_dcmipp.o
 .text.HAL_DCMIPP_PIPE_GetISPColorConversionConfig
                0x00000000      0x1b6 build/stm32n6xx_hal_dcmipp.o
 .text.HAL_DCMIPP_PIPE_GetISPRemovalStatisticConfig
                0x00000000       0x1a build/stm32n6xx_hal_dcmipp.o
 .text.HAL_DCMIPP_PIPE_IsEnabledISPRemovalStatistic
                0x00000000       0x10 build/stm32n6xx_hal_dcmipp.o
 .text.HAL_DCMIPP_PIPE_IsEnabledISPDecimation
                0x00000000       0x14 build/stm32n6xx_hal_dcmipp.o
 .text.HAL_DCMIPP_PIPE_IsEnabledISPExposure
                0x00000000       0x14 build/stm32n6xx_hal_dcmipp.o
 .text.HAL_DCMIPP_PIPE_IsEnabledISPRawBayer2RGB
                0x00000000       0x14 build/stm32n6xx_hal_dcmipp.o
 .text.HAL_DCMIPP_PIPE_IsEnabledISPColorConversion
                0x00000000       0x14 build/stm32n6xx_hal_dcmipp.o
 .text.HAL_DCMIPP_PIPE_IsEnabledISPCtrlContrast
                0x00000000       0x14 build/stm32n6xx_hal_dcmipp.o
 .text.HAL_DCMIPP_PIPE_IsEnabledISPStatisticExtraction
                0x00000000       0x34 build/stm32n6xx_hal_dcmipp.o
 .text.HAL_DCMIPP_PIPE_IsEnabledISPAreaStatisticExtraction
                0x00000000       0x1a build/stm32n6xx_hal_dcmipp.o
 .text.HAL_DCMIPP_CSI_SetLineByteCounterConfig
                0x00000000       0x70 build/stm32n6xx_hal_dcmipp.o
 .text.HAL_DCMIPP_CSI_EnableLineByteCounter
                0x00000000       0x2c build/stm32n6xx_hal_dcmipp.o
 .text.HAL_DCMIPP_CSI_DisableLineByteCounter
                0x00000000       0x30 build/stm32n6xx_hal_dcmipp.o
 .text.HAL_DCMIPP_CSI_SetTimerConfig
                0x00000000       0x70 build/stm32n6xx_hal_dcmipp.o
 .text.HAL_DCMIPP_CSI_EnableTimer
                0x00000000       0x30 build/stm32n6xx_hal_dcmipp.o
 .text.HAL_DCMIPP_CSI_DisableTimer
                0x00000000       0x34 build/stm32n6xx_hal_dcmipp.o
 .text.HAL_DCMIPP_CSI_SetWatchdogCounterConfig
                0x00000000       0x18 build/stm32n6xx_hal_dcmipp.o
 .text.HAL_DCMIPP_GetState
                0x00000000        0x4 build/stm32n6xx_hal_dcmipp.o
 .text.HAL_DCMIPP_GetError
                0x00000000        0x4 build/stm32n6xx_hal_dcmipp.o
 .text.HAL_DCMIPP_PIPE_GetState
                0x00000000        0x6 build/stm32n6xx_hal_dcmipp.o
 .rodata        0x00000000      0x1f8 build/stm32n6xx_hal_dcmipp.o
 .text          0x00000000        0x0 build/stm32n6xx_hal_rif.o
 .data          0x00000000        0x0 build/stm32n6xx_hal_rif.o
 .bss           0x00000000        0x0 build/stm32n6xx_hal_rif.o
 .text.HAL_RIF_RIMC_Lock
                0x00000000       0x14 build/stm32n6xx_hal_rif.o
 .text.HAL_RIF_RIMC_GetLock
                0x00000000       0x10 build/stm32n6xx_hal_rif.o
 .text.HAL_RIF_RIMC_SetDebugAccessPortCID
                0x00000000       0x28 build/stm32n6xx_hal_rif.o
 .text.HAL_RIF_RIMC_GetDebugAccessPortCID
                0x00000000       0x14 build/stm32n6xx_hal_rif.o
 .text.HAL_RIF_RIMC_GetConfigMasterAttributes
                0x00000000       0x24 build/stm32n6xx_hal_rif.o
 .text.HAL_RIF_RISC_Lock
                0x00000000       0x10 build/stm32n6xx_hal_rif.o
 .text.HAL_RIF_RISC_GetLock
                0x00000000       0x10 build/stm32n6xx_hal_rif.o
 .text.HAL_RIF_RISC_SetSlaveSecureAttributes
                0x00000000       0x64 build/stm32n6xx_hal_rif.o
 .text.HAL_RIF_RISC_GetSlaveSecureAttributes
                0x00000000       0x30 build/stm32n6xx_hal_rif.o
 .text.HAL_RIF_RISC_SlaveConfigLock
                0x00000000       0x20 build/stm32n6xx_hal_rif.o
 .text.HAL_RIF_RISC_GetSlaveConfigLock
                0x00000000       0x1c build/stm32n6xx_hal_rif.o
 .text.HAL_RIF_RISAF_Lock
                0x00000000        0xa build/stm32n6xx_hal_rif.o
 .text.HAL_RIF_RISAF_GetLock
                0x00000000        0x8 build/stm32n6xx_hal_rif.o
 .text.HAL_RIF_RISAF_ConfigBaseRegion
                0x00000000       0x4a build/stm32n6xx_hal_rif.o
 .text.HAL_RIF_RISAF_GetConfigBaseRegion
                0x00000000       0x42 build/stm32n6xx_hal_rif.o
 .text.HAL_RIF_RISAF_ConfigSubRegionDelegation
                0x00000000       0x48 build/stm32n6xx_hal_rif.o
 .text.HAL_RIF_RISAF_GetConfigSubRegionDelegation
                0x00000000       0x30 build/stm32n6xx_hal_rif.o
 .text.HAL_RIF_RISAF_ConfigSubRegion
                0x00000000       0x9c build/stm32n6xx_hal_rif.o
 .text.HAL_RIF_RISAF_GetConfigSubRegion
                0x00000000       0x44 build/stm32n6xx_hal_rif.o
 .text.HAL_RIF_RISAF_GetIllegalAccess
                0x00000000       0x4a build/stm32n6xx_hal_rif.o
 .text.HAL_RIF_IAC_EnableIT
                0x00000000       0x1c build/stm32n6xx_hal_rif.o
 .text.HAL_RIF_IAC_DisableIT
                0x00000000       0x1e build/stm32n6xx_hal_rif.o
 .text.HAL_RIF_IAC_GetFlag
                0x00000000       0x1c build/stm32n6xx_hal_rif.o
 .text.HAL_RIF_IAC_ClearFlag
                0x00000000       0x18 build/stm32n6xx_hal_rif.o
 .text.HAL_RIF_ILA_Callback
                0x00000000        0x2 build/stm32n6xx_hal_rif.o
 .text.HAL_RIF_IRQHandler
                0x00000000       0x40 build/stm32n6xx_hal_rif.o
 .text          0x00000000        0x0 build/stm32n6xx_hal_ramcfg.o
 .data          0x00000000        0x0 build/stm32n6xx_hal_ramcfg.o
 .bss           0x00000000        0x0 build/stm32n6xx_hal_ramcfg.o
 .text.HAL_RAMCFG_MspInit
                0x00000000        0x2 build/stm32n6xx_hal_ramcfg.o
 .text.HAL_RAMCFG_MspDeInit
                0x00000000        0x2 build/stm32n6xx_hal_ramcfg.o
 .text.HAL_RAMCFG_DeInit
                0x00000000       0x38 build/stm32n6xx_hal_ramcfg.o
 .text.HAL_RAMCFG_StartECC
                0x00000000       0x36 build/stm32n6xx_hal_ramcfg.o
 .text.HAL_RAMCFG_StopECC
                0x00000000       0x38 build/stm32n6xx_hal_ramcfg.o
 .text.HAL_RAMCFG_EnableNotification
                0x00000000       0x22 build/stm32n6xx_hal_ramcfg.o
 .text.HAL_RAMCFG_DisableNotification
                0x00000000       0x24 build/stm32n6xx_hal_ramcfg.o
 .text.HAL_RAMCFG_IsECCSingleErrorDetected
                0x00000000        0xa build/stm32n6xx_hal_ramcfg.o
 .text.HAL_RAMCFG_IsECCDoubleErrorDetected
                0x00000000        0xe build/stm32n6xx_hal_ramcfg.o
 .text.HAL_RAMCFG_GetSingleErrorAddress
                0x00000000        0x6 build/stm32n6xx_hal_ramcfg.o
 .text.HAL_RAMCFG_GetDoubleErrorAddress
                0x00000000        0x6 build/stm32n6xx_hal_ramcfg.o
 .text.HAL_RAMCFG_Erase
                0x00000000       0x5e build/stm32n6xx_hal_ramcfg.o
 .text.HAL_RAMCFG_DetectSingleErrorCallback
                0x00000000        0x2 build/stm32n6xx_hal_ramcfg.o
 .text.HAL_RAMCFG_DetectDoubleErrorCallback
                0x00000000        0x2 build/stm32n6xx_hal_ramcfg.o
 .text.HAL_RAMCFG_IRQHandler
                0x00000000       0x48 build/stm32n6xx_hal_ramcfg.o
 .text.HAL_RAMCFG_GetState
                0x00000000        0x4 build/stm32n6xx_hal_ramcfg.o
 .text.HAL_RAMCFG_GetError
                0x00000000        0x4 build/stm32n6xx_hal_ramcfg.o
 .text.HAL_RAMCFG_EnableAXISRAM
                0x00000000        0xc build/stm32n6xx_hal_ramcfg.o
 .text.HAL_RAMCFG_DisableAXISRAM
                0x00000000        0xc build/stm32n6xx_hal_ramcfg.o
 .text          0x00000000        0x0 build/stm32n6xx_hal_cacheaxi.o
 .data          0x00000000        0x0 build/stm32n6xx_hal_cacheaxi.o
 .bss           0x00000000        0x0 build/stm32n6xx_hal_cacheaxi.o
 .text.CACHEAXI_CommandByAddr
                0x00000000       0xa8 build/stm32n6xx_hal_cacheaxi.o
 .text.HAL_CACHEAXI_MspInit
                0x00000000        0x2 build/stm32n6xx_hal_cacheaxi.o
 .text.HAL_CACHEAXI_MspDeInit
                0x00000000        0x2 build/stm32n6xx_hal_cacheaxi.o
 .text.HAL_CACHEAXI_IsEnabled
                0x00000000        0xa build/stm32n6xx_hal_cacheaxi.o
 .text.HAL_CACHEAXI_Disable
                0x00000000       0x56 build/stm32n6xx_hal_cacheaxi.o
 .text.HAL_CACHEAXI_Invalidate
                0x00000000       0x72 build/stm32n6xx_hal_cacheaxi.o
 .text.HAL_CACHEAXI_CleanByAddr
                0x00000000       0x1c build/stm32n6xx_hal_cacheaxi.o
 .text.HAL_CACHEAXI_CleanInvalidByAddr
                0x00000000       0x1c build/stm32n6xx_hal_cacheaxi.o
 .text.HAL_CACHEAXI_Invalidate_IT
                0x00000000       0x46 build/stm32n6xx_hal_cacheaxi.o
 .text.HAL_CACHEAXI_CleanByAddr_IT
                0x00000000       0x1c build/stm32n6xx_hal_cacheaxi.o
 .text.HAL_CACHEAXI_CleanInvalidByAddr_IT
                0x00000000       0x1c build/stm32n6xx_hal_cacheaxi.o
 .text.HAL_CACHEAXI_Monitor_Start
                0x00000000       0x12 build/stm32n6xx_hal_cacheaxi.o
 .text.HAL_CACHEAXI_Monitor_Stop
                0x00000000       0x14 build/stm32n6xx_hal_cacheaxi.o
 .text.HAL_CACHEAXI_Monitor_Reset
                0x00000000       0x20 build/stm32n6xx_hal_cacheaxi.o
 .text.HAL_CACHEAXI_DeInit
                0x00000000       0x4c build/stm32n6xx_hal_cacheaxi.o
 .text.HAL_CACHEAXI_Monitor_GetReadHitValue
                0x00000000        0x6 build/stm32n6xx_hal_cacheaxi.o
 .text.HAL_CACHEAXI_Monitor_GetReadMissValue
                0x00000000        0x6 build/stm32n6xx_hal_cacheaxi.o
 .text.HAL_CACHEAXI_Monitor_GetWriteHitValue
                0x00000000        0x6 build/stm32n6xx_hal_cacheaxi.o
 .text.HAL_CACHEAXI_Monitor_GetWriteMissValue
                0x00000000        0x6 build/stm32n6xx_hal_cacheaxi.o
 .text.HAL_CACHEAXI_Monitor_GetReadAllocMissValue
                0x00000000        0x6 build/stm32n6xx_hal_cacheaxi.o
 .text.HAL_CACHEAXI_Monitor_GetWriteAllocMissValue
                0x00000000        0x6 build/stm32n6xx_hal_cacheaxi.o
 .text.HAL_CACHEAXI_Monitor_GetWriteThroughValue
                0x00000000        0x6 build/stm32n6xx_hal_cacheaxi.o
 .text.HAL_CACHEAXI_Monitor_GetEvictionValue
                0x00000000        0x6 build/stm32n6xx_hal_cacheaxi.o
 .text.HAL_CACHEAXI_CleanByAddrCallback
                0x00000000        0x2 build/stm32n6xx_hal_cacheaxi.o
 .text.HAL_CACHEAXI_CleanAndInvalidateByAddrCallback
                0x00000000        0x2 build/stm32n6xx_hal_cacheaxi.o
 .text.HAL_CACHEAXI_InvalidateCompleteCallback
                0x00000000        0x2 build/stm32n6xx_hal_cacheaxi.o
 .text.HAL_CACHEAXI_ErrorCallback
                0x00000000        0x2 build/stm32n6xx_hal_cacheaxi.o
 .text.HAL_CACHEAXI_IRQHandler
                0x00000000       0x5a build/stm32n6xx_hal_cacheaxi.o
 .text.HAL_CACHEAXI_GetState
                0x00000000        0x4 build/stm32n6xx_hal_cacheaxi.o
 .text.HAL_CACHEAXI_GetError
                0x00000000        0x4 build/stm32n6xx_hal_cacheaxi.o
 .text          0x00000000        0x0 build/stm32n6xx_hal_uart_ex.o
 .data          0x00000000        0x0 build/stm32n6xx_hal_uart_ex.o
 .bss           0x00000000        0x0 build/stm32n6xx_hal_uart_ex.o
 .text.UARTEx_Wakeup_AddressConfig
                0x00000000       0x2e build/stm32n6xx_hal_uart_ex.o
 .text.HAL_RS485Ex_Init
                0x00000000       0x82 build/stm32n6xx_hal_uart_ex.o
 .text.HAL_UARTEx_WakeupCallback
                0x00000000        0x2 build/stm32n6xx_hal_uart_ex.o
 .text.HAL_UARTEx_RxFifoFullCallback
                0x00000000        0x2 build/stm32n6xx_hal_uart_ex.o
 .text.HAL_UARTEx_TxFifoEmptyCallback
                0x00000000        0x2 build/stm32n6xx_hal_uart_ex.o
 .text.HAL_MultiProcessorEx_AddressLength_Set
                0x00000000       0x38 build/stm32n6xx_hal_uart_ex.o
 .text.HAL_UARTEx_StopModeWakeUpSourceConfig
                0x00000000       0x82 build/stm32n6xx_hal_uart_ex.o
 .text.HAL_UARTEx_EnableStopMode
                0x00000000       0x2c build/stm32n6xx_hal_uart_ex.o
 .text.HAL_UARTEx_DisableStopMode
                0x00000000       0x2c build/stm32n6xx_hal_uart_ex.o
 .text.HAL_UARTEx_EnableFifoMode
                0x00000000       0x48 build/stm32n6xx_hal_uart_ex.o
 .text.HAL_UARTEx_ReceiveToIdle
                0x00000000      0x15c build/stm32n6xx_hal_uart_ex.o
 .text.HAL_UARTEx_ReceiveToIdle_IT
                0x00000000       0x46 build/stm32n6xx_hal_uart_ex.o
 .text.HAL_UARTEx_ReceiveToIdle_DMA
                0x00000000       0x48 build/stm32n6xx_hal_uart_ex.o
 .text.HAL_UARTEx_GetRxEventType
                0x00000000        0x4 build/stm32n6xx_hal_uart_ex.o
 .text          0x00000000        0x0 build/stm32n6xx_hal_cortex.o
 .data          0x00000000        0x0 build/stm32n6xx_hal_cortex.o
 .bss           0x00000000        0x0 build/stm32n6xx_hal_cortex.o
 .text.__NVIC_EnableIRQ
                0x00000000       0x1c build/stm32n6xx_hal_cortex.o
 .text.__NVIC_DisableIRQ
                0x00000000       0x24 build/stm32n6xx_hal_cortex.o
 .text.__NVIC_GetPriority
                0x00000000       0x24 build/stm32n6xx_hal_cortex.o
 .text.NVIC_DecodePriority
                0x00000000       0x44 build/stm32n6xx_hal_cortex.o
 .text.__NVIC_SystemReset
                0x00000000       0x24 build/stm32n6xx_hal_cortex.o
 .text.MPU_ConfigRegion
                0x00000000       0x3e build/stm32n6xx_hal_cortex.o
 .text.MPU_ConfigMemoryAttributes
                0x00000000       0x2c build/stm32n6xx_hal_cortex.o
 .text.HAL_NVIC_EnableIRQ
                0x00000000        0x8 build/stm32n6xx_hal_cortex.o
 .text.HAL_NVIC_DisableIRQ
                0x00000000        0x8 build/stm32n6xx_hal_cortex.o
 .text.HAL_NVIC_SystemReset
                0x00000000        0x6 build/stm32n6xx_hal_cortex.o
 .text.HAL_NVIC_GetPriorityGrouping
                0x00000000       0x10 build/stm32n6xx_hal_cortex.o
 .text.HAL_NVIC_GetPriority
                0x00000000       0x18 build/stm32n6xx_hal_cortex.o
 .text.HAL_NVIC_SetPendingIRQ
                0x00000000       0x1c build/stm32n6xx_hal_cortex.o
 .text.HAL_NVIC_GetPendingIRQ
                0x00000000       0x24 build/stm32n6xx_hal_cortex.o
 .text.HAL_NVIC_ClearPendingIRQ
                0x00000000       0x1c build/stm32n6xx_hal_cortex.o
 .text.HAL_NVIC_GetActive
                0x00000000       0x24 build/stm32n6xx_hal_cortex.o
 .text.HAL_SYSTICK_CLKSourceConfig
                0x00000000       0x10 build/stm32n6xx_hal_cortex.o
 .text.HAL_SYSTICK_Callback
                0x00000000        0x2 build/stm32n6xx_hal_cortex.o
 .text.HAL_SYSTICK_IRQHandler
                0x00000000        0x8 build/stm32n6xx_hal_cortex.o
 .text.HAL_CORTEX_ClearEvent
                0x00000000        0x6 build/stm32n6xx_hal_cortex.o
 .text.HAL_MPU_Enable
                0x00000000       0x24 build/stm32n6xx_hal_cortex.o
 .text.HAL_MPU_Enable_NS
                0x00000000       0x24 build/stm32n6xx_hal_cortex.o
 .text.HAL_MPU_Disable
                0x00000000       0x28 build/stm32n6xx_hal_cortex.o
 .text.HAL_MPU_Disable_NS
                0x00000000       0x28 build/stm32n6xx_hal_cortex.o
 .text.HAL_MPU_EnableRegion
                0x00000000       0x18 build/stm32n6xx_hal_cortex.o
 .text.HAL_MPU_EnableRegion_NS
                0x00000000       0x18 build/stm32n6xx_hal_cortex.o
 .text.HAL_MPU_DisableRegion
                0x00000000       0x18 build/stm32n6xx_hal_cortex.o
 .text.HAL_MPU_DisableRegion_NS
                0x00000000       0x18 build/stm32n6xx_hal_cortex.o
 .text.HAL_MPU_ConfigRegion
                0x00000000       0x10 build/stm32n6xx_hal_cortex.o
 .text.HAL_MPU_ConfigRegion_NS
                0x00000000       0x10 build/stm32n6xx_hal_cortex.o
 .text.HAL_MPU_ConfigMemoryAttributes
                0x00000000       0x10 build/stm32n6xx_hal_cortex.o
 .text.HAL_MPU_ConfigMemoryAttributes_NS
                0x00000000       0x10 build/stm32n6xx_hal_cortex.o
 .text          0x00000000       0x14 build/startup_stm32n657xx.o
 .data          0x00000000        0x0 build/startup_stm32n657xx.o
 .bss           0x00000000        0x0 build/startup_stm32n657xx.o
 .text          0x00000000        0x0 /usr/lib/gcc/arm-none-eabi/16.1.0/../../../../arm-none-eabi/lib/thumb/v8-m.main+dp/hard/libc_nano.a(libc_a-atexit.o)
 .data          0x00000000        0x0 /usr/lib/gcc/arm-none-eabi/16.1.0/../../../../arm-none-eabi/lib/thumb/v8-m.main+dp/hard/libc_nano.a(libc_a-atexit.o)
 .bss           0x00000000        0x0 /usr/lib/gcc/arm-none-eabi/16.1.0/../../../../arm-none-eabi/lib/thumb/v8-m.main+dp/hard/libc_nano.a(libc_a-atexit.o)
 .text.atexit   0x00000000        0xc /usr/lib/gcc/arm-none-eabi/16.1.0/../../../../arm-none-eabi/lib/thumb/v8-m.main+dp/hard/libc_nano.a(libc_a-atexit.o)
 .debug_info    0x00000000      0x123 /usr/lib/gcc/arm-none-eabi/16.1.0/../../../../arm-none-eabi/lib/thumb/v8-m.main+dp/hard/libc_nano.a(libc_a-atexit.o)
 .debug_abbrev  0x00000000       0xc7 /usr/lib/gcc/arm-none-eabi/16.1.0/../../../../arm-none-eabi/lib/thumb/v8-m.main+dp/hard/libc_nano.a(libc_a-atexit.o)
 .debug_loclists
                0x00000000       0x30 /usr/lib/gcc/arm-none-eabi/16.1.0/../../../../arm-none-eabi/lib/thumb/v8-m.main+dp/hard/libc_nano.a(libc_a-atexit.o)
 .debug_aranges
                0x00000000       0x20 /usr/lib/gcc/arm-none-eabi/16.1.0/../../../../arm-none-eabi/lib/thumb/v8-m.main+dp/hard/libc_nano.a(libc_a-atexit.o)
 .debug_rnglists
                0x00000000       0x13 /usr/lib/gcc/arm-none-eabi/16.1.0/../../../../arm-none-eabi/lib/thumb/v8-m.main+dp/hard/libc_nano.a(libc_a-atexit.o)
 .debug_line    0x00000000       0xe4 /usr/lib/gcc/arm-none-eabi/16.1.0/../../../../arm-none-eabi/lib/thumb/v8-m.main+dp/hard/libc_nano.a(libc_a-atexit.o)
 .debug_str     0x00000000      0x207 /usr/lib/gcc/arm-none-eabi/16.1.0/../../../../arm-none-eabi/lib/thumb/v8-m.main+dp/hard/libc_nano.a(libc_a-atexit.o)
 .comment       0x00000000       0x1f /usr/lib/gcc/arm-none-eabi/16.1.0/../../../../arm-none-eabi/lib/thumb/v8-m.main+dp/hard/libc_nano.a(libc_a-atexit.o)
 .debug_frame   0x00000000       0x20 /usr/lib/gcc/arm-none-eabi/16.1.0/../../../../arm-none-eabi/lib/thumb/v8-m.main+dp/hard/libc_nano.a(libc_a-atexit.o)
 .ARM.attributes
                0x00000000       0x36 /usr/lib/gcc/arm-none-eabi/16.1.0/../../../../arm-none-eabi/lib/thumb/v8-m.main+dp/hard/libc_nano.a(libc_a-atexit.o)
 .text          0x00000000        0x0 /usr/lib/gcc/arm-none-eabi/16.1.0/../../../../arm-none-eabi/lib/thumb/v8-m.main+dp/hard/libc_nano.a(libc_a-exit.o)
 .data          0x00000000        0x0 /usr/lib/gcc/arm-none-eabi/16.1.0/../../../../arm-none-eabi/lib/thumb/v8-m.main+dp/hard/libc_nano.a(libc_a-exit.o)
 .bss           0x00000000        0x0 /usr/lib/gcc/arm-none-eabi/16.1.0/../../../../arm-none-eabi/lib/thumb/v8-m.main+dp/hard/libc_nano.a(libc_a-exit.o)
 .text.exit     0x00000000       0x24 /usr/lib/gcc/arm-none-eabi/16.1.0/../../../../arm-none-eabi/lib/thumb/v8-m.main+dp/hard/libc_nano.a(libc_a-exit.o)
 .debug_info    0x00000000      0x120 /usr/lib/gcc/arm-none-eabi/16.1.0/../../../../arm-none-eabi/lib/thumb/v8-m.main+dp/hard/libc_nano.a(libc_a-exit.o)
 .debug_abbrev  0x00000000       0xde /usr/lib/gcc/arm-none-eabi/16.1.0/../../../../arm-none-eabi/lib/thumb/v8-m.main+dp/hard/libc_nano.a(libc_a-exit.o)
 .debug_loclists
                0x00000000       0x20 /usr/lib/gcc/arm-none-eabi/16.1.0/../../../../arm-none-eabi/lib/thumb/v8-m.main+dp/hard/libc_nano.a(libc_a-exit.o)
 .debug_aranges
                0x00000000       0x20 /usr/lib/gcc/arm-none-eabi/16.1.0/../../../../arm-none-eabi/lib/thumb/v8-m.main+dp/hard/libc_nano.a(libc_a-exit.o)
 .debug_rnglists
                0x00000000       0x13 /usr/lib/gcc/arm-none-eabi/16.1.0/../../../../arm-none-eabi/lib/thumb/v8-m.main+dp/hard/libc_nano.a(libc_a-exit.o)
 .debug_line    0x00000000      0x159 /usr/lib/gcc/arm-none-eabi/16.1.0/../../../../arm-none-eabi/lib/thumb/v8-m.main+dp/hard/libc_nano.a(libc_a-exit.o)
 .debug_str     0x00000000      0x1f0 /usr/lib/gcc/arm-none-eabi/16.1.0/../../../../arm-none-eabi/lib/thumb/v8-m.main+dp/hard/libc_nano.a(libc_a-exit.o)
 .comment       0x00000000       0x1f /usr/lib/gcc/arm-none-eabi/16.1.0/../../../../arm-none-eabi/lib/thumb/v8-m.main+dp/hard/libc_nano.a(libc_a-exit.o)
 .debug_frame   0x00000000       0x28 /usr/lib/gcc/arm-none-eabi/16.1.0/../../../../arm-none-eabi/lib/thumb/v8-m.main+dp/hard/libc_nano.a(libc_a-exit.o)
 .ARM.attributes
                0x00000000       0x36 /usr/lib/gcc/arm-none-eabi/16.1.0/../../../../arm-none-eabi/lib/thumb/v8-m.main+dp/hard/libc_nano.a(libc_a-exit.o)
 .text          0x00000000        0x0 /usr/lib/gcc/arm-none-eabi/16.1.0/../../../../arm-none-eabi/lib/thumb/v8-m.main+dp/hard/libc_nano.a(libc_a-findfp.o)
 .data          0x00000000        0x0 /usr/lib/gcc/arm-none-eabi/16.1.0/../../../../arm-none-eabi/lib/thumb/v8-m.main+dp/hard/libc_nano.a(libc_a-findfp.o)
 .bss           0x00000000        0x0 /usr/lib/gcc/arm-none-eabi/16.1.0/../../../../arm-none-eabi/lib/thumb/v8-m.main+dp/hard/libc_nano.a(libc_a-findfp.o)
 .text.__fp_lock
                0x00000000       0x18 /usr/lib/gcc/arm-none-eabi/16.1.0/../../../../arm-none-eabi/lib/thumb/v8-m.main+dp/hard/libc_nano.a(libc_a-findfp.o)
 .text.__fp_unlock
                0x00000000       0x18 /usr/lib/gcc/arm-none-eabi/16.1.0/../../../../arm-none-eabi/lib/thumb/v8-m.main+dp/hard/libc_nano.a(libc_a-findfp.o)
 .text.__sfp    0x00000000       0xa8 /usr/lib/gcc/arm-none-eabi/16.1.0/../../../../arm-none-eabi/lib/thumb/v8-m.main+dp/hard/libc_nano.a(libc_a-findfp.o)
 .text.__fp_lock_all
                0x00000000       0x1c /usr/lib/gcc/arm-none-eabi/16.1.0/../../../../arm-none-eabi/lib/thumb/v8-m.main+dp/hard/libc_nano.a(libc_a-findfp.o)
 .text.__fp_unlock_all
                0x00000000       0x1c /usr/lib/gcc/arm-none-eabi/16.1.0/../../../../arm-none-eabi/lib/thumb/v8-m.main+dp/hard/libc_nano.a(libc_a-findfp.o)
 .text          0x00000000        0x0 /usr/lib/gcc/arm-none-eabi/16.1.0/../../../../arm-none-eabi/lib/thumb/v8-m.main+dp/hard/libc_nano.a(libc_a-fwalk.o)
 .data          0x00000000        0x0 /usr/lib/gcc/arm-none-eabi/16.1.0/../../../../arm-none-eabi/lib/thumb/v8-m.main+dp/hard/libc_nano.a(libc_a-fwalk.o)
 .bss           0x00000000        0x0 /usr/lib/gcc/arm-none-eabi/16.1.0/../../../../arm-none-eabi/lib/thumb/v8-m.main+dp/hard/libc_nano.a(libc_a-fwalk.o)
 .text          0x00000000        0x0 /usr/lib/gcc/arm-none-eabi/16.1.0/../../../../arm-none-eabi/lib/thumb/v8-m.main+dp/hard/libc_nano.a(libc_a-printf.o)
 .data          0x00000000        0x0 /usr/lib/gcc/arm-none-eabi/16.1.0/../../../../arm-none-eabi/lib/thumb/v8-m.main+dp/hard/libc_nano.a(libc_a-printf.o)
 .bss           0x00000000        0x0 /usr/lib/gcc/arm-none-eabi/16.1.0/../../../../arm-none-eabi/lib/thumb/v8-m.main+dp/hard/libc_nano.a(libc_a-printf.o)
 .text._printf_r
                0x00000000       0x1c /usr/lib/gcc/arm-none-eabi/16.1.0/../../../../arm-none-eabi/lib/thumb/v8-m.main+dp/hard/libc_nano.a(libc_a-printf.o)
 .text          0x00000000        0x0 /usr/lib/gcc/arm-none-eabi/16.1.0/../../../../arm-none-eabi/lib/thumb/v8-m.main+dp/hard/libc_nano.a(libc_a-stdio.o)
 .data          0x00000000        0x0 /usr/lib/gcc/arm-none-eabi/16.1.0/../../../../arm-none-eabi/lib/thumb/v8-m.main+dp/hard/libc_nano.a(libc_a-stdio.o)
 .bss           0x00000000        0x0 /usr/lib/gcc/arm-none-eabi/16.1.0/../../../../arm-none-eabi/lib/thumb/v8-m.main+dp/hard/libc_nano.a(libc_a-stdio.o)
 .text.__seofread
                0x00000000        0x4 /usr/lib/gcc/arm-none-eabi/16.1.0/../../../../arm-none-eabi/lib/thumb/v8-m.main+dp/hard/libc_nano.a(libc_a-stdio.o)
 .text          0x00000000        0x0 /usr/lib/gcc/arm-none-eabi/16.1.0/../../../../arm-none-eabi/lib/thumb/v8-m.main+dp/hard/libc_nano.a(libc_a-memset.o)
 .data          0x00000000        0x0 /usr/lib/gcc/arm-none-eabi/16.1.0/../../../../arm-none-eabi/lib/thumb/v8-m.main+dp/hard/libc_nano.a(libc_a-memset.o)
 .bss           0x00000000        0x0 /usr/lib/gcc/arm-none-eabi/16.1.0/../../../../arm-none-eabi/lib/thumb/v8-m.main+dp/hard/libc_nano.a(libc_a-memset.o)
 .text          0x00000000        0x0 /usr/lib/gcc/arm-none-eabi/16.1.0/../../../../arm-none-eabi/lib/thumb/v8-m.main+dp/hard/libc_nano.a(libc_a-closer.o)
 .data          0x00000000        0x0 /usr/lib/gcc/arm-none-eabi/16.1.0/../../../../arm-none-eabi/lib/thumb/v8-m.main+dp/hard/libc_nano.a(libc_a-closer.o)
 .bss           0x00000000        0x0 /usr/lib/gcc/arm-none-eabi/16.1.0/../../../../arm-none-eabi/lib/thumb/v8-m.main+dp/hard/libc_nano.a(libc_a-closer.o)
 .text          0x00000000        0x0 /usr/lib/gcc/arm-none-eabi/16.1.0/../../../../arm-none-eabi/lib/thumb/v8-m.main+dp/hard/libc_nano.a(libc_a-reent.o)
 .data          0x00000000        0x0 /usr/lib/gcc/arm-none-eabi/16.1.0/../../../../arm-none-eabi/lib/thumb/v8-m.main+dp/hard/libc_nano.a(libc_a-reent.o)
 .bss           0x00000000        0x0 /usr/lib/gcc/arm-none-eabi/16.1.0/../../../../arm-none-eabi/lib/thumb/v8-m.main+dp/hard/libc_nano.a(libc_a-reent.o)
 .text._reclaim_reent
                0x00000000       0xbc /usr/lib/gcc/arm-none-eabi/16.1.0/../../../../arm-none-eabi/lib/thumb/v8-m.main+dp/hard/libc_nano.a(libc_a-reent.o)
 .text          0x00000000        0x0 /usr/lib/gcc/arm-none-eabi/16.1.0/../../../../arm-none-eabi/lib/thumb/v8-m.main+dp/hard/libc_nano.a(libc_a-impure.o)
 .data          0x00000000        0x0 /usr/lib/gcc/arm-none-eabi/16.1.0/../../../../arm-none-eabi/lib/thumb/v8-m.main+dp/hard/libc_nano.a(libc_a-impure.o)
 .bss           0x00000000        0x0 /usr/lib/gcc/arm-none-eabi/16.1.0/../../../../arm-none-eabi/lib/thumb/v8-m.main+dp/hard/libc_nano.a(libc_a-impure.o)
 .text          0x00000000        0x0 /usr/lib/gcc/arm-none-eabi/16.1.0/../../../../arm-none-eabi/lib/thumb/v8-m.main+dp/hard/libc_nano.a(libc_a-lseekr.o)
 .data          0x00000000        0x0 /usr/lib/gcc/arm-none-eabi/16.1.0/../../../../arm-none-eabi/lib/thumb/v8-m.main+dp/hard/libc_nano.a(libc_a-lseekr.o)
 .bss           0x00000000        0x0 /usr/lib/gcc/arm-none-eabi/16.1.0/../../../../arm-none-eabi/lib/thumb/v8-m.main+dp/hard/libc_nano.a(libc_a-lseekr.o)
 .text          0x00000000        0x0 /usr/lib/gcc/arm-none-eabi/16.1.0/../../../../arm-none-eabi/lib/thumb/v8-m.main+dp/hard/libc_nano.a(libc_a-readr.o)
 .data          0x00000000        0x0 /usr/lib/gcc/arm-none-eabi/16.1.0/../../../../arm-none-eabi/lib/thumb/v8-m.main+dp/hard/libc_nano.a(libc_a-readr.o)
 .bss           0x00000000        0x0 /usr/lib/gcc/arm-none-eabi/16.1.0/../../../../arm-none-eabi/lib/thumb/v8-m.main+dp/hard/libc_nano.a(libc_a-readr.o)
 .text          0x00000000        0x0 /usr/lib/gcc/arm-none-eabi/16.1.0/../../../../arm-none-eabi/lib/thumb/v8-m.main+dp/hard/libc_nano.a(libc_a-writer.o)
 .data          0x00000000        0x0 /usr/lib/gcc/arm-none-eabi/16.1.0/../../../../arm-none-eabi/lib/thumb/v8-m.main+dp/hard/libc_nano.a(libc_a-writer.o)
 .bss           0x00000000        0x0 /usr/lib/gcc/arm-none-eabi/16.1.0/../../../../arm-none-eabi/lib/thumb/v8-m.main+dp/hard/libc_nano.a(libc_a-writer.o)
 .text          0x00000000        0x0 /usr/lib/gcc/arm-none-eabi/16.1.0/../../../../arm-none-eabi/lib/thumb/v8-m.main+dp/hard/libc_nano.a(libc_a-errno.o)
 .data          0x00000000        0x0 /usr/lib/gcc/arm-none-eabi/16.1.0/../../../../arm-none-eabi/lib/thumb/v8-m.main+dp/hard/libc_nano.a(libc_a-errno.o)
 .bss           0x00000000        0x0 /usr/lib/gcc/arm-none-eabi/16.1.0/../../../../arm-none-eabi/lib/thumb/v8-m.main+dp/hard/libc_nano.a(libc_a-errno.o)
 .text          0x00000000        0x0 /usr/lib/gcc/arm-none-eabi/16.1.0/../../../../arm-none-eabi/lib/thumb/v8-m.main+dp/hard/libc_nano.a(libc_a-init.o)
 .data          0x00000000        0x0 /usr/lib/gcc/arm-none-eabi/16.1.0/../../../../arm-none-eabi/lib/thumb/v8-m.main+dp/hard/libc_nano.a(libc_a-init.o)
 .bss           0x00000000        0x0 /usr/lib/gcc/arm-none-eabi/16.1.0/../../../../arm-none-eabi/lib/thumb/v8-m.main+dp/hard/libc_nano.a(libc_a-init.o)
 .text          0x00000000        0x0 /usr/lib/gcc/arm-none-eabi/16.1.0/../../../../arm-none-eabi/lib/thumb/v8-m.main+dp/hard/libc_nano.a(libc_a-fini.o)
 .data          0x00000000        0x0 /usr/lib/gcc/arm-none-eabi/16.1.0/../../../../arm-none-eabi/lib/thumb/v8-m.main+dp/hard/libc_nano.a(libc_a-fini.o)
 .bss           0x00000000        0x0 /usr/lib/gcc/arm-none-eabi/16.1.0/../../../../arm-none-eabi/lib/thumb/v8-m.main+dp/hard/libc_nano.a(libc_a-fini.o)
 .text.__libc_fini_array
                0x00000000       0x28 /usr/lib/gcc/arm-none-eabi/16.1.0/../../../../arm-none-eabi/lib/thumb/v8-m.main+dp/hard/libc_nano.a(libc_a-fini.o)
 .debug_info    0x00000000       0xfc /usr/lib/gcc/arm-none-eabi/16.1.0/../../../../arm-none-eabi/lib/thumb/v8-m.main+dp/hard/libc_nano.a(libc_a-fini.o)
 .debug_abbrev  0x00000000       0xd2 /usr/lib/gcc/arm-none-eabi/16.1.0/../../../../arm-none-eabi/lib/thumb/v8-m.main+dp/hard/libc_nano.a(libc_a-fini.o)
 .debug_loclists
                0x00000000       0x34 /usr/lib/gcc/arm-none-eabi/16.1.0/../../../../arm-none-eabi/lib/thumb/v8-m.main+dp/hard/libc_nano.a(libc_a-fini.o)
 .debug_aranges
                0x00000000       0x20 /usr/lib/gcc/arm-none-eabi/16.1.0/../../../../arm-none-eabi/lib/thumb/v8-m.main+dp/hard/libc_nano.a(libc_a-fini.o)
 .debug_rnglists
                0x00000000       0x13 /usr/lib/gcc/arm-none-eabi/16.1.0/../../../../arm-none-eabi/lib/thumb/v8-m.main+dp/hard/libc_nano.a(libc_a-fini.o)
 .debug_line    0x00000000       0xdb /usr/lib/gcc/arm-none-eabi/16.1.0/../../../../arm-none-eabi/lib/thumb/v8-m.main+dp/hard/libc_nano.a(libc_a-fini.o)
 .debug_str     0x00000000      0x201 /usr/lib/gcc/arm-none-eabi/16.1.0/../../../../arm-none-eabi/lib/thumb/v8-m.main+dp/hard/libc_nano.a(libc_a-fini.o)
 .comment       0x00000000       0x1f /usr/lib/gcc/arm-none-eabi/16.1.0/../../../../arm-none-eabi/lib/thumb/v8-m.main+dp/hard/libc_nano.a(libc_a-fini.o)
 .debug_frame   0x00000000       0x38 /usr/lib/gcc/arm-none-eabi/16.1.0/../../../../arm-none-eabi/lib/thumb/v8-m.main+dp/hard/libc_nano.a(libc_a-fini.o)
 .ARM.attributes
                0x00000000       0x36 /usr/lib/gcc/arm-none-eabi/16.1.0/../../../../arm-none-eabi/lib/thumb/v8-m.main+dp/hard/libc_nano.a(libc_a-fini.o)
 .text          0x00000000        0x0 /usr/lib/gcc/arm-none-eabi/16.1.0/../../../../arm-none-eabi/lib/thumb/v8-m.main+dp/hard/libc_nano.a(libc_a-lock.o)
 .data          0x00000000        0x0 /usr/lib/gcc/arm-none-eabi/16.1.0/../../../../arm-none-eabi/lib/thumb/v8-m.main+dp/hard/libc_nano.a(libc_a-lock.o)
 .bss           0x00000000        0x0 /usr/lib/gcc/arm-none-eabi/16.1.0/../../../../arm-none-eabi/lib/thumb/v8-m.main+dp/hard/libc_nano.a(libc_a-lock.o)
 .text.__retarget_lock_init
                0x00000000        0x2 /usr/lib/gcc/arm-none-eabi/16.1.0/../../../../arm-none-eabi/lib/thumb/v8-m.main+dp/hard/libc_nano.a(libc_a-lock.o)
 .text.__retarget_lock_close
                0x00000000        0x2 /usr/lib/gcc/arm-none-eabi/16.1.0/../../../../arm-none-eabi/lib/thumb/v8-m.main+dp/hard/libc_nano.a(libc_a-lock.o)
 .text.__retarget_lock_close_recursive
                0x00000000        0x2 /usr/lib/gcc/arm-none-eabi/16.1.0/../../../../arm-none-eabi/lib/thumb/v8-m.main+dp/hard/libc_nano.a(libc_a-lock.o)
 .text.__retarget_lock_acquire
                0x00000000        0x2 /usr/lib/gcc/arm-none-eabi/16.1.0/../../../../arm-none-eabi/lib/thumb/v8-m.main+dp/hard/libc_nano.a(libc_a-lock.o)
 .text.__retarget_lock_try_acquire
                0x00000000        0x4 /usr/lib/gcc/arm-none-eabi/16.1.0/../../../../arm-none-eabi/lib/thumb/v8-m.main+dp/hard/libc_nano.a(libc_a-lock.o)
 .text.__retarget_lock_try_acquire_recursive
                0x00000000        0x4 /usr/lib/gcc/arm-none-eabi/16.1.0/../../../../arm-none-eabi/lib/thumb/v8-m.main+dp/hard/libc_nano.a(libc_a-lock.o)
 .text.__retarget_lock_release
                0x00000000        0x2 /usr/lib/gcc/arm-none-eabi/16.1.0/../../../../arm-none-eabi/lib/thumb/v8-m.main+dp/hard/libc_nano.a(libc_a-lock.o)
 .bss.__lock___arc4random_mutex
                0x00000000        0x1 /usr/lib/gcc/arm-none-eabi/16.1.0/../../../../arm-none-eabi/lib/thumb/v8-m.main+dp/hard/libc_nano.a(libc_a-lock.o)
 .bss.__lock___dd_hash_mutex
                0x00000000        0x1 /usr/lib/gcc/arm-none-eabi/16.1.0/../../../../arm-none-eabi/lib/thumb/v8-m.main+dp/hard/libc_nano.a(libc_a-lock.o)
 .bss.__lock___tz_mutex
                0x00000000        0x1 /usr/lib/gcc/arm-none-eabi/16.1.0/../../../../arm-none-eabi/lib/thumb/v8-m.main+dp/hard/libc_nano.a(libc_a-lock.o)
 .bss.__lock___env_recursive_mutex
                0x00000000        0x1 /usr/lib/gcc/arm-none-eabi/16.1.0/../../../../arm-none-eabi/lib/thumb/v8-m.main+dp/hard/libc_nano.a(libc_a-lock.o)
 .bss.__lock___at_quick_exit_mutex
                0x00000000        0x1 /usr/lib/gcc/arm-none-eabi/16.1.0/../../../../arm-none-eabi/lib/thumb/v8-m.main+dp/hard/libc_nano.a(libc_a-lock.o)
 .bss.__lock___atexit_recursive_mutex
                0x00000000        0x1 /usr/lib/gcc/arm-none-eabi/16.1.0/../../../../arm-none-eabi/lib/thumb/v8-m.main+dp/hard/libc_nano.a(libc_a-lock.o)
 .text          0x00000000        0x0 /usr/lib/gcc/arm-none-eabi/16.1.0/../../../../arm-none-eabi/lib/thumb/v8-m.main+dp/hard/libc_nano.a(libc_a-memcpy-stub.o)
 .data          0x00000000        0x0 /usr/lib/gcc/arm-none-eabi/16.1.0/../../../../arm-none-eabi/lib/thumb/v8-m.main+dp/hard/libc_nano.a(libc_a-memcpy-stub.o)
 .bss           0x00000000        0x0 /usr/lib/gcc/arm-none-eabi/16.1.0/../../../../arm-none-eabi/lib/thumb/v8-m.main+dp/hard/libc_nano.a(libc_a-memcpy-stub.o)
 .text.memcpy   0x00000000       0x1a /usr/lib/gcc/arm-none-eabi/16.1.0/../../../../arm-none-eabi/lib/thumb/v8-m.main+dp/hard/libc_nano.a(libc_a-memcpy-stub.o)
 .debug_info    0x00000000      0x126 /usr/lib/gcc/arm-none-eabi/16.1.0/../../../../arm-none-eabi/lib/thumb/v8-m.main+dp/hard/libc_nano.a(libc_a-memcpy-stub.o)
 .debug_abbrev  0x00000000       0xc7 /usr/lib/gcc/arm-none-eabi/16.1.0/../../../../arm-none-eabi/lib/thumb/v8-m.main+dp/hard/libc_nano.a(libc_a-memcpy-stub.o)
 .debug_loclists
                0x00000000       0x9d /usr/lib/gcc/arm-none-eabi/16.1.0/../../../../arm-none-eabi/lib/thumb/v8-m.main+dp/hard/libc_nano.a(libc_a-memcpy-stub.o)
 .debug_aranges
                0x00000000       0x20 /usr/lib/gcc/arm-none-eabi/16.1.0/../../../../arm-none-eabi/lib/thumb/v8-m.main+dp/hard/libc_nano.a(libc_a-memcpy-stub.o)
 .debug_rnglists
                0x00000000       0x13 /usr/lib/gcc/arm-none-eabi/16.1.0/../../../../arm-none-eabi/lib/thumb/v8-m.main+dp/hard/libc_nano.a(libc_a-memcpy-stub.o)
 .debug_line    0x00000000      0x1aa /usr/lib/gcc/arm-none-eabi/16.1.0/../../../../arm-none-eabi/lib/thumb/v8-m.main+dp/hard/libc_nano.a(libc_a-memcpy-stub.o)
 .debug_str     0x00000000      0x1e8 /usr/lib/gcc/arm-none-eabi/16.1.0/../../../../arm-none-eabi/lib/thumb/v8-m.main+dp/hard/libc_nano.a(libc_a-memcpy-stub.o)
 .comment       0x00000000       0x1f /usr/lib/gcc/arm-none-eabi/16.1.0/../../../../arm-none-eabi/lib/thumb/v8-m.main+dp/hard/libc_nano.a(libc_a-memcpy-stub.o)
 .debug_frame   0x00000000       0x28 /usr/lib/gcc/arm-none-eabi/16.1.0/../../../../arm-none-eabi/lib/thumb/v8-m.main+dp/hard/libc_nano.a(libc_a-memcpy-stub.o)
 .ARM.attributes
                0x00000000       0x36 /usr/lib/gcc/arm-none-eabi/16.1.0/../../../../arm-none-eabi/lib/thumb/v8-m.main+dp/hard/libc_nano.a(libc_a-memcpy-stub.o)
 .text          0x00000000        0x0 /usr/lib/gcc/arm-none-eabi/16.1.0/../../../../arm-none-eabi/lib/thumb/v8-m.main+dp/hard/libc_nano.a(libc_a-__atexit.o)
 .data          0x00000000        0x0 /usr/lib/gcc/arm-none-eabi/16.1.0/../../../../arm-none-eabi/lib/thumb/v8-m.main+dp/hard/libc_nano.a(libc_a-__atexit.o)
 .bss           0x00000000        0x0 /usr/lib/gcc/arm-none-eabi/16.1.0/../../../../arm-none-eabi/lib/thumb/v8-m.main+dp/hard/libc_nano.a(libc_a-__atexit.o)
 .text.__register_exitproc
                0x00000000       0xbc /usr/lib/gcc/arm-none-eabi/16.1.0/../../../../arm-none-eabi/lib/thumb/v8-m.main+dp/hard/libc_nano.a(libc_a-__atexit.o)
 .bss.__atexit0
                0x00000000       0x8c /usr/lib/gcc/arm-none-eabi/16.1.0/../../../../arm-none-eabi/lib/thumb/v8-m.main+dp/hard/libc_nano.a(libc_a-__atexit.o)
 .data.__atexit_dummy
                0x00000000        0x4 /usr/lib/gcc/arm-none-eabi/16.1.0/../../../../arm-none-eabi/lib/thumb/v8-m.main+dp/hard/libc_nano.a(libc_a-__atexit.o)
 .debug_info    0x00000000      0x2da /usr/lib/gcc/arm-none-eabi/16.1.0/../../../../arm-none-eabi/lib/thumb/v8-m.main+dp/hard/libc_nano.a(libc_a-__atexit.o)
 .debug_abbrev  0x00000000      0x1ee /usr/lib/gcc/arm-none-eabi/16.1.0/../../../../arm-none-eabi/lib/thumb/v8-m.main+dp/hard/libc_nano.a(libc_a-__atexit.o)
 .debug_loclists
                0x00000000       0xb1 /usr/lib/gcc/arm-none-eabi/16.1.0/../../../../arm-none-eabi/lib/thumb/v8-m.main+dp/hard/libc_nano.a(libc_a-__atexit.o)
 .debug_aranges
                0x00000000       0x20 /usr/lib/gcc/arm-none-eabi/16.1.0/../../../../arm-none-eabi/lib/thumb/v8-m.main+dp/hard/libc_nano.a(libc_a-__atexit.o)
 .debug_rnglists
                0x00000000       0x20 /usr/lib/gcc/arm-none-eabi/16.1.0/../../../../arm-none-eabi/lib/thumb/v8-m.main+dp/hard/libc_nano.a(libc_a-__atexit.o)
 .debug_line    0x00000000      0x22f /usr/lib/gcc/arm-none-eabi/16.1.0/../../../../arm-none-eabi/lib/thumb/v8-m.main+dp/hard/libc_nano.a(libc_a-__atexit.o)
 .debug_str     0x00000000      0x326 /usr/lib/gcc/arm-none-eabi/16.1.0/../../../../arm-none-eabi/lib/thumb/v8-m.main+dp/hard/libc_nano.a(libc_a-__atexit.o)
 .comment       0x00000000       0x1f /usr/lib/gcc/arm-none-eabi/16.1.0/../../../../arm-none-eabi/lib/thumb/v8-m.main+dp/hard/libc_nano.a(libc_a-__atexit.o)
 .debug_frame   0x00000000       0x34 /usr/lib/gcc/arm-none-eabi/16.1.0/../../../../arm-none-eabi/lib/thumb/v8-m.main+dp/hard/libc_nano.a(libc_a-__atexit.o)
 .ARM.attributes
                0x00000000       0x36 /usr/lib/gcc/arm-none-eabi/16.1.0/../../../../arm-none-eabi/lib/thumb/v8-m.main+dp/hard/libc_nano.a(libc_a-__atexit.o)
 .text          0x00000000        0x0 /usr/lib/gcc/arm-none-eabi/16.1.0/../../../../arm-none-eabi/lib/thumb/v8-m.main+dp/hard/libc_nano.a(libc_a-__call_atexit.o)
 .data          0x00000000        0x0 /usr/lib/gcc/arm-none-eabi/16.1.0/../../../../arm-none-eabi/lib/thumb/v8-m.main+dp/hard/libc_nano.a(libc_a-__call_atexit.o)
 .bss           0x00000000        0x0 /usr/lib/gcc/arm-none-eabi/16.1.0/../../../../arm-none-eabi/lib/thumb/v8-m.main+dp/hard/libc_nano.a(libc_a-__call_atexit.o)
 .text.__call_exitprocs
                0x00000000       0xc8 /usr/lib/gcc/arm-none-eabi/16.1.0/../../../../arm-none-eabi/lib/thumb/v8-m.main+dp/hard/libc_nano.a(libc_a-__call_atexit.o)
 .bss.__atexit  0x00000000        0x4 /usr/lib/gcc/arm-none-eabi/16.1.0/../../../../arm-none-eabi/lib/thumb/v8-m.main+dp/hard/libc_nano.a(libc_a-__call_atexit.o)
 .data.__atexit_recursive_mutex
                0x00000000        0x4 /usr/lib/gcc/arm-none-eabi/16.1.0/../../../../arm-none-eabi/lib/thumb/v8-m.main+dp/hard/libc_nano.a(libc_a-__call_atexit.o)
 .debug_info    0x00000000      0x2fc /usr/lib/gcc/arm-none-eabi/16.1.0/../../../../arm-none-eabi/lib/thumb/v8-m.main+dp/hard/libc_nano.a(libc_a-__call_atexit.o)
 .debug_abbrev  0x00000000      0x1e9 /usr/lib/gcc/arm-none-eabi/16.1.0/../../../../arm-none-eabi/lib/thumb/v8-m.main+dp/hard/libc_nano.a(libc_a-__call_atexit.o)
 .debug_loclists
                0x00000000      0x169 /usr/lib/gcc/arm-none-eabi/16.1.0/../../../../arm-none-eabi/lib/thumb/v8-m.main+dp/hard/libc_nano.a(libc_a-__call_atexit.o)
 .debug_aranges
                0x00000000       0x20 /usr/lib/gcc/arm-none-eabi/16.1.0/../../../../arm-none-eabi/lib/thumb/v8-m.main+dp/hard/libc_nano.a(libc_a-__call_atexit.o)
 .debug_rnglists
                0x00000000       0x21 /usr/lib/gcc/arm-none-eabi/16.1.0/../../../../arm-none-eabi/lib/thumb/v8-m.main+dp/hard/libc_nano.a(libc_a-__call_atexit.o)
 .debug_line    0x00000000      0x22c /usr/lib/gcc/arm-none-eabi/16.1.0/../../../../arm-none-eabi/lib/thumb/v8-m.main+dp/hard/libc_nano.a(libc_a-__call_atexit.o)
 .debug_str     0x00000000      0x2fb /usr/lib/gcc/arm-none-eabi/16.1.0/../../../../arm-none-eabi/lib/thumb/v8-m.main+dp/hard/libc_nano.a(libc_a-__call_atexit.o)
 .comment       0x00000000       0x1f /usr/lib/gcc/arm-none-eabi/16.1.0/../../../../arm-none-eabi/lib/thumb/v8-m.main+dp/hard/libc_nano.a(libc_a-__call_atexit.o)
 .debug_frame   0x00000000       0x4c /usr/lib/gcc/arm-none-eabi/16.1.0/../../../../arm-none-eabi/lib/thumb/v8-m.main+dp/hard/libc_nano.a(libc_a-__call_atexit.o)
 .ARM.attributes
                0x00000000       0x36 /usr/lib/gcc/arm-none-eabi/16.1.0/../../../../arm-none-eabi/lib/thumb/v8-m.main+dp/hard/libc_nano.a(libc_a-__call_atexit.o)
 .text          0x00000000        0x0 /usr/lib/gcc/arm-none-eabi/16.1.0/../../../../arm-none-eabi/lib/thumb/v8-m.main+dp/hard/libc_nano.a(libc_a-freer.o)
 .data          0x00000000        0x0 /usr/lib/gcc/arm-none-eabi/16.1.0/../../../../arm-none-eabi/lib/thumb/v8-m.main+dp/hard/libc_nano.a(libc_a-freer.o)
 .bss           0x00000000        0x0 /usr/lib/gcc/arm-none-eabi/16.1.0/../../../../arm-none-eabi/lib/thumb/v8-m.main+dp/hard/libc_nano.a(libc_a-freer.o)
 .text          0x00000000        0x0 /usr/lib/gcc/arm-none-eabi/16.1.0/../../../../arm-none-eabi/lib/thumb/v8-m.main+dp/hard/libc_nano.a(libc_a-mallocr.o)
 .data          0x00000000        0x0 /usr/lib/gcc/arm-none-eabi/16.1.0/../../../../arm-none-eabi/lib/thumb/v8-m.main+dp/hard/libc_nano.a(libc_a-mallocr.o)
 .bss           0x00000000        0x0 /usr/lib/gcc/arm-none-eabi/16.1.0/../../../../arm-none-eabi/lib/thumb/v8-m.main+dp/hard/libc_nano.a(libc_a-mallocr.o)
 .text          0x00000000        0x0 /usr/lib/gcc/arm-none-eabi/16.1.0/../../../../arm-none-eabi/lib/thumb/v8-m.main+dp/hard/libc_nano.a(libc_a-mlock.o)
 .data          0x00000000        0x0 /usr/lib/gcc/arm-none-eabi/16.1.0/../../../../arm-none-eabi/lib/thumb/v8-m.main+dp/hard/libc_nano.a(libc_a-mlock.o)
 .bss           0x00000000        0x0 /usr/lib/gcc/arm-none-eabi/16.1.0/../../../../arm-none-eabi/lib/thumb/v8-m.main+dp/hard/libc_nano.a(libc_a-mlock.o)
 .text          0x00000000        0x0 /usr/lib/gcc/arm-none-eabi/16.1.0/../../../../arm-none-eabi/lib/thumb/v8-m.main+dp/hard/libc_nano.a(libc_a-nano-vfprintf.o)
 .data          0x00000000        0x0 /usr/lib/gcc/arm-none-eabi/16.1.0/../../../../arm-none-eabi/lib/thumb/v8-m.main+dp/hard/libc_nano.a(libc_a-nano-vfprintf.o)
 .bss           0x00000000        0x0 /usr/lib/gcc/arm-none-eabi/16.1.0/../../../../arm-none-eabi/lib/thumb/v8-m.main+dp/hard/libc_nano.a(libc_a-nano-vfprintf.o)
 .text.__sprint_r
                0x00000000       0x1a /usr/lib/gcc/arm-none-eabi/16.1.0/../../../../arm-none-eabi/lib/thumb/v8-m.main+dp/hard/libc_nano.a(libc_a-nano-vfprintf.o)
 .text.vfprintf
                0x00000000       0x14 /usr/lib/gcc/arm-none-eabi/16.1.0/../../../../arm-none-eabi/lib/thumb/v8-m.main+dp/hard/libc_nano.a(libc_a-nano-vfprintf.o)
 .text          0x00000000        0x0 /usr/lib/gcc/arm-none-eabi/16.1.0/../../../../arm-none-eabi/lib/thumb/v8-m.main+dp/hard/libc_nano.a(libc_a-nano-vfprintf_i.o)
 .data          0x00000000        0x0 /usr/lib/gcc/arm-none-eabi/16.1.0/../../../../arm-none-eabi/lib/thumb/v8-m.main+dp/hard/libc_nano.a(libc_a-nano-vfprintf_i.o)
 .bss           0x00000000        0x0 /usr/lib/gcc/arm-none-eabi/16.1.0/../../../../arm-none-eabi/lib/thumb/v8-m.main+dp/hard/libc_nano.a(libc_a-nano-vfprintf_i.o)
 .text          0x00000000        0x0 /usr/lib/gcc/arm-none-eabi/16.1.0/../../../../arm-none-eabi/lib/thumb/v8-m.main+dp/hard/libc_nano.a(libc_a-fflush.o)
 .data          0x00000000        0x0 /usr/lib/gcc/arm-none-eabi/16.1.0/../../../../arm-none-eabi/lib/thumb/v8-m.main+dp/hard/libc_nano.a(libc_a-fflush.o)
 .bss           0x00000000        0x0 /usr/lib/gcc/arm-none-eabi/16.1.0/../../../../arm-none-eabi/lib/thumb/v8-m.main+dp/hard/libc_nano.a(libc_a-fflush.o)
 .text.fflush   0x00000000       0x28 /usr/lib/gcc/arm-none-eabi/16.1.0/../../../../arm-none-eabi/lib/thumb/v8-m.main+dp/hard/libc_nano.a(libc_a-fflush.o)
 .text          0x00000000        0x0 /usr/lib/gcc/arm-none-eabi/16.1.0/../../../../arm-none-eabi/lib/thumb/v8-m.main+dp/hard/libc_nano.a(libc_a-fvwrite.o)
 .data          0x00000000        0x0 /usr/lib/gcc/arm-none-eabi/16.1.0/../../../../arm-none-eabi/lib/thumb/v8-m.main+dp/hard/libc_nano.a(libc_a-fvwrite.o)
 .bss           0x00000000        0x0 /usr/lib/gcc/arm-none-eabi/16.1.0/../../../../arm-none-eabi/lib/thumb/v8-m.main+dp/hard/libc_nano.a(libc_a-fvwrite.o)
 .text.__sfvwrite_r
                0x00000000      0x2a0 /usr/lib/gcc/arm-none-eabi/16.1.0/../../../../arm-none-eabi/lib/thumb/v8-m.main+dp/hard/libc_nano.a(libc_a-fvwrite.o)
 .debug_info    0x00000000      0xb38 /usr/lib/gcc/arm-none-eabi/16.1.0/../../../../arm-none-eabi/lib/thumb/v8-m.main+dp/hard/libc_nano.a(libc_a-fvwrite.o)
 .debug_abbrev  0x00000000      0x221 /usr/lib/gcc/arm-none-eabi/16.1.0/../../../../arm-none-eabi/lib/thumb/v8-m.main+dp/hard/libc_nano.a(libc_a-fvwrite.o)
 .debug_loclists
                0x00000000      0x46d /usr/lib/gcc/arm-none-eabi/16.1.0/../../../../arm-none-eabi/lib/thumb/v8-m.main+dp/hard/libc_nano.a(libc_a-fvwrite.o)
 .debug_aranges
                0x00000000       0x20 /usr/lib/gcc/arm-none-eabi/16.1.0/../../../../arm-none-eabi/lib/thumb/v8-m.main+dp/hard/libc_nano.a(libc_a-fvwrite.o)
 .debug_rnglists
                0x00000000       0x38 /usr/lib/gcc/arm-none-eabi/16.1.0/../../../../arm-none-eabi/lib/thumb/v8-m.main+dp/hard/libc_nano.a(libc_a-fvwrite.o)
 .debug_line    0x00000000      0x579 /usr/lib/gcc/arm-none-eabi/16.1.0/../../../../arm-none-eabi/lib/thumb/v8-m.main+dp/hard/libc_nano.a(libc_a-fvwrite.o)
 .debug_str     0x00000000      0x58e /usr/lib/gcc/arm-none-eabi/16.1.0/../../../../arm-none-eabi/lib/thumb/v8-m.main+dp/hard/libc_nano.a(libc_a-fvwrite.o)
 .comment       0x00000000       0x1f /usr/lib/gcc/arm-none-eabi/16.1.0/../../../../arm-none-eabi/lib/thumb/v8-m.main+dp/hard/libc_nano.a(libc_a-fvwrite.o)
 .debug_frame   0x00000000       0x3c /usr/lib/gcc/arm-none-eabi/16.1.0/../../../../arm-none-eabi/lib/thumb/v8-m.main+dp/hard/libc_nano.a(libc_a-fvwrite.o)
 .ARM.attributes
                0x00000000       0x36 /usr/lib/gcc/arm-none-eabi/16.1.0/../../../../arm-none-eabi/lib/thumb/v8-m.main+dp/hard/libc_nano.a(libc_a-fvwrite.o)
 .text          0x00000000        0x0 /usr/lib/gcc/arm-none-eabi/16.1.0/../../../../arm-none-eabi/lib/thumb/v8-m.main+dp/hard/libc_nano.a(libc_a-wbuf.o)
 .data          0x00000000        0x0 /usr/lib/gcc/arm-none-eabi/16.1.0/../../../../arm-none-eabi/lib/thumb/v8-m.main+dp/hard/libc_nano.a(libc_a-wbuf.o)
 .bss           0x00000000        0x0 /usr/lib/gcc/arm-none-eabi/16.1.0/../../../../arm-none-eabi/lib/thumb/v8-m.main+dp/hard/libc_nano.a(libc_a-wbuf.o)
 .text.__swbuf  0x00000000       0x10 /usr/lib/gcc/arm-none-eabi/16.1.0/../../../../arm-none-eabi/lib/thumb/v8-m.main+dp/hard/libc_nano.a(libc_a-wbuf.o)
 .text          0x00000000        0x0 /usr/lib/gcc/arm-none-eabi/16.1.0/../../../../arm-none-eabi/lib/thumb/v8-m.main+dp/hard/libc_nano.a(libc_a-wsetup.o)
 .data          0x00000000        0x0 /usr/lib/gcc/arm-none-eabi/16.1.0/../../../../arm-none-eabi/lib/thumb/v8-m.main+dp/hard/libc_nano.a(libc_a-wsetup.o)
 .bss           0x00000000        0x0 /usr/lib/gcc/arm-none-eabi/16.1.0/../../../../arm-none-eabi/lib/thumb/v8-m.main+dp/hard/libc_nano.a(libc_a-wsetup.o)
 .text          0x00000000        0x0 /usr/lib/gcc/arm-none-eabi/16.1.0/../../../../arm-none-eabi/lib/thumb/v8-m.main+dp/hard/libc_nano.a(libc_a-memmove.o)
 .data          0x00000000        0x0 /usr/lib/gcc/arm-none-eabi/16.1.0/../../../../arm-none-eabi/lib/thumb/v8-m.main+dp/hard/libc_nano.a(libc_a-memmove.o)
 .bss           0x00000000        0x0 /usr/lib/gcc/arm-none-eabi/16.1.0/../../../../arm-none-eabi/lib/thumb/v8-m.main+dp/hard/libc_nano.a(libc_a-memmove.o)
 .text.memmove  0x00000000       0x32 /usr/lib/gcc/arm-none-eabi/16.1.0/../../../../arm-none-eabi/lib/thumb/v8-m.main+dp/hard/libc_nano.a(libc_a-memmove.o)
 .debug_info    0x00000000      0x114 /usr/lib/gcc/arm-none-eabi/16.1.0/../../../../arm-none-eabi/lib/thumb/v8-m.main+dp/hard/libc_nano.a(libc_a-memmove.o)
 .debug_abbrev  0x00000000       0xb2 /usr/lib/gcc/arm-none-eabi/16.1.0/../../../../arm-none-eabi/lib/thumb/v8-m.main+dp/hard/libc_nano.a(libc_a-memmove.o)
 .debug_loclists
                0x00000000      0x105 /usr/lib/gcc/arm-none-eabi/16.1.0/../../../../arm-none-eabi/lib/thumb/v8-m.main+dp/hard/libc_nano.a(libc_a-memmove.o)
 .debug_aranges
                0x00000000       0x20 /usr/lib/gcc/arm-none-eabi/16.1.0/../../../../arm-none-eabi/lib/thumb/v8-m.main+dp/hard/libc_nano.a(libc_a-memmove.o)
 .debug_rnglists
                0x00000000       0x13 /usr/lib/gcc/arm-none-eabi/16.1.0/../../../../arm-none-eabi/lib/thumb/v8-m.main+dp/hard/libc_nano.a(libc_a-memmove.o)
 .debug_line    0x00000000      0x177 /usr/lib/gcc/arm-none-eabi/16.1.0/../../../../arm-none-eabi/lib/thumb/v8-m.main+dp/hard/libc_nano.a(libc_a-memmove.o)
 .debug_str     0x00000000      0x1e5 /usr/lib/gcc/arm-none-eabi/16.1.0/../../../../arm-none-eabi/lib/thumb/v8-m.main+dp/hard/libc_nano.a(libc_a-memmove.o)
 .comment       0x00000000       0x1f /usr/lib/gcc/arm-none-eabi/16.1.0/../../../../arm-none-eabi/lib/thumb/v8-m.main+dp/hard/libc_nano.a(libc_a-memmove.o)
 .debug_frame   0x00000000       0x28 /usr/lib/gcc/arm-none-eabi/16.1.0/../../../../arm-none-eabi/lib/thumb/v8-m.main+dp/hard/libc_nano.a(libc_a-memmove.o)
 .ARM.attributes
                0x00000000       0x36 /usr/lib/gcc/arm-none-eabi/16.1.0/../../../../arm-none-eabi/lib/thumb/v8-m.main+dp/hard/libc_nano.a(libc_a-memmove.o)
 .text          0x00000000        0x0 /usr/lib/gcc/arm-none-eabi/16.1.0/../../../../arm-none-eabi/lib/thumb/v8-m.main+dp/hard/libc_nano.a(libc_a-sbrkr.o)
 .data          0x00000000        0x0 /usr/lib/gcc/arm-none-eabi/16.1.0/../../../../arm-none-eabi/lib/thumb/v8-m.main+dp/hard/libc_nano.a(libc_a-sbrkr.o)
 .bss           0x00000000        0x0 /usr/lib/gcc/arm-none-eabi/16.1.0/../../../../arm-none-eabi/lib/thumb/v8-m.main+dp/hard/libc_nano.a(libc_a-sbrkr.o)
 .text          0x00000000        0x0 /usr/lib/gcc/arm-none-eabi/16.1.0/../../../../arm-none-eabi/lib/thumb/v8-m.main+dp/hard/libc_nano.a(libc_a-memchr-stub.o)
 .data          0x00000000        0x0 /usr/lib/gcc/arm-none-eabi/16.1.0/../../../../arm-none-eabi/lib/thumb/v8-m.main+dp/hard/libc_nano.a(libc_a-memchr-stub.o)
 .bss           0x00000000        0x0 /usr/lib/gcc/arm-none-eabi/16.1.0/../../../../arm-none-eabi/lib/thumb/v8-m.main+dp/hard/libc_nano.a(libc_a-memchr-stub.o)
 .text          0x00000000        0x0 /usr/lib/gcc/arm-none-eabi/16.1.0/../../../../arm-none-eabi/lib/thumb/v8-m.main+dp/hard/libc_nano.a(libc_a-reallocr.o)
 .data          0x00000000        0x0 /usr/lib/gcc/arm-none-eabi/16.1.0/../../../../arm-none-eabi/lib/thumb/v8-m.main+dp/hard/libc_nano.a(libc_a-reallocr.o)
 .bss           0x00000000        0x0 /usr/lib/gcc/arm-none-eabi/16.1.0/../../../../arm-none-eabi/lib/thumb/v8-m.main+dp/hard/libc_nano.a(libc_a-reallocr.o)
 .text._realloc_r
                0x00000000       0x5a /usr/lib/gcc/arm-none-eabi/16.1.0/../../../../arm-none-eabi/lib/thumb/v8-m.main+dp/hard/libc_nano.a(libc_a-reallocr.o)
 .debug_info    0x00000000      0x8d8 /usr/lib/gcc/arm-none-eabi/16.1.0/../../../../arm-none-eabi/lib/thumb/v8-m.main+dp/hard/libc_nano.a(libc_a-reallocr.o)
 .debug_abbrev  0x00000000      0x21d /usr/lib/gcc/arm-none-eabi/16.1.0/../../../../arm-none-eabi/lib/thumb/v8-m.main+dp/hard/libc_nano.a(libc_a-reallocr.o)
 .debug_loclists
                0x00000000      0x11b /usr/lib/gcc/arm-none-eabi/16.1.0/../../../../arm-none-eabi/lib/thumb/v8-m.main+dp/hard/libc_nano.a(libc_a-reallocr.o)
 .debug_aranges
                0x00000000       0x20 /usr/lib/gcc/arm-none-eabi/16.1.0/../../../../arm-none-eabi/lib/thumb/v8-m.main+dp/hard/libc_nano.a(libc_a-reallocr.o)
 .debug_rnglists
                0x00000000       0x13 /usr/lib/gcc/arm-none-eabi/16.1.0/../../../../arm-none-eabi/lib/thumb/v8-m.main+dp/hard/libc_nano.a(libc_a-reallocr.o)
 .debug_line    0x00000000      0x21c /usr/lib/gcc/arm-none-eabi/16.1.0/../../../../arm-none-eabi/lib/thumb/v8-m.main+dp/hard/libc_nano.a(libc_a-reallocr.o)
 .debug_str     0x00000000      0x560 /usr/lib/gcc/arm-none-eabi/16.1.0/../../../../arm-none-eabi/lib/thumb/v8-m.main+dp/hard/libc_nano.a(libc_a-reallocr.o)
 .comment       0x00000000       0x1f /usr/lib/gcc/arm-none-eabi/16.1.0/../../../../arm-none-eabi/lib/thumb/v8-m.main+dp/hard/libc_nano.a(libc_a-reallocr.o)
 .debug_frame   0x00000000       0x3c /usr/lib/gcc/arm-none-eabi/16.1.0/../../../../arm-none-eabi/lib/thumb/v8-m.main+dp/hard/libc_nano.a(libc_a-reallocr.o)
 .ARM.attributes
                0x00000000       0x36 /usr/lib/gcc/arm-none-eabi/16.1.0/../../../../arm-none-eabi/lib/thumb/v8-m.main+dp/hard/libc_nano.a(libc_a-reallocr.o)
 .text          0x00000000        0x0 /usr/lib/gcc/arm-none-eabi/16.1.0/../../../../arm-none-eabi/lib/thumb/v8-m.main+dp/hard/libc_nano.a(libc_a-makebuf.o)
 .data          0x00000000        0x0 /usr/lib/gcc/arm-none-eabi/16.1.0/../../../../arm-none-eabi/lib/thumb/v8-m.main+dp/hard/libc_nano.a(libc_a-makebuf.o)
 .bss           0x00000000        0x0 /usr/lib/gcc/arm-none-eabi/16.1.0/../../../../arm-none-eabi/lib/thumb/v8-m.main+dp/hard/libc_nano.a(libc_a-makebuf.o)
 .text          0x00000000        0x0 /usr/lib/gcc/arm-none-eabi/16.1.0/../../../../arm-none-eabi/lib/thumb/v8-m.main+dp/hard/libc_nano.a(libc_a-fstatr.o)
 .data          0x00000000        0x0 /usr/lib/gcc/arm-none-eabi/16.1.0/../../../../arm-none-eabi/lib/thumb/v8-m.main+dp/hard/libc_nano.a(libc_a-fstatr.o)
 .bss           0x00000000        0x0 /usr/lib/gcc/arm-none-eabi/16.1.0/../../../../arm-none-eabi/lib/thumb/v8-m.main+dp/hard/libc_nano.a(libc_a-fstatr.o)
 .text          0x00000000        0x0 /usr/lib/gcc/arm-none-eabi/16.1.0/../../../../arm-none-eabi/lib/thumb/v8-m.main+dp/hard/libc_nano.a(libc_a-isattyr.o)
 .data          0x00000000        0x0 /usr/lib/gcc/arm-none-eabi/16.1.0/../../../../arm-none-eabi/lib/thumb/v8-m.main+dp/hard/libc_nano.a(libc_a-isattyr.o)
 .bss           0x00000000        0x0 /usr/lib/gcc/arm-none-eabi/16.1.0/../../../../arm-none-eabi/lib/thumb/v8-m.main+dp/hard/libc_nano.a(libc_a-isattyr.o)
 .text          0x00000000        0x0 /usr/lib/gcc/arm-none-eabi/16.1.0/../../../../arm-none-eabi/lib/thumb/v8-m.main+dp/hard/libc_nano.a(libc_a-msizer.o)
 .data          0x00000000        0x0 /usr/lib/gcc/arm-none-eabi/16.1.0/../../../../arm-none-eabi/lib/thumb/v8-m.main+dp/hard/libc_nano.a(libc_a-msizer.o)
 .bss           0x00000000        0x0 /usr/lib/gcc/arm-none-eabi/16.1.0/../../../../arm-none-eabi/lib/thumb/v8-m.main+dp/hard/libc_nano.a(libc_a-msizer.o)
 .text._malloc_usable_size_r
                0x00000000       0x10 /usr/lib/gcc/arm-none-eabi/16.1.0/../../../../arm-none-eabi/lib/thumb/v8-m.main+dp/hard/libc_nano.a(libc_a-msizer.o)
 .debug_info    0x00000000      0x799 /usr/lib/gcc/arm-none-eabi/16.1.0/../../../../arm-none-eabi/lib/thumb/v8-m.main+dp/hard/libc_nano.a(libc_a-msizer.o)
 .debug_abbrev  0x00000000      0x19c /usr/lib/gcc/arm-none-eabi/16.1.0/../../../../arm-none-eabi/lib/thumb/v8-m.main+dp/hard/libc_nano.a(libc_a-msizer.o)
 .debug_loclists
                0x00000000       0x68 /usr/lib/gcc/arm-none-eabi/16.1.0/../../../../arm-none-eabi/lib/thumb/v8-m.main+dp/hard/libc_nano.a(libc_a-msizer.o)
 .debug_aranges
                0x00000000       0x20 /usr/lib/gcc/arm-none-eabi/16.1.0/../../../../arm-none-eabi/lib/thumb/v8-m.main+dp/hard/libc_nano.a(libc_a-msizer.o)
 .debug_rnglists
                0x00000000       0x13 /usr/lib/gcc/arm-none-eabi/16.1.0/../../../../arm-none-eabi/lib/thumb/v8-m.main+dp/hard/libc_nano.a(libc_a-msizer.o)
 .debug_line    0x00000000      0x1a7 /usr/lib/gcc/arm-none-eabi/16.1.0/../../../../arm-none-eabi/lib/thumb/v8-m.main+dp/hard/libc_nano.a(libc_a-msizer.o)
 .debug_str     0x00000000      0x533 /usr/lib/gcc/arm-none-eabi/16.1.0/../../../../arm-none-eabi/lib/thumb/v8-m.main+dp/hard/libc_nano.a(libc_a-msizer.o)
 .comment       0x00000000       0x1f /usr/lib/gcc/arm-none-eabi/16.1.0/../../../../arm-none-eabi/lib/thumb/v8-m.main+dp/hard/libc_nano.a(libc_a-msizer.o)
 .debug_frame   0x00000000       0x20 /usr/lib/gcc/arm-none-eabi/16.1.0/../../../../arm-none-eabi/lib/thumb/v8-m.main+dp/hard/libc_nano.a(libc_a-msizer.o)
 .ARM.attributes
                0x00000000       0x36 /usr/lib/gcc/arm-none-eabi/16.1.0/../../../../arm-none-eabi/lib/thumb/v8-m.main+dp/hard/libc_nano.a(libc_a-msizer.o)
 .data          0x00000000        0x0 /usr/lib/gcc/arm-none-eabi/16.1.0/thumb/v8-m.main+dp/hard/libgcc.a(_aeabi_uldivmod.o)
 .bss           0x00000000        0x0 /usr/lib/gcc/arm-none-eabi/16.1.0/thumb/v8-m.main+dp/hard/libgcc.a(_aeabi_uldivmod.o)
 .text          0x00000000        0x0 /usr/lib/gcc/arm-none-eabi/16.1.0/thumb/v8-m.main+dp/hard/libgcc.a(_udivmoddi4.o)
 .data          0x00000000        0x0 /usr/lib/gcc/arm-none-eabi/16.1.0/thumb/v8-m.main+dp/hard/libgcc.a(_udivmoddi4.o)
 .bss           0x00000000        0x0 /usr/lib/gcc/arm-none-eabi/16.1.0/thumb/v8-m.main+dp/hard/libgcc.a(_udivmoddi4.o)
 .ARM.extab.text.__udivmoddi4
                0x00000000        0x0 /usr/lib/gcc/arm-none-eabi/16.1.0/thumb/v8-m.main+dp/hard/libgcc.a(_udivmoddi4.o)
 .data          0x00000000        0x0 /usr/lib/gcc/arm-none-eabi/16.1.0/thumb/v8-m.main+dp/hard/libgcc.a(_dvmd_tls.o)
 .bss           0x00000000        0x0 /usr/lib/gcc/arm-none-eabi/16.1.0/thumb/v8-m.main+dp/hard/libgcc.a(_dvmd_tls.o)
 .text          0x00000000        0x0 /usr/lib/gcc/arm-none-eabi/16.1.0/thumb/v8-m.main+dp/hard/crtend.o
 .data          0x00000000        0x0 /usr/lib/gcc/arm-none-eabi/16.1.0/thumb/v8-m.main+dp/hard/crtend.o
 .bss           0x00000000        0x0 /usr/lib/gcc/arm-none-eabi/16.1.0/thumb/v8-m.main+dp/hard/crtend.o
 .rodata.all_implied_fbits
                0x00000000       0x24 /usr/lib/gcc/arm-none-eabi/16.1.0/thumb/v8-m.main+dp/hard/crtend.o
 .eh_frame      0x00000000        0x4 /usr/lib/gcc/arm-none-eabi/16.1.0/thumb/v8-m.main+dp/hard/crtend.o
 .ARM.attributes
                0x00000000       0x36 /usr/lib/gcc/arm-none-eabi/16.1.0/thumb/v8-m.main+dp/hard/crtend.o
 .text          0x00000000        0x0 /usr/lib/gcc/arm-none-eabi/16.1.0/thumb/v8-m.main+dp/hard/crtn.o
 .data          0x00000000        0x0 /usr/lib/gcc/arm-none-eabi/16.1.0/thumb/v8-m.main+dp/hard/crtn.o
 .bss           0x00000000        0x0 /usr/lib/gcc/arm-none-eabi/16.1.0/thumb/v8-m.main+dp/hard/crtn.o

Memory Configuration

Name             Origin             Length             Attributes
ROM              0x34000400         0x0007fc00         xrw
RAM              0x34080000         0x00180000         xrw
*default*        0x00000000         0xffffffff

Linker script and memory map

LOAD /usr/lib/gcc/arm-none-eabi/16.1.0/thumb/v8-m.main+dp/hard/crti.o
LOAD /usr/lib/gcc/arm-none-eabi/16.1.0/thumb/v8-m.main+dp/hard/crtbegin.o
LOAD /usr/lib/gcc/arm-none-eabi/16.1.0/../../../../arm-none-eabi/lib/thumb/v8-m.main+dp/hard/crt0.o
LOAD build/main.o
LOAD build/stm32n6xx_it.o
LOAD build/stm32n6xx_hal_msp.o
LOAD build/secure_nsc.o
LOAD build/system_stm32n6xx_s.o
LOAD build/stm32n6xx_nucleo.o
LOAD build/sysmem.o
LOAD build/syscalls.o
LOAD build/stm32n6xx_hal.o
LOAD build/stm32n6xx_hal_rcc.o
LOAD build/stm32n6xx_hal_rcc_ex.o
LOAD build/stm32n6xx_hal_gpio.o
LOAD build/stm32n6xx_hal_pwr.o
LOAD build/stm32n6xx_hal_pwr_ex.o
LOAD build/stm32n6xx_hal_uart.o
LOAD build/stm32n6xx_hal_dcmipp.o
LOAD build/stm32n6xx_hal_rif.o
LOAD build/stm32n6xx_hal_ramcfg.o
LOAD build/stm32n6xx_hal_cacheaxi.o
LOAD build/stm32n6xx_hal_uart_ex.o
LOAD build/stm32n6xx_hal_cortex.o
LOAD build/startup_stm32n657xx.o
LOAD /usr/lib/gcc/arm-none-eabi/16.1.0/../../../../arm-none-eabi/lib/thumb/v8-m.main+dp/hard/libc_nano.a
LOAD /usr/lib/gcc/arm-none-eabi/16.1.0/../../../../arm-none-eabi/lib/thumb/v8-m.main+dp/hard/libm.a
LOAD /usr/lib/gcc/arm-none-eabi/16.1.0/../../../../arm-none-eabi/lib/thumb/v8-m.main+dp/hard/libnosys.a
START GROUP
LOAD /usr/lib/gcc/arm-none-eabi/16.1.0/thumb/v8-m.main+dp/hard/libgcc.a
LOAD /usr/lib/gcc/arm-none-eabi/16.1.0/../../../../arm-none-eabi/lib/thumb/v8-m.main+dp/hard/libc_nano.a
END GROUP
START GROUP
LOAD /usr/lib/gcc/arm-none-eabi/16.1.0/thumb/v8-m.main+dp/hard/libgcc.a
LOAD /usr/lib/gcc/arm-none-eabi/16.1.0/../../../../arm-none-eabi/lib/thumb/v8-m.main+dp/hard/libc_nano.a
END GROUP
LOAD /usr/lib/gcc/arm-none-eabi/16.1.0/thumb/v8-m.main+dp/hard/crtend.o
LOAD /usr/lib/gcc/arm-none-eabi/16.1.0/thumb/v8-m.main+dp/hard/crtn.o
                0x34200000                        _estack = (ORIGIN (RAM) + LENGTH (RAM))
                0x341ff800                        _sstack = (_estack - _Min_Stack_Size)
                0x00000200                        _Min_Heap_Size = 0x200
                0x00000800                        _Min_Stack_Size = 0x800

.isr_vector     0x34000400      0x34c
                0x34000400                        . = ALIGN (0x4)
 *(.isr_vector)
 .isr_vector    0x34000400      0x34c build/startup_stm32n657xx.o
                0x34000400                g_pfnVectors
                0x3400074c                        . = ALIGN (0x4)

.text           0x3400074c     0x71f0
                0x3400074c                        . = ALIGN (0x4)
 *(.text)
 .text          0x3400074c       0x30 /usr/lib/gcc/arm-none-eabi/16.1.0/thumb/v8-m.main+dp/hard/libgcc.a(_aeabi_uldivmod.o)
                0x3400074c                __aeabi_uldivmod
 .text          0x3400077c        0x4 /usr/lib/gcc/arm-none-eabi/16.1.0/thumb/v8-m.main+dp/hard/libgcc.a(_dvmd_tls.o)
                0x3400077c                __aeabi_ldiv0
                0x3400077c                __aeabi_idiv0
 *(.text*)
 .text.__do_global_dtors_aux
                0x34000780       0x24 /usr/lib/gcc/arm-none-eabi/16.1.0/thumb/v8-m.main+dp/hard/crtbegin.o
 .text.frame_dummy
                0x340007a4       0x1c /usr/lib/gcc/arm-none-eabi/16.1.0/thumb/v8-m.main+dp/hard/crtbegin.o
 .text.MX_GPIO_Init
                0x340007c0       0x54 build/main.o
 .text.SystemIsolation_Config
                0x34000814      0x13c build/main.o
 .text.Error_Handler
                0x34000950        0x4 build/main.o
                0x34000950                Error_Handler
 .text.MX_CACHEAXI_Init
                0x34000954       0x1c build/main.o
 .text.MX_DCMIPP_Init
                0x34000970       0x8c build/main.o
 .text.MX_LPUART1_UART_Init
                0x340009fc       0x64 build/main.o
 .text.MX_RAMCFG_Init
                0x34000a60       0x64 build/main.o
 .text.main     0x34000ac4       0x5c build/main.o
                0x34000ac4                main
 .text.NMI_Handler
                0x34000b20        0x2 build/stm32n6xx_it.o
                0x34000b20                NMI_Handler
 .text.HardFault_Handler
                0x34000b22        0x2 build/stm32n6xx_it.o
                0x34000b22                HardFault_Handler
 .text.MemManage_Handler
                0x34000b24        0x2 build/stm32n6xx_it.o
                0x34000b24                MemManage_Handler
 .text.BusFault_Handler
                0x34000b26        0x2 build/stm32n6xx_it.o
                0x34000b26                BusFault_Handler
 .text.UsageFault_Handler
                0x34000b28        0x2 build/stm32n6xx_it.o
                0x34000b28                UsageFault_Handler
 .text.SecureFault_Handler
                0x34000b2a        0x2 build/stm32n6xx_it.o
                0x34000b2a                SecureFault_Handler
 .text.SVC_Handler
                0x34000b2c        0x2 build/stm32n6xx_it.o
                0x34000b2c                SVC_Handler
 .text.DebugMon_Handler
                0x34000b2e        0x2 build/stm32n6xx_it.o
                0x34000b2e                DebugMon_Handler
 .text.PendSV_Handler
                0x34000b30        0x2 build/stm32n6xx_it.o
                0x34000b30                PendSV_Handler
 .text.SysTick_Handler
                0x34000b32        0x8 build/stm32n6xx_it.o
                0x34000b32                SysTick_Handler
 .text.HAL_MspInit
                0x34000b3a       0x14 build/stm32n6xx_hal_msp.o
                0x34000b3a                HAL_MspInit
 *fill*         0x34000b4e        0x2 
 .text.HAL_CACHEAXI_MspInit
                0x34000b50       0x2c build/stm32n6xx_hal_msp.o
                0x34000b50                HAL_CACHEAXI_MspInit
 .text.HAL_DCMIPP_MspInit
                0x34000b7c      0x104 build/stm32n6xx_hal_msp.o
                0x34000b7c                HAL_DCMIPP_MspInit
 .text.HAL_UART_MspInit
                0x34000c80       0x8c build/stm32n6xx_hal_msp.o
                0x34000c80                HAL_UART_MspInit
 .text.HAL_RAMCFG_MspInit
                0x34000d0c       0x1c build/stm32n6xx_hal_msp.o
                0x34000d0c                HAL_RAMCFG_MspInit
 .text.SECURE_RegisterCallback
                0x34000d28       0x30 build/secure_nsc.o
                0x34000d28                __acle_se_SECURE_RegisterCallback
 .text.TZ_SAU_Setup
                0x34000d58       0x48 build/system_stm32n6xx_s.o
 .text.SystemInit
                0x34000da0       0x5c build/system_stm32n6xx_s.o
                0x34000da0                SystemInit
 .text.SystemCoreClockUpdate
                0x34000dfc      0x240 build/system_stm32n6xx_s.o
                0x34000dfc                SystemCoreClockUpdate
 .text.SECURE_SystemCoreClockUpdate
                0x3400103c       0x24 build/system_stm32n6xx_s.o
                0x3400103c                __acle_se_SECURE_SystemCoreClockUpdate
 .text.UART_MspInit
                0x34001060       0x98 build/stm32n6xx_nucleo.o
 .text.BSP_LED_Toggle
                0x340010f8       0x20 build/stm32n6xx_nucleo.o
                0x340010f8                BSP_LED_Toggle
 .text.__io_putchar
                0x34001118       0x30 build/stm32n6xx_nucleo.o
                0x34001118                __io_putchar
 .text.MX_USART1_Init
                0x34001148       0x34 build/stm32n6xx_nucleo.o
                0x34001148                MX_USART1_Init
 .text.BSP_COM_Init
                0x3400117c       0x48 build/stm32n6xx_nucleo.o
                0x3400117c                BSP_COM_Init
 .text._sbrk    0x340011c4       0x4c build/sysmem.o
                0x340011c4                _sbrk
 .text._read    0x34001210       0x20 build/syscalls.o
                0x34001210                _read
 .text._write   0x34001230       0x1c build/syscalls.o
                0x34001230                _write
 .text._close   0x3400124c        0x6 build/syscalls.o
                0x3400124c                _close
 .text._fstat   0x34001252        0xa build/syscalls.o
                0x34001252                _fstat
 .text._isatty  0x3400125c        0x4 build/syscalls.o
                0x3400125c                _isatty
 .text._lseek   0x34001260        0x4 build/syscalls.o
                0x34001260                _lseek
 .text.HAL_InitTick
                0x34001264       0x4c build/stm32n6xx_hal.o
                0x34001264                HAL_InitTick
 .text.HAL_Init
                0x340012b0       0x24 build/stm32n6xx_hal.o
                0x340012b0                HAL_Init
 .text.HAL_IncTick
                0x340012d4       0x18 build/stm32n6xx_hal.o
                0x340012d4                HAL_IncTick
 .text.HAL_GetTick
                0x340012ec        0xc build/stm32n6xx_hal.o
                0x340012ec                HAL_GetTick
 .text.HAL_Delay
                0x340012f8       0x28 build/stm32n6xx_hal.o
                0x340012f8                HAL_Delay
 .text.RCC_GetSysClockFreq
                0x34001320       0x9c build/stm32n6xx_hal_rcc.o
 .text.HAL_RCC_GetSysClockFreq
                0x340013bc       0x20 build/stm32n6xx_hal_rcc.o
                0x340013bc                HAL_RCC_GetSysClockFreq
 .text.LL_RCC_SetClockSource
                0x340013dc       0x30 build/stm32n6xx_hal_rcc_ex.o
 .text.LL_RCC_GetClockSource
                0x3400140c       0x1c build/stm32n6xx_hal_rcc_ex.o
 .text.RCCEx_GetHCLKFreq
                0x34001428       0x10 build/stm32n6xx_hal_rcc_ex.o
 .text.RCCEx_GetPCLK1Freq
                0x34001438       0x10 build/stm32n6xx_hal_rcc_ex.o
 .text.RCCEx_GetPCLK2Freq
                0x34001448       0x10 build/stm32n6xx_hal_rcc_ex.o
 .text.RCCEx_GetPCLK4Freq
                0x34001458       0x10 build/stm32n6xx_hal_rcc_ex.o
 .text.RCCEx_GetPCLK5Freq
                0x34001468       0x10 build/stm32n6xx_hal_rcc_ex.o
 .text.RCCEx_GetPLLSourceFreq
                0x34001478       0x7c build/stm32n6xx_hal_rcc_ex.o
 .text.RCCEx_CalcPLLFreq
                0x340014f4       0x5c build/stm32n6xx_hal_rcc_ex.o
 .text.RCCEx_GetRTCCLKFreq
                0x34001550       0x68 build/stm32n6xx_hal_rcc_ex.o
 .text.HAL_RCCEx_PeriphCLKConfig
                0x340015b8     0x1abc build/stm32n6xx_hal_rcc_ex.o
                0x340015b8                HAL_RCCEx_PeriphCLKConfig
 .text.HAL_RCCEx_GetPLL1CLKFreq
                0x34003074       0x90 build/stm32n6xx_hal_rcc_ex.o
                0x34003074                HAL_RCCEx_GetPLL1CLKFreq
 .text.HAL_RCCEx_GetPLL2CLKFreq
                0x34003104       0x90 build/stm32n6xx_hal_rcc_ex.o
                0x34003104                HAL_RCCEx_GetPLL2CLKFreq
 .text.HAL_RCCEx_GetPLL3CLKFreq
                0x34003194       0x90 build/stm32n6xx_hal_rcc_ex.o
                0x34003194                HAL_RCCEx_GetPLL3CLKFreq
 .text.HAL_RCCEx_GetPLL4CLKFreq
                0x34003224       0x90 build/stm32n6xx_hal_rcc_ex.o
                0x34003224                HAL_RCCEx_GetPLL4CLKFreq
 .text.RCCEx_GetCSICLKFreq
                0x340032b4       0x6c build/stm32n6xx_hal_rcc_ex.o
 .text.RCCEx_GetCLKPCLKFreq
                0x34003320      0x254 build/stm32n6xx_hal_rcc_ex.o
 .text.RCCEx_GetADCCLKFreq
                0x34003574      0x160 build/stm32n6xx_hal_rcc_ex.o
 .text.RCCEx_GetADFCLKFreq
                0x340036d4      0x138 build/stm32n6xx_hal_rcc_ex.o
 .text.RCCEx_GetDCMIPPCLKFreq
                0x3400380c       0xb8 build/stm32n6xx_hal_rcc_ex.o
 .text.RCCEx_GetETH1CLKFreq
                0x340038c4       0xac build/stm32n6xx_hal_rcc_ex.o
 .text.RCCEx_GetETH1PTPCLKFreq
                0x34003970       0xb4 build/stm32n6xx_hal_rcc_ex.o
 .text.RCCEx_GetFDCANCLKFreq
                0x34003a24       0xa8 build/stm32n6xx_hal_rcc_ex.o
 .text.RCCEx_GetFMCCLKFreq
                0x34003acc       0xf4 build/stm32n6xx_hal_rcc_ex.o
 .text.RCCEx_GetI2CCLKFreq
                0x34003bc0      0x1f0 build/stm32n6xx_hal_rcc_ex.o
 .text.RCCEx_GetI3CCLKFreq
                0x34003db0      0x17c build/stm32n6xx_hal_rcc_ex.o
 .text.RCCEx_GetLPTIMCLKFreq
                0x34003f2c      0x1e8 build/stm32n6xx_hal_rcc_ex.o
 .text.RCCEx_GetLPUARTCLKFreq
                0x34004114      0x14c build/stm32n6xx_hal_rcc_ex.o
 .text.RCCEx_GetLTDCCLKFreq
                0x34004260       0xb8 build/stm32n6xx_hal_rcc_ex.o
 .text.RCCEx_GetMDFCLKFreq
                0x34004318      0x160 build/stm32n6xx_hal_rcc_ex.o
 .text.RCCEx_GetPSSICLKFreq
                0x34004478       0xb0 build/stm32n6xx_hal_rcc_ex.o
 .text.RCCEx_GetSDMMCCLKFreq
                0x34004528      0x128 build/stm32n6xx_hal_rcc_ex.o
 .text.RCCEx_GetSPDIFRXCLKFreq
                0x34004650      0x12c build/stm32n6xx_hal_rcc_ex.o
 .text.RCCEx_GetSAICLKFreq
                0x3400477c      0x1b8 build/stm32n6xx_hal_rcc_ex.o
 .text.RCCEx_GetSPICLKFreq
                0x34004934      0x370 build/stm32n6xx_hal_rcc_ex.o
 .text.RCCEx_GetUARTCLKFreq
                0x34004ca4      0x2ac build/stm32n6xx_hal_rcc_ex.o
 .text.RCCEx_GetUSARTCLKFreq
                0x34004f50      0x2a8 build/stm32n6xx_hal_rcc_ex.o
 .text.RCCEx_GetOTGPHYCLKFreq
                0x340051f8       0xf0 build/stm32n6xx_hal_rcc_ex.o
 .text.RCCEx_GetOTGPHYCKREFCLKFreq
                0x340052e8       0x70 build/stm32n6xx_hal_rcc_ex.o
 .text.RCCEx_GetXSPICLKFreq
                0x34005358      0x14c build/stm32n6xx_hal_rcc_ex.o
 .text.HAL_RCCEx_GetPeriphCLKFreq
                0x340054a4      0x59c build/stm32n6xx_hal_rcc_ex.o
                0x340054a4                HAL_RCCEx_GetPeriphCLKFreq
 .text.HAL_GPIO_Init
                0x34005a40      0x228 build/stm32n6xx_hal_gpio.o
                0x34005a40                HAL_GPIO_Init
 .text.HAL_GPIO_TogglePin
                0x34005c68       0x12 build/stm32n6xx_hal_gpio.o
                0x34005c68                HAL_GPIO_TogglePin
 .text.HAL_GPIO_ConfigPinAttributes
                0x34005c7a       0x3a build/stm32n6xx_hal_gpio.o
                0x34005c7a                HAL_GPIO_ConfigPinAttributes
 .text.HAL_PWREx_EnableVddIO2
                0x34005cb4       0x10 build/stm32n6xx_hal_pwr_ex.o
                0x34005cb4                HAL_PWREx_EnableVddIO2
 .text.HAL_PWREx_EnableVddIO3
                0x34005cc4       0x10 build/stm32n6xx_hal_pwr_ex.o
                0x34005cc4                HAL_PWREx_EnableVddIO3
 .text.HAL_PWREx_EnableVddIO4
                0x34005cd4       0x10 build/stm32n6xx_hal_pwr_ex.o
                0x34005cd4                HAL_PWREx_EnableVddIO4
 .text.HAL_PWREx_EnableVddIO5
                0x34005ce4       0x10 build/stm32n6xx_hal_pwr_ex.o
                0x34005ce4                HAL_PWREx_EnableVddIO5
 .text.UART_EndRxTransfer
                0x34005cf4       0x56 build/stm32n6xx_hal_uart.o
 *fill*         0x34005d4a        0x2 
 .text.UART_SetConfig
                0x34005d4c      0x21c build/stm32n6xx_hal_uart.o
                0x34005d4c                UART_SetConfig
 .text.UART_AdvFeatureConfig
                0x34005f68       0xca build/stm32n6xx_hal_uart.o
                0x34005f68                UART_AdvFeatureConfig
 .text.UART_WaitOnFlagUntilTimeout
                0x34006032       0x94 build/stm32n6xx_hal_uart.o
                0x34006032                UART_WaitOnFlagUntilTimeout
 .text.HAL_UART_Transmit
                0x340060c6       0xd4 build/stm32n6xx_hal_uart.o
                0x340060c6                HAL_UART_Transmit
 .text.UART_CheckIdleState
                0x3400619a       0xc4 build/stm32n6xx_hal_uart.o
                0x3400619a                UART_CheckIdleState
 .text.HAL_UART_Init
                0x3400625e       0x66 build/stm32n6xx_hal_uart.o
                0x3400625e                HAL_UART_Init
 .text.Pipe_Config
                0x340062c4       0xc2 build/stm32n6xx_hal_dcmipp.o
 .text.HAL_DCMIPP_Init
                0x34006386       0x32 build/stm32n6xx_hal_dcmipp.o
                0x34006386                HAL_DCMIPP_Init
 .text.HAL_DCMIPP_PARALLEL_SetConfig
                0x340063b8       0x94 build/stm32n6xx_hal_dcmipp.o
                0x340063b8                HAL_DCMIPP_PARALLEL_SetConfig
 .text.HAL_DCMIPP_PIPE_SetConfig
                0x3400644c       0x42 build/stm32n6xx_hal_dcmipp.o
                0x3400644c                HAL_DCMIPP_PIPE_SetConfig
 *fill*         0x3400648e        0x2 
 .text.HAL_RIF_RIMC_ConfigMasterAttributes
                0x34006490       0x38 build/stm32n6xx_hal_rif.o
                0x34006490                HAL_RIF_RIMC_ConfigMasterAttributes
 .text.HAL_RAMCFG_Init
                0x340064c8       0x3e build/stm32n6xx_hal_ramcfg.o
                0x340064c8                HAL_RAMCFG_Init
 .text.HAL_CACHEAXI_Enable
                0x34006506       0x50 build/stm32n6xx_hal_cacheaxi.o
                0x34006506                HAL_CACHEAXI_Enable
 .text.HAL_CACHEAXI_Init
                0x34006556       0x24 build/stm32n6xx_hal_cacheaxi.o
                0x34006556                HAL_CACHEAXI_Init
 *fill*         0x3400657a        0x2 
 .text.UARTEx_SetNbDataToProcess
                0x3400657c       0x54 build/stm32n6xx_hal_uart_ex.o
 .text.HAL_UARTEx_DisableFifoMode
                0x340065d0       0x3e build/stm32n6xx_hal_uart_ex.o
                0x340065d0                HAL_UARTEx_DisableFifoMode
 .text.HAL_UARTEx_SetTxFifoThreshold
                0x3400660e       0x4a build/stm32n6xx_hal_uart_ex.o
                0x3400660e                HAL_UARTEx_SetTxFifoThreshold
 .text.HAL_UARTEx_SetRxFifoThreshold
                0x34006658       0x4a build/stm32n6xx_hal_uart_ex.o
                0x34006658                HAL_UARTEx_SetRxFifoThreshold
 *fill*         0x340066a2        0x2 
 .text.__NVIC_SetPriority
                0x340066a4       0x24 build/stm32n6xx_hal_cortex.o
 .text.NVIC_EncodePriority
                0x340066c8       0x46 build/stm32n6xx_hal_cortex.o
 *fill*         0x3400670e        0x2 
 .text.HAL_NVIC_SetPriorityGrouping
                0x34006710       0x24 build/stm32n6xx_hal_cortex.o
                0x34006710                HAL_NVIC_SetPriorityGrouping
 .text.HAL_NVIC_SetPriority
                0x34006734       0x20 build/stm32n6xx_hal_cortex.o
                0x34006734                HAL_NVIC_SetPriority
 .text.HAL_SYSTICK_Config
                0x34006754       0x28 build/stm32n6xx_hal_cortex.o
                0x34006754                HAL_SYSTICK_Config
 .text.Reset_Handler
                0x3400677c       0x5c build/startup_stm32n657xx.o
                0x3400677c                Reset_Handler
 .text.Default_Handler
                0x340067d8        0x2 build/startup_stm32n657xx.o
                0x340067d8                HPDMA1_Channel13_IRQHandler
                0x340067d8                EXTI2_IRQHandler
                0x340067d8                MCE2_IRQHandler
                0x340067d8                TIM8_CC_IRQHandler
                0x340067d8                USB2_OTG_HS_IRQHandler
                0x340067d8                SAI1_A_IRQHandler
                0x340067d8                EXTI5_IRQHandler
                0x340067d8                I3C1_ER_IRQHandler
                0x340067d8                UART8_IRQHandler
                0x340067d8                CTI_INT0_IRQHandler
                0x340067d8                SPI4_IRQHandler
                0x340067d8                LTDC_LO_IRQHandler
                0x340067d8                NPU2_IRQHandler
                0x340067d8                FDCAN3_IT0_IRQHandler
                0x340067d8                EXTI13_IRQHandler
                0x340067d8                TIM1_CC_IRQHandler
                0x340067d8                XSPI1_IRQHandler
                0x340067d8                TIM10_IRQHandler
                0x340067d8                JPEG_IRQHandler
                0x340067d8                TAMP_IRQHandler
                0x340067d8                CACHE_ECC_IRQHandler
                0x340067d8                TIM6_IRQHandler
                0x340067d8                CSI_IRQHandler
                0x340067d8                EXTI12_IRQHandler
                0x340067d8                GFXTIM_IRQHandler
                0x340067d8                EXTI3_IRQHandler
                0x340067d8                LPTIM4_IRQHandler
                0x340067d8                GPDMA1_Channel5_IRQHandler
                0x340067d8                EXTI8_IRQHandler
                0x340067d8                LPTIM2_IRQHandler
                0x340067d8                GFXMMU_IRQHandler
                0x340067d8                LTDC_LO_ERR_IRQHandler
                0x340067d8                I2C3_ER_IRQHandler
                0x340067d8                RIFSC_TAMPER_IRQHandler
                0x340067d8                USART10_IRQHandler
                0x340067d8                MDF1_FLT2_IRQHandler
                0x340067d8                LPTIM3_IRQHandler
                0x340067d8                SAI2_A_IRQHandler
                0x340067d8                EXTI0_IRQHandler
                0x340067d8                HPDMA1_Channel9_IRQHandler
                0x340067d8                I2C2_EV_IRQHandler
                0x340067d8                GPU2D_IRQHandler
                0x340067d8                FPU_IRQHandler
                0x340067d8                GPDMA1_Channel3_IRQHandler
                0x340067d8                GPDMA1_Channel7_IRQHandler
                0x340067d8                MDF1_FLT4_IRQHandler
                0x340067d8                FDCAN1_IT1_IRQHandler
                0x340067d8                HPDMA1_Channel3_IRQHandler
                0x340067d8                ADC1_2_IRQHandler
                0x340067d8                GPDMA1_Channel9_IRQHandler
                0x340067d8                SPI1_IRQHandler
                0x340067d8                CACHEAXI_IRQHandler
                0x340067d8                SAI1_B_IRQHandler
                0x340067d8                GPDMA1_Channel2_IRQHandler
                0x340067d8                PAHB_ERR_IRQHandler
                0x340067d8                TIM8_UP_IRQHandler
                0x340067d8                RCC_S_IRQHandler
                0x340067d8                MDF1_FLT1_IRQHandler
                0x340067d8                LTDC_UP_IRQHandler
                0x340067d8                LOCKUP_IRQHandler
                0x340067d8                PKA_IRQHandler
                0x340067d8                USART6_IRQHandler
                0x340067d8                HPDMA1_Channel2_IRQHandler
                0x340067d8                MDF1_FLT5_IRQHandler
                0x340067d8                MCE4_IRQHandler
                0x340067d8                I3C2_ER_IRQHandler
                0x340067d8                EXTI15_IRQHandler
                0x340067d8                TIM17_IRQHandler
                0x340067d8                USART3_IRQHandler
                0x340067d8                HPDMA1_Channel6_IRQHandler
                0x340067d8                CRYP_IRQHandler
                0x340067d8                RTC_IRQHandler
                0x340067d8                XSPI2_IRQHandler
                0x340067d8                EXTI9_IRQHandler
                0x340067d8                IAC_IRQHandler
                0x340067d8                HPDMA1_Channel0_IRQHandler
                0x340067d8                LPTIM5_IRQHandler
                0x340067d8                HPDMA1_Channel1_IRQHandler
                0x340067d8                UART5_IRQHandler
                0x340067d8                TIM4_IRQHandler
                0x340067d8                NPU3_IRQHandler
                0x340067d8                I3C2_EV_IRQHandler
                0x340067d8                I2C1_EV_IRQHandler
                0x340067d8                FDCAN_CU_IRQHandler
                0x340067d8                GPDMA1_Channel12_IRQHandler
                0x340067d8                HPDMA1_Channel7_IRQHandler
                0x340067d8                GPDMA1_Channel1_IRQHandler
                0x340067d8                TIM16_IRQHandler
                0x340067d8                GPDMA1_Channel15_IRQHandler
                0x340067d8                UART4_IRQHandler
                0x340067d8                TCM_ECC_IRQHandler
                0x340067d8                TIM3_IRQHandler
                0x340067d8                RCC_IRQHandler
                0x340067d8                UART9_IRQHandler
                0x340067d8                NPU1_IRQHandler
                0x340067d8                SAI2_B_IRQHandler
                0x340067d8                Default_Handler
                0x340067d8                GPDMA1_Channel8_IRQHandler
                0x340067d8                HPDMA1_Channel8_IRQHandler
                0x340067d8                TIM18_IRQHandler
                0x340067d8                TIM14_IRQHandler
                0x340067d8                TIM13_IRQHandler
                0x340067d8                CTI_INT1_IRQHandler
                0x340067d8                GPDMA1_Channel11_IRQHandler
                0x340067d8                GPU2D_ER_IRQHandler
                0x340067d8                SPI5_IRQHandler
                0x340067d8                TIM12_IRQHandler
                0x340067d8                TIM7_IRQHandler
                0x340067d8                FDCAN3_IT1_IRQHandler
                0x340067d8                HPDMA1_Channel10_IRQHandler
                0x340067d8                SDMMC1_IRQHandler
                0x340067d8                SAES_IRQHandler
                0x340067d8                TIM5_IRQHandler
                0x340067d8                UCPD1_IRQHandler
                0x340067d8                GPDMA1_Channel0_IRQHandler
                0x340067d8                I3C1_EV_IRQHandler
                0x340067d8                HPDMA1_Channel5_IRQHandler
                0x340067d8                TIM15_IRQHandler
                0x340067d8                I2C3_EV_IRQHandler
                0x340067d8                HPDMA1_Channel4_IRQHandler
                0x340067d8                HPDMA1_Channel15_IRQHandler
                0x340067d8                TIM9_IRQHandler
                0x340067d8                ETH1_IRQHandler
                0x340067d8                USB1_OTG_HS_IRQHandler
                0x340067d8                PVD_PVM_IRQHandler
                0x340067d8                SPI2_IRQHandler
                0x340067d8                TIM1_TRG_CCU_IRQHandler
                0x340067d8                HPDMA1_Channel11_IRQHandler
                0x340067d8                EXTI14_IRQHandler
                0x340067d8                EXTI11_IRQHandler
                0x340067d8                VENC_IRQHandler
                0x340067d8                GPDMA1_Channel14_IRQHandler
                0x340067d8                EXTI4_IRQHandler
                0x340067d8                RTC_S_IRQHandler
                0x340067d8                GPDMA1_Channel13_IRQHandler
                0x340067d8                RNG_IRQHandler
                0x340067d8                XSPI3_IRQHandler
                0x340067d8                FDCAN2_IT1_IRQHandler
                0x340067d8                TIM1_UP_IRQHandler
                0x340067d8                NPU0_IRQHandler
                0x340067d8                BCK_ECC_IRQHandler
                0x340067d8                WWDG_IRQHandler
                0x340067d8                SPI6_IRQHandler
                0x340067d8                MDIOS_IRQHandler
                0x340067d8                I2C4_EV_IRQHandler
                0x340067d8                FDCAN2_IT0_IRQHandler
                0x340067d8                IWDG_IRQHandler
                0x340067d8                HPDMA1_Channel14_IRQHandler
                0x340067d8                LPUART1_IRQHandler
                0x340067d8                FDCAN1_IT0_IRQHandler
                0x340067d8                MDF1_FLT0_IRQHandler
                0x340067d8                TIM2_IRQHandler
                0x340067d8                MCE3_IRQHandler
                0x340067d8                GPDMA1_Channel4_IRQHandler
                0x340067d8                EXTI7_IRQHandler
                0x340067d8                DMA2D_IRQHandler
                0x340067d8                TIM1_BRK_IRQHandler
                0x340067d8                EXTI1_IRQHandler
                0x340067d8                SDMMC2_IRQHandler
                0x340067d8                TIM11_IRQHandler
                0x340067d8                LTDC_UP_ERR_IRQHandler
                0x340067d8                UART7_IRQHandler
                0x340067d8                DTS_IRQHandler
                0x340067d8                MDF1_FLT3_IRQHandler
                0x340067d8                USART2_IRQHandler
                0x340067d8                GPDMA1_Channel6_IRQHandler
                0x340067d8                ADF1_FLT0_IRQHandler
                0x340067d8                I2C2_ER_IRQHandler
                0x340067d8                MCE1_IRQHandler
                0x340067d8                SPDIFRX_IRQHandler
                0x340067d8                TIM8_BRK_IRQHandler
                0x340067d8                HPDMA1_Channel12_IRQHandler
                0x340067d8                USART1_IRQHandler
                0x340067d8                EXTI10_IRQHandler
                0x340067d8                SPI3_IRQHandler
                0x340067d8                WAKEUP_PIN_IRQHandler
                0x340067d8                DCMIPP_IRQHandler
                0x340067d8                I2C1_ER_IRQHandler
                0x340067d8                FMC_IRQHandler
                0x340067d8                EXTI6_IRQHandler
                0x340067d8                LPTIM1_IRQHandler
                0x340067d8                DCMI_PSSI_IRQHandler
                0x340067d8                TIM8_TRG_CCU_IRQHandler
                0x340067d8                I2C4_ER_IRQHandler
                0x340067d8                GPDMA1_Channel10_IRQHandler
                0x340067d8                ICACHE_IRQHandler
                0x340067d8                HASH_IRQHandler
 *fill*         0x340067da        0x2 
 .text.std      0x340067dc       0x6c /usr/lib/gcc/arm-none-eabi/16.1.0/../../../../arm-none-eabi/lib/thumb/v8-m.main+dp/hard/libc_nano.a(libc_a-findfp.o)
 .text.stdio_exit_handler
                0x34006848       0x18 /usr/lib/gcc/arm-none-eabi/16.1.0/../../../../arm-none-eabi/lib/thumb/v8-m.main+dp/hard/libc_nano.a(libc_a-findfp.o)
 .text.cleanup_stdio
                0x34006860       0x40 /usr/lib/gcc/arm-none-eabi/16.1.0/../../../../arm-none-eabi/lib/thumb/v8-m.main+dp/hard/libc_nano.a(libc_a-findfp.o)
 .text.global_stdio_init.part.0
                0x340068a0       0x40 /usr/lib/gcc/arm-none-eabi/16.1.0/../../../../arm-none-eabi/lib/thumb/v8-m.main+dp/hard/libc_nano.a(libc_a-findfp.o)
 .text.__sfp_lock_acquire
                0x340068e0        0xc /usr/lib/gcc/arm-none-eabi/16.1.0/../../../../arm-none-eabi/lib/thumb/v8-m.main+dp/hard/libc_nano.a(libc_a-findfp.o)
                0x340068e0                __sfp_lock_acquire
 .text.__sfp_lock_release
                0x340068ec        0xc /usr/lib/gcc/arm-none-eabi/16.1.0/../../../../arm-none-eabi/lib/thumb/v8-m.main+dp/hard/libc_nano.a(libc_a-findfp.o)
                0x340068ec                __sfp_lock_release
 .text.__sinit  0x340068f8       0x30 /usr/lib/gcc/arm-none-eabi/16.1.0/../../../../arm-none-eabi/lib/thumb/v8-m.main+dp/hard/libc_nano.a(libc_a-findfp.o)
                0x340068f8                __sinit
 .text._fwalk_sglue
                0x34006928       0x3a /usr/lib/gcc/arm-none-eabi/16.1.0/../../../../arm-none-eabi/lib/thumb/v8-m.main+dp/hard/libc_nano.a(libc_a-fwalk.o)
                0x34006928                _fwalk_sglue
 *fill*         0x34006962        0x2 
 .text.printf   0x34006964       0x24 /usr/lib/gcc/arm-none-eabi/16.1.0/../../../../arm-none-eabi/lib/thumb/v8-m.main+dp/hard/libc_nano.a(libc_a-printf.o)
                0x34006964                printf
                0x34006964                iprintf
 .text.__sread  0x34006988       0x22 /usr/lib/gcc/arm-none-eabi/16.1.0/../../../../arm-none-eabi/lib/thumb/v8-m.main+dp/hard/libc_nano.a(libc_a-stdio.o)
                0x34006988                __sread
 .text.__swrite
                0x340069aa       0x38 /usr/lib/gcc/arm-none-eabi/16.1.0/../../../../arm-none-eabi/lib/thumb/v8-m.main+dp/hard/libc_nano.a(libc_a-stdio.o)
                0x340069aa                __swrite
 .text.__sseek  0x340069e2       0x26 /usr/lib/gcc/arm-none-eabi/16.1.0/../../../../arm-none-eabi/lib/thumb/v8-m.main+dp/hard/libc_nano.a(libc_a-stdio.o)
                0x340069e2                __sseek
 .text.__sclose
                0x34006a08        0x8 /usr/lib/gcc/arm-none-eabi/16.1.0/../../../../arm-none-eabi/lib/thumb/v8-m.main+dp/hard/libc_nano.a(libc_a-stdio.o)
                0x34006a08                __sclose
 .text.memset   0x34006a10       0x10 /usr/lib/gcc/arm-none-eabi/16.1.0/../../../../arm-none-eabi/lib/thumb/v8-m.main+dp/hard/libc_nano.a(libc_a-memset.o)
                0x34006a10                memset
 .text._close_r
                0x34006a20       0x20 /usr/lib/gcc/arm-none-eabi/16.1.0/../../../../arm-none-eabi/lib/thumb/v8-m.main+dp/hard/libc_nano.a(libc_a-closer.o)
                0x34006a20                _close_r
 .text._lseek_r
                0x34006a40       0x24 /usr/lib/gcc/arm-none-eabi/16.1.0/../../../../arm-none-eabi/lib/thumb/v8-m.main+dp/hard/libc_nano.a(libc_a-lseekr.o)
                0x34006a40                _lseek_r
 .text._read_r  0x34006a64       0x24 /usr/lib/gcc/arm-none-eabi/16.1.0/../../../../arm-none-eabi/lib/thumb/v8-m.main+dp/hard/libc_nano.a(libc_a-readr.o)
                0x34006a64                _read_r
 .text._write_r
                0x34006a88       0x24 /usr/lib/gcc/arm-none-eabi/16.1.0/../../../../arm-none-eabi/lib/thumb/v8-m.main+dp/hard/libc_nano.a(libc_a-writer.o)
                0x34006a88                _write_r
 .text.__errno  0x34006aac        0xc /usr/lib/gcc/arm-none-eabi/16.1.0/../../../../arm-none-eabi/lib/thumb/v8-m.main+dp/hard/libc_nano.a(libc_a-errno.o)
                0x34006aac                __errno
 .text.__libc_init_array
                0x34006ab8       0x48 /usr/lib/gcc/arm-none-eabi/16.1.0/../../../../arm-none-eabi/lib/thumb/v8-m.main+dp/hard/libc_nano.a(libc_a-init.o)
                0x34006ab8                __libc_init_array
 .text.__retarget_lock_init_recursive
                0x34006b00        0x2 /usr/lib/gcc/arm-none-eabi/16.1.0/../../../../arm-none-eabi/lib/thumb/v8-m.main+dp/hard/libc_nano.a(libc_a-lock.o)
                0x34006b00                __retarget_lock_init_recursive
 .text.__retarget_lock_acquire_recursive
                0x34006b02        0x2 /usr/lib/gcc/arm-none-eabi/16.1.0/../../../../arm-none-eabi/lib/thumb/v8-m.main+dp/hard/libc_nano.a(libc_a-lock.o)
                0x34006b02                __retarget_lock_acquire_recursive
 .text.__retarget_lock_release_recursive
                0x34006b04        0x2 /usr/lib/gcc/arm-none-eabi/16.1.0/../../../../arm-none-eabi/lib/thumb/v8-m.main+dp/hard/libc_nano.a(libc_a-lock.o)
                0x34006b04                __retarget_lock_release_recursive
 *fill*         0x34006b06        0x2 
 .text._free_r  0x34006b08       0x98 /usr/lib/gcc/arm-none-eabi/16.1.0/../../../../arm-none-eabi/lib/thumb/v8-m.main+dp/hard/libc_nano.a(libc_a-freer.o)
                0x34006b08                _free_r
 .text.sbrk_aligned
                0x34006ba0       0x44 /usr/lib/gcc/arm-none-eabi/16.1.0/../../../../arm-none-eabi/lib/thumb/v8-m.main+dp/hard/libc_nano.a(libc_a-mallocr.o)
 .text._malloc_r
                0x34006be4      0x100 /usr/lib/gcc/arm-none-eabi/16.1.0/../../../../arm-none-eabi/lib/thumb/v8-m.main+dp/hard/libc_nano.a(libc_a-mallocr.o)
                0x34006be4                _malloc_r
 .text.__malloc_lock
                0x34006ce4        0xc /usr/lib/gcc/arm-none-eabi/16.1.0/../../../../arm-none-eabi/lib/thumb/v8-m.main+dp/hard/libc_nano.a(libc_a-mlock.o)
                0x34006ce4                __malloc_lock
 .text.__malloc_unlock
                0x34006cf0        0xc /usr/lib/gcc/arm-none-eabi/16.1.0/../../../../arm-none-eabi/lib/thumb/v8-m.main+dp/hard/libc_nano.a(libc_a-mlock.o)
                0x34006cf0                __malloc_unlock
 .text.__sfputc_r
                0x34006cfc       0x28 /usr/lib/gcc/arm-none-eabi/16.1.0/../../../../arm-none-eabi/lib/thumb/v8-m.main+dp/hard/libc_nano.a(libc_a-nano-vfprintf.o)
 .text.__sfputs_r
                0x34006d24       0x24 /usr/lib/gcc/arm-none-eabi/16.1.0/../../../../arm-none-eabi/lib/thumb/v8-m.main+dp/hard/libc_nano.a(libc_a-nano-vfprintf.o)
                0x34006d24                __sfputs_r
 .text._vfprintf_r
                0x34006d48      0x228 /usr/lib/gcc/arm-none-eabi/16.1.0/../../../../arm-none-eabi/lib/thumb/v8-m.main+dp/hard/libc_nano.a(libc_a-nano-vfprintf.o)
                0x34006d48                _vfiprintf_r
                0x34006d48                _vfprintf_r
 .text._printf_common
                0x34006f70       0xe0 /usr/lib/gcc/arm-none-eabi/16.1.0/../../../../arm-none-eabi/lib/thumb/v8-m.main+dp/hard/libc_nano.a(libc_a-nano-vfprintf_i.o)
                0x34006f70                _printf_common
 .text._printf_i
                0x34007050      0x258 /usr/lib/gcc/arm-none-eabi/16.1.0/../../../../arm-none-eabi/lib/thumb/v8-m.main+dp/hard/libc_nano.a(libc_a-nano-vfprintf_i.o)
                0x34007050                _printf_i
 .text.__sflush_r
                0x340072a8      0x10c /usr/lib/gcc/arm-none-eabi/16.1.0/../../../../arm-none-eabi/lib/thumb/v8-m.main+dp/hard/libc_nano.a(libc_a-fflush.o)
                0x340072a8                __sflush_r
 .text._fflush_r
                0x340073b4       0x50 /usr/lib/gcc/arm-none-eabi/16.1.0/../../../../arm-none-eabi/lib/thumb/v8-m.main+dp/hard/libc_nano.a(libc_a-fflush.o)
                0x340073b4                _fflush_r
 .text.__swbuf_r
                0x34007404       0x7e /usr/lib/gcc/arm-none-eabi/16.1.0/../../../../arm-none-eabi/lib/thumb/v8-m.main+dp/hard/libc_nano.a(libc_a-wbuf.o)
                0x34007404                __swbuf_r
 *fill*         0x34007482        0x2 
 .text.__swsetup_r
                0x34007484       0xa8 /usr/lib/gcc/arm-none-eabi/16.1.0/../../../../arm-none-eabi/lib/thumb/v8-m.main+dp/hard/libc_nano.a(libc_a-wsetup.o)
                0x34007484                __swsetup_r
 .text._sbrk_r  0x3400752c       0x20 /usr/lib/gcc/arm-none-eabi/16.1.0/../../../../arm-none-eabi/lib/thumb/v8-m.main+dp/hard/libc_nano.a(libc_a-sbrkr.o)
                0x3400752c                _sbrk_r
 .text.memchr   0x3400754c       0x1c /usr/lib/gcc/arm-none-eabi/16.1.0/../../../../arm-none-eabi/lib/thumb/v8-m.main+dp/hard/libc_nano.a(libc_a-memchr-stub.o)
                0x3400754c                memchr
 .text.__swhatbuf_r
                0x34007568       0x4a /usr/lib/gcc/arm-none-eabi/16.1.0/../../../../arm-none-eabi/lib/thumb/v8-m.main+dp/hard/libc_nano.a(libc_a-makebuf.o)
                0x34007568                __swhatbuf_r
 .text.__smakebuf_r
                0x340075b2       0x72 /usr/lib/gcc/arm-none-eabi/16.1.0/../../../../arm-none-eabi/lib/thumb/v8-m.main+dp/hard/libc_nano.a(libc_a-makebuf.o)
                0x340075b2                __smakebuf_r
 .text._fstat_r
                0x34007624       0x24 /usr/lib/gcc/arm-none-eabi/16.1.0/../../../../arm-none-eabi/lib/thumb/v8-m.main+dp/hard/libc_nano.a(libc_a-fstatr.o)
                0x34007624                _fstat_r
 .text._isatty_r
                0x34007648       0x20 /usr/lib/gcc/arm-none-eabi/16.1.0/../../../../arm-none-eabi/lib/thumb/v8-m.main+dp/hard/libc_nano.a(libc_a-isattyr.o)
                0x34007648                _isatty_r
 .text.__udivmoddi4
                0x34007668      0x2ba /usr/lib/gcc/arm-none-eabi/16.1.0/thumb/v8-m.main+dp/hard/libgcc.a(_udivmoddi4.o)
                0x34007668                __udivmoddi4
 *(.glue_7)
 .glue_7        0x34007922        0x0 linker stubs
 *(.glue_7t)
 .glue_7t       0x34007922        0x0 linker stubs
 *(.eh_frame)
 *fill*         0x34007922        0x2 
 .eh_frame      0x34007924        0x0 /usr/lib/gcc/arm-none-eabi/16.1.0/thumb/v8-m.main+dp/hard/crtbegin.o
 *(.RamFunc)
 *(.RamFunc*)
 *(.init)
 .init          0x34007924        0x4 /usr/lib/gcc/arm-none-eabi/16.1.0/thumb/v8-m.main+dp/hard/crti.o
                0x34007924                _init
 .init          0x34007928        0x8 /usr/lib/gcc/arm-none-eabi/16.1.0/thumb/v8-m.main+dp/hard/crtn.o
 *(.fini)
 .fini          0x34007930        0x4 /usr/lib/gcc/arm-none-eabi/16.1.0/thumb/v8-m.main+dp/hard/crti.o
                0x34007930                _fini
 .fini          0x34007934        0x8 /usr/lib/gcc/arm-none-eabi/16.1.0/thumb/v8-m.main+dp/hard/crtn.o
                0x3400793c                        . = ALIGN (0x4)
                0x3400793c                        _etext = .

.vfp11_veneer   0x3400793c        0x0
 .vfp11_veneer  0x3400793c        0x0 linker stubs

.v4_bx          0x3400793c        0x0
 .v4_bx         0x3400793c        0x0 linker stubs

.iplt           0x3400793c        0x0
 .iplt          0x3400793c        0x0 /usr/lib/gcc/arm-none-eabi/16.1.0/thumb/v8-m.main+dp/hard/crtbegin.o

.rodata         0x3400793c       0x7c
                0x3400793c                        . = ALIGN (0x4)
 *(.rodata)
 *(.rodata*)
 .rodata.main.str1.4
                0x3400793c        0x9 build/main.o
 *fill*         0x34007945        0x3 
 .rodata.LED_PORT
                0x34007948        0xc build/stm32n6xx_nucleo.o
 .rodata.LED_PIN
                0x34007954        0x6 build/stm32n6xx_nucleo.o
 *fill*         0x3400795a        0x2 
 .rodata.UARTPrescTable
                0x3400795c       0x18 build/stm32n6xx_hal_uart.o
                0x3400795c                UARTPrescTable
 .rodata.denominator.0
                0x34007974        0x8 build/stm32n6xx_hal_uart_ex.o
 .rodata.numerator.1
                0x3400797c        0x8 build/stm32n6xx_hal_uart_ex.o
 .rodata._vfprintf_r.str1.1
                0x34007984       0x33 /usr/lib/gcc/arm-none-eabi/16.1.0/../../../../arm-none-eabi/lib/thumb/v8-m.main+dp/hard/libc_nano.a(libc_a-nano-vfprintf.o)
                                 0x11 (size before relaxing)
 .rodata._printf_i.str1.1
                0x340079b7        0x0 /usr/lib/gcc/arm-none-eabi/16.1.0/../../../../arm-none-eabi/lib/thumb/v8-m.main+dp/hard/libc_nano.a(libc_a-nano-vfprintf_i.o)
                                 0x22 (size before relaxing)
                0x340079b8                        . = ALIGN (0x4)
 *fill*         0x340079b7        0x1 

.ARM.extab      0x340079b8        0x0
                0x340079b8                        . = ALIGN (0x4)
 *(.ARM.extab* .gnu.linkonce.armextab.*)
                0x340079b8                        . = ALIGN (0x4)

.ARM            0x340079b8        0x8
                0x340079b8                        . = ALIGN (0x4)
                0x340079b8                        __exidx_start = .
 *(.ARM.exidx*)
 .ARM.exidx.text.__udivmoddi4
                0x340079b8        0x8 /usr/lib/gcc/arm-none-eabi/16.1.0/thumb/v8-m.main+dp/hard/libgcc.a(_udivmoddi4.o)
                0x340079c0                        __exidx_end = .
                0x340079c0                        . = ALIGN (0x4)

.rel.dyn        0x340079c0        0x0
 .rel.iplt      0x340079c0        0x0 /usr/lib/gcc/arm-none-eabi/16.1.0/thumb/v8-m.main+dp/hard/crtbegin.o

.preinit_array  0x340079c0        0x0
                0x340079c0                        . = ALIGN (0x4)
                0x340079c0                        PROVIDE (__preinit_array_start = .)
 *(.preinit_array*)
                0x340079c0                        PROVIDE (__preinit_array_end = .)
                0x340079c0                        . = ALIGN (0x4)

.init_array     0x340079c0        0x4
                0x340079c0                        . = ALIGN (0x4)
                0x340079c0                        PROVIDE (__init_array_start = .)
 *(SORT_BY_NAME(.init_array.*))
 *(.init_array*)
 .init_array    0x340079c0        0x4 /usr/lib/gcc/arm-none-eabi/16.1.0/thumb/v8-m.main+dp/hard/crtbegin.o
                0x340079c4                        PROVIDE (__init_array_end = .)
                0x340079c4                        . = ALIGN (0x4)

.fini_array     0x340079c4        0x4
                0x340079c4                        . = ALIGN (0x4)
                0x340079c4                        PROVIDE (__fini_array_start = .)
 *(SORT_BY_NAME(.fini_array.*))
 *(.fini_array*)
 .fini_array    0x340079c4        0x4 /usr/lib/gcc/arm-none-eabi/16.1.0/thumb/v8-m.main+dp/hard/crtbegin.o
                0x340079c8                        PROVIDE (__fini_array_end = .)
                0x340079c8                        . = ALIGN (0x4)

.gnu.sgstubs    0x340079e0       0x20
                0x340079e0                        _sNSCVeneer = .
 *(.gnu.sgstubs*)
                0x340079e0                        . = ALIGN (0x20)
 FILL mask 0x00
 .gnu.sgstubs.__stub
                0x340079e0       0x10 linker stubs
                0x340079e0                SECURE_SystemCoreClockUpdate
                0x340079e8                SECURE_RegisterCallback
                0x34007a00                        _eNSCVeneer = .
                0x34007a00                        _sidata = LOADADDR (.data)

.data           0x34080000       0x70 load address 0x34007a00
                0x34080000                        . = ALIGN (0x4)
                0x34080000                        _sdata = .
 *(.data)
 *(.data*)
 .data.SystemCoreClock
                0x34080000        0x4 build/system_stm32n6xx_s.o
                0x34080000                SystemCoreClock
 .data.COM_UART
                0x34080004        0x8 build/stm32n6xx_nucleo.o
                0x34080004                COM_UART
 .data.uwTickFreq
                0x3408000c        0x1 build/stm32n6xx_hal.o
                0x3408000c                uwTickFreq
 *fill*         0x3408000d        0x3 
 .data.uwTickPrio
                0x34080010        0x4 build/stm32n6xx_hal.o
                0x34080010                uwTickPrio
 .data.__sglue  0x34080014        0xc /usr/lib/gcc/arm-none-eabi/16.1.0/../../../../arm-none-eabi/lib/thumb/v8-m.main+dp/hard/libc_nano.a(libc_a-findfp.o)
                0x34080014                __sglue
 .data._impure_ptr
                0x34080020        0x4 /usr/lib/gcc/arm-none-eabi/16.1.0/../../../../arm-none-eabi/lib/thumb/v8-m.main+dp/hard/libc_nano.a(libc_a-impure.o)
                0x34080020                _impure_ptr
 .data._impure_data
                0x34080024       0x4c /usr/lib/gcc/arm-none-eabi/16.1.0/../../../../arm-none-eabi/lib/thumb/v8-m.main+dp/hard/libc_nano.a(libc_a-impure.o)
                0x34080024                _impure_data
                0x34080070                        . = ALIGN (0x4)

.igot.plt       0x34080070        0x0 load address 0x34007a70
 .igot.plt      0x34080070        0x0 /usr/lib/gcc/arm-none-eabi/16.1.0/thumb/v8-m.main+dp/hard/crtbegin.o

.tdata          0x34080070        0x0 load address 0x34007a70
 *(.tdata .tdata.* .gnu.linkonce.td.*)
                0x34080070                        . = ALIGN (0x4)
                0x34080070                        _edata = .
                [!provide]                        PROVIDE (__data_end = .)
                [!provide]                        PROVIDE (__tdata_end = .)
                [!provide]                        PROVIDE (__tdata_start = ADDR (.tdata))
                [!provide]                        PROVIDE (__tdata_size = (__tdata_end - __tdata_start))
                [!provide]                        PROVIDE (__data_start = ADDR (.data))
                [!provide]                        PROVIDE (__data_size = (__data_end - __data_start))
                [!provide]                        PROVIDE (__tdata_source = LOADADDR (.tdata))
                [!provide]                        PROVIDE (__tdata_source_end = (LOADADDR (.tdata) + SIZEOF (.tdata)))
                [!provide]                        PROVIDE (__tdata_source_size = (__tdata_source_end - __tdata_source))
                [!provide]                        PROVIDE (__data_source = LOADADDR (.data))
                [!provide]                        PROVIDE (__data_source_end = __tdata_source_end)
                [!provide]                        PROVIDE (__data_source_size = (__data_source_end - __data_source))

.noncacheable   0x34080070        0x0 load address 0x34007a70
                0x34080070                        . = ALIGN (0x8)
                0x34080070                        __snoncacheable = .
 *(.noncacheable)
                0x34080070                        . = ALIGN (0x8)
                0x34080070                        __enoncacheable = .

.tbss           0x34080070        0x0 load address 0x34007a70
                0x34080070                        _sbss = .
                0x34080070                        __bss_start__ = _sbss
 *(.tbss .tbss.*)
                0x34080070                        . = ALIGN (0x4)
                [!provide]                        PROVIDE (__tbss_end = .)
                [!provide]                        PROVIDE (__tbss_start = ADDR (.tbss))
                [!provide]                        PROVIDE (__tbss_size = (__tbss_end - __tbss_start))
                [!provide]                        PROVIDE (__tbss_offset = (ADDR (.tbss) - ADDR (.tdata)))
                [!provide]                        PROVIDE (__tls_base = __tdata_start)
                [!provide]                        PROVIDE (__tls_end = __tbss_end)
                [!provide]                        PROVIDE (__tls_size = (__tls_end - __tls_base))
                [!provide]                        PROVIDE (__tls_align = MAX (ALIGNOF (.tdata), ALIGNOF (.tbss)))
                [!provide]                        PROVIDE (__tls_size_align = (((__tls_size + __tls_align) - 0x1) & ~ ((__tls_align - 0x1))))
                [!provide]                        PROVIDE (__arm32_tls_tcb_offset = MAX (0x8, __tls_align))
                [!provide]                        PROVIDE (__arm64_tls_tcb_offset = MAX (0x10, __tls_align))

.bss            0x34080070      0x390 load address 0x34007a70
 *(.bss)
 *(.bss*)
 .bss.completed.1
                0x34080070        0x1 /usr/lib/gcc/arm-none-eabi/16.1.0/thumb/v8-m.main+dp/hard/crtbegin.o
 *fill*         0x34080071        0x3 
 .bss.object.0  0x34080074       0x18 /usr/lib/gcc/arm-none-eabi/16.1.0/thumb/v8-m.main+dp/hard/crtbegin.o
 .bss.hramcfg_SRAM6
                0x3408008c        0xc build/main.o
                0x3408008c                hramcfg_SRAM6
 .bss.hramcfg_SRAM5
                0x34080098        0xc build/main.o
                0x34080098                hramcfg_SRAM5
 .bss.hramcfg_SRAM4
                0x340800a4        0xc build/main.o
                0x340800a4                hramcfg_SRAM4
 .bss.hramcfg_SRAM3
                0x340800b0        0xc build/main.o
                0x340800b0                hramcfg_SRAM3
 .bss.hlpuart1  0x340800bc       0x94 build/main.o
                0x340800bc                hlpuart1
 .bss.hdcmipp   0x34080150        0xc build/main.o
                0x34080150                hdcmipp
 .bss.hcacheaxi
                0x3408015c        0xc build/main.o
                0x3408015c                hcacheaxi
 .bss.BspCOMInit
                0x34080168       0x10 build/main.o
                0x34080168                BspCOMInit
 .bss.pSecureErrorCallback
                0x34080178        0x4 build/secure_nsc.o
                0x34080178                pSecureErrorCallback
 .bss.pSecureFaultCallback
                0x3408017c        0x4 build/secure_nsc.o
                0x3408017c                pSecureFaultCallback
 .bss.COM_ActiveLogPort
                0x34080180        0x1 build/stm32n6xx_nucleo.o
 *fill*         0x34080181        0x3 
 .bss.hcom_uart
                0x34080184      0x128 build/stm32n6xx_nucleo.o
                0x34080184                hcom_uart
 .bss.__sbrk_heap_end
                0x340802ac        0x4 build/sysmem.o
 .bss.uwTick    0x340802b0        0x4 build/stm32n6xx_hal.o
                0x340802b0                uwTick
 .bss.__sf      0x340802b4      0x138 /usr/lib/gcc/arm-none-eabi/16.1.0/../../../../arm-none-eabi/lib/thumb/v8-m.main+dp/hard/libc_nano.a(libc_a-findfp.o)
                0x340802b4                __sf
 .bss.__stdio_exit_handler
                0x340803ec        0x4 /usr/lib/gcc/arm-none-eabi/16.1.0/../../../../arm-none-eabi/lib/thumb/v8-m.main+dp/hard/libc_nano.a(libc_a-findfp.o)
                0x340803ec                __stdio_exit_handler
 .bss.errno     0x340803f0        0x4 /usr/lib/gcc/arm-none-eabi/16.1.0/../../../../arm-none-eabi/lib/thumb/v8-m.main+dp/hard/libc_nano.a(libc_a-reent.o)
                0x340803f0                errno
 .bss.__lock___malloc_recursive_mutex
                0x340803f4        0x1 /usr/lib/gcc/arm-none-eabi/16.1.0/../../../../arm-none-eabi/lib/thumb/v8-m.main+dp/hard/libc_nano.a(libc_a-lock.o)
                0x340803f4                __lock___malloc_recursive_mutex
 .bss.__lock___sfp_recursive_mutex
                0x340803f5        0x1 /usr/lib/gcc/arm-none-eabi/16.1.0/../../../../arm-none-eabi/lib/thumb/v8-m.main+dp/hard/libc_nano.a(libc_a-lock.o)
                0x340803f5                __lock___sfp_recursive_mutex
 *fill*         0x340803f6        0x2 
 .bss.__malloc_sbrk_start
                0x340803f8        0x4 /usr/lib/gcc/arm-none-eabi/16.1.0/../../../../arm-none-eabi/lib/thumb/v8-m.main+dp/hard/libc_nano.a(libc_a-mallocr.o)
                0x340803f8                __malloc_sbrk_start
 .bss.__malloc_free_list
                0x340803fc        0x4 /usr/lib/gcc/arm-none-eabi/16.1.0/../../../../arm-none-eabi/lib/thumb/v8-m.main+dp/hard/libc_nano.a(libc_a-mallocr.o)
                0x340803fc                __malloc_free_list
 *(COMMON)
                0x34080400                        . = ALIGN (0x4)
                0x34080400                        _ebss = .
                0x34080400                        __bss_end__ = _ebss
                [!provide]                        PROVIDE (__bss_end = .)
                [!provide]                        PROVIDE (__non_tls_bss_start = ADDR (.bss))
                [!provide]                        PROVIDE (__bss_start = __tbss_start)
                [!provide]                        PROVIDE (__bss_size = (__bss_end - __bss_start))

._user_heap_stack
                0x34080400      0xa00 load address 0x34007a70
                0x34080400                        . = ALIGN (0x8)
                [!provide]                        PROVIDE (end = .)
                0x34080400                        PROVIDE (_end = .)
                0x34080600                        . = (. + _Min_Heap_Size)
 *fill*         0x34080400      0x200 
                0x34080e00                        . = (. + _Min_Stack_Size)
 *fill*         0x34080600      0x800 
                0x34080e00                        . = ALIGN (0x8)

/DISCARD/
 libc.a:*(*)
 libm.a:*(*)
 libgcc.a:*(*)

.ARM.attributes
                0x00000000       0x3a
 *(.ARM.attributes)
 .ARM.attributes
                0x00000000       0x24 /usr/lib/gcc/arm-none-eabi/16.1.0/thumb/v8-m.main+dp/hard/crti.o
 .ARM.attributes
                0x00000024       0x36 /usr/lib/gcc/arm-none-eabi/16.1.0/thumb/v8-m.main+dp/hard/crtbegin.o
 .ARM.attributes
                0x0000005a       0x3e build/main.o
 .ARM.attributes
                0x00000098       0x3e build/stm32n6xx_it.o
 .ARM.attributes
                0x000000d6       0x3e build/stm32n6xx_hal_msp.o
 .ARM.attributes
                0x00000114       0x3e build/secure_nsc.o
 .ARM.attributes
                0x00000152       0x3e build/system_stm32n6xx_s.o
 .ARM.attributes
                0x00000190       0x3e build/stm32n6xx_nucleo.o
 .ARM.attributes
                0x000001ce       0x3e build/sysmem.o
 .ARM.attributes
                0x0000020c       0x3e build/syscalls.o
 .ARM.attributes
                0x0000024a       0x3e build/stm32n6xx_hal.o
 .ARM.attributes
                0x00000288       0x3e build/stm32n6xx_hal_rcc.o
 .ARM.attributes
                0x000002c6       0x3e build/stm32n6xx_hal_rcc_ex.o
 .ARM.attributes
                0x00000304       0x3e build/stm32n6xx_hal_gpio.o
 .ARM.attributes
                0x00000342       0x3e build/stm32n6xx_hal_pwr_ex.o
 .ARM.attributes
                0x00000380       0x3e build/stm32n6xx_hal_uart.o
 .ARM.attributes
                0x000003be       0x3e build/stm32n6xx_hal_dcmipp.o
 .ARM.attributes
                0x000003fc       0x3e build/stm32n6xx_hal_rif.o
 .ARM.attributes
                0x0000043a       0x3e build/stm32n6xx_hal_ramcfg.o
 .ARM.attributes
                0x00000478       0x3e build/stm32n6xx_hal_cacheaxi.o
 .ARM.attributes
                0x000004b6       0x3e build/stm32n6xx_hal_uart_ex.o
 .ARM.attributes
                0x000004f4       0x3e build/stm32n6xx_hal_cortex.o
 .ARM.attributes
                0x00000532       0x22 build/startup_stm32n657xx.o
 .ARM.attributes
                0x00000554       0x36 /usr/lib/gcc/arm-none-eabi/16.1.0/../../../../arm-none-eabi/lib/thumb/v8-m.main+dp/hard/libc_nano.a(libc_a-findfp.o)
 .ARM.attributes
                0x0000058a       0x36 /usr/lib/gcc/arm-none-eabi/16.1.0/../../../../arm-none-eabi/lib/thumb/v8-m.main+dp/hard/libc_nano.a(libc_a-fwalk.o)
 .ARM.attributes
                0x000005c0       0x36 /usr/lib/gcc/arm-none-eabi/16.1.0/../../../../arm-none-eabi/lib/thumb/v8-m.main+dp/hard/libc_nano.a(libc_a-printf.o)
 .ARM.attributes
                0x000005f6       0x36 /usr/lib/gcc/arm-none-eabi/16.1.0/../../../../arm-none-eabi/lib/thumb/v8-m.main+dp/hard/libc_nano.a(libc_a-stdio.o)
 .ARM.attributes
                0x0000062c       0x36 /usr/lib/gcc/arm-none-eabi/16.1.0/../../../../arm-none-eabi/lib/thumb/v8-m.main+dp/hard/libc_nano.a(libc_a-memset.o)
 .ARM.attributes
                0x00000662       0x36 /usr/lib/gcc/arm-none-eabi/16.1.0/../../../../arm-none-eabi/lib/thumb/v8-m.main+dp/hard/libc_nano.a(libc_a-closer.o)
 .ARM.attributes
                0x00000698       0x36 /usr/lib/gcc/arm-none-eabi/16.1.0/../../../../arm-none-eabi/lib/thumb/v8-m.main+dp/hard/libc_nano.a(libc_a-reent.o)
 .ARM.attributes
                0x000006ce       0x36 /usr/lib/gcc/arm-none-eabi/16.1.0/../../../../arm-none-eabi/lib/thumb/v8-m.main+dp/hard/libc_nano.a(libc_a-impure.o)
 .ARM.attributes
                0x00000704       0x36 /usr/lib/gcc/arm-none-eabi/16.1.0/../../../../arm-none-eabi/lib/thumb/v8-m.main+dp/hard/libc_nano.a(libc_a-lseekr.o)
 .ARM.attributes
                0x0000073a       0x36 /usr/lib/gcc/arm-none-eabi/16.1.0/../../../../arm-none-eabi/lib/thumb/v8-m.main+dp/hard/libc_nano.a(libc_a-readr.o)
 .ARM.attributes
                0x00000770       0x36 /usr/lib/gcc/arm-none-eabi/16.1.0/../../../../arm-none-eabi/lib/thumb/v8-m.main+dp/hard/libc_nano.a(libc_a-writer.o)
 .ARM.attributes
                0x000007a6       0x36 /usr/lib/gcc/arm-none-eabi/16.1.0/../../../../arm-none-eabi/lib/thumb/v8-m.main+dp/hard/libc_nano.a(libc_a-errno.o)
 .ARM.attributes
                0x000007dc       0x36 /usr/lib/gcc/arm-none-eabi/16.1.0/../../../../arm-none-eabi/lib/thumb/v8-m.main+dp/hard/libc_nano.a(libc_a-init.o)
 .ARM.attributes
                0x00000812       0x36 /usr/lib/gcc/arm-none-eabi/16.1.0/../../../../arm-none-eabi/lib/thumb/v8-m.main+dp/hard/libc_nano.a(libc_a-lock.o)
 .ARM.attributes
                0x00000848       0x36 /usr/lib/gcc/arm-none-eabi/16.1.0/../../../../arm-none-eabi/lib/thumb/v8-m.main+dp/hard/libc_nano.a(libc_a-freer.o)
 .ARM.attributes
                0x0000087e       0x36 /usr/lib/gcc/arm-none-eabi/16.1.0/../../../../arm-none-eabi/lib/thumb/v8-m.main+dp/hard/libc_nano.a(libc_a-mallocr.o)
 .ARM.attributes
                0x000008b4       0x36 /usr/lib/gcc/arm-none-eabi/16.1.0/../../../../arm-none-eabi/lib/thumb/v8-m.main+dp/hard/libc_nano.a(libc_a-mlock.o)
 .ARM.attributes
                0x000008ea       0x36 /usr/lib/gcc/arm-none-eabi/16.1.0/../../../../arm-none-eabi/lib/thumb/v8-m.main+dp/hard/libc_nano.a(libc_a-nano-vfprintf.o)
 .ARM.attributes
                0x00000920       0x36 /usr/lib/gcc/arm-none-eabi/16.1.0/../../../../arm-none-eabi/lib/thumb/v8-m.main+dp/hard/libc_nano.a(libc_a-nano-vfprintf_i.o)
 .ARM.attributes
                0x00000956       0x36 /usr/lib/gcc/arm-none-eabi/16.1.0/../../../../arm-none-eabi/lib/thumb/v8-m.main+dp/hard/libc_nano.a(libc_a-fflush.o)
 .ARM.attributes
                0x0000098c       0x36 /usr/lib/gcc/arm-none-eabi/16.1.0/../../../../arm-none-eabi/lib/thumb/v8-m.main+dp/hard/libc_nano.a(libc_a-wbuf.o)
 .ARM.attributes
                0x000009c2       0x36 /usr/lib/gcc/arm-none-eabi/16.1.0/../../../../arm-none-eabi/lib/thumb/v8-m.main+dp/hard/libc_nano.a(libc_a-wsetup.o)
 .ARM.attributes
                0x000009f8       0x36 /usr/lib/gcc/arm-none-eabi/16.1.0/../../../../arm-none-eabi/lib/thumb/v8-m.main+dp/hard/libc_nano.a(libc_a-sbrkr.o)
 .ARM.attributes
                0x00000a2e       0x36 /usr/lib/gcc/arm-none-eabi/16.1.0/../../../../arm-none-eabi/lib/thumb/v8-m.main+dp/hard/libc_nano.a(libc_a-memchr-stub.o)
 .ARM.attributes
                0x00000a64       0x36 /usr/lib/gcc/arm-none-eabi/16.1.0/../../../../arm-none-eabi/lib/thumb/v8-m.main+dp/hard/libc_nano.a(libc_a-makebuf.o)
 .ARM.attributes
                0x00000a9a       0x36 /usr/lib/gcc/arm-none-eabi/16.1.0/../../../../arm-none-eabi/lib/thumb/v8-m.main+dp/hard/libc_nano.a(libc_a-fstatr.o)
 .ARM.attributes
                0x00000ad0       0x36 /usr/lib/gcc/arm-none-eabi/16.1.0/../../../../arm-none-eabi/lib/thumb/v8-m.main+dp/hard/libc_nano.a(libc_a-isattyr.o)
 .ARM.attributes
                0x00000b06       0x24 /usr/lib/gcc/arm-none-eabi/16.1.0/thumb/v8-m.main+dp/hard/libgcc.a(_aeabi_uldivmod.o)
 .ARM.attributes
                0x00000b2a       0x36 /usr/lib/gcc/arm-none-eabi/16.1.0/thumb/v8-m.main+dp/hard/libgcc.a(_udivmoddi4.o)
 .ARM.attributes
                0x00000b60       0x24 /usr/lib/gcc/arm-none-eabi/16.1.0/thumb/v8-m.main+dp/hard/libgcc.a(_dvmd_tls.o)
 .ARM.attributes
                0x00000b84       0x24 /usr/lib/gcc/arm-none-eabi/16.1.0/thumb/v8-m.main+dp/hard/crtn.o
OUTPUT(build/Appli.elf elf32-littlearm)
LOAD linker stubs

.debug_info     0x00000000    0x3f114
 .debug_info    0x00000000     0x410b build/main.o
 .debug_info    0x0000410b      0x183 build/stm32n6xx_it.o
 .debug_info    0x0000428e     0x403f build/stm32n6xx_hal_msp.o
 .debug_info    0x000082cd      0x157 build/secure_nsc.o
 .debug_info    0x00008424     0x1e62 build/system_stm32n6xx_s.o
 .debug_info    0x0000a286     0x35a6 build/stm32n6xx_nucleo.o
 .debug_info    0x0000d82c      0x18c build/sysmem.o
 .debug_info    0x0000d9b8      0x854 build/syscalls.o
 .debug_info    0x0000e20c     0x30c1 build/stm32n6xx_hal.o
 .debug_info    0x000112cd     0x3755 build/stm32n6xx_hal_rcc.o
 .debug_info    0x00014a22     0x88eb build/stm32n6xx_hal_rcc_ex.o
 .debug_info    0x0001d30d      0xd99 build/stm32n6xx_hal_gpio.o
 .debug_info    0x0001e0a6     0x1104 build/stm32n6xx_hal_pwr_ex.o
 .debug_info    0x0001f1aa     0x5e18 build/stm32n6xx_hal_uart.o
 .debug_info    0x00024fc2     0x68e6 build/stm32n6xx_hal_dcmipp.o
 .debug_info    0x0002b8a8     0x11fb build/stm32n6xx_hal_rif.o
 .debug_info    0x0002caa3      0x6e7 build/stm32n6xx_hal_ramcfg.o
 .debug_info    0x0002d18a      0xdb8 build/stm32n6xx_hal_cacheaxi.o
 .debug_info    0x0002df42     0x1531 build/stm32n6xx_hal_uart_ex.o
 .debug_info    0x0002f473     0x1a66 build/stm32n6xx_hal_cortex.o
 .debug_info    0x00030ed9       0x30 build/startup_stm32n657xx.o
 .debug_info    0x00030f09      0xfb4 /usr/lib/gcc/arm-none-eabi/16.1.0/../../../../arm-none-eabi/lib/thumb/v8-m.main+dp/hard/libc_nano.a(libc_a-findfp.o)
 .debug_info    0x00031ebd      0x7d7 /usr/lib/gcc/arm-none-eabi/16.1.0/../../../../arm-none-eabi/lib/thumb/v8-m.main+dp/hard/libc_nano.a(libc_a-fwalk.o)
 .debug_info    0x00032694      0x846 /usr/lib/gcc/arm-none-eabi/16.1.0/../../../../arm-none-eabi/lib/thumb/v8-m.main+dp/hard/libc_nano.a(libc_a-printf.o)
 .debug_info    0x00032eda      0xa95 /usr/lib/gcc/arm-none-eabi/16.1.0/../../../../arm-none-eabi/lib/thumb/v8-m.main+dp/hard/libc_nano.a(libc_a-stdio.o)
 .debug_info    0x0003396f       0xe5 /usr/lib/gcc/arm-none-eabi/16.1.0/../../../../arm-none-eabi/lib/thumb/v8-m.main+dp/hard/libc_nano.a(libc_a-memset.o)
 .debug_info    0x00033a54      0x762 /usr/lib/gcc/arm-none-eabi/16.1.0/../../../../arm-none-eabi/lib/thumb/v8-m.main+dp/hard/libc_nano.a(libc_a-closer.o)
 .debug_info    0x000341b6      0x8a6 /usr/lib/gcc/arm-none-eabi/16.1.0/../../../../arm-none-eabi/lib/thumb/v8-m.main+dp/hard/libc_nano.a(libc_a-reent.o)
 .debug_info    0x00034a5c      0x71a /usr/lib/gcc/arm-none-eabi/16.1.0/../../../../arm-none-eabi/lib/thumb/v8-m.main+dp/hard/libc_nano.a(libc_a-impure.o)
 .debug_info    0x00035176      0x7ad /usr/lib/gcc/arm-none-eabi/16.1.0/../../../../arm-none-eabi/lib/thumb/v8-m.main+dp/hard/libc_nano.a(libc_a-lseekr.o)
 .debug_info    0x00035923      0x7c4 /usr/lib/gcc/arm-none-eabi/16.1.0/../../../../arm-none-eabi/lib/thumb/v8-m.main+dp/hard/libc_nano.a(libc_a-readr.o)
 .debug_info    0x000360e7      0x7ca /usr/lib/gcc/arm-none-eabi/16.1.0/../../../../arm-none-eabi/lib/thumb/v8-m.main+dp/hard/libc_nano.a(libc_a-writer.o)
 .debug_info    0x000368b1      0x700 /usr/lib/gcc/arm-none-eabi/16.1.0/../../../../arm-none-eabi/lib/thumb/v8-m.main+dp/hard/libc_nano.a(libc_a-errno.o)
 .debug_info    0x00036fb1      0x110 /usr/lib/gcc/arm-none-eabi/16.1.0/../../../../arm-none-eabi/lib/thumb/v8-m.main+dp/hard/libc_nano.a(libc_a-init.o)
 .debug_info    0x000370c1      0x21d /usr/lib/gcc/arm-none-eabi/16.1.0/../../../../arm-none-eabi/lib/thumb/v8-m.main+dp/hard/libc_nano.a(libc_a-lock.o)
 .debug_info    0x000372de      0x845 /usr/lib/gcc/arm-none-eabi/16.1.0/../../../../arm-none-eabi/lib/thumb/v8-m.main+dp/hard/libc_nano.a(libc_a-freer.o)
 .debug_info    0x00037b23      0x9c1 /usr/lib/gcc/arm-none-eabi/16.1.0/../../../../arm-none-eabi/lib/thumb/v8-m.main+dp/hard/libc_nano.a(libc_a-mallocr.o)
 .debug_info    0x000384e4      0x770 /usr/lib/gcc/arm-none-eabi/16.1.0/../../../../arm-none-eabi/lib/thumb/v8-m.main+dp/hard/libc_nano.a(libc_a-mlock.o)
 .debug_info    0x00038c54     0x1099 /usr/lib/gcc/arm-none-eabi/16.1.0/../../../../arm-none-eabi/lib/thumb/v8-m.main+dp/hard/libc_nano.a(libc_a-nano-vfprintf.o)
 .debug_info    0x00039ced      0xdf2 /usr/lib/gcc/arm-none-eabi/16.1.0/../../../../arm-none-eabi/lib/thumb/v8-m.main+dp/hard/libc_nano.a(libc_a-nano-vfprintf_i.o)
 .debug_info    0x0003aadf      0x9f7 /usr/lib/gcc/arm-none-eabi/16.1.0/../../../../arm-none-eabi/lib/thumb/v8-m.main+dp/hard/libc_nano.a(libc_a-fflush.o)
 .debug_info    0x0003b4d6      0x879 /usr/lib/gcc/arm-none-eabi/16.1.0/../../../../arm-none-eabi/lib/thumb/v8-m.main+dp/hard/libc_nano.a(libc_a-wbuf.o)
 .debug_info    0x0003bd4f      0x7c0 /usr/lib/gcc/arm-none-eabi/16.1.0/../../../../arm-none-eabi/lib/thumb/v8-m.main+dp/hard/libc_nano.a(libc_a-wsetup.o)
 .debug_info    0x0003c50f      0x787 /usr/lib/gcc/arm-none-eabi/16.1.0/../../../../arm-none-eabi/lib/thumb/v8-m.main+dp/hard/libc_nano.a(libc_a-sbrkr.o)
 .debug_info    0x0003cc96      0x115 /usr/lib/gcc/arm-none-eabi/16.1.0/../../../../arm-none-eabi/lib/thumb/v8-m.main+dp/hard/libc_nano.a(libc_a-memchr-stub.o)
 .debug_info    0x0003cdab      0xb25 /usr/lib/gcc/arm-none-eabi/16.1.0/../../../../arm-none-eabi/lib/thumb/v8-m.main+dp/hard/libc_nano.a(libc_a-makebuf.o)
 .debug_info    0x0003d8d0      0x986 /usr/lib/gcc/arm-none-eabi/16.1.0/../../../../arm-none-eabi/lib/thumb/v8-m.main+dp/hard/libc_nano.a(libc_a-fstatr.o)
 .debug_info    0x0003e256      0x762 /usr/lib/gcc/arm-none-eabi/16.1.0/../../../../arm-none-eabi/lib/thumb/v8-m.main+dp/hard/libc_nano.a(libc_a-isattyr.o)
 .debug_info    0x0003e9b8       0x24 /usr/lib/gcc/arm-none-eabi/16.1.0/thumb/v8-m.main+dp/hard/libgcc.a(_aeabi_uldivmod.o)
 .debug_info    0x0003e9dc      0x6fc /usr/lib/gcc/arm-none-eabi/16.1.0/thumb/v8-m.main+dp/hard/libgcc.a(_udivmoddi4.o)
 .debug_info    0x0003f0d8       0x3c /usr/lib/gcc/arm-none-eabi/16.1.0/thumb/v8-m.main+dp/hard/libgcc.a(_dvmd_tls.o)

.debug_abbrev   0x00000000     0x6a40
 .debug_abbrev  0x00000000      0x321 build/main.o
 .debug_abbrev  0x00000321       0x80 build/stm32n6xx_it.o
 .debug_abbrev  0x000003a1      0x355 build/stm32n6xx_hal_msp.o
 .debug_abbrev  0x000006f6       0x9f build/secure_nsc.o
 .debug_abbrev  0x00000795      0x169 build/system_stm32n6xx_s.o
 .debug_abbrev  0x000008fe      0x40b build/stm32n6xx_nucleo.o
 .debug_abbrev  0x00000d09       0xeb build/sysmem.o
 .debug_abbrev  0x00000df4      0x1ec build/syscalls.o
 .debug_abbrev  0x00000fe0      0x2d4 build/stm32n6xx_hal.o
 .debug_abbrev  0x000012b4      0x434 build/stm32n6xx_hal_rcc.o
 .debug_abbrev  0x000016e8      0x3d8 build/stm32n6xx_hal_rcc_ex.o
 .debug_abbrev  0x00001ac0      0x2b0 build/stm32n6xx_hal_gpio.o
 .debug_abbrev  0x00001d70      0x2aa build/stm32n6xx_hal_pwr_ex.o
 .debug_abbrev  0x0000201a      0x363 build/stm32n6xx_hal_uart.o
 .debug_abbrev  0x0000237d      0x2d5 build/stm32n6xx_hal_dcmipp.o
 .debug_abbrev  0x00002652      0x2e3 build/stm32n6xx_hal_rif.o
 .debug_abbrev  0x00002935      0x212 build/stm32n6xx_hal_ramcfg.o
 .debug_abbrev  0x00002b47      0x24f build/stm32n6xx_hal_cacheaxi.o
 .debug_abbrev  0x00002d96      0x346 build/stm32n6xx_hal_uart_ex.o
 .debug_abbrev  0x000030dc      0x3f8 build/stm32n6xx_hal_cortex.o
 .debug_abbrev  0x000034d4       0x1d build/startup_stm32n657xx.o
 .debug_abbrev  0x000034f1      0x41a /usr/lib/gcc/arm-none-eabi/16.1.0/../../../../arm-none-eabi/lib/thumb/v8-m.main+dp/hard/libc_nano.a(libc_a-findfp.o)
 .debug_abbrev  0x0000390b      0x1a1 /usr/lib/gcc/arm-none-eabi/16.1.0/../../../../arm-none-eabi/lib/thumb/v8-m.main+dp/hard/libc_nano.a(libc_a-fwalk.o)
 .debug_abbrev  0x00003aac      0x220 /usr/lib/gcc/arm-none-eabi/16.1.0/../../../../arm-none-eabi/lib/thumb/v8-m.main+dp/hard/libc_nano.a(libc_a-printf.o)
 .debug_abbrev  0x00003ccc      0x227 /usr/lib/gcc/arm-none-eabi/16.1.0/../../../../arm-none-eabi/lib/thumb/v8-m.main+dp/hard/libc_nano.a(libc_a-stdio.o)
 .debug_abbrev  0x00003ef3       0xa4 /usr/lib/gcc/arm-none-eabi/16.1.0/../../../../arm-none-eabi/lib/thumb/v8-m.main+dp/hard/libc_nano.a(libc_a-memset.o)
 .debug_abbrev  0x00003f97      0x1b6 /usr/lib/gcc/arm-none-eabi/16.1.0/../../../../arm-none-eabi/lib/thumb/v8-m.main+dp/hard/libc_nano.a(libc_a-closer.o)
 .debug_abbrev  0x0000414d      0x1fd /usr/lib/gcc/arm-none-eabi/16.1.0/../../../../arm-none-eabi/lib/thumb/v8-m.main+dp/hard/libc_nano.a(libc_a-reent.o)
 .debug_abbrev  0x0000434a      0x14f /usr/lib/gcc/arm-none-eabi/16.1.0/../../../../arm-none-eabi/lib/thumb/v8-m.main+dp/hard/libc_nano.a(libc_a-impure.o)
 .debug_abbrev  0x00004499      0x1ca /usr/lib/gcc/arm-none-eabi/16.1.0/../../../../arm-none-eabi/lib/thumb/v8-m.main+dp/hard/libc_nano.a(libc_a-lseekr.o)
 .debug_abbrev  0x00004663      0x1b6 /usr/lib/gcc/arm-none-eabi/16.1.0/../../../../arm-none-eabi/lib/thumb/v8-m.main+dp/hard/libc_nano.a(libc_a-readr.o)
 .debug_abbrev  0x00004819      0x1bb /usr/lib/gcc/arm-none-eabi/16.1.0/../../../../arm-none-eabi/lib/thumb/v8-m.main+dp/hard/libc_nano.a(libc_a-writer.o)
 .debug_abbrev  0x000049d4      0x164 /usr/lib/gcc/arm-none-eabi/16.1.0/../../../../arm-none-eabi/lib/thumb/v8-m.main+dp/hard/libc_nano.a(libc_a-errno.o)
 .debug_abbrev  0x00004b38       0xcf /usr/lib/gcc/arm-none-eabi/16.1.0/../../../../arm-none-eabi/lib/thumb/v8-m.main+dp/hard/libc_nano.a(libc_a-init.o)
 .debug_abbrev  0x00004c07      0x11b /usr/lib/gcc/arm-none-eabi/16.1.0/../../../../arm-none-eabi/lib/thumb/v8-m.main+dp/hard/libc_nano.a(libc_a-lock.o)
 .debug_abbrev  0x00004d22      0x23a /usr/lib/gcc/arm-none-eabi/16.1.0/../../../../arm-none-eabi/lib/thumb/v8-m.main+dp/hard/libc_nano.a(libc_a-freer.o)
 .debug_abbrev  0x00004f5c      0x250 /usr/lib/gcc/arm-none-eabi/16.1.0/../../../../arm-none-eabi/lib/thumb/v8-m.main+dp/hard/libc_nano.a(libc_a-mallocr.o)
 .debug_abbrev  0x000051ac      0x1c5 /usr/lib/gcc/arm-none-eabi/16.1.0/../../../../arm-none-eabi/lib/thumb/v8-m.main+dp/hard/libc_nano.a(libc_a-mlock.o)
 .debug_abbrev  0x00005371      0x31c /usr/lib/gcc/arm-none-eabi/16.1.0/../../../../arm-none-eabi/lib/thumb/v8-m.main+dp/hard/libc_nano.a(libc_a-nano-vfprintf.o)
 .debug_abbrev  0x0000568d      0x28f /usr/lib/gcc/arm-none-eabi/16.1.0/../../../../arm-none-eabi/lib/thumb/v8-m.main+dp/hard/libc_nano.a(libc_a-nano-vfprintf_i.o)
 .debug_abbrev  0x0000591c      0x2b8 /usr/lib/gcc/arm-none-eabi/16.1.0/../../../../arm-none-eabi/lib/thumb/v8-m.main+dp/hard/libc_nano.a(libc_a-fflush.o)
 .debug_abbrev  0x00005bd4      0x233 /usr/lib/gcc/arm-none-eabi/16.1.0/../../../../arm-none-eabi/lib/thumb/v8-m.main+dp/hard/libc_nano.a(libc_a-wbuf.o)
 .debug_abbrev  0x00005e07      0x1e8 /usr/lib/gcc/arm-none-eabi/16.1.0/../../../../arm-none-eabi/lib/thumb/v8-m.main+dp/hard/libc_nano.a(libc_a-wsetup.o)
 .debug_abbrev  0x00005fef      0x1e0 /usr/lib/gcc/arm-none-eabi/16.1.0/../../../../arm-none-eabi/lib/thumb/v8-m.main+dp/hard/libc_nano.a(libc_a-sbrkr.o)
 .debug_abbrev  0x000061cf       0xb7 /usr/lib/gcc/arm-none-eabi/16.1.0/../../../../arm-none-eabi/lib/thumb/v8-m.main+dp/hard/libc_nano.a(libc_a-memchr-stub.o)
 .debug_abbrev  0x00006286      0x291 /usr/lib/gcc/arm-none-eabi/16.1.0/../../../../arm-none-eabi/lib/thumb/v8-m.main+dp/hard/libc_nano.a(libc_a-makebuf.o)
 .debug_abbrev  0x00006517      0x1c9 /usr/lib/gcc/arm-none-eabi/16.1.0/../../../../arm-none-eabi/lib/thumb/v8-m.main+dp/hard/libc_nano.a(libc_a-fstatr.o)
 .debug_abbrev  0x000066e0      0x1b6 /usr/lib/gcc/arm-none-eabi/16.1.0/../../../../arm-none-eabi/lib/thumb/v8-m.main+dp/hard/libc_nano.a(libc_a-isattyr.o)
 .debug_abbrev  0x00006896       0x14 /usr/lib/gcc/arm-none-eabi/16.1.0/thumb/v8-m.main+dp/hard/libgcc.a(_aeabi_uldivmod.o)
 .debug_abbrev  0x000068aa      0x170 /usr/lib/gcc/arm-none-eabi/16.1.0/thumb/v8-m.main+dp/hard/libgcc.a(_udivmoddi4.o)
 .debug_abbrev  0x00006a1a       0x26 /usr/lib/gcc/arm-none-eabi/16.1.0/thumb/v8-m.main+dp/hard/libgcc.a(_dvmd_tls.o)

.debug_loc      0x00000000    0x1b6c5
 .debug_loc     0x00000000      0x1b1 build/main.o
 .debug_loc     0x000001b1       0x20 build/stm32n6xx_it.o
 .debug_loc     0x000001d1      0x391 build/stm32n6xx_hal_msp.o
 .debug_loc     0x00000562       0x9b build/secure_nsc.o
 .debug_loc     0x000005fd      0x601 build/system_stm32n6xx_s.o
 .debug_loc     0x00000bfe      0x94f build/stm32n6xx_nucleo.o
 .debug_loc     0x0000154d       0x90 build/sysmem.o
 .debug_loc     0x000015dd      0x583 build/syscalls.o
 .debug_loc     0x00001b60      0xea2 build/stm32n6xx_hal.o
 .debug_loc     0x00002a02     0x1bf0 build/stm32n6xx_hal_rcc.o
 .debug_loc     0x000045f2     0x6787 build/stm32n6xx_hal_rcc_ex.o
 .debug_loc     0x0000ad79      0x9e5 build/stm32n6xx_hal_gpio.o
 .debug_loc     0x0000b75e      0x48b build/stm32n6xx_hal_pwr_ex.o
 .debug_loc     0x0000bbe9     0x50d0 build/stm32n6xx_hal_uart.o
 .debug_loc     0x00010cb9     0x6fe1 build/stm32n6xx_hal_dcmipp.o
 .debug_loc     0x00017c9a      0xe64 build/stm32n6xx_hal_rif.o
 .debug_loc     0x00018afe      0x4f2 build/stm32n6xx_hal_ramcfg.o
 .debug_loc     0x00018ff0      0xe3a build/stm32n6xx_hal_cacheaxi.o
 .debug_loc     0x00019e2a      0xdd9 build/stm32n6xx_hal_uart_ex.o
 .debug_loc     0x0001ac03      0xac2 build/stm32n6xx_hal_cortex.o

.debug_aranges  0x00000000     0x1de0
 .debug_aranges
                0x00000000       0x58 build/main.o
 .debug_aranges
                0x00000058       0x68 build/stm32n6xx_it.o
 .debug_aranges
                0x000000c0       0x60 build/stm32n6xx_hal_msp.o
 .debug_aranges
                0x00000120       0x20 build/secure_nsc.o
 .debug_aranges
                0x00000140       0x38 build/system_stm32n6xx_s.o
 .debug_aranges
                0x00000178       0xd0 build/stm32n6xx_nucleo.o
 .debug_aranges
                0x00000248       0x20 build/sysmem.o
 .debug_aranges
                0x00000268       0xa8 build/syscalls.o
 .debug_aranges
                0x00000310      0x3d0 build/stm32n6xx_hal.o
 .debug_aranges
                0x000006e0       0xf8 build/stm32n6xx_hal_rcc.o
 .debug_aranges
                0x000007d8      0x1b8 build/stm32n6xx_hal_rcc_ex.o
 .debug_aranges
                0x00000990       0xa8 build/stm32n6xx_hal_gpio.o
 .debug_aranges
                0x00000a38      0x260 build/stm32n6xx_hal_pwr_ex.o
 .debug_aranges
                0x00000c98      0x248 build/stm32n6xx_hal_uart.o
 .debug_aranges
                0x00000ee0      0x558 build/stm32n6xx_hal_dcmipp.o
 .debug_aranges
                0x00001438       0xf0 build/stm32n6xx_hal_rif.o
 .debug_aranges
                0x00001528       0xb8 build/stm32n6xx_hal_ramcfg.o
 .debug_aranges
                0x000015e0      0x118 build/stm32n6xx_hal_cacheaxi.o
 .debug_aranges
                0x000016f8       0xa8 build/stm32n6xx_hal_uart_ex.o
 .debug_aranges
                0x000017a0      0x140 build/stm32n6xx_hal_cortex.o
 .debug_aranges
                0x000018e0       0x28 build/startup_stm32n657xx.o
 .debug_aranges
                0x00001908       0x78 /usr/lib/gcc/arm-none-eabi/16.1.0/../../../../arm-none-eabi/lib/thumb/v8-m.main+dp/hard/libc_nano.a(libc_a-findfp.o)
 .debug_aranges
                0x00001980       0x20 /usr/lib/gcc/arm-none-eabi/16.1.0/../../../../arm-none-eabi/lib/thumb/v8-m.main+dp/hard/libc_nano.a(libc_a-fwalk.o)
 .debug_aranges
                0x000019a0       0x28 /usr/lib/gcc/arm-none-eabi/16.1.0/../../../../arm-none-eabi/lib/thumb/v8-m.main+dp/hard/libc_nano.a(libc_a-printf.o)
 .debug_aranges
                0x000019c8       0x40 /usr/lib/gcc/arm-none-eabi/16.1.0/../../../../arm-none-eabi/lib/thumb/v8-m.main+dp/hard/libc_nano.a(libc_a-stdio.o)
 .debug_aranges
                0x00001a08       0x20 /usr/lib/gcc/arm-none-eabi/16.1.0/../../../../arm-none-eabi/lib/thumb/v8-m.main+dp/hard/libc_nano.a(libc_a-memset.o)
 .debug_aranges
                0x00001a28       0x20 /usr/lib/gcc/arm-none-eabi/16.1.0/../../../../arm-none-eabi/lib/thumb/v8-m.main+dp/hard/libc_nano.a(libc_a-closer.o)
 .debug_aranges
                0x00001a48       0x20 /usr/lib/gcc/arm-none-eabi/16.1.0/../../../../arm-none-eabi/lib/thumb/v8-m.main+dp/hard/libc_nano.a(libc_a-reent.o)
 .debug_aranges
                0x00001a68       0x18 /usr/lib/gcc/arm-none-eabi/16.1.0/../../../../arm-none-eabi/lib/thumb/v8-m.main+dp/hard/libc_nano.a(libc_a-impure.o)
 .debug_aranges
                0x00001a80       0x20 /usr/lib/gcc/arm-none-eabi/16.1.0/../../../../arm-none-eabi/lib/thumb/v8-m.main+dp/hard/libc_nano.a(libc_a-lseekr.o)
 .debug_aranges
                0x00001aa0       0x20 /usr/lib/gcc/arm-none-eabi/16.1.0/../../../../arm-none-eabi/lib/thumb/v8-m.main+dp/hard/libc_nano.a(libc_a-readr.o)
 .debug_aranges
                0x00001ac0       0x20 /usr/lib/gcc/arm-none-eabi/16.1.0/../../../../arm-none-eabi/lib/thumb/v8-m.main+dp/hard/libc_nano.a(libc_a-writer.o)
 .debug_aranges
                0x00001ae0       0x20 /usr/lib/gcc/arm-none-eabi/16.1.0/../../../../arm-none-eabi/lib/thumb/v8-m.main+dp/hard/libc_nano.a(libc_a-errno.o)
 .debug_aranges
                0x00001b00       0x20 /usr/lib/gcc/arm-none-eabi/16.1.0/../../../../arm-none-eabi/lib/thumb/v8-m.main+dp/hard/libc_nano.a(libc_a-init.o)
 .debug_aranges
                0x00001b20       0x68 /usr/lib/gcc/arm-none-eabi/16.1.0/../../../../arm-none-eabi/lib/thumb/v8-m.main+dp/hard/libc_nano.a(libc_a-lock.o)
 .debug_aranges
                0x00001b88       0x20 /usr/lib/gcc/arm-none-eabi/16.1.0/../../../../arm-none-eabi/lib/thumb/v8-m.main+dp/hard/libc_nano.a(libc_a-freer.o)
 .debug_aranges
                0x00001ba8       0x28 /usr/lib/gcc/arm-none-eabi/16.1.0/../../../../arm-none-eabi/lib/thumb/v8-m.main+dp/hard/libc_nano.a(libc_a-mallocr.o)
 .debug_aranges
                0x00001bd0       0x28 /usr/lib/gcc/arm-none-eabi/16.1.0/../../../../arm-none-eabi/lib/thumb/v8-m.main+dp/hard/libc_nano.a(libc_a-mlock.o)
 .debug_aranges
                0x00001bf8       0x40 /usr/lib/gcc/arm-none-eabi/16.1.0/../../../../arm-none-eabi/lib/thumb/v8-m.main+dp/hard/libc_nano.a(libc_a-nano-vfprintf.o)
 .debug_aranges
                0x00001c38       0x28 /usr/lib/gcc/arm-none-eabi/16.1.0/../../../../arm-none-eabi/lib/thumb/v8-m.main+dp/hard/libc_nano.a(libc_a-nano-vfprintf_i.o)
 .debug_aranges
                0x00001c60       0x30 /usr/lib/gcc/arm-none-eabi/16.1.0/../../../../arm-none-eabi/lib/thumb/v8-m.main+dp/hard/libc_nano.a(libc_a-fflush.o)
 .debug_aranges
                0x00001c90       0x28 /usr/lib/gcc/arm-none-eabi/16.1.0/../../../../arm-none-eabi/lib/thumb/v8-m.main+dp/hard/libc_nano.a(libc_a-wbuf.o)
 .debug_aranges
                0x00001cb8       0x20 /usr/lib/gcc/arm-none-eabi/16.1.0/../../../../arm-none-eabi/lib/thumb/v8-m.main+dp/hard/libc_nano.a(libc_a-wsetup.o)
 .debug_aranges
                0x00001cd8       0x20 /usr/lib/gcc/arm-none-eabi/16.1.0/../../../../arm-none-eabi/lib/thumb/v8-m.main+dp/hard/libc_nano.a(libc_a-sbrkr.o)
 .debug_aranges
                0x00001cf8       0x20 /usr/lib/gcc/arm-none-eabi/16.1.0/../../../../arm-none-eabi/lib/thumb/v8-m.main+dp/hard/libc_nano.a(libc_a-memchr-stub.o)
 .debug_aranges
                0x00001d18       0x28 /usr/lib/gcc/arm-none-eabi/16.1.0/../../../../arm-none-eabi/lib/thumb/v8-m.main+dp/hard/libc_nano.a(libc_a-makebuf.o)
 .debug_aranges
                0x00001d40       0x20 /usr/lib/gcc/arm-none-eabi/16.1.0/../../../../arm-none-eabi/lib/thumb/v8-m.main+dp/hard/libc_nano.a(libc_a-fstatr.o)
 .debug_aranges
                0x00001d60       0x20 /usr/lib/gcc/arm-none-eabi/16.1.0/../../../../arm-none-eabi/lib/thumb/v8-m.main+dp/hard/libc_nano.a(libc_a-isattyr.o)
 .debug_aranges
                0x00001d80       0x20 /usr/lib/gcc/arm-none-eabi/16.1.0/thumb/v8-m.main+dp/hard/libgcc.a(_aeabi_uldivmod.o)
 .debug_aranges
                0x00001da0       0x20 /usr/lib/gcc/arm-none-eabi/16.1.0/thumb/v8-m.main+dp/hard/libgcc.a(_udivmoddi4.o)
 .debug_aranges
                0x00001dc0       0x20 /usr/lib/gcc/arm-none-eabi/16.1.0/thumb/v8-m.main+dp/hard/libgcc.a(_dvmd_tls.o)

.debug_ranges   0x00000000     0x1960
 .debug_ranges  0x00000000       0x48 build/main.o
 .debug_ranges  0x00000048       0x58 build/stm32n6xx_it.o
 .debug_ranges  0x000000a0       0x50 build/stm32n6xx_hal_msp.o
 .debug_ranges  0x000000f0       0x10 build/secure_nsc.o
 .debug_ranges  0x00000100       0x28 build/system_stm32n6xx_s.o
 .debug_ranges  0x00000128       0xc0 build/stm32n6xx_nucleo.o
 .debug_ranges  0x000001e8       0x10 build/sysmem.o
 .debug_ranges  0x000001f8       0x98 build/syscalls.o
 .debug_ranges  0x00000290      0x3c0 build/stm32n6xx_hal.o
 .debug_ranges  0x00000650      0x168 build/stm32n6xx_hal_rcc.o
 .debug_ranges  0x000007b8      0x1d8 build/stm32n6xx_hal_rcc_ex.o
 .debug_ranges  0x00000990       0xc8 build/stm32n6xx_hal_gpio.o
 .debug_ranges  0x00000a58      0x2b0 build/stm32n6xx_hal_pwr_ex.o
 .debug_ranges  0x00000d08      0x238 build/stm32n6xx_hal_uart.o
 .debug_ranges  0x00000f40      0x548 build/stm32n6xx_hal_dcmipp.o
 .debug_ranges  0x00001488      0x140 build/stm32n6xx_hal_rif.o
 .debug_ranges  0x000015c8       0xa8 build/stm32n6xx_hal_ramcfg.o
 .debug_ranges  0x00001670      0x108 build/stm32n6xx_hal_cacheaxi.o
 .debug_ranges  0x00001778       0x98 build/stm32n6xx_hal_uart_ex.o
 .debug_ranges  0x00001810      0x130 build/stm32n6xx_hal_cortex.o
 .debug_ranges  0x00001940       0x20 build/startup_stm32n657xx.o

.debug_line     0x00000000    0x1ddf9
 .debug_line    0x00000000      0x699 build/main.o
 .debug_line    0x00000699      0x154 build/stm32n6xx_it.o
 .debug_line    0x000007ed      0x63d build/stm32n6xx_hal_msp.o
 .debug_line    0x00000e2a      0x100 build/secure_nsc.o
 .debug_line    0x00000f2a      0x4a9 build/system_stm32n6xx_s.o
 .debug_line    0x000013d3      0x877 build/stm32n6xx_nucleo.o
 .debug_line    0x00001c4a      0x137 build/sysmem.o
 .debug_line    0x00001d81      0x37b build/syscalls.o
 .debug_line    0x000020fc     0x1277 build/stm32n6xx_hal.o
 .debug_line    0x00003373     0x247d build/stm32n6xx_hal_rcc.o
 .debug_line    0x000057f0     0x6834 build/stm32n6xx_hal_rcc_ex.o
 .debug_line    0x0000c024      0xb29 build/stm32n6xx_hal_gpio.o
 .debug_line    0x0000cb4d      0xdcc build/stm32n6xx_hal_pwr_ex.o
 .debug_line    0x0000d919     0x4657 build/stm32n6xx_hal_uart.o
 .debug_line    0x00011f70     0x4565 build/stm32n6xx_hal_dcmipp.o
 .debug_line    0x000164d5      0xab1 build/stm32n6xx_hal_rif.o
 .debug_line    0x00016f86      0x5f1 build/stm32n6xx_hal_ramcfg.o
 .debug_line    0x00017577      0x905 build/stm32n6xx_hal_cacheaxi.o
 .debug_line    0x00017e7c      0x9f6 build/stm32n6xx_hal_uart_ex.o
 .debug_line    0x00018872      0x9e3 build/stm32n6xx_hal_cortex.o
 .debug_line    0x00019255       0x77 build/startup_stm32n657xx.o
 .debug_line    0x000192cc      0x5a3 /usr/lib/gcc/arm-none-eabi/16.1.0/../../../../arm-none-eabi/lib/thumb/v8-m.main+dp/hard/libc_nano.a(libc_a-findfp.o)
 .debug_line    0x0001986f      0x1da /usr/lib/gcc/arm-none-eabi/16.1.0/../../../../arm-none-eabi/lib/thumb/v8-m.main+dp/hard/libc_nano.a(libc_a-fwalk.o)
 .debug_line    0x00019a49      0x1f6 /usr/lib/gcc/arm-none-eabi/16.1.0/../../../../arm-none-eabi/lib/thumb/v8-m.main+dp/hard/libc_nano.a(libc_a-printf.o)
 .debug_line    0x00019c3f      0x290 /usr/lib/gcc/arm-none-eabi/16.1.0/../../../../arm-none-eabi/lib/thumb/v8-m.main+dp/hard/libc_nano.a(libc_a-stdio.o)
 .debug_line    0x00019ecf      0x12e /usr/lib/gcc/arm-none-eabi/16.1.0/../../../../arm-none-eabi/lib/thumb/v8-m.main+dp/hard/libc_nano.a(libc_a-memset.o)
 .debug_line    0x00019ffd      0x1bc /usr/lib/gcc/arm-none-eabi/16.1.0/../../../../arm-none-eabi/lib/thumb/v8-m.main+dp/hard/libc_nano.a(libc_a-closer.o)
 .debug_line    0x0001a1b9      0x2a2 /usr/lib/gcc/arm-none-eabi/16.1.0/../../../../arm-none-eabi/lib/thumb/v8-m.main+dp/hard/libc_nano.a(libc_a-reent.o)
 .debug_line    0x0001a45b      0x108 /usr/lib/gcc/arm-none-eabi/16.1.0/../../../../arm-none-eabi/lib/thumb/v8-m.main+dp/hard/libc_nano.a(libc_a-impure.o)
 .debug_line    0x0001a563      0x1bc /usr/lib/gcc/arm-none-eabi/16.1.0/../../../../arm-none-eabi/lib/thumb/v8-m.main+dp/hard/libc_nano.a(libc_a-lseekr.o)
 .debug_line    0x0001a71f      0x1bb /usr/lib/gcc/arm-none-eabi/16.1.0/../../../../arm-none-eabi/lib/thumb/v8-m.main+dp/hard/libc_nano.a(libc_a-readr.o)
 .debug_line    0x0001a8da      0x1bc /usr/lib/gcc/arm-none-eabi/16.1.0/../../../../arm-none-eabi/lib/thumb/v8-m.main+dp/hard/libc_nano.a(libc_a-writer.o)
 .debug_line    0x0001aa96      0x12a /usr/lib/gcc/arm-none-eabi/16.1.0/../../../../arm-none-eabi/lib/thumb/v8-m.main+dp/hard/libc_nano.a(libc_a-errno.o)
 .debug_line    0x0001abc0      0x120 /usr/lib/gcc/arm-none-eabi/16.1.0/../../../../arm-none-eabi/lib/thumb/v8-m.main+dp/hard/libc_nano.a(libc_a-init.o)
 .debug_line    0x0001ace0      0x17d /usr/lib/gcc/arm-none-eabi/16.1.0/../../../../arm-none-eabi/lib/thumb/v8-m.main+dp/hard/libc_nano.a(libc_a-lock.o)
 .debug_line    0x0001ae5d      0x2af /usr/lib/gcc/arm-none-eabi/16.1.0/../../../../arm-none-eabi/lib/thumb/v8-m.main+dp/hard/libc_nano.a(libc_a-freer.o)
 .debug_line    0x0001b10c      0x495 /usr/lib/gcc/arm-none-eabi/16.1.0/../../../../arm-none-eabi/lib/thumb/v8-m.main+dp/hard/libc_nano.a(libc_a-mallocr.o)
 .debug_line    0x0001b5a1      0x18a /usr/lib/gcc/arm-none-eabi/16.1.0/../../../../arm-none-eabi/lib/thumb/v8-m.main+dp/hard/libc_nano.a(libc_a-mlock.o)
 .debug_line    0x0001b72b      0x658 /usr/lib/gcc/arm-none-eabi/16.1.0/../../../../arm-none-eabi/lib/thumb/v8-m.main+dp/hard/libc_nano.a(libc_a-nano-vfprintf.o)
 .debug_line    0x0001bd83      0x6c7 /usr/lib/gcc/arm-none-eabi/16.1.0/../../../../arm-none-eabi/lib/thumb/v8-m.main+dp/hard/libc_nano.a(libc_a-nano-vfprintf_i.o)
 .debug_line    0x0001c44a      0x425 /usr/lib/gcc/arm-none-eabi/16.1.0/../../../../arm-none-eabi/lib/thumb/v8-m.main+dp/hard/libc_nano.a(libc_a-fflush.o)
 .debug_line    0x0001c86f      0x262 /usr/lib/gcc/arm-none-eabi/16.1.0/../../../../arm-none-eabi/lib/thumb/v8-m.main+dp/hard/libc_nano.a(libc_a-wbuf.o)
 .debug_line    0x0001cad1      0x286 /usr/lib/gcc/arm-none-eabi/16.1.0/../../../../arm-none-eabi/lib/thumb/v8-m.main+dp/hard/libc_nano.a(libc_a-wsetup.o)
 .debug_line    0x0001cd57      0x1bc /usr/lib/gcc/arm-none-eabi/16.1.0/../../../../arm-none-eabi/lib/thumb/v8-m.main+dp/hard/libc_nano.a(libc_a-sbrkr.o)
 .debug_line    0x0001cf13      0x196 /usr/lib/gcc/arm-none-eabi/16.1.0/../../../../arm-none-eabi/lib/thumb/v8-m.main+dp/hard/libc_nano.a(libc_a-memchr-stub.o)
 .debug_line    0x0001d0a9      0x34d /usr/lib/gcc/arm-none-eabi/16.1.0/../../../../arm-none-eabi/lib/thumb/v8-m.main+dp/hard/libc_nano.a(libc_a-makebuf.o)
 .debug_line    0x0001d3f6      0x248 /usr/lib/gcc/arm-none-eabi/16.1.0/../../../../arm-none-eabi/lib/thumb/v8-m.main+dp/hard/libc_nano.a(libc_a-fstatr.o)
 .debug_line    0x0001d63e      0x1bd /usr/lib/gcc/arm-none-eabi/16.1.0/../../../../arm-none-eabi/lib/thumb/v8-m.main+dp/hard/libc_nano.a(libc_a-isattyr.o)
 .debug_line    0x0001d7fb       0x4e /usr/lib/gcc/arm-none-eabi/16.1.0/thumb/v8-m.main+dp/hard/libgcc.a(_aeabi_uldivmod.o)
 .debug_line    0x0001d849      0x566 /usr/lib/gcc/arm-none-eabi/16.1.0/thumb/v8-m.main+dp/hard/libgcc.a(_udivmoddi4.o)
 .debug_line    0x0001ddaf       0x4a /usr/lib/gcc/arm-none-eabi/16.1.0/thumb/v8-m.main+dp/hard/libgcc.a(_dvmd_tls.o)

.debug_str      0x00000000     0xd2ad
 .debug_str     0x00000000     0xd2ad build/main.o
                               0x2238 (size before relaxing)
 .debug_str     0x0000d2ad        0x0 build/stm32n6xx_it.o
                                0x22e (size before relaxing)
 .debug_str     0x0000d2ad        0x0 build/stm32n6xx_hal_msp.o
                               0x2469 (size before relaxing)
 .debug_str     0x0000d2ad        0x0 build/secure_nsc.o
                                0x235 (size before relaxing)
 .debug_str     0x0000d2ad        0x0 build/system_stm32n6xx_s.o
                                0xf99 (size before relaxing)
 .debug_str     0x0000d2ad        0x0 build/stm32n6xx_nucleo.o
                               0x24a6 (size before relaxing)
 .debug_str     0x0000d2ad        0x0 build/sysmem.o
                                0x1fe (size before relaxing)
 .debug_str     0x0000d2ad        0x0 build/syscalls.o
                                0x3d2 (size before relaxing)
 .debug_str     0x0000d2ad        0x0 build/stm32n6xx_hal.o
                               0x291c (size before relaxing)
 .debug_str     0x0000d2ad        0x0 build/stm32n6xx_hal_rcc.o
                               0x18a5 (size before relaxing)
 .debug_str     0x0000d2ad        0x0 build/stm32n6xx_hal_rcc_ex.o
                               0x2b66 (size before relaxing)
 .debug_str     0x0000d2ad        0x0 build/stm32n6xx_hal_gpio.o
                                0x655 (size before relaxing)
 .debug_str     0x0000d2ad        0x0 build/stm32n6xx_hal_pwr_ex.o
                                0xd48 (size before relaxing)
 .debug_str     0x0000d2ad        0x0 build/stm32n6xx_hal_uart.o
                               0x111f (size before relaxing)
 .debug_str     0x0000d2ad        0x0 build/stm32n6xx_hal_dcmipp.o
                               0x305a (size before relaxing)
 .debug_str     0x0000d2ad        0x0 build/stm32n6xx_hal_rif.o
                                0x886 (size before relaxing)
 .debug_str     0x0000d2ad        0x0 build/stm32n6xx_hal_ramcfg.o
                                0x4fd (size before relaxing)
 .debug_str     0x0000d2ad        0x0 build/stm32n6xx_hal_cacheaxi.o
                                0x747 (size before relaxing)
 .debug_str     0x0000d2ad        0x0 build/stm32n6xx_hal_uart_ex.o
                                0xc26 (size before relaxing)
 .debug_str     0x0000d2ad        0x0 build/stm32n6xx_hal_cortex.o
                               0x140c (size before relaxing)
 .debug_str     0x0000d2ad        0x0 build/startup_stm32n657xx.o
                                 0x57 (size before relaxing)
 .debug_str     0x0000d2ad        0x0 /usr/lib/gcc/arm-none-eabi/16.1.0/../../../../arm-none-eabi/lib/thumb/v8-m.main+dp/hard/libc_nano.a(libc_a-findfp.o)
                                0x76d (size before relaxing)
 .debug_str     0x0000d2ad        0x0 /usr/lib/gcc/arm-none-eabi/16.1.0/../../../../arm-none-eabi/lib/thumb/v8-m.main+dp/hard/libc_nano.a(libc_a-fwalk.o)
                                0x4fa (size before relaxing)
 .debug_str     0x0000d2ad        0x0 /usr/lib/gcc/arm-none-eabi/16.1.0/../../../../arm-none-eabi/lib/thumb/v8-m.main+dp/hard/libc_nano.a(libc_a-printf.o)
                                0x525 (size before relaxing)
 .debug_str     0x0000d2ad        0x0 /usr/lib/gcc/arm-none-eabi/16.1.0/../../../../arm-none-eabi/lib/thumb/v8-m.main+dp/hard/libc_nano.a(libc_a-stdio.o)
                                0x557 (size before relaxing)
 .debug_str     0x0000d2ad        0x0 /usr/lib/gcc/arm-none-eabi/16.1.0/../../../../arm-none-eabi/lib/thumb/v8-m.main+dp/hard/libc_nano.a(libc_a-memset.o)
                                0x1ca (size before relaxing)
 .debug_str     0x0000d2ad        0x0 /usr/lib/gcc/arm-none-eabi/16.1.0/../../../../arm-none-eabi/lib/thumb/v8-m.main+dp/hard/libc_nano.a(libc_a-closer.o)
                                0x4e0 (size before relaxing)
 .debug_str     0x0000d2ad        0x0 /usr/lib/gcc/arm-none-eabi/16.1.0/../../../../arm-none-eabi/lib/thumb/v8-m.main+dp/hard/libc_nano.a(libc_a-reent.o)
                                0x509 (size before relaxing)
 .debug_str     0x0000d2ad        0x0 /usr/lib/gcc/arm-none-eabi/16.1.0/../../../../arm-none-eabi/lib/thumb/v8-m.main+dp/hard/libc_nano.a(libc_a-impure.o)
                                0x4ea (size before relaxing)
 .debug_str     0x0000d2ad        0x0 /usr/lib/gcc/arm-none-eabi/16.1.0/../../../../arm-none-eabi/lib/thumb/v8-m.main+dp/hard/libc_nano.a(libc_a-lseekr.o)
                                0x4ee (size before relaxing)
 .debug_str     0x0000d2ad        0x0 /usr/lib/gcc/arm-none-eabi/16.1.0/../../../../arm-none-eabi/lib/thumb/v8-m.main+dp/hard/libc_nano.a(libc_a-readr.o)
                                0x4ee (size before relaxing)
 .debug_str     0x0000d2ad        0x0 /usr/lib/gcc/arm-none-eabi/16.1.0/../../../../arm-none-eabi/lib/thumb/v8-m.main+dp/hard/libc_nano.a(libc_a-writer.o)
                                0x4f0 (size before relaxing)
 .debug_str     0x0000d2ad        0x0 /usr/lib/gcc/arm-none-eabi/16.1.0/../../../../arm-none-eabi/lib/thumb/v8-m.main+dp/hard/libc_nano.a(libc_a-errno.o)
                                0x4e4 (size before relaxing)
 .debug_str     0x0000d2ad        0x0 /usr/lib/gcc/arm-none-eabi/16.1.0/../../../../arm-none-eabi/lib/thumb/v8-m.main+dp/hard/libc_nano.a(libc_a-init.o)
                                0x22b (size before relaxing)
 .debug_str     0x0000d2ad        0x0 /usr/lib/gcc/arm-none-eabi/16.1.0/../../../../arm-none-eabi/lib/thumb/v8-m.main+dp/hard/libc_nano.a(libc_a-lock.o)
                                0x361 (size before relaxing)
 .debug_str     0x0000d2ad        0x0 /usr/lib/gcc/arm-none-eabi/16.1.0/../../../../arm-none-eabi/lib/thumb/v8-m.main+dp/hard/libc_nano.a(libc_a-freer.o)
                                0x56a (size before relaxing)
 .debug_str     0x0000d2ad        0x0 /usr/lib/gcc/arm-none-eabi/16.1.0/../../../../arm-none-eabi/lib/thumb/v8-m.main+dp/hard/libc_nano.a(libc_a-mallocr.o)
                                0x5cb (size before relaxing)
 .debug_str     0x0000d2ad        0x0 /usr/lib/gcc/arm-none-eabi/16.1.0/../../../../arm-none-eabi/lib/thumb/v8-m.main+dp/hard/libc_nano.a(libc_a-mlock.o)
                                0x56c (size before relaxing)
 .debug_str     0x0000d2ad        0x0 /usr/lib/gcc/arm-none-eabi/16.1.0/../../../../arm-none-eabi/lib/thumb/v8-m.main+dp/hard/libc_nano.a(libc_a-nano-vfprintf.o)
                                0x89b (size before relaxing)
 .debug_str     0x0000d2ad        0x0 /usr/lib/gcc/arm-none-eabi/16.1.0/../../../../arm-none-eabi/lib/thumb/v8-m.main+dp/hard/libc_nano.a(libc_a-nano-vfprintf_i.o)
                                0x7c9 (size before relaxing)
 .debug_str     0x0000d2ad        0x0 /usr/lib/gcc/arm-none-eabi/16.1.0/../../../../arm-none-eabi/lib/thumb/v8-m.main+dp/hard/libc_nano.a(libc_a-fflush.o)
                                0x5b5 (size before relaxing)
 .debug_str     0x0000d2ad        0x0 /usr/lib/gcc/arm-none-eabi/16.1.0/../../../../arm-none-eabi/lib/thumb/v8-m.main+dp/hard/libc_nano.a(libc_a-wbuf.o)
                                0x520 (size before relaxing)
 .debug_str     0x0000d2ad        0x0 /usr/lib/gcc/arm-none-eabi/16.1.0/../../../../arm-none-eabi/lib/thumb/v8-m.main+dp/hard/libc_nano.a(libc_a-wsetup.o)
                                0x51b (size before relaxing)
 .debug_str     0x0000d2ad        0x0 /usr/lib/gcc/arm-none-eabi/16.1.0/../../../../arm-none-eabi/lib/thumb/v8-m.main+dp/hard/libc_nano.a(libc_a-sbrkr.o)
                                0x4f3 (size before relaxing)
 .debug_str     0x0000d2ad        0x0 /usr/lib/gcc/arm-none-eabi/16.1.0/../../../../arm-none-eabi/lib/thumb/v8-m.main+dp/hard/libc_nano.a(libc_a-memchr-stub.o)
                                0x1e4 (size before relaxing)
 .debug_str     0x0000d2ad        0x0 /usr/lib/gcc/arm-none-eabi/16.1.0/../../../../arm-none-eabi/lib/thumb/v8-m.main+dp/hard/libc_nano.a(libc_a-makebuf.o)
                                0x67d (size before relaxing)
 .debug_str     0x0000d2ad        0x0 /usr/lib/gcc/arm-none-eabi/16.1.0/../../../../arm-none-eabi/lib/thumb/v8-m.main+dp/hard/libc_nano.a(libc_a-fstatr.o)
                                0x632 (size before relaxing)
 .debug_str     0x0000d2ad        0x0 /usr/lib/gcc/arm-none-eabi/16.1.0/../../../../arm-none-eabi/lib/thumb/v8-m.main+dp/hard/libc_nano.a(libc_a-isattyr.o)
                                0x4ea (size before relaxing)
 .debug_str     0x0000d2ad        0x0 /usr/lib/gcc/arm-none-eabi/16.1.0/thumb/v8-m.main+dp/hard/libgcc.a(_aeabi_uldivmod.o)
                                 0xa2 (size before relaxing)
 .debug_str     0x0000d2ad        0x0 /usr/lib/gcc/arm-none-eabi/16.1.0/thumb/v8-m.main+dp/hard/libgcc.a(_udivmoddi4.o)
                                0x6a2 (size before relaxing)
 .debug_str     0x0000d2ad        0x0 /usr/lib/gcc/arm-none-eabi/16.1.0/thumb/v8-m.main+dp/hard/libgcc.a(_dvmd_tls.o)
                                 0xc2 (size before relaxing)

.comment        0x00000000       0x1e
 .comment       0x00000000       0x1e build/main.o
                                 0x1f (size before relaxing)
 .comment       0x0000001e        0x0 build/stm32n6xx_it.o
                                 0x1f (size before relaxing)
 .comment       0x0000001e        0x0 build/stm32n6xx_hal_msp.o
                                 0x1f (size before relaxing)
 .comment       0x0000001e        0x0 build/secure_nsc.o
                                 0x1f (size before relaxing)
 .comment       0x0000001e        0x0 build/system_stm32n6xx_s.o
                                 0x1f (size before relaxing)
 .comment       0x0000001e        0x0 build/stm32n6xx_nucleo.o
                                 0x1f (size before relaxing)
 .comment       0x0000001e        0x0 build/sysmem.o
                                 0x1f (size before relaxing)
 .comment       0x0000001e        0x0 build/syscalls.o
                                 0x1f (size before relaxing)
 .comment       0x0000001e        0x0 build/stm32n6xx_hal.o
                                 0x1f (size before relaxing)
 .comment       0x0000001e        0x0 build/stm32n6xx_hal_rcc.o
                                 0x1f (size before relaxing)
 .comment       0x0000001e        0x0 build/stm32n6xx_hal_rcc_ex.o
                                 0x1f (size before relaxing)
 .comment       0x0000001e        0x0 build/stm32n6xx_hal_gpio.o
                                 0x1f (size before relaxing)
 .comment       0x0000001e        0x0 build/stm32n6xx_hal_pwr_ex.o
                                 0x1f (size before relaxing)
 .comment       0x0000001e        0x0 build/stm32n6xx_hal_uart.o
                                 0x1f (size before relaxing)
 .comment       0x0000001e        0x0 build/stm32n6xx_hal_dcmipp.o
                                 0x1f (size before relaxing)
 .comment       0x0000001e        0x0 build/stm32n6xx_hal_rif.o
                                 0x1f (size before relaxing)
 .comment       0x0000001e        0x0 build/stm32n6xx_hal_ramcfg.o
                                 0x1f (size before relaxing)
 .comment       0x0000001e        0x0 build/stm32n6xx_hal_cacheaxi.o
                                 0x1f (size before relaxing)
 .comment       0x0000001e        0x0 build/stm32n6xx_hal_uart_ex.o
                                 0x1f (size before relaxing)
 .comment       0x0000001e        0x0 build/stm32n6xx_hal_cortex.o
                                 0x1f (size before relaxing)
 .comment       0x0000001e        0x0 /usr/lib/gcc/arm-none-eabi/16.1.0/../../../../arm-none-eabi/lib/thumb/v8-m.main+dp/hard/libc_nano.a(libc_a-findfp.o)
                                 0x1f (size before relaxing)
 .comment       0x0000001e        0x0 /usr/lib/gcc/arm-none-eabi/16.1.0/../../../../arm-none-eabi/lib/thumb/v8-m.main+dp/hard/libc_nano.a(libc_a-fwalk.o)
                                 0x1f (size before relaxing)
 .comment       0x0000001e        0x0 /usr/lib/gcc/arm-none-eabi/16.1.0/../../../../arm-none-eabi/lib/thumb/v8-m.main+dp/hard/libc_nano.a(libc_a-printf.o)
                                 0x1f (size before relaxing)
 .comment       0x0000001e        0x0 /usr/lib/gcc/arm-none-eabi/16.1.0/../../../../arm-none-eabi/lib/thumb/v8-m.main+dp/hard/libc_nano.a(libc_a-stdio.o)
                                 0x1f (size before relaxing)
 .comment       0x0000001e        0x0 /usr/lib/gcc/arm-none-eabi/16.1.0/../../../../arm-none-eabi/lib/thumb/v8-m.main+dp/hard/libc_nano.a(libc_a-memset.o)
                                 0x1f (size before relaxing)
 .comment       0x0000001e        0x0 /usr/lib/gcc/arm-none-eabi/16.1.0/../../../../arm-none-eabi/lib/thumb/v8-m.main+dp/hard/libc_nano.a(libc_a-closer.o)
                                 0x1f (size before relaxing)
 .comment       0x0000001e        0x0 /usr/lib/gcc/arm-none-eabi/16.1.0/../../../../arm-none-eabi/lib/thumb/v8-m.main+dp/hard/libc_nano.a(libc_a-reent.o)
                                 0x1f (size before relaxing)
 .comment       0x0000001e        0x0 /usr/lib/gcc/arm-none-eabi/16.1.0/../../../../arm-none-eabi/lib/thumb/v8-m.main+dp/hard/libc_nano.a(libc_a-impure.o)
                                 0x1f (size before relaxing)
 .comment       0x0000001e        0x0 /usr/lib/gcc/arm-none-eabi/16.1.0/../../../../arm-none-eabi/lib/thumb/v8-m.main+dp/hard/libc_nano.a(libc_a-lseekr.o)
                                 0x1f (size before relaxing)
 .comment       0x0000001e        0x0 /usr/lib/gcc/arm-none-eabi/16.1.0/../../../../arm-none-eabi/lib/thumb/v8-m.main+dp/hard/libc_nano.a(libc_a-readr.o)
                                 0x1f (size before relaxing)
 .comment       0x0000001e        0x0 /usr/lib/gcc/arm-none-eabi/16.1.0/../../../../arm-none-eabi/lib/thumb/v8-m.main+dp/hard/libc_nano.a(libc_a-writer.o)
                                 0x1f (size before relaxing)
 .comment       0x0000001e        0x0 /usr/lib/gcc/arm-none-eabi/16.1.0/../../../../arm-none-eabi/lib/thumb/v8-m.main+dp/hard/libc_nano.a(libc_a-errno.o)
                                 0x1f (size before relaxing)
 .comment       0x0000001e        0x0 /usr/lib/gcc/arm-none-eabi/16.1.0/../../../../arm-none-eabi/lib/thumb/v8-m.main+dp/hard/libc_nano.a(libc_a-init.o)
                                 0x1f (size before relaxing)
 .comment       0x0000001e        0x0 /usr/lib/gcc/arm-none-eabi/16.1.0/../../../../arm-none-eabi/lib/thumb/v8-m.main+dp/hard/libc_nano.a(libc_a-lock.o)
                                 0x1f (size before relaxing)
 .comment       0x0000001e        0x0 /usr/lib/gcc/arm-none-eabi/16.1.0/../../../../arm-none-eabi/lib/thumb/v8-m.main+dp/hard/libc_nano.a(libc_a-freer.o)
                                 0x1f (size before relaxing)
 .comment       0x0000001e        0x0 /usr/lib/gcc/arm-none-eabi/16.1.0/../../../../arm-none-eabi/lib/thumb/v8-m.main+dp/hard/libc_nano.a(libc_a-mallocr.o)
                                 0x1f (size before relaxing)
 .comment       0x0000001e        0x0 /usr/lib/gcc/arm-none-eabi/16.1.0/../../../../arm-none-eabi/lib/thumb/v8-m.main+dp/hard/libc_nano.a(libc_a-mlock.o)
                                 0x1f (size before relaxing)
 .comment       0x0000001e        0x0 /usr/lib/gcc/arm-none-eabi/16.1.0/../../../../arm-none-eabi/lib/thumb/v8-m.main+dp/hard/libc_nano.a(libc_a-nano-vfprintf.o)
                                 0x1f (size before relaxing)
 .comment       0x0000001e        0x0 /usr/lib/gcc/arm-none-eabi/16.1.0/../../../../arm-none-eabi/lib/thumb/v8-m.main+dp/hard/libc_nano.a(libc_a-nano-vfprintf_i.o)
                                 0x1f (size before relaxing)
 .comment       0x0000001e        0x0 /usr/lib/gcc/arm-none-eabi/16.1.0/../../../../arm-none-eabi/lib/thumb/v8-m.main+dp/hard/libc_nano.a(libc_a-fflush.o)
                                 0x1f (size before relaxing)
 .comment       0x0000001e        0x0 /usr/lib/gcc/arm-none-eabi/16.1.0/../../../../arm-none-eabi/lib/thumb/v8-m.main+dp/hard/libc_nano.a(libc_a-wbuf.o)
                                 0x1f (size before relaxing)
 .comment       0x0000001e        0x0 /usr/lib/gcc/arm-none-eabi/16.1.0/../../../../arm-none-eabi/lib/thumb/v8-m.main+dp/hard/libc_nano.a(libc_a-wsetup.o)
                                 0x1f (size before relaxing)
 .comment       0x0000001e        0x0 /usr/lib/gcc/arm-none-eabi/16.1.0/../../../../arm-none-eabi/lib/thumb/v8-m.main+dp/hard/libc_nano.a(libc_a-sbrkr.o)
                                 0x1f (size before relaxing)
 .comment       0x0000001e        0x0 /usr/lib/gcc/arm-none-eabi/16.1.0/../../../../arm-none-eabi/lib/thumb/v8-m.main+dp/hard/libc_nano.a(libc_a-memchr-stub.o)
                                 0x1f (size before relaxing)
 .comment       0x0000001e        0x0 /usr/lib/gcc/arm-none-eabi/16.1.0/../../../../arm-none-eabi/lib/thumb/v8-m.main+dp/hard/libc_nano.a(libc_a-makebuf.o)
                                 0x1f (size before relaxing)
 .comment       0x0000001e        0x0 /usr/lib/gcc/arm-none-eabi/16.1.0/../../../../arm-none-eabi/lib/thumb/v8-m.main+dp/hard/libc_nano.a(libc_a-fstatr.o)
                                 0x1f (size before relaxing)
 .comment       0x0000001e        0x0 /usr/lib/gcc/arm-none-eabi/16.1.0/../../../../arm-none-eabi/lib/thumb/v8-m.main+dp/hard/libc_nano.a(libc_a-isattyr.o)
                                 0x1f (size before relaxing)
 .comment       0x0000001e        0x0 /usr/lib/gcc/arm-none-eabi/16.1.0/thumb/v8-m.main+dp/hard/libgcc.a(_udivmoddi4.o)
                                 0x1f (size before relaxing)

.debug_frame    0x00000000     0x43c8
 .debug_frame   0x00000000       0xe0 build/main.o
 .debug_frame   0x000000e0       0xb8 build/stm32n6xx_it.o
 .debug_frame   0x00000198       0xf4 build/stm32n6xx_hal_msp.o
 .debug_frame   0x0000028c       0x2c build/secure_nsc.o
 .debug_frame   0x000002b8       0x88 build/system_stm32n6xx_s.o
 .debug_frame   0x00000340      0x264 build/stm32n6xx_nucleo.o
 .debug_frame   0x000005a4       0x28 build/sysmem.o
 .debug_frame   0x000005cc      0x190 build/syscalls.o
 .debug_frame   0x0000075c      0x7ac build/stm32n6xx_hal.o
 .debug_frame   0x00000f08      0x2ec build/stm32n6xx_hal_rcc.o
 .debug_frame   0x000011f4      0x4cc build/stm32n6xx_hal_rcc_ex.o
 .debug_frame   0x000016c0      0x19c build/stm32n6xx_hal_gpio.o
 .debug_frame   0x0000185c      0x4bc build/stm32n6xx_hal_pwr_ex.o
 .debug_frame   0x00001d18      0x658 build/stm32n6xx_hal_uart.o
 .debug_frame   0x00002370      0xd2c build/stm32n6xx_hal_dcmipp.o
 .debug_frame   0x0000309c      0x20c build/stm32n6xx_hal_rif.o
 .debug_frame   0x000032a8      0x17c build/stm32n6xx_hal_ramcfg.o
 .debug_frame   0x00003424      0x2b8 build/stm32n6xx_hal_cacheaxi.o
 .debug_frame   0x000036dc      0x1cc build/stm32n6xx_hal_uart_ex.o
 .debug_frame   0x000038a8      0x2c4 build/stm32n6xx_hal_cortex.o
 .debug_frame   0x00003b6c      0x144 /usr/lib/gcc/arm-none-eabi/16.1.0/../../../../arm-none-eabi/lib/thumb/v8-m.main+dp/hard/libc_nano.a(libc_a-findfp.o)
 .debug_frame   0x00003cb0       0x34 /usr/lib/gcc/arm-none-eabi/16.1.0/../../../../arm-none-eabi/lib/thumb/v8-m.main+dp/hard/libc_nano.a(libc_a-fwalk.o)
 .debug_frame   0x00003ce4       0x6c /usr/lib/gcc/arm-none-eabi/16.1.0/../../../../arm-none-eabi/lib/thumb/v8-m.main+dp/hard/libc_nano.a(libc_a-printf.o)
 .debug_frame   0x00003d50       0x88 /usr/lib/gcc/arm-none-eabi/16.1.0/../../../../arm-none-eabi/lib/thumb/v8-m.main+dp/hard/libc_nano.a(libc_a-stdio.o)
 .debug_frame   0x00003dd8       0x20 /usr/lib/gcc/arm-none-eabi/16.1.0/../../../../arm-none-eabi/lib/thumb/v8-m.main+dp/hard/libc_nano.a(libc_a-memset.o)
 .debug_frame   0x00003df8       0x2c /usr/lib/gcc/arm-none-eabi/16.1.0/../../../../arm-none-eabi/lib/thumb/v8-m.main+dp/hard/libc_nano.a(libc_a-closer.o)
 .debug_frame   0x00003e24       0x38 /usr/lib/gcc/arm-none-eabi/16.1.0/../../../../arm-none-eabi/lib/thumb/v8-m.main+dp/hard/libc_nano.a(libc_a-reent.o)
 .debug_frame   0x00003e5c       0x2c /usr/lib/gcc/arm-none-eabi/16.1.0/../../../../arm-none-eabi/lib/thumb/v8-m.main+dp/hard/libc_nano.a(libc_a-lseekr.o)
 .debug_frame   0x00003e88       0x2c /usr/lib/gcc/arm-none-eabi/16.1.0/../../../../arm-none-eabi/lib/thumb/v8-m.main+dp/hard/libc_nano.a(libc_a-readr.o)
 .debug_frame   0x00003eb4       0x2c /usr/lib/gcc/arm-none-eabi/16.1.0/../../../../arm-none-eabi/lib/thumb/v8-m.main+dp/hard/libc_nano.a(libc_a-writer.o)
 .debug_frame   0x00003ee0       0x20 /usr/lib/gcc/arm-none-eabi/16.1.0/../../../../arm-none-eabi/lib/thumb/v8-m.main+dp/hard/libc_nano.a(libc_a-errno.o)
 .debug_frame   0x00003f00       0x2c /usr/lib/gcc/arm-none-eabi/16.1.0/../../../../arm-none-eabi/lib/thumb/v8-m.main+dp/hard/libc_nano.a(libc_a-init.o)
 .debug_frame   0x00003f2c       0xb0 /usr/lib/gcc/arm-none-eabi/16.1.0/../../../../arm-none-eabi/lib/thumb/v8-m.main+dp/hard/libc_nano.a(libc_a-lock.o)
 .debug_frame   0x00003fdc       0x38 /usr/lib/gcc/arm-none-eabi/16.1.0/../../../../arm-none-eabi/lib/thumb/v8-m.main+dp/hard/libc_nano.a(libc_a-freer.o)
 .debug_frame   0x00004014       0x50 /usr/lib/gcc/arm-none-eabi/16.1.0/../../../../arm-none-eabi/lib/thumb/v8-m.main+dp/hard/libc_nano.a(libc_a-mallocr.o)
 .debug_frame   0x00004064       0x30 /usr/lib/gcc/arm-none-eabi/16.1.0/../../../../arm-none-eabi/lib/thumb/v8-m.main+dp/hard/libc_nano.a(libc_a-mlock.o)
 .debug_frame   0x00004094       0xa8 /usr/lib/gcc/arm-none-eabi/16.1.0/../../../../arm-none-eabi/lib/thumb/v8-m.main+dp/hard/libc_nano.a(libc_a-nano-vfprintf.o)
 .debug_frame   0x0000413c       0x60 /usr/lib/gcc/arm-none-eabi/16.1.0/../../../../arm-none-eabi/lib/thumb/v8-m.main+dp/hard/libc_nano.a(libc_a-nano-vfprintf_i.o)
 .debug_frame   0x0000419c       0x5c /usr/lib/gcc/arm-none-eabi/16.1.0/../../../../arm-none-eabi/lib/thumb/v8-m.main+dp/hard/libc_nano.a(libc_a-fflush.o)
 .debug_frame   0x000041f8       0x40 /usr/lib/gcc/arm-none-eabi/16.1.0/../../../../arm-none-eabi/lib/thumb/v8-m.main+dp/hard/libc_nano.a(libc_a-wbuf.o)
 .debug_frame   0x00004238       0x2c /usr/lib/gcc/arm-none-eabi/16.1.0/../../../../arm-none-eabi/lib/thumb/v8-m.main+dp/hard/libc_nano.a(libc_a-wsetup.o)
 .debug_frame   0x00004264       0x2c /usr/lib/gcc/arm-none-eabi/16.1.0/../../../../arm-none-eabi/lib/thumb/v8-m.main+dp/hard/libc_nano.a(libc_a-sbrkr.o)
 .debug_frame   0x00004290       0x28 /usr/lib/gcc/arm-none-eabi/16.1.0/../../../../arm-none-eabi/lib/thumb/v8-m.main+dp/hard/libc_nano.a(libc_a-memchr-stub.o)
 .debug_frame   0x000042b8       0x58 /usr/lib/gcc/arm-none-eabi/16.1.0/../../../../arm-none-eabi/lib/thumb/v8-m.main+dp/hard/libc_nano.a(libc_a-makebuf.o)
 .debug_frame   0x00004310       0x2c /usr/lib/gcc/arm-none-eabi/16.1.0/../../../../arm-none-eabi/lib/thumb/v8-m.main+dp/hard/libc_nano.a(libc_a-fstatr.o)
 .debug_frame   0x0000433c       0x2c /usr/lib/gcc/arm-none-eabi/16.1.0/../../../../arm-none-eabi/lib/thumb/v8-m.main+dp/hard/libc_nano.a(libc_a-isattyr.o)
 .debug_frame   0x00004368       0x2c /usr/lib/gcc/arm-none-eabi/16.1.0/thumb/v8-m.main+dp/hard/libgcc.a(_aeabi_uldivmod.o)
 .debug_frame   0x00004394       0x34 /usr/lib/gcc/arm-none-eabi/16.1.0/thumb/v8-m.main+dp/hard/libgcc.a(_udivmoddi4.o)

.debug_loclists
                0x00000000     0x2454
 .debug_loclists
                0x00000000      0x300 /usr/lib/gcc/arm-none-eabi/16.1.0/../../../../arm-none-eabi/lib/thumb/v8-m.main+dp/hard/libc_nano.a(libc_a-findfp.o)
 .debug_loclists
                0x00000300       0x91 /usr/lib/gcc/arm-none-eabi/16.1.0/../../../../arm-none-eabi/lib/thumb/v8-m.main+dp/hard/libc_nano.a(libc_a-fwalk.o)
 .debug_loclists
                0x00000391       0x4a /usr/lib/gcc/arm-none-eabi/16.1.0/../../../../arm-none-eabi/lib/thumb/v8-m.main+dp/hard/libc_nano.a(libc_a-printf.o)
 .debug_loclists
                0x000003db      0x25d /usr/lib/gcc/arm-none-eabi/16.1.0/../../../../arm-none-eabi/lib/thumb/v8-m.main+dp/hard/libc_nano.a(libc_a-stdio.o)
 .debug_loclists
                0x00000638       0x4d /usr/lib/gcc/arm-none-eabi/16.1.0/../../../../arm-none-eabi/lib/thumb/v8-m.main+dp/hard/libc_nano.a(libc_a-memset.o)
 .debug_loclists
                0x00000685       0x58 /usr/lib/gcc/arm-none-eabi/16.1.0/../../../../arm-none-eabi/lib/thumb/v8-m.main+dp/hard/libc_nano.a(libc_a-closer.o)
 .debug_loclists
                0x000006dd       0x9c /usr/lib/gcc/arm-none-eabi/16.1.0/../../../../arm-none-eabi/lib/thumb/v8-m.main+dp/hard/libc_nano.a(libc_a-reent.o)
 .debug_loclists
                0x00000779       0xa0 /usr/lib/gcc/arm-none-eabi/16.1.0/../../../../arm-none-eabi/lib/thumb/v8-m.main+dp/hard/libc_nano.a(libc_a-lseekr.o)
 .debug_loclists
                0x00000819       0xa0 /usr/lib/gcc/arm-none-eabi/16.1.0/../../../../arm-none-eabi/lib/thumb/v8-m.main+dp/hard/libc_nano.a(libc_a-readr.o)
 .debug_loclists
                0x000008b9       0xa0 /usr/lib/gcc/arm-none-eabi/16.1.0/../../../../arm-none-eabi/lib/thumb/v8-m.main+dp/hard/libc_nano.a(libc_a-writer.o)
 .debug_loclists
                0x00000959       0x48 /usr/lib/gcc/arm-none-eabi/16.1.0/../../../../arm-none-eabi/lib/thumb/v8-m.main+dp/hard/libc_nano.a(libc_a-init.o)
 .debug_loclists
                0x000009a1       0x29 /usr/lib/gcc/arm-none-eabi/16.1.0/../../../../arm-none-eabi/lib/thumb/v8-m.main+dp/hard/libc_nano.a(libc_a-lock.o)
 .debug_loclists
                0x000009ca       0xda /usr/lib/gcc/arm-none-eabi/16.1.0/../../../../arm-none-eabi/lib/thumb/v8-m.main+dp/hard/libc_nano.a(libc_a-freer.o)
 .debug_loclists
                0x00000aa4      0x20c /usr/lib/gcc/arm-none-eabi/16.1.0/../../../../arm-none-eabi/lib/thumb/v8-m.main+dp/hard/libc_nano.a(libc_a-mallocr.o)
 .debug_loclists
                0x00000cb0       0x46 /usr/lib/gcc/arm-none-eabi/16.1.0/../../../../arm-none-eabi/lib/thumb/v8-m.main+dp/hard/libc_nano.a(libc_a-mlock.o)
 .debug_loclists
                0x00000cf6      0x439 /usr/lib/gcc/arm-none-eabi/16.1.0/../../../../arm-none-eabi/lib/thumb/v8-m.main+dp/hard/libc_nano.a(libc_a-nano-vfprintf.o)
 .debug_loclists
                0x0000112f      0x360 /usr/lib/gcc/arm-none-eabi/16.1.0/../../../../arm-none-eabi/lib/thumb/v8-m.main+dp/hard/libc_nano.a(libc_a-nano-vfprintf_i.o)
 .debug_loclists
                0x0000148f      0x223 /usr/lib/gcc/arm-none-eabi/16.1.0/../../../../arm-none-eabi/lib/thumb/v8-m.main+dp/hard/libc_nano.a(libc_a-fflush.o)
 .debug_loclists
                0x000016b2       0xd2 /usr/lib/gcc/arm-none-eabi/16.1.0/../../../../arm-none-eabi/lib/thumb/v8-m.main+dp/hard/libc_nano.a(libc_a-wbuf.o)
 .debug_loclists
                0x00001784       0x41 /usr/lib/gcc/arm-none-eabi/16.1.0/../../../../arm-none-eabi/lib/thumb/v8-m.main+dp/hard/libc_nano.a(libc_a-wsetup.o)
 .debug_loclists
                0x000017c5       0x58 /usr/lib/gcc/arm-none-eabi/16.1.0/../../../../arm-none-eabi/lib/thumb/v8-m.main+dp/hard/libc_nano.a(libc_a-sbrkr.o)
 .debug_loclists
                0x0000181d       0xc5 /usr/lib/gcc/arm-none-eabi/16.1.0/../../../../arm-none-eabi/lib/thumb/v8-m.main+dp/hard/libc_nano.a(libc_a-memchr-stub.o)
 .debug_loclists
                0x000018e2       0xe8 /usr/lib/gcc/arm-none-eabi/16.1.0/../../../../arm-none-eabi/lib/thumb/v8-m.main+dp/hard/libc_nano.a(libc_a-makebuf.o)
 .debug_loclists
                0x000019ca       0x7c /usr/lib/gcc/arm-none-eabi/16.1.0/../../../../arm-none-eabi/lib/thumb/v8-m.main+dp/hard/libc_nano.a(libc_a-fstatr.o)
 .debug_loclists
                0x00001a46       0x58 /usr/lib/gcc/arm-none-eabi/16.1.0/../../../../arm-none-eabi/lib/thumb/v8-m.main+dp/hard/libc_nano.a(libc_a-isattyr.o)
 .debug_loclists
                0x00001a9e      0x9b6 /usr/lib/gcc/arm-none-eabi/16.1.0/thumb/v8-m.main+dp/hard/libgcc.a(_udivmoddi4.o)

.debug_rnglists
                0x00000000      0x426
 .debug_rnglists
                0x00000000       0x7d /usr/lib/gcc/arm-none-eabi/16.1.0/../../../../arm-none-eabi/lib/thumb/v8-m.main+dp/hard/libc_nano.a(libc_a-findfp.o)
 .debug_rnglists
                0x0000007d       0x13 /usr/lib/gcc/arm-none-eabi/16.1.0/../../../../arm-none-eabi/lib/thumb/v8-m.main+dp/hard/libc_nano.a(libc_a-fwalk.o)
 .debug_rnglists
                0x00000090       0x19 /usr/lib/gcc/arm-none-eabi/16.1.0/../../../../arm-none-eabi/lib/thumb/v8-m.main+dp/hard/libc_nano.a(libc_a-printf.o)
 .debug_rnglists
                0x000000a9       0x2b /usr/lib/gcc/arm-none-eabi/16.1.0/../../../../arm-none-eabi/lib/thumb/v8-m.main+dp/hard/libc_nano.a(libc_a-stdio.o)
 .debug_rnglists
                0x000000d4       0x13 /usr/lib/gcc/arm-none-eabi/16.1.0/../../../../arm-none-eabi/lib/thumb/v8-m.main+dp/hard/libc_nano.a(libc_a-memset.o)
 .debug_rnglists
                0x000000e7       0x13 /usr/lib/gcc/arm-none-eabi/16.1.0/../../../../arm-none-eabi/lib/thumb/v8-m.main+dp/hard/libc_nano.a(libc_a-closer.o)
 .debug_rnglists
                0x000000fa       0x2c /usr/lib/gcc/arm-none-eabi/16.1.0/../../../../arm-none-eabi/lib/thumb/v8-m.main+dp/hard/libc_nano.a(libc_a-reent.o)
 .debug_rnglists
                0x00000126       0x13 /usr/lib/gcc/arm-none-eabi/16.1.0/../../../../arm-none-eabi/lib/thumb/v8-m.main+dp/hard/libc_nano.a(libc_a-lseekr.o)
 .debug_rnglists
                0x00000139       0x13 /usr/lib/gcc/arm-none-eabi/16.1.0/../../../../arm-none-eabi/lib/thumb/v8-m.main+dp/hard/libc_nano.a(libc_a-readr.o)
 .debug_rnglists
                0x0000014c       0x13 /usr/lib/gcc/arm-none-eabi/16.1.0/../../../../arm-none-eabi/lib/thumb/v8-m.main+dp/hard/libc_nano.a(libc_a-writer.o)
 .debug_rnglists
                0x0000015f       0x13 /usr/lib/gcc/arm-none-eabi/16.1.0/../../../../arm-none-eabi/lib/thumb/v8-m.main+dp/hard/libc_nano.a(libc_a-errno.o)
 .debug_rnglists
                0x00000172       0x13 /usr/lib/gcc/arm-none-eabi/16.1.0/../../../../arm-none-eabi/lib/thumb/v8-m.main+dp/hard/libc_nano.a(libc_a-init.o)
 .debug_rnglists
                0x00000185       0x49 /usr/lib/gcc/arm-none-eabi/16.1.0/../../../../arm-none-eabi/lib/thumb/v8-m.main+dp/hard/libc_nano.a(libc_a-lock.o)
 .debug_rnglists
                0x000001ce       0x20 /usr/lib/gcc/arm-none-eabi/16.1.0/../../../../arm-none-eabi/lib/thumb/v8-m.main+dp/hard/libc_nano.a(libc_a-freer.o)
 .debug_rnglists
                0x000001ee       0x2c /usr/lib/gcc/arm-none-eabi/16.1.0/../../../../arm-none-eabi/lib/thumb/v8-m.main+dp/hard/libc_nano.a(libc_a-mallocr.o)
 .debug_rnglists
                0x0000021a       0x19 /usr/lib/gcc/arm-none-eabi/16.1.0/../../../../arm-none-eabi/lib/thumb/v8-m.main+dp/hard/libc_nano.a(libc_a-mlock.o)
 .debug_rnglists
                0x00000233       0x38 /usr/lib/gcc/arm-none-eabi/16.1.0/../../../../arm-none-eabi/lib/thumb/v8-m.main+dp/hard/libc_nano.a(libc_a-nano-vfprintf.o)
 .debug_rnglists
                0x0000026b       0x5f /usr/lib/gcc/arm-none-eabi/16.1.0/../../../../arm-none-eabi/lib/thumb/v8-m.main+dp/hard/libc_nano.a(libc_a-nano-vfprintf_i.o)
 .debug_rnglists
                0x000002ca       0x3b /usr/lib/gcc/arm-none-eabi/16.1.0/../../../../arm-none-eabi/lib/thumb/v8-m.main+dp/hard/libc_nano.a(libc_a-fflush.o)
 .debug_rnglists
                0x00000305       0x25 /usr/lib/gcc/arm-none-eabi/16.1.0/../../../../arm-none-eabi/lib/thumb/v8-m.main+dp/hard/libc_nano.a(libc_a-wbuf.o)
 .debug_rnglists
                0x0000032a       0x23 /usr/lib/gcc/arm-none-eabi/16.1.0/../../../../arm-none-eabi/lib/thumb/v8-m.main+dp/hard/libc_nano.a(libc_a-wsetup.o)
 .debug_rnglists
                0x0000034d       0x13 /usr/lib/gcc/arm-none-eabi/16.1.0/../../../../arm-none-eabi/lib/thumb/v8-m.main+dp/hard/libc_nano.a(libc_a-sbrkr.o)
 .debug_rnglists
                0x00000360       0x13 /usr/lib/gcc/arm-none-eabi/16.1.0/../../../../arm-none-eabi/lib/thumb/v8-m.main+dp/hard/libc_nano.a(libc_a-memchr-stub.o)
 .debug_rnglists
                0x00000373       0x19 /usr/lib/gcc/arm-none-eabi/16.1.0/../../../../arm-none-eabi/lib/thumb/v8-m.main+dp/hard/libc_nano.a(libc_a-makebuf.o)
 .debug_rnglists
                0x0000038c       0x13 /usr/lib/gcc/arm-none-eabi/16.1.0/../../../../arm-none-eabi/lib/thumb/v8-m.main+dp/hard/libc_nano.a(libc_a-fstatr.o)
 .debug_rnglists
                0x0000039f       0x13 /usr/lib/gcc/arm-none-eabi/16.1.0/../../../../arm-none-eabi/lib/thumb/v8-m.main+dp/hard/libc_nano.a(libc_a-isattyr.o)
 .debug_rnglists
                0x000003b2       0x74 /usr/lib/gcc/arm-none-eabi/16.1.0/thumb/v8-m.main+dp/hard/libgcc.a(_udivmoddi4.o)

.debug_line_str
                0x00000000       0xa2
 .debug_line_str
                0x00000000       0xa2 /usr/lib/gcc/arm-none-eabi/16.1.0/thumb/v8-m.main+dp/hard/libgcc.a(_aeabi_uldivmod.o)
                                 0x96 (size before relaxing)
 .debug_line_str
                0x000000a2        0x0 /usr/lib/gcc/arm-none-eabi/16.1.0/thumb/v8-m.main+dp/hard/libgcc.a(_dvmd_tls.o)
                                 0x9a (size before relaxing)

Cross Reference Table

Symbol                                            File
ADC1_2_IRQHandler                                 build/startup_stm32n657xx.o
ADF1_FLT0_IRQHandler                              build/startup_stm32n657xx.o
BCK_ECC_IRQHandler                                build/startup_stm32n657xx.o
BSP_COM_DeInit                                    build/stm32n6xx_nucleo.o
BSP_COM_Init                                      build/stm32n6xx_nucleo.o
                                                  build/main.o
BSP_COM_SelectLogPort                             build/stm32n6xx_nucleo.o
BSP_GetBoardID                                    build/stm32n6xx_nucleo.o
BSP_GetBoardName                                  build/stm32n6xx_nucleo.o
BSP_GetVersion                                    build/stm32n6xx_nucleo.o
BSP_LED_DeInit                                    build/stm32n6xx_nucleo.o
BSP_LED_GetState                                  build/stm32n6xx_nucleo.o
BSP_LED_Init                                      build/stm32n6xx_nucleo.o
BSP_LED_Off                                       build/stm32n6xx_nucleo.o
BSP_LED_On                                        build/stm32n6xx_nucleo.o
BSP_LED_Toggle                                    build/stm32n6xx_nucleo.o
                                                  build/main.o
BSP_PB_Callback                                   build/stm32n6xx_nucleo.o
BSP_PB_DeInit                                     build/stm32n6xx_nucleo.o
BSP_PB_GetState                                   build/stm32n6xx_nucleo.o
BSP_PB_IRQHandler                                 build/stm32n6xx_nucleo.o
BSP_PB_Init                                       build/stm32n6xx_nucleo.o
BSP_SMPS_Init                                     build/stm32n6xx_nucleo.o
BspCOMInit                                        build/main.o
BusFault_Handler                                  build/stm32n6xx_it.o
CACHEAXI_IRQHandler                               build/startup_stm32n657xx.o
CACHE_ECC_IRQHandler                              build/startup_stm32n657xx.o
COM_UART                                          build/stm32n6xx_nucleo.o
CRYP_IRQHandler                                   build/startup_stm32n657xx.o
CSI_IRQHandler                                    build/startup_stm32n657xx.o
CTI_INT0_IRQHandler                               build/startup_stm32n657xx.o
CTI_INT1_IRQHandler                               build/startup_stm32n657xx.o
DCMIPP_IRQHandler                                 build/startup_stm32n657xx.o
DCMI_PSSI_IRQHandler                              build/startup_stm32n657xx.o
DMA2D_IRQHandler                                  build/startup_stm32n657xx.o
DTS_IRQHandler                                    build/startup_stm32n657xx.o
DebugMon_Handler                                  build/stm32n6xx_it.o
Default_Handler                                   build/startup_stm32n657xx.o
ETH1_IRQHandler                                   build/startup_stm32n657xx.o
EXTI0_IRQHandler                                  build/startup_stm32n657xx.o
EXTI10_IRQHandler                                 build/startup_stm32n657xx.o
EXTI11_IRQHandler                                 build/startup_stm32n657xx.o
EXTI12_IRQHandler                                 build/startup_stm32n657xx.o
EXTI13_IRQHandler                                 build/startup_stm32n657xx.o
EXTI14_IRQHandler                                 build/startup_stm32n657xx.o
EXTI15_IRQHandler                                 build/startup_stm32n657xx.o
EXTI1_IRQHandler                                  build/startup_stm32n657xx.o
EXTI2_IRQHandler                                  build/startup_stm32n657xx.o
EXTI3_IRQHandler                                  build/startup_stm32n657xx.o
EXTI4_IRQHandler                                  build/startup_stm32n657xx.o
EXTI5_IRQHandler                                  build/startup_stm32n657xx.o
EXTI6_IRQHandler                                  build/startup_stm32n657xx.o
EXTI7_IRQHandler                                  build/startup_stm32n657xx.o
EXTI8_IRQHandler                                  build/startup_stm32n657xx.o
EXTI9_IRQHandler                                  build/startup_stm32n657xx.o
Error_Handler                                     build/main.o
                                                  build/stm32n6xx_hal_msp.o
FDCAN1_IT0_IRQHandler                             build/startup_stm32n657xx.o
FDCAN1_IT1_IRQHandler                             build/startup_stm32n657xx.o
FDCAN2_IT0_IRQHandler                             build/startup_stm32n657xx.o
FDCAN2_IT1_IRQHandler                             build/startup_stm32n657xx.o
FDCAN3_IT0_IRQHandler                             build/startup_stm32n657xx.o
FDCAN3_IT1_IRQHandler                             build/startup_stm32n657xx.o
FDCAN_CU_IRQHandler                               build/startup_stm32n657xx.o
FMC_IRQHandler                                    build/startup_stm32n657xx.o
FPU_IRQHandler                                    build/startup_stm32n657xx.o
GFXMMU_IRQHandler                                 build/startup_stm32n657xx.o
GFXTIM_IRQHandler                                 build/startup_stm32n657xx.o
GPDMA1_Channel0_IRQHandler                        build/startup_stm32n657xx.o
GPDMA1_Channel10_IRQHandler                       build/startup_stm32n657xx.o
GPDMA1_Channel11_IRQHandler                       build/startup_stm32n657xx.o
GPDMA1_Channel12_IRQHandler                       build/startup_stm32n657xx.o
GPDMA1_Channel13_IRQHandler                       build/startup_stm32n657xx.o
GPDMA1_Channel14_IRQHandler                       build/startup_stm32n657xx.o
GPDMA1_Channel15_IRQHandler                       build/startup_stm32n657xx.o
GPDMA1_Channel1_IRQHandler                        build/startup_stm32n657xx.o
GPDMA1_Channel2_IRQHandler                        build/startup_stm32n657xx.o
GPDMA1_Channel3_IRQHandler                        build/startup_stm32n657xx.o
GPDMA1_Channel4_IRQHandler                        build/startup_stm32n657xx.o
GPDMA1_Channel5_IRQHandler                        build/startup_stm32n657xx.o
GPDMA1_Channel6_IRQHandler                        build/startup_stm32n657xx.o
GPDMA1_Channel7_IRQHandler                        build/startup_stm32n657xx.o
GPDMA1_Channel8_IRQHandler                        build/startup_stm32n657xx.o
GPDMA1_Channel9_IRQHandler                        build/startup_stm32n657xx.o
GPU2D_ER_IRQHandler                               build/startup_stm32n657xx.o
GPU2D_IRQHandler                                  build/startup_stm32n657xx.o
HAL_CACHEAXI_CleanAndInvalidateByAddrCallback     build/stm32n6xx_hal_cacheaxi.o
HAL_CACHEAXI_CleanByAddr                          build/stm32n6xx_hal_cacheaxi.o
HAL_CACHEAXI_CleanByAddrCallback                  build/stm32n6xx_hal_cacheaxi.o
HAL_CACHEAXI_CleanByAddr_IT                       build/stm32n6xx_hal_cacheaxi.o
HAL_CACHEAXI_CleanInvalidByAddr                   build/stm32n6xx_hal_cacheaxi.o
HAL_CACHEAXI_CleanInvalidByAddr_IT                build/stm32n6xx_hal_cacheaxi.o
HAL_CACHEAXI_DeInit                               build/stm32n6xx_hal_cacheaxi.o
HAL_CACHEAXI_Disable                              build/stm32n6xx_hal_cacheaxi.o
HAL_CACHEAXI_Enable                               build/stm32n6xx_hal_cacheaxi.o
HAL_CACHEAXI_ErrorCallback                        build/stm32n6xx_hal_cacheaxi.o
HAL_CACHEAXI_GetError                             build/stm32n6xx_hal_cacheaxi.o
HAL_CACHEAXI_GetState                             build/stm32n6xx_hal_cacheaxi.o
HAL_CACHEAXI_IRQHandler                           build/stm32n6xx_hal_cacheaxi.o
HAL_CACHEAXI_Init                                 build/stm32n6xx_hal_cacheaxi.o
                                                  build/main.o
HAL_CACHEAXI_Invalidate                           build/stm32n6xx_hal_cacheaxi.o
HAL_CACHEAXI_InvalidateCompleteCallback           build/stm32n6xx_hal_cacheaxi.o
HAL_CACHEAXI_Invalidate_IT                        build/stm32n6xx_hal_cacheaxi.o
HAL_CACHEAXI_IsEnabled                            build/stm32n6xx_hal_cacheaxi.o
HAL_CACHEAXI_Monitor_GetEvictionValue             build/stm32n6xx_hal_cacheaxi.o
HAL_CACHEAXI_Monitor_GetReadAllocMissValue        build/stm32n6xx_hal_cacheaxi.o
HAL_CACHEAXI_Monitor_GetReadHitValue              build/stm32n6xx_hal_cacheaxi.o
HAL_CACHEAXI_Monitor_GetReadMissValue             build/stm32n6xx_hal_cacheaxi.o
HAL_CACHEAXI_Monitor_GetWriteAllocMissValue       build/stm32n6xx_hal_cacheaxi.o
HAL_CACHEAXI_Monitor_GetWriteHitValue             build/stm32n6xx_hal_cacheaxi.o
HAL_CACHEAXI_Monitor_GetWriteMissValue            build/stm32n6xx_hal_cacheaxi.o
HAL_CACHEAXI_Monitor_GetWriteThroughValue         build/stm32n6xx_hal_cacheaxi.o
HAL_CACHEAXI_Monitor_Reset                        build/stm32n6xx_hal_cacheaxi.o
HAL_CACHEAXI_Monitor_Start                        build/stm32n6xx_hal_cacheaxi.o
HAL_CACHEAXI_Monitor_Stop                         build/stm32n6xx_hal_cacheaxi.o
HAL_CACHEAXI_MspDeInit                            build/stm32n6xx_hal_msp.o
HAL_CACHEAXI_MspInit                              build/stm32n6xx_hal_msp.o
HAL_CORTEX_ClearEvent                             build/stm32n6xx_hal_cortex.o
HAL_DBGMCU_DisableDBGSleepMode                    build/stm32n6xx_hal.o
HAL_DBGMCU_DisableDBGStandbyMode                  build/stm32n6xx_hal.o
HAL_DBGMCU_DisableDBGStopMode                     build/stm32n6xx_hal.o
HAL_DBGMCU_EnableDBGSleepMode                     build/stm32n6xx_hal.o
HAL_DBGMCU_EnableDBGStandbyMode                   build/stm32n6xx_hal.o
HAL_DBGMCU_EnableDBGStopMode                      build/stm32n6xx_hal.o
HAL_DCMIPP_CSI_ClockChangerFifoFullEventCallback  build/stm32n6xx_hal_dcmipp.o
HAL_DCMIPP_CSI_DisableLineByteCounter             build/stm32n6xx_hal_dcmipp.o
HAL_DCMIPP_CSI_DisableTimer                       build/stm32n6xx_hal_dcmipp.o
HAL_DCMIPP_CSI_EnableLineByteCounter              build/stm32n6xx_hal_dcmipp.o
HAL_DCMIPP_CSI_EnableTimer                        build/stm32n6xx_hal_dcmipp.o
HAL_DCMIPP_CSI_EndOfFrameEventCallback            build/stm32n6xx_hal_dcmipp.o
HAL_DCMIPP_CSI_IRQHandler                         build/stm32n6xx_hal_dcmipp.o
HAL_DCMIPP_CSI_LineByteEventCallback              build/stm32n6xx_hal_dcmipp.o
HAL_DCMIPP_CSI_LineErrorCallback                  build/stm32n6xx_hal_dcmipp.o
HAL_DCMIPP_CSI_PIPE_DoubleBufferStart             build/stm32n6xx_hal_dcmipp.o
HAL_DCMIPP_CSI_PIPE_FullPlanarDoubleBufferStart   build/stm32n6xx_hal_dcmipp.o
HAL_DCMIPP_CSI_PIPE_FullPlanarStart               build/stm32n6xx_hal_dcmipp.o
HAL_DCMIPP_CSI_PIPE_SemiPlanarDoubleBufferStart   build/stm32n6xx_hal_dcmipp.o
HAL_DCMIPP_CSI_PIPE_SemiPlanarStart               build/stm32n6xx_hal_dcmipp.o
HAL_DCMIPP_CSI_PIPE_SetConfig                     build/stm32n6xx_hal_dcmipp.o
HAL_DCMIPP_CSI_PIPE_Start                         build/stm32n6xx_hal_dcmipp.o
HAL_DCMIPP_CSI_PIPE_Stop                          build/stm32n6xx_hal_dcmipp.o
HAL_DCMIPP_CSI_SetConfig                          build/stm32n6xx_hal_dcmipp.o
HAL_DCMIPP_CSI_SetLineByteCounterConfig           build/stm32n6xx_hal_dcmipp.o
HAL_DCMIPP_CSI_SetTimerConfig                     build/stm32n6xx_hal_dcmipp.o
HAL_DCMIPP_CSI_SetVCConfig                        build/stm32n6xx_hal_dcmipp.o
HAL_DCMIPP_CSI_SetVCFilteringConfig               build/stm32n6xx_hal_dcmipp.o
HAL_DCMIPP_CSI_SetWatchdogCounterConfig           build/stm32n6xx_hal_dcmipp.o
HAL_DCMIPP_CSI_ShortPacketDetectionEventCallback  build/stm32n6xx_hal_dcmipp.o
HAL_DCMIPP_CSI_StartOfFrameEventCallback          build/stm32n6xx_hal_dcmipp.o
HAL_DCMIPP_CSI_TimerCounterEventCallback          build/stm32n6xx_hal_dcmipp.o
HAL_DCMIPP_DeInit                                 build/stm32n6xx_hal_dcmipp.o
HAL_DCMIPP_ErrorCallback                          build/stm32n6xx_hal_dcmipp.o
HAL_DCMIPP_GetError                               build/stm32n6xx_hal_dcmipp.o
HAL_DCMIPP_GetMode                                build/stm32n6xx_hal_dcmipp.o
HAL_DCMIPP_GetState                               build/stm32n6xx_hal_dcmipp.o
HAL_DCMIPP_IRQHandler                             build/stm32n6xx_hal_dcmipp.o
HAL_DCMIPP_Init                                   build/stm32n6xx_hal_dcmipp.o
                                                  build/main.o
HAL_DCMIPP_MspDeInit                              build/stm32n6xx_hal_msp.o
HAL_DCMIPP_MspInit                                build/stm32n6xx_hal_msp.o
HAL_DCMIPP_PARALLEL_SetConfig                     build/stm32n6xx_hal_dcmipp.o
                                                  build/main.o
HAL_DCMIPP_PARALLEL_SetSyncUnmask                 build/stm32n6xx_hal_dcmipp.o
HAL_DCMIPP_PIPE_CSI_DisableHeader                 build/stm32n6xx_hal_dcmipp.o
HAL_DCMIPP_PIPE_CSI_DisableShare                  build/stm32n6xx_hal_dcmipp.o
HAL_DCMIPP_PIPE_CSI_EnableHeader                  build/stm32n6xx_hal_dcmipp.o
HAL_DCMIPP_PIPE_CSI_EnableShare                   build/stm32n6xx_hal_dcmipp.o
HAL_DCMIPP_PIPE_CSI_ForceDataTypeFormat           build/stm32n6xx_hal_dcmipp.o
HAL_DCMIPP_PIPE_CSI_SetDTMode                     build/stm32n6xx_hal_dcmipp.o
HAL_DCMIPP_PIPE_CSI_SetDTSelection                build/stm32n6xx_hal_dcmipp.o
HAL_DCMIPP_PIPE_DisableComponentsSwap             build/stm32n6xx_hal_dcmipp.o
HAL_DCMIPP_PIPE_DisableCrop                       build/stm32n6xx_hal_dcmipp.o
HAL_DCMIPP_PIPE_DisableDecimation                 build/stm32n6xx_hal_dcmipp.o
HAL_DCMIPP_PIPE_DisableDownsize                   build/stm32n6xx_hal_dcmipp.o
HAL_DCMIPP_PIPE_DisableGammaConversion            build/stm32n6xx_hal_dcmipp.o
HAL_DCMIPP_PIPE_DisableISPAreaStatisticExtraction build/stm32n6xx_hal_dcmipp.o
HAL_DCMIPP_PIPE_DisableISPBadPixelRemoval         build/stm32n6xx_hal_dcmipp.o
HAL_DCMIPP_PIPE_DisableISPBlackLevelCalibration   build/stm32n6xx_hal_dcmipp.o
HAL_DCMIPP_PIPE_DisableISPColorConversion         build/stm32n6xx_hal_dcmipp.o
HAL_DCMIPP_PIPE_DisableISPCtrlContrast            build/stm32n6xx_hal_dcmipp.o
HAL_DCMIPP_PIPE_DisableISPDecimation              build/stm32n6xx_hal_dcmipp.o
HAL_DCMIPP_PIPE_DisableISPExposure                build/stm32n6xx_hal_dcmipp.o
HAL_DCMIPP_PIPE_DisableISPRawBayer2RGB            build/stm32n6xx_hal_dcmipp.o
HAL_DCMIPP_PIPE_DisableISPRemovalStatistic        build/stm32n6xx_hal_dcmipp.o
HAL_DCMIPP_PIPE_DisableISPStatisticExtraction     build/stm32n6xx_hal_dcmipp.o
HAL_DCMIPP_PIPE_DisableLimitEvent                 build/stm32n6xx_hal_dcmipp.o
HAL_DCMIPP_PIPE_DisableLineEvent                  build/stm32n6xx_hal_dcmipp.o
HAL_DCMIPP_PIPE_DisableLineWrapping               build/stm32n6xx_hal_dcmipp.o
HAL_DCMIPP_PIPE_DisableRedBlueSwap                build/stm32n6xx_hal_dcmipp.o
HAL_DCMIPP_PIPE_DisableRegionOfInterest           build/stm32n6xx_hal_dcmipp.o
HAL_DCMIPP_PIPE_DisableYUVConversion              build/stm32n6xx_hal_dcmipp.o
HAL_DCMIPP_PIPE_DisableYUVSwap                    build/stm32n6xx_hal_dcmipp.o
HAL_DCMIPP_PIPE_DoubleBufferStart                 build/stm32n6xx_hal_dcmipp.o
HAL_DCMIPP_PIPE_EnableCapture                     build/stm32n6xx_hal_dcmipp.o
HAL_DCMIPP_PIPE_EnableComponentsSwap              build/stm32n6xx_hal_dcmipp.o
HAL_DCMIPP_PIPE_EnableCrop                        build/stm32n6xx_hal_dcmipp.o
HAL_DCMIPP_PIPE_EnableDecimation                  build/stm32n6xx_hal_dcmipp.o
HAL_DCMIPP_PIPE_EnableDownsize                    build/stm32n6xx_hal_dcmipp.o
HAL_DCMIPP_PIPE_EnableGammaConversion             build/stm32n6xx_hal_dcmipp.o
HAL_DCMIPP_PIPE_EnableISPAreaStatisticExtraction  build/stm32n6xx_hal_dcmipp.o
HAL_DCMIPP_PIPE_EnableISPBadPixelRemoval          build/stm32n6xx_hal_dcmipp.o
HAL_DCMIPP_PIPE_EnableISPBlackLevelCalibration    build/stm32n6xx_hal_dcmipp.o
HAL_DCMIPP_PIPE_EnableISPColorConversion          build/stm32n6xx_hal_dcmipp.o
HAL_DCMIPP_PIPE_EnableISPCtrlContrast             build/stm32n6xx_hal_dcmipp.o
HAL_DCMIPP_PIPE_EnableISPDecimation               build/stm32n6xx_hal_dcmipp.o
HAL_DCMIPP_PIPE_EnableISPExposure                 build/stm32n6xx_hal_dcmipp.o
HAL_DCMIPP_PIPE_EnableISPRawBayer2RGB             build/stm32n6xx_hal_dcmipp.o
HAL_DCMIPP_PIPE_EnableISPRemovalStatistic         build/stm32n6xx_hal_dcmipp.o
HAL_DCMIPP_PIPE_EnableISPStatisticExtraction      build/stm32n6xx_hal_dcmipp.o
HAL_DCMIPP_PIPE_EnableLimitEvent                  build/stm32n6xx_hal_dcmipp.o
HAL_DCMIPP_PIPE_EnableLineEvent                   build/stm32n6xx_hal_dcmipp.o
HAL_DCMIPP_PIPE_EnableLineWrapping                build/stm32n6xx_hal_dcmipp.o
HAL_DCMIPP_PIPE_EnableRedBlueSwap                 build/stm32n6xx_hal_dcmipp.o
HAL_DCMIPP_PIPE_EnableRegionOfInterest            build/stm32n6xx_hal_dcmipp.o
HAL_DCMIPP_PIPE_EnableYUVConversion               build/stm32n6xx_hal_dcmipp.o
HAL_DCMIPP_PIPE_EnableYUVSwap                     build/stm32n6xx_hal_dcmipp.o
HAL_DCMIPP_PIPE_ErrorCallback                     build/stm32n6xx_hal_dcmipp.o
HAL_DCMIPP_PIPE_FrameEventCallback                build/stm32n6xx_hal_dcmipp.o
HAL_DCMIPP_PIPE_FullPlanarDoubleBufferStart       build/stm32n6xx_hal_dcmipp.o
HAL_DCMIPP_PIPE_FullPlanarStart                   build/stm32n6xx_hal_dcmipp.o
HAL_DCMIPP_PIPE_GetDataCounter                    build/stm32n6xx_hal_dcmipp.o
HAL_DCMIPP_PIPE_GetISPAccumulatedStatisticsCounter build/stm32n6xx_hal_dcmipp.o
HAL_DCMIPP_PIPE_GetISPAreaStatisticExtractionConfig build/stm32n6xx_hal_dcmipp.o
HAL_DCMIPP_PIPE_GetISPBadPixelRemovalConfig       build/stm32n6xx_hal_dcmipp.o
HAL_DCMIPP_PIPE_GetISPBlackLevelCalibrationConfig build/stm32n6xx_hal_dcmipp.o
HAL_DCMIPP_PIPE_GetISPColorConversionConfig       build/stm32n6xx_hal_dcmipp.o
HAL_DCMIPP_PIPE_GetISPCtrlContrastConfig          build/stm32n6xx_hal_dcmipp.o
HAL_DCMIPP_PIPE_GetISPDecimationConfig            build/stm32n6xx_hal_dcmipp.o
HAL_DCMIPP_PIPE_GetISPExposureConfig              build/stm32n6xx_hal_dcmipp.o
HAL_DCMIPP_PIPE_GetISPRawBayer2RGBConfig          build/stm32n6xx_hal_dcmipp.o
HAL_DCMIPP_PIPE_GetISPRemovalStatisticConfig      build/stm32n6xx_hal_dcmipp.o
HAL_DCMIPP_PIPE_GetISPRemovedBadPixelCounter      build/stm32n6xx_hal_dcmipp.o
HAL_DCMIPP_PIPE_GetISPStatisticExtractionConfig   build/stm32n6xx_hal_dcmipp.o
HAL_DCMIPP_PIPE_GetMemoryAddress                  build/stm32n6xx_hal_dcmipp.o
HAL_DCMIPP_PIPE_GetState                          build/stm32n6xx_hal_dcmipp.o
HAL_DCMIPP_PIPE_IsEnabledGammaConversion          build/stm32n6xx_hal_dcmipp.o
HAL_DCMIPP_PIPE_IsEnabledISPAreaStatisticExtraction build/stm32n6xx_hal_dcmipp.o
HAL_DCMIPP_PIPE_IsEnabledISPBadPixelRemoval       build/stm32n6xx_hal_dcmipp.o
HAL_DCMIPP_PIPE_IsEnabledISPBlackLevelCalibration build/stm32n6xx_hal_dcmipp.o
HAL_DCMIPP_PIPE_IsEnabledISPColorConversion       build/stm32n6xx_hal_dcmipp.o
HAL_DCMIPP_PIPE_IsEnabledISPCtrlContrast          build/stm32n6xx_hal_dcmipp.o
HAL_DCMIPP_PIPE_IsEnabledISPDecimation            build/stm32n6xx_hal_dcmipp.o
HAL_DCMIPP_PIPE_IsEnabledISPExposure              build/stm32n6xx_hal_dcmipp.o
HAL_DCMIPP_PIPE_IsEnabledISPRawBayer2RGB          build/stm32n6xx_hal_dcmipp.o
HAL_DCMIPP_PIPE_IsEnabledISPRemovalStatistic      build/stm32n6xx_hal_dcmipp.o
HAL_DCMIPP_PIPE_IsEnabledISPStatisticExtraction   build/stm32n6xx_hal_dcmipp.o
HAL_DCMIPP_PIPE_LimitEventCallback                build/stm32n6xx_hal_dcmipp.o
HAL_DCMIPP_PIPE_LineEventCallback                 build/stm32n6xx_hal_dcmipp.o
HAL_DCMIPP_PIPE_PARALLEL_SetInputPixelFormat      build/stm32n6xx_hal_dcmipp.o
HAL_DCMIPP_PIPE_ReadFrameCounter                  build/stm32n6xx_hal_dcmipp.o
HAL_DCMIPP_PIPE_ResetFrameCounter                 build/stm32n6xx_hal_dcmipp.o
HAL_DCMIPP_PIPE_Resume                            build/stm32n6xx_hal_dcmipp.o
HAL_DCMIPP_PIPE_SemiPlanarDoubleBufferStart       build/stm32n6xx_hal_dcmipp.o
HAL_DCMIPP_PIPE_SemiPlanarStart                   build/stm32n6xx_hal_dcmipp.o
HAL_DCMIPP_PIPE_SetBytesDecimationConfig          build/stm32n6xx_hal_dcmipp.o
HAL_DCMIPP_PIPE_SetCaptureMode                    build/stm32n6xx_hal_dcmipp.o
HAL_DCMIPP_PIPE_SetConfig                         build/stm32n6xx_hal_dcmipp.o
                                                  build/main.o
HAL_DCMIPP_PIPE_SetCropConfig                     build/stm32n6xx_hal_dcmipp.o
HAL_DCMIPP_PIPE_SetDecimationConfig               build/stm32n6xx_hal_dcmipp.o
HAL_DCMIPP_PIPE_SetDownsizeConfig                 build/stm32n6xx_hal_dcmipp.o
HAL_DCMIPP_PIPE_SetFrameCounterConfig             build/stm32n6xx_hal_dcmipp.o
HAL_DCMIPP_PIPE_SetFrameRate                      build/stm32n6xx_hal_dcmipp.o
HAL_DCMIPP_PIPE_SetFullPlanarMemoryAddress        build/stm32n6xx_hal_dcmipp.o
HAL_DCMIPP_PIPE_SetISPAreaStatisticExtractionConfig build/stm32n6xx_hal_dcmipp.o
HAL_DCMIPP_PIPE_SetISPBadPixelRemovalConfig       build/stm32n6xx_hal_dcmipp.o
HAL_DCMIPP_PIPE_SetISPBlackLevelCalibrationConfig build/stm32n6xx_hal_dcmipp.o
HAL_DCMIPP_PIPE_SetISPColorConversionConfig       build/stm32n6xx_hal_dcmipp.o
HAL_DCMIPP_PIPE_SetISPCtrlContrastConfig          build/stm32n6xx_hal_dcmipp.o
HAL_DCMIPP_PIPE_SetISPDecimationConfig            build/stm32n6xx_hal_dcmipp.o
HAL_DCMIPP_PIPE_SetISPExposureConfig              build/stm32n6xx_hal_dcmipp.o
HAL_DCMIPP_PIPE_SetISPRawBayer2RGBConfig          build/stm32n6xx_hal_dcmipp.o
HAL_DCMIPP_PIPE_SetISPRemovalStatisticConfig      build/stm32n6xx_hal_dcmipp.o
HAL_DCMIPP_PIPE_SetISPStatisticExtractionConfig   build/stm32n6xx_hal_dcmipp.o
HAL_DCMIPP_PIPE_SetLineWrappingConfig             build/stm32n6xx_hal_dcmipp.o
HAL_DCMIPP_PIPE_SetLinesDecimationConfig          build/stm32n6xx_hal_dcmipp.o
HAL_DCMIPP_PIPE_SetMemoryAddress                  build/stm32n6xx_hal_dcmipp.o
HAL_DCMIPP_PIPE_SetPitch                          build/stm32n6xx_hal_dcmipp.o
HAL_DCMIPP_PIPE_SetPixelPackerFormat              build/stm32n6xx_hal_dcmipp.o
HAL_DCMIPP_PIPE_SetRegionOfInterestConfig         build/stm32n6xx_hal_dcmipp.o
HAL_DCMIPP_PIPE_SetSemiPlanarMemoryAddress        build/stm32n6xx_hal_dcmipp.o
HAL_DCMIPP_PIPE_SetYUVConversionConfig            build/stm32n6xx_hal_dcmipp.o
HAL_DCMIPP_PIPE_Start                             build/stm32n6xx_hal_dcmipp.o
HAL_DCMIPP_PIPE_Stop                              build/stm32n6xx_hal_dcmipp.o
HAL_DCMIPP_PIPE_Suspend                           build/stm32n6xx_hal_dcmipp.o
HAL_DCMIPP_PIPE_VsyncEventCallback                build/stm32n6xx_hal_dcmipp.o
HAL_DCMIPP_SetIPPlugConfig                        build/stm32n6xx_hal_dcmipp.o
HAL_DMAEx_List_Start_IT                           build/stm32n6xx_hal_uart.o
HAL_DMAEx_Resume                                  build/stm32n6xx_hal_uart.o
HAL_DMAEx_Suspend                                 build/stm32n6xx_hal_uart.o
HAL_DMA_Abort                                     build/stm32n6xx_hal_uart.o
HAL_DMA_Abort_IT                                  build/stm32n6xx_hal_uart.o
HAL_DMA_GetError                                  build/stm32n6xx_hal_uart.o
HAL_DMA_Start_IT                                  build/stm32n6xx_hal_uart.o
HAL_DeInit                                        build/stm32n6xx_hal.o
HAL_Delay                                         build/stm32n6xx_hal.o
                                                  build/stm32n6xx_hal_dcmipp.o
                                                  build/main.o
HAL_EXTI_GetHandle                                build/stm32n6xx_nucleo.o
HAL_EXTI_IRQHandler                               build/stm32n6xx_nucleo.o
HAL_EXTI_RegisterCallback                         build/stm32n6xx_nucleo.o
HAL_FMC_GetBankSwapConfig                         build/stm32n6xx_hal.o
HAL_FMC_SetBankSwapConfig                         build/stm32n6xx_hal.o
HAL_GPIO_ConfigPinAttributes                      build/stm32n6xx_hal_gpio.o
                                                  build/main.o
HAL_GPIO_DeInit                                   build/stm32n6xx_hal_gpio.o
                                                  build/stm32n6xx_nucleo.o
                                                  build/stm32n6xx_hal_msp.o
HAL_GPIO_EXTI_Falling_Callback                    build/stm32n6xx_hal_gpio.o
HAL_GPIO_EXTI_IRQHandler                          build/stm32n6xx_hal_gpio.o
HAL_GPIO_EXTI_Rising_Callback                     build/stm32n6xx_hal_gpio.o
HAL_GPIO_GetConfigPinAttributes                   build/stm32n6xx_hal_gpio.o
HAL_GPIO_GetDelay                                 build/stm32n6xx_hal_gpio.o
HAL_GPIO_GetLockPinAttributes                     build/stm32n6xx_hal_gpio.o
HAL_GPIO_GetRetime                                build/stm32n6xx_hal_gpio.o
HAL_GPIO_Init                                     build/stm32n6xx_hal_gpio.o
                                                  build/stm32n6xx_hal_rcc.o
                                                  build/stm32n6xx_nucleo.o
                                                  build/stm32n6xx_hal_msp.o
HAL_GPIO_LockPin                                  build/stm32n6xx_hal_gpio.o
HAL_GPIO_LockPinAttributes                        build/stm32n6xx_hal_gpio.o
HAL_GPIO_ReadPin                                  build/stm32n6xx_hal_gpio.o
                                                  build/stm32n6xx_nucleo.o
HAL_GPIO_SetDelay                                 build/stm32n6xx_hal_gpio.o
HAL_GPIO_SetRetime                                build/stm32n6xx_hal_gpio.o
HAL_GPIO_TogglePin                                build/stm32n6xx_hal_gpio.o
                                                  build/stm32n6xx_nucleo.o
HAL_GPIO_WriteMultipleStatePin                    build/stm32n6xx_hal_gpio.o
HAL_GPIO_WritePin                                 build/stm32n6xx_hal_gpio.o
                                                  build/stm32n6xx_nucleo.o
HAL_GetDEVID                                      build/stm32n6xx_hal.o
HAL_GetHalVersion                                 build/stm32n6xx_hal.o
HAL_GetREVID                                      build/stm32n6xx_hal.o
HAL_GetTick                                       build/stm32n6xx_hal.o
                                                  build/stm32n6xx_hal_uart_ex.o
                                                  build/stm32n6xx_hal_cacheaxi.o
                                                  build/stm32n6xx_hal_ramcfg.o
                                                  build/stm32n6xx_hal_dcmipp.o
                                                  build/stm32n6xx_hal_uart.o
                                                  build/stm32n6xx_hal_pwr_ex.o
                                                  build/stm32n6xx_hal_rcc_ex.o
                                                  build/stm32n6xx_hal_rcc.o
HAL_GetTickFreq                                   build/stm32n6xx_hal.o
HAL_GetTickPrio                                   build/stm32n6xx_hal.o
HAL_GetUIDw0                                      build/stm32n6xx_hal.o
HAL_GetUIDw1                                      build/stm32n6xx_hal.o
HAL_GetUIDw2                                      build/stm32n6xx_hal.o
HAL_HalfDuplex_EnableReceiver                     build/stm32n6xx_hal_uart.o
HAL_HalfDuplex_EnableTransmitter                  build/stm32n6xx_hal_uart.o
HAL_HalfDuplex_Init                               build/stm32n6xx_hal_uart.o
HAL_IncTick                                       build/stm32n6xx_hal.o
                                                  build/stm32n6xx_it.o
HAL_Init                                          build/stm32n6xx_hal.o
                                                  build/main.o
HAL_InitTick                                      build/stm32n6xx_hal.o
                                                  build/stm32n6xx_hal_rcc.o
HAL_LIN_Init                                      build/stm32n6xx_hal_uart.o
HAL_LIN_SendBreak                                 build/stm32n6xx_hal_uart.o
HAL_MPU_ConfigMemoryAttributes                    build/stm32n6xx_hal_cortex.o
HAL_MPU_ConfigMemoryAttributes_NS                 build/stm32n6xx_hal_cortex.o
HAL_MPU_ConfigRegion                              build/stm32n6xx_hal_cortex.o
HAL_MPU_ConfigRegion_NS                           build/stm32n6xx_hal_cortex.o
HAL_MPU_Disable                                   build/stm32n6xx_hal_cortex.o
HAL_MPU_DisableRegion                             build/stm32n6xx_hal_cortex.o
HAL_MPU_DisableRegion_NS                          build/stm32n6xx_hal_cortex.o
HAL_MPU_Disable_NS                                build/stm32n6xx_hal_cortex.o
HAL_MPU_Enable                                    build/stm32n6xx_hal_cortex.o
HAL_MPU_EnableRegion                              build/stm32n6xx_hal_cortex.o
HAL_MPU_EnableRegion_NS                           build/stm32n6xx_hal_cortex.o
HAL_MPU_Enable_NS                                 build/stm32n6xx_hal_cortex.o
HAL_MspDeInit                                     build/stm32n6xx_hal.o
HAL_MspInit                                       build/stm32n6xx_hal_msp.o
HAL_MultiProcessorEx_AddressLength_Set            build/stm32n6xx_hal_uart_ex.o
HAL_MultiProcessor_DisableMuteMode                build/stm32n6xx_hal_uart.o
HAL_MultiProcessor_EnableMuteMode                 build/stm32n6xx_hal_uart.o
HAL_MultiProcessor_EnterMuteMode                  build/stm32n6xx_hal_uart.o
HAL_MultiProcessor_Init                           build/stm32n6xx_hal_uart.o
HAL_NVIC_ClearPendingIRQ                          build/stm32n6xx_hal_cortex.o
HAL_NVIC_DisableIRQ                               build/stm32n6xx_hal_cortex.o
                                                  build/stm32n6xx_nucleo.o
HAL_NVIC_EnableIRQ                                build/stm32n6xx_hal_cortex.o
                                                  build/stm32n6xx_nucleo.o
HAL_NVIC_GetActive                                build/stm32n6xx_hal_cortex.o
HAL_NVIC_GetPendingIRQ                            build/stm32n6xx_hal_cortex.o
HAL_NVIC_GetPriority                              build/stm32n6xx_hal_cortex.o
HAL_NVIC_GetPriorityGrouping                      build/stm32n6xx_hal_cortex.o
HAL_NVIC_SetPendingIRQ                            build/stm32n6xx_hal_cortex.o
HAL_NVIC_SetPriority                              build/stm32n6xx_hal_cortex.o
                                                  build/stm32n6xx_hal.o
                                                  build/stm32n6xx_nucleo.o
HAL_NVIC_SetPriorityGrouping                      build/stm32n6xx_hal_cortex.o
                                                  build/stm32n6xx_hal.o
HAL_NVIC_SystemReset                              build/stm32n6xx_hal_cortex.o
HAL_PWREx_ADCVM_Falling_Callback                  build/stm32n6xx_hal_pwr_ex.o
HAL_PWREx_ADCVM_Rising_Callback                   build/stm32n6xx_hal_pwr_ex.o
HAL_PWREx_ConfigPVM                               build/stm32n6xx_hal_pwr_ex.o
HAL_PWREx_ConfigSupply                            build/stm32n6xx_hal_pwr_ex.o
HAL_PWREx_ConfigVDDCOREVM                         build/stm32n6xx_hal_pwr_ex.o
HAL_PWREx_ConfigVddIORange                        build/stm32n6xx_hal_pwr_ex.o
HAL_PWREx_ControlStopModeVoltageScaling           build/stm32n6xx_hal_pwr_ex.o
HAL_PWREx_ControlVoltageScaling                   build/stm32n6xx_hal_pwr_ex.o
HAL_PWREx_DisableBkupRAMRetention                 build/stm32n6xx_hal_pwr_ex.o
HAL_PWREx_DisableMonitoring                       build/stm32n6xx_hal_pwr_ex.o
HAL_PWREx_DisablePullDownOutput                   build/stm32n6xx_hal_pwr_ex.o
HAL_PWREx_DisableSMPSPWM                          build/stm32n6xx_hal_pwr_ex.o
HAL_PWREx_DisableTCMFLXRetention                  build/stm32n6xx_hal_pwr_ex.o
HAL_PWREx_DisableTCMRetention                     build/stm32n6xx_hal_pwr_ex.o
HAL_PWREx_DisableVDDCOREMonitoring                build/stm32n6xx_hal_pwr_ex.o
HAL_PWREx_DisableVddA                             build/stm32n6xx_hal_pwr_ex.o
HAL_PWREx_DisableVddAVMEN                         build/stm32n6xx_hal_pwr_ex.o
HAL_PWREx_DisableVddIO2                           build/stm32n6xx_hal_pwr_ex.o
HAL_PWREx_DisableVddIO2VMEN                       build/stm32n6xx_hal_pwr_ex.o
HAL_PWREx_DisableVddIO3                           build/stm32n6xx_hal_pwr_ex.o
HAL_PWREx_DisableVddIO3VMEN                       build/stm32n6xx_hal_pwr_ex.o
HAL_PWREx_DisableVddIO4                           build/stm32n6xx_hal_pwr_ex.o
HAL_PWREx_DisableVddIO4RangeSTBY                  build/stm32n6xx_hal_pwr_ex.o
HAL_PWREx_DisableVddIO4VMEN                       build/stm32n6xx_hal_pwr_ex.o
HAL_PWREx_DisableVddIO5                           build/stm32n6xx_hal_pwr_ex.o
HAL_PWREx_DisableVddIO5RangeSTBY                  build/stm32n6xx_hal_pwr_ex.o
HAL_PWREx_DisableVddIO5VMEN                       build/stm32n6xx_hal_pwr_ex.o
HAL_PWREx_DisableVddUSB                           build/stm32n6xx_hal_pwr_ex.o
HAL_PWREx_DisableVddUSBVMEN                       build/stm32n6xx_hal_pwr_ex.o
HAL_PWREx_EnableBkupRAMRetention                  build/stm32n6xx_hal_pwr_ex.o
HAL_PWREx_EnableMonitoring                        build/stm32n6xx_hal_pwr_ex.o
HAL_PWREx_EnablePullDownOutput                    build/stm32n6xx_hal_pwr_ex.o
HAL_PWREx_EnableSMPSPWM                           build/stm32n6xx_hal_pwr_ex.o
HAL_PWREx_EnableTCMFLXRetention                   build/stm32n6xx_hal_pwr_ex.o
HAL_PWREx_EnableTCMRetention                      build/stm32n6xx_hal_pwr_ex.o
HAL_PWREx_EnableVDDCOREMonitoring                 build/stm32n6xx_hal_pwr_ex.o
HAL_PWREx_EnableVddA                              build/stm32n6xx_hal_pwr_ex.o
HAL_PWREx_EnableVddAVMEN                          build/stm32n6xx_hal_pwr_ex.o
HAL_PWREx_EnableVddIO2                            build/stm32n6xx_hal_pwr_ex.o
                                                  build/stm32n6xx_hal_msp.o
HAL_PWREx_EnableVddIO2VMEN                        build/stm32n6xx_hal_pwr_ex.o
HAL_PWREx_EnableVddIO3                            build/stm32n6xx_hal_pwr_ex.o
                                                  build/stm32n6xx_hal_msp.o
HAL_PWREx_EnableVddIO3VMEN                        build/stm32n6xx_hal_pwr_ex.o
HAL_PWREx_EnableVddIO4                            build/stm32n6xx_hal_pwr_ex.o
                                                  build/stm32n6xx_hal_msp.o
HAL_PWREx_EnableVddIO4RangeSTBY                   build/stm32n6xx_hal_pwr_ex.o
HAL_PWREx_EnableVddIO4VMEN                        build/stm32n6xx_hal_pwr_ex.o
HAL_PWREx_EnableVddIO5                            build/stm32n6xx_hal_pwr_ex.o
                                                  build/stm32n6xx_hal_msp.o
HAL_PWREx_EnableVddIO5RangeSTBY                   build/stm32n6xx_hal_pwr_ex.o
HAL_PWREx_EnableVddIO5VMEN                        build/stm32n6xx_hal_pwr_ex.o
HAL_PWREx_EnableVddUSB                            build/stm32n6xx_hal_pwr_ex.o
HAL_PWREx_EnableVddUSBVMEN                        build/stm32n6xx_hal_pwr_ex.o
HAL_PWREx_EnableWakeUpPin                         build/stm32n6xx_hal_pwr_ex.o
HAL_PWREx_GetPulseLow                             build/stm32n6xx_hal_pwr_ex.o
HAL_PWREx_GetStopModeVoltageRange                 build/stm32n6xx_hal_pwr_ex.o
HAL_PWREx_GetSupplyConfig                         build/stm32n6xx_hal_pwr_ex.o
HAL_PWREx_GetTemperatureLevel                     build/stm32n6xx_hal_pwr_ex.o
HAL_PWREx_GetVBATLevel                            build/stm32n6xx_hal_pwr_ex.o
HAL_PWREx_GetVDDCORELevel                         build/stm32n6xx_hal_pwr_ex.o
HAL_PWREx_GetVddIORange                           build/stm32n6xx_hal_pwr_ex.o
HAL_PWREx_GetVoltageRange                         build/stm32n6xx_hal_pwr_ex.o
HAL_PWREx_IO2VM_Falling_Callback                  build/stm32n6xx_hal_pwr_ex.o
HAL_PWREx_IO2VM_Rising_Callback                   build/stm32n6xx_hal_pwr_ex.o
HAL_PWREx_IO3VM_Falling_Callback                  build/stm32n6xx_hal_pwr_ex.o
HAL_PWREx_IO3VM_Rising_Callback                   build/stm32n6xx_hal_pwr_ex.o
HAL_PWREx_IO4VM_Falling_Callback                  build/stm32n6xx_hal_pwr_ex.o
HAL_PWREx_IO4VM_Rising_Callback                   build/stm32n6xx_hal_pwr_ex.o
HAL_PWREx_IO5VM_Falling_Callback                  build/stm32n6xx_hal_pwr_ex.o
HAL_PWREx_IO5VM_Rising_Callback                   build/stm32n6xx_hal_pwr_ex.o
HAL_PWREx_PVD_PVM_IRQHandler                      build/stm32n6xx_hal_pwr_ex.o
HAL_PWREx_SetPulseLow                             build/stm32n6xx_hal_pwr_ex.o
HAL_PWREx_USBVM_Falling_Callback                  build/stm32n6xx_hal_pwr_ex.o
HAL_PWREx_USBVM_Rising_Callback                   build/stm32n6xx_hal_pwr_ex.o
HAL_PWREx_VDDCORE_Falling_Callback                build/stm32n6xx_hal_pwr_ex.o
HAL_PWREx_VDDCORE_Rising_Callback                 build/stm32n6xx_hal_pwr_ex.o
HAL_PWR_ClearWakeupFlag                           build/stm32n6xx_hal_pwr.o
HAL_PWR_ConfigAttributes                          build/stm32n6xx_hal_pwr.o
HAL_PWR_ConfigPVD                                 build/stm32n6xx_hal_pwr.o
HAL_PWR_DeInit                                    build/stm32n6xx_hal_pwr.o
HAL_PWR_DisableBkUpAccess                         build/stm32n6xx_hal_pwr.o
HAL_PWR_DisablePVD                                build/stm32n6xx_hal_pwr.o
HAL_PWR_DisableSEVOnPend                          build/stm32n6xx_hal_pwr.o
HAL_PWR_DisableSleepOnExit                        build/stm32n6xx_hal_pwr.o
HAL_PWR_DisableWakeUpPin                          build/stm32n6xx_hal_pwr.o
HAL_PWR_EnableBkUpAccess                          build/stm32n6xx_hal_pwr.o
HAL_PWR_EnablePVD                                 build/stm32n6xx_hal_pwr.o
HAL_PWR_EnableSEVOnPend                           build/stm32n6xx_hal_pwr.o
HAL_PWR_EnableSleepOnExit                         build/stm32n6xx_hal_pwr.o
HAL_PWR_EnableWakeUpPin                           build/stm32n6xx_hal_pwr.o
HAL_PWR_EnterSLEEPMode                            build/stm32n6xx_hal_pwr.o
HAL_PWR_EnterSTANDBYMode                          build/stm32n6xx_hal_pwr.o
HAL_PWR_EnterSTOPMode                             build/stm32n6xx_hal_pwr.o
HAL_PWR_GetConfigAttributes                       build/stm32n6xx_hal_pwr.o
HAL_PWR_GetWakeupFlag                             build/stm32n6xx_hal_pwr.o
HAL_PWR_PVD_Falling_Callback                      build/stm32n6xx_hal_pwr.o
                                                  build/stm32n6xx_hal_pwr_ex.o
HAL_PWR_PVD_Rising_Callback                       build/stm32n6xx_hal_pwr.o
                                                  build/stm32n6xx_hal_pwr_ex.o
HAL_PWR_WAKEUP_PIN_IRQHandler                     build/stm32n6xx_hal_pwr.o
HAL_PWR_WKUP1_Callback                            build/stm32n6xx_hal_pwr.o
HAL_PWR_WKUP2_Callback                            build/stm32n6xx_hal_pwr.o
HAL_PWR_WKUP3_Callback                            build/stm32n6xx_hal_pwr.o
HAL_PWR_WKUP4_Callback                            build/stm32n6xx_hal_pwr.o
HAL_RAMCFG_DeInit                                 build/stm32n6xx_hal_ramcfg.o
HAL_RAMCFG_DetectDoubleErrorCallback              build/stm32n6xx_hal_ramcfg.o
HAL_RAMCFG_DetectSingleErrorCallback              build/stm32n6xx_hal_ramcfg.o
HAL_RAMCFG_DisableAXISRAM                         build/stm32n6xx_hal_ramcfg.o
HAL_RAMCFG_DisableNotification                    build/stm32n6xx_hal_ramcfg.o
HAL_RAMCFG_EnableAXISRAM                          build/stm32n6xx_hal_ramcfg.o
HAL_RAMCFG_EnableNotification                     build/stm32n6xx_hal_ramcfg.o
HAL_RAMCFG_Erase                                  build/stm32n6xx_hal_ramcfg.o
HAL_RAMCFG_GetDoubleErrorAddress                  build/stm32n6xx_hal_ramcfg.o
HAL_RAMCFG_GetError                               build/stm32n6xx_hal_ramcfg.o
HAL_RAMCFG_GetSingleErrorAddress                  build/stm32n6xx_hal_ramcfg.o
HAL_RAMCFG_GetState                               build/stm32n6xx_hal_ramcfg.o
HAL_RAMCFG_IRQHandler                             build/stm32n6xx_hal_ramcfg.o
HAL_RAMCFG_Init                                   build/stm32n6xx_hal_ramcfg.o
                                                  build/main.o
HAL_RAMCFG_IsECCDoubleErrorDetected               build/stm32n6xx_hal_ramcfg.o
HAL_RAMCFG_IsECCSingleErrorDetected               build/stm32n6xx_hal_ramcfg.o
HAL_RAMCFG_MspDeInit                              build/stm32n6xx_hal_msp.o
HAL_RAMCFG_MspInit                                build/stm32n6xx_hal_msp.o
HAL_RAMCFG_StartECC                               build/stm32n6xx_hal_ramcfg.o
HAL_RAMCFG_StopECC                                build/stm32n6xx_hal_ramcfg.o
HAL_RCCEx_DisableLSECSS                           build/stm32n6xx_hal_rcc_ex.o
HAL_RCCEx_DisableLSECSS_IT                        build/stm32n6xx_hal_rcc_ex.o
HAL_RCCEx_EnableLSECSS                            build/stm32n6xx_hal_rcc_ex.o
HAL_RCCEx_EnableLSECSS_IT                         build/stm32n6xx_hal_rcc_ex.o
HAL_RCCEx_GetPLL1CLKFreq                          build/stm32n6xx_hal_rcc_ex.o
                                                  build/stm32n6xx_hal_rcc.o
HAL_RCCEx_GetPLL2CLKFreq                          build/stm32n6xx_hal_rcc_ex.o
                                                  build/stm32n6xx_hal_rcc.o
HAL_RCCEx_GetPLL3CLKFreq                          build/stm32n6xx_hal_rcc_ex.o
                                                  build/stm32n6xx_hal_rcc.o
HAL_RCCEx_GetPLL4CLKFreq                          build/stm32n6xx_hal_rcc_ex.o
                                                  build/stm32n6xx_hal_rcc.o
HAL_RCCEx_GetPeriphCLKConfig                      build/stm32n6xx_hal_rcc_ex.o
HAL_RCCEx_GetPeriphCLKFreq                        build/stm32n6xx_hal_rcc_ex.o
                                                  build/stm32n6xx_hal_uart.o
HAL_RCCEx_GetTIMGFreq                             build/stm32n6xx_hal_rcc_ex.o
HAL_RCCEx_LSECSS_Callback                         build/stm32n6xx_hal_rcc_ex.o
HAL_RCCEx_LSECSS_IRQHandler                       build/stm32n6xx_hal_rcc_ex.o
HAL_RCCEx_PLLSSCGConfig                           build/stm32n6xx_hal_rcc_ex.o
HAL_RCCEx_PeriphCLKConfig                         build/stm32n6xx_hal_rcc_ex.o
                                                  build/stm32n6xx_hal_msp.o
HAL_RCCEx_ReArmLSECSS                             build/stm32n6xx_hal_rcc_ex.o
HAL_RCCEx_WakeUpStopCLKConfig                     build/stm32n6xx_hal_rcc_ex.o
HAL_RCC_CSSCallback                               build/stm32n6xx_hal_rcc.o
HAL_RCC_ClockConfig                               build/stm32n6xx_hal_rcc.o
HAL_RCC_ConfigAttributes                          build/stm32n6xx_hal_rcc.o
HAL_RCC_DeInit                                    build/stm32n6xx_hal_rcc.o
HAL_RCC_EnableCSS                                 build/stm32n6xx_hal_rcc.o
HAL_RCC_GetClockConfig                            build/stm32n6xx_hal_rcc.o
HAL_RCC_GetConfigAttributes                       build/stm32n6xx_hal_rcc.o
HAL_RCC_GetCpuClockFreq                           build/stm32n6xx_hal_rcc.o
HAL_RCC_GetHCLKFreq                               build/stm32n6xx_hal_rcc.o
HAL_RCC_GetNPUClockFreq                           build/stm32n6xx_hal_rcc.o
HAL_RCC_GetNPURAMSClockFreq                       build/stm32n6xx_hal_rcc.o
HAL_RCC_GetOscConfig                              build/stm32n6xx_hal_rcc.o
HAL_RCC_GetPCLK1Freq                              build/stm32n6xx_hal_rcc.o
HAL_RCC_GetPCLK2Freq                              build/stm32n6xx_hal_rcc.o
HAL_RCC_GetPCLK4Freq                              build/stm32n6xx_hal_rcc.o
HAL_RCC_GetPCLK5Freq                              build/stm32n6xx_hal_rcc.o
HAL_RCC_GetSysClockFreq                           build/stm32n6xx_hal_rcc.o
                                                  build/stm32n6xx_hal_rcc_ex.o
HAL_RCC_MCOConfig                                 build/stm32n6xx_hal_rcc.o
HAL_RCC_NMI_IRQHandler                            build/stm32n6xx_hal_rcc.o
HAL_RCC_OscConfig                                 build/stm32n6xx_hal_rcc.o
HAL_RIF_IAC_ClearFlag                             build/stm32n6xx_hal_rif.o
HAL_RIF_IAC_DisableIT                             build/stm32n6xx_hal_rif.o
HAL_RIF_IAC_EnableIT                              build/stm32n6xx_hal_rif.o
HAL_RIF_IAC_GetFlag                               build/stm32n6xx_hal_rif.o
HAL_RIF_ILA_Callback                              build/stm32n6xx_hal_rif.o
HAL_RIF_IRQHandler                                build/stm32n6xx_hal_rif.o
HAL_RIF_RIMC_ConfigMasterAttributes               build/stm32n6xx_hal_rif.o
                                                  build/main.o
HAL_RIF_RIMC_GetConfigMasterAttributes            build/stm32n6xx_hal_rif.o
HAL_RIF_RIMC_GetDebugAccessPortCID                build/stm32n6xx_hal_rif.o
HAL_RIF_RIMC_GetLock                              build/stm32n6xx_hal_rif.o
HAL_RIF_RIMC_Lock                                 build/stm32n6xx_hal_rif.o
HAL_RIF_RIMC_SetDebugAccessPortCID                build/stm32n6xx_hal_rif.o
HAL_RIF_RISAF_ConfigBaseRegion                    build/stm32n6xx_hal_rif.o
HAL_RIF_RISAF_ConfigSubRegion                     build/stm32n6xx_hal_rif.o
HAL_RIF_RISAF_ConfigSubRegionDelegation           build/stm32n6xx_hal_rif.o
HAL_RIF_RISAF_GetConfigBaseRegion                 build/stm32n6xx_hal_rif.o
HAL_RIF_RISAF_GetConfigSubRegion                  build/stm32n6xx_hal_rif.o
HAL_RIF_RISAF_GetConfigSubRegionDelegation        build/stm32n6xx_hal_rif.o
HAL_RIF_RISAF_GetIllegalAccess                    build/stm32n6xx_hal_rif.o
HAL_RIF_RISAF_GetLock                             build/stm32n6xx_hal_rif.o
HAL_RIF_RISAF_Lock                                build/stm32n6xx_hal_rif.o
HAL_RIF_RISC_GetLock                              build/stm32n6xx_hal_rif.o
HAL_RIF_RISC_GetSlaveConfigLock                   build/stm32n6xx_hal_rif.o
HAL_RIF_RISC_GetSlaveSecureAttributes             build/stm32n6xx_hal_rif.o
HAL_RIF_RISC_Lock                                 build/stm32n6xx_hal_rif.o
HAL_RIF_RISC_SetSlaveSecureAttributes             build/stm32n6xx_hal_rif.o
HAL_RIF_RISC_SlaveConfigLock                      build/stm32n6xx_hal_rif.o
HAL_RS485Ex_Init                                  build/stm32n6xx_hal_uart_ex.o
HAL_ResumeTick                                    build/stm32n6xx_hal.o
HAL_SYSCFG_ConfigTimerBreakInput                  build/stm32n6xx_hal.o
HAL_SYSCFG_ConfigVDDCompensationCell              build/stm32n6xx_hal.o
HAL_SYSCFG_ConfigVDDIOCompensationCell            build/stm32n6xx_hal.o
HAL_SYSCFG_DisableCRYPPotentialTamper             build/stm32n6xx_hal.o
HAL_SYSCFG_DisableCacheExternalMargin             build/stm32n6xx_hal.o
HAL_SYSCFG_DisableDTCMWaiteState                  build/stm32n6xx_hal.o
HAL_SYSCFG_DisableITCMWaiteState                  build/stm32n6xx_hal.o
HAL_SYSCFG_DisableInterleavingCpuRam              build/stm32n6xx_hal.o
HAL_SYSCFG_DisableLockupGenerateNMI               build/stm32n6xx_hal.o
HAL_SYSCFG_DisableLockupWarmResetonRCC            build/stm32n6xx_hal.o
HAL_SYSCFG_DisablePowerOnReset                    build/stm32n6xx_hal.o
HAL_SYSCFG_DisablePullDown                        build/stm32n6xx_hal.o
HAL_SYSCFG_DisableReTimingRXpath                  build/stm32n6xx_hal.o
HAL_SYSCFG_DisableReTimingTXpath                  build/stm32n6xx_hal.o
HAL_SYSCFG_DisableSDMMCEarlyWRRSP                 build/stm32n6xx_hal.o
HAL_SYSCFG_DisableTCMExternalMargin               build/stm32n6xx_hal.o
HAL_SYSCFG_DisableUSBEarlyEarlyWRRESP             build/stm32n6xx_hal.o
HAL_SYSCFG_DisableVDDCompensationCell             build/stm32n6xx_hal.o
HAL_SYSCFG_DisableVDDIO2CompensationCell          build/stm32n6xx_hal.o
HAL_SYSCFG_DisableVDDIO3CompensationCell          build/stm32n6xx_hal.o
HAL_SYSCFG_DisableVDDIO4CompensationCell          build/stm32n6xx_hal.o
HAL_SYSCFG_DisableVDDIO5CompensationCell          build/stm32n6xx_hal.o
HAL_SYSCFG_DisableVENCRAMReserved                 build/stm32n6xx_hal.o
HAL_SYSCFG_DisablexPUClockGating                  build/stm32n6xx_hal.o
HAL_SYSCFG_EnableCRYPPotentialTamper              build/stm32n6xx_hal.o
HAL_SYSCFG_EnableCacheExternalMargin              build/stm32n6xx_hal.o
HAL_SYSCFG_EnableDTCMWaiteState                   build/stm32n6xx_hal.o
HAL_SYSCFG_EnableITCMWaiteState                   build/stm32n6xx_hal.o
HAL_SYSCFG_EnableInterleavingCpuRam               build/stm32n6xx_hal.o
HAL_SYSCFG_EnableLockupGenerateNMI                build/stm32n6xx_hal.o
HAL_SYSCFG_EnableLockupWarmResetonRCC             build/stm32n6xx_hal.o
HAL_SYSCFG_EnablePowerOnReset                     build/stm32n6xx_hal.o
HAL_SYSCFG_EnablePullDown                         build/stm32n6xx_hal.o
HAL_SYSCFG_EnableReTimingRXpath                   build/stm32n6xx_hal.o
HAL_SYSCFG_EnableReTimingTXpath                   build/stm32n6xx_hal.o
HAL_SYSCFG_EnableSDMMCEarlyWRRESP                 build/stm32n6xx_hal.o
HAL_SYSCFG_EnableTCMExternalMargin                build/stm32n6xx_hal.o
HAL_SYSCFG_EnableUSBEarlyEarlyWRRESP              build/stm32n6xx_hal.o
HAL_SYSCFG_EnableVDDCompensationCell              build/stm32n6xx_hal.o
HAL_SYSCFG_EnableVDDIO2CompensationCell           build/stm32n6xx_hal.o
HAL_SYSCFG_EnableVDDIO3CompensationCell           build/stm32n6xx_hal.o
HAL_SYSCFG_EnableVDDIO4CompensationCell           build/stm32n6xx_hal.o
HAL_SYSCFG_EnableVDDIO5CompensationCell           build/stm32n6xx_hal.o
HAL_SYSCFG_EnableVENCRAMReserved                  build/stm32n6xx_hal.o
HAL_SYSCFG_EnablexPUClockGating                   build/stm32n6xx_hal.o
HAL_SYSCFG_GetAddressWritePostingBuffer           build/stm32n6xx_hal.o
HAL_SYSCFG_GetBootPinConnection                   build/stm32n6xx_hal.o
HAL_SYSCFG_GetCacheBiasingLevel                   build/stm32n6xx_hal.o
HAL_SYSCFG_GetCacheRWMarginInput                  build/stm32n6xx_hal.o
HAL_SYSCFG_GetCompVDDIO2CellReadyStatus           build/stm32n6xx_hal.o
HAL_SYSCFG_GetCompVDDIO3CellReadyStatus           build/stm32n6xx_hal.o
HAL_SYSCFG_GetCompVDDIO4CellReadyStatus           build/stm32n6xx_hal.o
HAL_SYSCFG_GetCompVDDIO5CellReadyStatus           build/stm32n6xx_hal.o
HAL_SYSCFG_GetCompensationVDDCellReadyStatus      build/stm32n6xx_hal.o
HAL_SYSCFG_GetDelayOnFeedbackClock                build/stm32n6xx_hal.o
HAL_SYSCFG_GetLock                                build/stm32n6xx_hal.o
HAL_SYSCFG_GetLockWriteAccess                     build/stm32n6xx_hal.o
HAL_SYSCFG_GetNSVTORAddress                       build/stm32n6xx_hal.o
HAL_SYSCFG_GetPerceivedCID                        build/stm32n6xx_hal.o
HAL_SYSCFG_GetPerceivedPrivCID                    build/stm32n6xx_hal.o
HAL_SYSCFG_GetReadQosCPUSS                        build/stm32n6xx_hal.o
HAL_SYSCFG_GetReadQosNP1                          build/stm32n6xx_hal.o
HAL_SYSCFG_GetReadQosNP2                          build/stm32n6xx_hal.o
HAL_SYSCFG_GetSVTORAddress                        build/stm32n6xx_hal.o
HAL_SYSCFG_GetTCMBiasingLevel                     build/stm32n6xx_hal.o
HAL_SYSCFG_GetTCMRWMarginInput                    build/stm32n6xx_hal.o
HAL_SYSCFG_GetTCMSize                             build/stm32n6xx_hal.o
HAL_SYSCFG_GetTimerBreakInputConfig               build/stm32n6xx_hal.o
HAL_SYSCFG_GetVDDCompensationCell                 build/stm32n6xx_hal.o
HAL_SYSCFG_GetVDDIOCompensationCell               build/stm32n6xx_hal.o
HAL_SYSCFG_GetWriteQosNP1                         build/stm32n6xx_hal.o
HAL_SYSCFG_GetWriteQosNP2                         build/stm32n6xx_hal.o
HAL_SYSCFG_GetwriteQosCPUSS                       build/stm32n6xx_hal.o
HAL_SYSCFG_Lock                                   build/stm32n6xx_hal.o
HAL_SYSCFG_LockWriteAccess                        build/stm32n6xx_hal.o
HAL_SYSCFG_ReEnableWritePostingErrorCapture       build/stm32n6xx_hal.o
HAL_SYSCFG_SetCacheBiasingLevel                   build/stm32n6xx_hal.o
HAL_SYSCFG_SetCacheRWMarginInput                  build/stm32n6xx_hal.o
HAL_SYSCFG_SetDelayOnFeedbackClock                build/stm32n6xx_hal.o
HAL_SYSCFG_SetNSVTORAddress                       build/stm32n6xx_hal.o
HAL_SYSCFG_SetPerceivedCID                        build/stm32n6xx_hal.o
HAL_SYSCFG_SetPerceivedPrivCID                    build/stm32n6xx_hal.o
HAL_SYSCFG_SetReadQosCPUSS                        build/stm32n6xx_hal.o
HAL_SYSCFG_SetReadQosNP1                          build/stm32n6xx_hal.o
HAL_SYSCFG_SetReadQosNP2                          build/stm32n6xx_hal.o
HAL_SYSCFG_SetSVTORAddress                        build/stm32n6xx_hal.o
HAL_SYSCFG_SetTCMBiasingLevel                     build/stm32n6xx_hal.o
HAL_SYSCFG_SetTCMRWMarginInput                    build/stm32n6xx_hal.o
HAL_SYSCFG_SetTCMSize                             build/stm32n6xx_hal.o
HAL_SYSCFG_SetWriteQosCPUSS                       build/stm32n6xx_hal.o
HAL_SYSCFG_SetWriteQosNP1                         build/stm32n6xx_hal.o
HAL_SYSCFG_SetWriteQosNP2                         build/stm32n6xx_hal.o
HAL_SYSTICK_CLKSourceConfig                       build/stm32n6xx_hal_cortex.o
HAL_SYSTICK_Callback                              build/stm32n6xx_hal_cortex.o
HAL_SYSTICK_Config                                build/stm32n6xx_hal_cortex.o
                                                  build/stm32n6xx_hal.o
HAL_SYSTICK_IRQHandler                            build/stm32n6xx_hal_cortex.o
HAL_SetTickFreq                                   build/stm32n6xx_hal.o
HAL_SuspendTick                                   build/stm32n6xx_hal.o
HAL_UARTEx_DisableFifoMode                        build/stm32n6xx_hal_uart_ex.o
                                                  build/main.o
HAL_UARTEx_DisableStopMode                        build/stm32n6xx_hal_uart_ex.o
HAL_UARTEx_EnableFifoMode                         build/stm32n6xx_hal_uart_ex.o
HAL_UARTEx_EnableStopMode                         build/stm32n6xx_hal_uart_ex.o
HAL_UARTEx_GetRxEventType                         build/stm32n6xx_hal_uart_ex.o
HAL_UARTEx_ReceiveToIdle                          build/stm32n6xx_hal_uart_ex.o
HAL_UARTEx_ReceiveToIdle_DMA                      build/stm32n6xx_hal_uart_ex.o
HAL_UARTEx_ReceiveToIdle_IT                       build/stm32n6xx_hal_uart_ex.o
HAL_UARTEx_RxEventCallback                        build/stm32n6xx_hal_uart.o
HAL_UARTEx_RxFifoFullCallback                     build/stm32n6xx_hal_uart_ex.o
                                                  build/stm32n6xx_hal_uart.o
HAL_UARTEx_SetRxFifoThreshold                     build/stm32n6xx_hal_uart_ex.o
                                                  build/main.o
HAL_UARTEx_SetTxFifoThreshold                     build/stm32n6xx_hal_uart_ex.o
                                                  build/main.o
HAL_UARTEx_StopModeWakeUpSourceConfig             build/stm32n6xx_hal_uart_ex.o
HAL_UARTEx_TxFifoEmptyCallback                    build/stm32n6xx_hal_uart_ex.o
                                                  build/stm32n6xx_hal_uart.o
HAL_UARTEx_WakeupCallback                         build/stm32n6xx_hal_uart_ex.o
                                                  build/stm32n6xx_hal_uart.o
HAL_UART_Abort                                    build/stm32n6xx_hal_uart.o
HAL_UART_AbortCpltCallback                        build/stm32n6xx_hal_uart.o
HAL_UART_AbortReceive                             build/stm32n6xx_hal_uart.o
HAL_UART_AbortReceiveCpltCallback                 build/stm32n6xx_hal_uart.o
HAL_UART_AbortReceive_IT                          build/stm32n6xx_hal_uart.o
HAL_UART_AbortTransmit                            build/stm32n6xx_hal_uart.o
HAL_UART_AbortTransmitCpltCallback                build/stm32n6xx_hal_uart.o
HAL_UART_AbortTransmit_IT                         build/stm32n6xx_hal_uart.o
HAL_UART_Abort_IT                                 build/stm32n6xx_hal_uart.o
HAL_UART_DMAPause                                 build/stm32n6xx_hal_uart.o
HAL_UART_DMAResume                                build/stm32n6xx_hal_uart.o
HAL_UART_DMAStop                                  build/stm32n6xx_hal_uart.o
HAL_UART_DeInit                                   build/stm32n6xx_hal_uart.o
                                                  build/stm32n6xx_nucleo.o
HAL_UART_DisableReceiverTimeout                   build/stm32n6xx_hal_uart.o
HAL_UART_EnableReceiverTimeout                    build/stm32n6xx_hal_uart.o
HAL_UART_ErrorCallback                            build/stm32n6xx_hal_uart.o
HAL_UART_GetError                                 build/stm32n6xx_hal_uart.o
HAL_UART_GetState                                 build/stm32n6xx_hal_uart.o
HAL_UART_IRQHandler                               build/stm32n6xx_hal_uart.o
HAL_UART_Init                                     build/stm32n6xx_hal_uart.o
                                                  build/stm32n6xx_nucleo.o
                                                  build/main.o
HAL_UART_MspDeInit                                build/stm32n6xx_hal_msp.o
HAL_UART_MspInit                                  build/stm32n6xx_hal_msp.o
                                                  build/stm32n6xx_hal_uart_ex.o
HAL_UART_Receive                                  build/stm32n6xx_hal_uart.o
HAL_UART_Receive_DMA                              build/stm32n6xx_hal_uart.o
HAL_UART_Receive_IT                               build/stm32n6xx_hal_uart.o
HAL_UART_ReceiverTimeout_Config                   build/stm32n6xx_hal_uart.o
HAL_UART_RxCpltCallback                           build/stm32n6xx_hal_uart.o
HAL_UART_RxHalfCpltCallback                       build/stm32n6xx_hal_uart.o
HAL_UART_Transmit                                 build/stm32n6xx_hal_uart.o
                                                  build/stm32n6xx_nucleo.o
HAL_UART_Transmit_DMA                             build/stm32n6xx_hal_uart.o
HAL_UART_Transmit_IT                              build/stm32n6xx_hal_uart.o
HAL_UART_TxCpltCallback                           build/stm32n6xx_hal_uart.o
HAL_UART_TxHalfCpltCallback                       build/stm32n6xx_hal_uart.o
HASH_IRQHandler                                   build/startup_stm32n657xx.o
HPDMA1_Channel0_IRQHandler                        build/startup_stm32n657xx.o
HPDMA1_Channel10_IRQHandler                       build/startup_stm32n657xx.o
HPDMA1_Channel11_IRQHandler                       build/startup_stm32n657xx.o
HPDMA1_Channel12_IRQHandler                       build/startup_stm32n657xx.o
HPDMA1_Channel13_IRQHandler                       build/startup_stm32n657xx.o
HPDMA1_Channel14_IRQHandler                       build/startup_stm32n657xx.o
HPDMA1_Channel15_IRQHandler                       build/startup_stm32n657xx.o
HPDMA1_Channel1_IRQHandler                        build/startup_stm32n657xx.o
HPDMA1_Channel2_IRQHandler                        build/startup_stm32n657xx.o
HPDMA1_Channel3_IRQHandler                        build/startup_stm32n657xx.o
HPDMA1_Channel4_IRQHandler                        build/startup_stm32n657xx.o
HPDMA1_Channel5_IRQHandler                        build/startup_stm32n657xx.o
HPDMA1_Channel6_IRQHandler                        build/startup_stm32n657xx.o
HPDMA1_Channel7_IRQHandler                        build/startup_stm32n657xx.o
HPDMA1_Channel8_IRQHandler                        build/startup_stm32n657xx.o
HPDMA1_Channel9_IRQHandler                        build/startup_stm32n657xx.o
HardFault_Handler                                 build/stm32n6xx_it.o
I2C1_ER_IRQHandler                                build/startup_stm32n657xx.o
I2C1_EV_IRQHandler                                build/startup_stm32n657xx.o
I2C2_ER_IRQHandler                                build/startup_stm32n657xx.o
I2C2_EV_IRQHandler                                build/startup_stm32n657xx.o
I2C3_ER_IRQHandler                                build/startup_stm32n657xx.o
I2C3_EV_IRQHandler                                build/startup_stm32n657xx.o
I2C4_ER_IRQHandler                                build/startup_stm32n657xx.o
I2C4_EV_IRQHandler                                build/startup_stm32n657xx.o
I3C1_ER_IRQHandler                                build/startup_stm32n657xx.o
I3C1_EV_IRQHandler                                build/startup_stm32n657xx.o
I3C2_ER_IRQHandler                                build/startup_stm32n657xx.o
I3C2_EV_IRQHandler                                build/startup_stm32n657xx.o
IAC_IRQHandler                                    build/startup_stm32n657xx.o
ICACHE_IRQHandler                                 build/startup_stm32n657xx.o
IWDG_IRQHandler                                   build/startup_stm32n657xx.o
JPEG_IRQHandler                                   build/startup_stm32n657xx.o
LOCKUP_IRQHandler                                 build/startup_stm32n657xx.o
LPTIM1_IRQHandler                                 build/startup_stm32n657xx.o
LPTIM2_IRQHandler                                 build/startup_stm32n657xx.o
LPTIM3_IRQHandler                                 build/startup_stm32n657xx.o
LPTIM4_IRQHandler                                 build/startup_stm32n657xx.o
LPTIM5_IRQHandler                                 build/startup_stm32n657xx.o
LPUART1_IRQHandler                                build/startup_stm32n657xx.o
LTDC_LO_ERR_IRQHandler                            build/startup_stm32n657xx.o
LTDC_LO_IRQHandler                                build/startup_stm32n657xx.o
LTDC_UP_ERR_IRQHandler                            build/startup_stm32n657xx.o
LTDC_UP_IRQHandler                                build/startup_stm32n657xx.o
MCE1_IRQHandler                                   build/startup_stm32n657xx.o
MCE2_IRQHandler                                   build/startup_stm32n657xx.o
MCE3_IRQHandler                                   build/startup_stm32n657xx.o
MCE4_IRQHandler                                   build/startup_stm32n657xx.o
MDF1_FLT0_IRQHandler                              build/startup_stm32n657xx.o
MDF1_FLT1_IRQHandler                              build/startup_stm32n657xx.o
MDF1_FLT2_IRQHandler                              build/startup_stm32n657xx.o
MDF1_FLT3_IRQHandler                              build/startup_stm32n657xx.o
MDF1_FLT4_IRQHandler                              build/startup_stm32n657xx.o
MDF1_FLT5_IRQHandler                              build/startup_stm32n657xx.o
MDIOS_IRQHandler                                  build/startup_stm32n657xx.o
MX_USART1_Init                                    build/stm32n6xx_nucleo.o
MemManage_Handler                                 build/stm32n6xx_it.o
NMI_Handler                                       build/stm32n6xx_it.o
NPU0_IRQHandler                                   build/startup_stm32n657xx.o
NPU1_IRQHandler                                   build/startup_stm32n657xx.o
NPU2_IRQHandler                                   build/startup_stm32n657xx.o
NPU3_IRQHandler                                   build/startup_stm32n657xx.o
PAHB_ERR_IRQHandler                               build/startup_stm32n657xx.o
PKA_IRQHandler                                    build/startup_stm32n657xx.o
PVD_PVM_IRQHandler                                build/startup_stm32n657xx.o
PendSV_Handler                                    build/stm32n6xx_it.o
RCC_IRQHandler                                    build/startup_stm32n657xx.o
RCC_S_IRQHandler                                  build/startup_stm32n657xx.o
RIFSC_TAMPER_IRQHandler                           build/startup_stm32n657xx.o
RNG_IRQHandler                                    build/startup_stm32n657xx.o
RTC_IRQHandler                                    build/startup_stm32n657xx.o
RTC_S_IRQHandler                                  build/startup_stm32n657xx.o
Reset_Handler                                     build/startup_stm32n657xx.o
SAES_IRQHandler                                   build/startup_stm32n657xx.o
SAI1_A_IRQHandler                                 build/startup_stm32n657xx.o
SAI1_B_IRQHandler                                 build/startup_stm32n657xx.o
SAI2_A_IRQHandler                                 build/startup_stm32n657xx.o
SAI2_B_IRQHandler                                 build/startup_stm32n657xx.o
SDMMC1_IRQHandler                                 build/startup_stm32n657xx.o
SDMMC2_IRQHandler                                 build/startup_stm32n657xx.o
SECURE_RegisterCallback                           build/secure_nsc.o
SECURE_SystemCoreClockUpdate                      build/system_stm32n6xx_s.o
SPDIFRX_IRQHandler                                build/startup_stm32n657xx.o
SPI1_IRQHandler                                   build/startup_stm32n657xx.o
SPI2_IRQHandler                                   build/startup_stm32n657xx.o
SPI3_IRQHandler                                   build/startup_stm32n657xx.o
SPI4_IRQHandler                                   build/startup_stm32n657xx.o
SPI5_IRQHandler                                   build/startup_stm32n657xx.o
SPI6_IRQHandler                                   build/startup_stm32n657xx.o
SVC_Handler                                       build/stm32n6xx_it.o
SecureFault_Handler                               build/stm32n6xx_it.o
SysTick_Handler                                   build/stm32n6xx_it.o
SystemCoreClock                                   build/system_stm32n6xx_s.o
                                                  build/stm32n6xx_hal_rcc.o
                                                  build/stm32n6xx_hal.o
SystemCoreClockUpdate                             build/system_stm32n6xx_s.o
                                                  build/stm32n6xx_hal.o
SystemInit                                        build/system_stm32n6xx_s.o
                                                  build/startup_stm32n657xx.o
TAMP_IRQHandler                                   build/startup_stm32n657xx.o
TCM_ECC_IRQHandler                                build/startup_stm32n657xx.o
TIM10_IRQHandler                                  build/startup_stm32n657xx.o
TIM11_IRQHandler                                  build/startup_stm32n657xx.o
TIM12_IRQHandler                                  build/startup_stm32n657xx.o
TIM13_IRQHandler                                  build/startup_stm32n657xx.o
TIM14_IRQHandler                                  build/startup_stm32n657xx.o
TIM15_IRQHandler                                  build/startup_stm32n657xx.o
TIM16_IRQHandler                                  build/startup_stm32n657xx.o
TIM17_IRQHandler                                  build/startup_stm32n657xx.o
TIM18_IRQHandler                                  build/startup_stm32n657xx.o
TIM1_BRK_IRQHandler                               build/startup_stm32n657xx.o
TIM1_CC_IRQHandler                                build/startup_stm32n657xx.o
TIM1_TRG_CCU_IRQHandler                           build/startup_stm32n657xx.o
TIM1_UP_IRQHandler                                build/startup_stm32n657xx.o
TIM2_IRQHandler                                   build/startup_stm32n657xx.o
TIM3_IRQHandler                                   build/startup_stm32n657xx.o
TIM4_IRQHandler                                   build/startup_stm32n657xx.o
TIM5_IRQHandler                                   build/startup_stm32n657xx.o
TIM6_IRQHandler                                   build/startup_stm32n657xx.o
TIM7_IRQHandler                                   build/startup_stm32n657xx.o
TIM8_BRK_IRQHandler                               build/startup_stm32n657xx.o
TIM8_CC_IRQHandler                                build/startup_stm32n657xx.o
TIM8_TRG_CCU_IRQHandler                           build/startup_stm32n657xx.o
TIM8_UP_IRQHandler                                build/startup_stm32n657xx.o
TIM9_IRQHandler                                   build/startup_stm32n657xx.o
UART4_IRQHandler                                  build/startup_stm32n657xx.o
UART5_IRQHandler                                  build/startup_stm32n657xx.o
UART7_IRQHandler                                  build/startup_stm32n657xx.o
UART8_IRQHandler                                  build/startup_stm32n657xx.o
UART9_IRQHandler                                  build/startup_stm32n657xx.o
UARTPrescTable                                    build/stm32n6xx_hal_uart.o
UART_AdvFeatureConfig                             build/stm32n6xx_hal_uart.o
                                                  build/stm32n6xx_hal_uart_ex.o
UART_CheckIdleState                               build/stm32n6xx_hal_uart.o
                                                  build/stm32n6xx_hal_uart_ex.o
UART_SetConfig                                    build/stm32n6xx_hal_uart.o
                                                  build/stm32n6xx_hal_uart_ex.o
UART_Start_Receive_DMA                            build/stm32n6xx_hal_uart.o
                                                  build/stm32n6xx_hal_uart_ex.o
UART_Start_Receive_IT                             build/stm32n6xx_hal_uart.o
                                                  build/stm32n6xx_hal_uart_ex.o
UART_WaitOnFlagUntilTimeout                       build/stm32n6xx_hal_uart.o
                                                  build/stm32n6xx_hal_uart_ex.o
UCPD1_IRQHandler                                  build/startup_stm32n657xx.o
USART10_IRQHandler                                build/startup_stm32n657xx.o
USART1_IRQHandler                                 build/startup_stm32n657xx.o
USART2_IRQHandler                                 build/startup_stm32n657xx.o
USART3_IRQHandler                                 build/startup_stm32n657xx.o
USART6_IRQHandler                                 build/startup_stm32n657xx.o
USB1_OTG_HS_IRQHandler                            build/startup_stm32n657xx.o
USB2_OTG_HS_IRQHandler                            build/startup_stm32n657xx.o
UsageFault_Handler                                build/stm32n6xx_it.o
VENC_IRQHandler                                   build/startup_stm32n657xx.o
WAKEUP_PIN_IRQHandler                             build/startup_stm32n657xx.o
WWDG_IRQHandler                                   build/startup_stm32n657xx.o
XSPI1_IRQHandler                                  build/startup_stm32n657xx.o
XSPI2_IRQHandler                                  build/startup_stm32n657xx.o
XSPI3_IRQHandler                                  build/startup_stm32n657xx.o
_Min_Stack_Size                                   build/sysmem.o
__acle_se_SECURE_RegisterCallback                 build/secure_nsc.o
__acle_se_SECURE_SystemCoreClockUpdate            build/system_stm32n6xx_s.o
__aeabi_idiv0                                     /usr/lib/gcc/arm-none-eabi/16.1.0/thumb/v8-m.main+dp/hard/libgcc.a(_dvmd_tls.o)
__aeabi_ldiv0                                     /usr/lib/gcc/arm-none-eabi/16.1.0/thumb/v8-m.main+dp/hard/libgcc.a(_dvmd_tls.o)
                                                  /usr/lib/gcc/arm-none-eabi/16.1.0/thumb/v8-m.main+dp/hard/libgcc.a(_aeabi_uldivmod.o)
__aeabi_uldivmod                                  /usr/lib/gcc/arm-none-eabi/16.1.0/thumb/v8-m.main+dp/hard/libgcc.a(_aeabi_uldivmod.o)
                                                  build/stm32n6xx_hal_uart.o
__atexit                                          /usr/lib/gcc/arm-none-eabi/16.1.0/../../../../arm-none-eabi/lib/thumb/v8-m.main+dp/hard/libc_nano.a(libc_a-__call_atexit.o)
                                                  /usr/lib/gcc/arm-none-eabi/16.1.0/../../../../arm-none-eabi/lib/thumb/v8-m.main+dp/hard/libc_nano.a(libc_a-__atexit.o)
__atexit0                                         /usr/lib/gcc/arm-none-eabi/16.1.0/../../../../arm-none-eabi/lib/thumb/v8-m.main+dp/hard/libc_nano.a(libc_a-__atexit.o)
__atexit_dummy                                    /usr/lib/gcc/arm-none-eabi/16.1.0/../../../../arm-none-eabi/lib/thumb/v8-m.main+dp/hard/libc_nano.a(libc_a-__atexit.o)
__atexit_recursive_mutex                          /usr/lib/gcc/arm-none-eabi/16.1.0/../../../../arm-none-eabi/lib/thumb/v8-m.main+dp/hard/libc_nano.a(libc_a-__call_atexit.o)
                                                  /usr/lib/gcc/arm-none-eabi/16.1.0/../../../../arm-none-eabi/lib/thumb/v8-m.main+dp/hard/libc_nano.a(libc_a-__atexit.o)
__bss_end__                                       /usr/lib/gcc/arm-none-eabi/16.1.0/../../../../arm-none-eabi/lib/thumb/v8-m.main+dp/hard/crt0.o
__bss_start__                                     /usr/lib/gcc/arm-none-eabi/16.1.0/../../../../arm-none-eabi/lib/thumb/v8-m.main+dp/hard/crt0.o
__call_exitprocs                                  /usr/lib/gcc/arm-none-eabi/16.1.0/../../../../arm-none-eabi/lib/thumb/v8-m.main+dp/hard/libc_nano.a(libc_a-__call_atexit.o)
                                                  /usr/lib/gcc/arm-none-eabi/16.1.0/../../../../arm-none-eabi/lib/thumb/v8-m.main+dp/hard/libc_nano.a(libc_a-__atexit.o)
                                                  /usr/lib/gcc/arm-none-eabi/16.1.0/../../../../arm-none-eabi/lib/thumb/v8-m.main+dp/hard/libc_nano.a(libc_a-exit.o)
__deregister_frame_info                           /usr/lib/gcc/arm-none-eabi/16.1.0/thumb/v8-m.main+dp/hard/crtbegin.o
__dso_handle                                      /usr/lib/gcc/arm-none-eabi/16.1.0/thumb/v8-m.main+dp/hard/crtbegin.o
__env                                             build/syscalls.o
__errno                                           /usr/lib/gcc/arm-none-eabi/16.1.0/../../../../arm-none-eabi/lib/thumb/v8-m.main+dp/hard/libc_nano.a(libc_a-errno.o)
                                                  build/syscalls.o
                                                  build/sysmem.o
__fini_array_end                                  /usr/lib/gcc/arm-none-eabi/16.1.0/../../../../arm-none-eabi/lib/thumb/v8-m.main+dp/hard/libc_nano.a(libc_a-fini.o)
__fini_array_start                                /usr/lib/gcc/arm-none-eabi/16.1.0/../../../../arm-none-eabi/lib/thumb/v8-m.main+dp/hard/libc_nano.a(libc_a-fini.o)
__fp_lock_all                                     /usr/lib/gcc/arm-none-eabi/16.1.0/../../../../arm-none-eabi/lib/thumb/v8-m.main+dp/hard/libc_nano.a(libc_a-findfp.o)
__fp_unlock_all                                   /usr/lib/gcc/arm-none-eabi/16.1.0/../../../../arm-none-eabi/lib/thumb/v8-m.main+dp/hard/libc_nano.a(libc_a-findfp.o)
__init_array_end                                  /usr/lib/gcc/arm-none-eabi/16.1.0/../../../../arm-none-eabi/lib/thumb/v8-m.main+dp/hard/libc_nano.a(libc_a-init.o)
__init_array_start                                /usr/lib/gcc/arm-none-eabi/16.1.0/../../../../arm-none-eabi/lib/thumb/v8-m.main+dp/hard/libc_nano.a(libc_a-init.o)
__io_getchar                                      build/syscalls.o
__io_putchar                                      build/stm32n6xx_nucleo.o
                                                  build/syscalls.o
__libc_fini_array                                 /usr/lib/gcc/arm-none-eabi/16.1.0/../../../../arm-none-eabi/lib/thumb/v8-m.main+dp/hard/libc_nano.a(libc_a-fini.o)
                                                  /usr/lib/gcc/arm-none-eabi/16.1.0/../../../../arm-none-eabi/lib/thumb/v8-m.main+dp/hard/crt0.o
__libc_init_array                                 /usr/lib/gcc/arm-none-eabi/16.1.0/../../../../arm-none-eabi/lib/thumb/v8-m.main+dp/hard/libc_nano.a(libc_a-init.o)
                                                  build/startup_stm32n657xx.o
                                                  /usr/lib/gcc/arm-none-eabi/16.1.0/../../../../arm-none-eabi/lib/thumb/v8-m.main+dp/hard/crt0.o
__lock___arc4random_mutex                         /usr/lib/gcc/arm-none-eabi/16.1.0/../../../../arm-none-eabi/lib/thumb/v8-m.main+dp/hard/libc_nano.a(libc_a-lock.o)
__lock___at_quick_exit_mutex                      /usr/lib/gcc/arm-none-eabi/16.1.0/../../../../arm-none-eabi/lib/thumb/v8-m.main+dp/hard/libc_nano.a(libc_a-lock.o)
__lock___atexit_recursive_mutex                   /usr/lib/gcc/arm-none-eabi/16.1.0/../../../../arm-none-eabi/lib/thumb/v8-m.main+dp/hard/libc_nano.a(libc_a-lock.o)
                                                  /usr/lib/gcc/arm-none-eabi/16.1.0/../../../../arm-none-eabi/lib/thumb/v8-m.main+dp/hard/libc_nano.a(libc_a-__call_atexit.o)
__lock___dd_hash_mutex                            /usr/lib/gcc/arm-none-eabi/16.1.0/../../../../arm-none-eabi/lib/thumb/v8-m.main+dp/hard/libc_nano.a(libc_a-lock.o)
__lock___env_recursive_mutex                      /usr/lib/gcc/arm-none-eabi/16.1.0/../../../../arm-none-eabi/lib/thumb/v8-m.main+dp/hard/libc_nano.a(libc_a-lock.o)
__lock___malloc_recursive_mutex                   /usr/lib/gcc/arm-none-eabi/16.1.0/../../../../arm-none-eabi/lib/thumb/v8-m.main+dp/hard/libc_nano.a(libc_a-lock.o)
                                                  /usr/lib/gcc/arm-none-eabi/16.1.0/../../../../arm-none-eabi/lib/thumb/v8-m.main+dp/hard/libc_nano.a(libc_a-mlock.o)
__lock___sfp_recursive_mutex                      /usr/lib/gcc/arm-none-eabi/16.1.0/../../../../arm-none-eabi/lib/thumb/v8-m.main+dp/hard/libc_nano.a(libc_a-lock.o)
                                                  /usr/lib/gcc/arm-none-eabi/16.1.0/../../../../arm-none-eabi/lib/thumb/v8-m.main+dp/hard/libc_nano.a(libc_a-findfp.o)
__lock___tz_mutex                                 /usr/lib/gcc/arm-none-eabi/16.1.0/../../../../arm-none-eabi/lib/thumb/v8-m.main+dp/hard/libc_nano.a(libc_a-lock.o)
__malloc_free_list                                /usr/lib/gcc/arm-none-eabi/16.1.0/../../../../arm-none-eabi/lib/thumb/v8-m.main+dp/hard/libc_nano.a(libc_a-mallocr.o)
                                                  /usr/lib/gcc/arm-none-eabi/16.1.0/../../../../arm-none-eabi/lib/thumb/v8-m.main+dp/hard/libc_nano.a(libc_a-freer.o)
__malloc_lock                                     /usr/lib/gcc/arm-none-eabi/16.1.0/../../../../arm-none-eabi/lib/thumb/v8-m.main+dp/hard/libc_nano.a(libc_a-mlock.o)
                                                  /usr/lib/gcc/arm-none-eabi/16.1.0/../../../../arm-none-eabi/lib/thumb/v8-m.main+dp/hard/libc_nano.a(libc_a-mallocr.o)
                                                  /usr/lib/gcc/arm-none-eabi/16.1.0/../../../../arm-none-eabi/lib/thumb/v8-m.main+dp/hard/libc_nano.a(libc_a-freer.o)
__malloc_sbrk_start                               /usr/lib/gcc/arm-none-eabi/16.1.0/../../../../arm-none-eabi/lib/thumb/v8-m.main+dp/hard/libc_nano.a(libc_a-mallocr.o)
__malloc_unlock                                   /usr/lib/gcc/arm-none-eabi/16.1.0/../../../../arm-none-eabi/lib/thumb/v8-m.main+dp/hard/libc_nano.a(libc_a-mlock.o)
                                                  /usr/lib/gcc/arm-none-eabi/16.1.0/../../../../arm-none-eabi/lib/thumb/v8-m.main+dp/hard/libc_nano.a(libc_a-mallocr.o)
                                                  /usr/lib/gcc/arm-none-eabi/16.1.0/../../../../arm-none-eabi/lib/thumb/v8-m.main+dp/hard/libc_nano.a(libc_a-freer.o)
__on_exit_args                                    /usr/lib/gcc/arm-none-eabi/16.1.0/../../../../arm-none-eabi/lib/thumb/v8-m.main+dp/hard/libc_nano.a(libc_a-__atexit.o)
__preinit_array_end                               /usr/lib/gcc/arm-none-eabi/16.1.0/../../../../arm-none-eabi/lib/thumb/v8-m.main+dp/hard/libc_nano.a(libc_a-init.o)
__preinit_array_start                             /usr/lib/gcc/arm-none-eabi/16.1.0/../../../../arm-none-eabi/lib/thumb/v8-m.main+dp/hard/libc_nano.a(libc_a-init.o)
__register_exitproc                               /usr/lib/gcc/arm-none-eabi/16.1.0/../../../../arm-none-eabi/lib/thumb/v8-m.main+dp/hard/libc_nano.a(libc_a-__atexit.o)
                                                  /usr/lib/gcc/arm-none-eabi/16.1.0/../../../../arm-none-eabi/lib/thumb/v8-m.main+dp/hard/libc_nano.a(libc_a-atexit.o)
__register_frame_info                             /usr/lib/gcc/arm-none-eabi/16.1.0/thumb/v8-m.main+dp/hard/crtbegin.o
__retarget_lock_acquire                           /usr/lib/gcc/arm-none-eabi/16.1.0/../../../../arm-none-eabi/lib/thumb/v8-m.main+dp/hard/libc_nano.a(libc_a-lock.o)
__retarget_lock_acquire_recursive                 /usr/lib/gcc/arm-none-eabi/16.1.0/../../../../arm-none-eabi/lib/thumb/v8-m.main+dp/hard/libc_nano.a(libc_a-lock.o)
                                                  /usr/lib/gcc/arm-none-eabi/16.1.0/../../../../arm-none-eabi/lib/thumb/v8-m.main+dp/hard/libc_nano.a(libc_a-fflush.o)
                                                  /usr/lib/gcc/arm-none-eabi/16.1.0/../../../../arm-none-eabi/lib/thumb/v8-m.main+dp/hard/libc_nano.a(libc_a-nano-vfprintf.o)
                                                  /usr/lib/gcc/arm-none-eabi/16.1.0/../../../../arm-none-eabi/lib/thumb/v8-m.main+dp/hard/libc_nano.a(libc_a-mlock.o)
                                                  /usr/lib/gcc/arm-none-eabi/16.1.0/../../../../arm-none-eabi/lib/thumb/v8-m.main+dp/hard/libc_nano.a(libc_a-__call_atexit.o)
                                                  /usr/lib/gcc/arm-none-eabi/16.1.0/../../../../arm-none-eabi/lib/thumb/v8-m.main+dp/hard/libc_nano.a(libc_a-__atexit.o)
                                                  /usr/lib/gcc/arm-none-eabi/16.1.0/../../../../arm-none-eabi/lib/thumb/v8-m.main+dp/hard/libc_nano.a(libc_a-findfp.o)
__retarget_lock_close                             /usr/lib/gcc/arm-none-eabi/16.1.0/../../../../arm-none-eabi/lib/thumb/v8-m.main+dp/hard/libc_nano.a(libc_a-lock.o)
__retarget_lock_close_recursive                   /usr/lib/gcc/arm-none-eabi/16.1.0/../../../../arm-none-eabi/lib/thumb/v8-m.main+dp/hard/libc_nano.a(libc_a-lock.o)
__retarget_lock_init                              /usr/lib/gcc/arm-none-eabi/16.1.0/../../../../arm-none-eabi/lib/thumb/v8-m.main+dp/hard/libc_nano.a(libc_a-lock.o)
__retarget_lock_init_recursive                    /usr/lib/gcc/arm-none-eabi/16.1.0/../../../../arm-none-eabi/lib/thumb/v8-m.main+dp/hard/libc_nano.a(libc_a-lock.o)
                                                  /usr/lib/gcc/arm-none-eabi/16.1.0/../../../../arm-none-eabi/lib/thumb/v8-m.main+dp/hard/libc_nano.a(libc_a-findfp.o)
__retarget_lock_release                           /usr/lib/gcc/arm-none-eabi/16.1.0/../../../../arm-none-eabi/lib/thumb/v8-m.main+dp/hard/libc_nano.a(libc_a-lock.o)
__retarget_lock_release_recursive                 /usr/lib/gcc/arm-none-eabi/16.1.0/../../../../arm-none-eabi/lib/thumb/v8-m.main+dp/hard/libc_nano.a(libc_a-lock.o)
                                                  /usr/lib/gcc/arm-none-eabi/16.1.0/../../../../arm-none-eabi/lib/thumb/v8-m.main+dp/hard/libc_nano.a(libc_a-fflush.o)
                                                  /usr/lib/gcc/arm-none-eabi/16.1.0/../../../../arm-none-eabi/lib/thumb/v8-m.main+dp/hard/libc_nano.a(libc_a-nano-vfprintf.o)
                                                  /usr/lib/gcc/arm-none-eabi/16.1.0/../../../../arm-none-eabi/lib/thumb/v8-m.main+dp/hard/libc_nano.a(libc_a-mlock.o)
                                                  /usr/lib/gcc/arm-none-eabi/16.1.0/../../../../arm-none-eabi/lib/thumb/v8-m.main+dp/hard/libc_nano.a(libc_a-__call_atexit.o)
                                                  /usr/lib/gcc/arm-none-eabi/16.1.0/../../../../arm-none-eabi/lib/thumb/v8-m.main+dp/hard/libc_nano.a(libc_a-__atexit.o)
                                                  /usr/lib/gcc/arm-none-eabi/16.1.0/../../../../arm-none-eabi/lib/thumb/v8-m.main+dp/hard/libc_nano.a(libc_a-findfp.o)
__retarget_lock_try_acquire                       /usr/lib/gcc/arm-none-eabi/16.1.0/../../../../arm-none-eabi/lib/thumb/v8-m.main+dp/hard/libc_nano.a(libc_a-lock.o)
__retarget_lock_try_acquire_recursive             /usr/lib/gcc/arm-none-eabi/16.1.0/../../../../arm-none-eabi/lib/thumb/v8-m.main+dp/hard/libc_nano.a(libc_a-lock.o)
__sclose                                          /usr/lib/gcc/arm-none-eabi/16.1.0/../../../../arm-none-eabi/lib/thumb/v8-m.main+dp/hard/libc_nano.a(libc_a-stdio.o)
                                                  /usr/lib/gcc/arm-none-eabi/16.1.0/../../../../arm-none-eabi/lib/thumb/v8-m.main+dp/hard/libc_nano.a(libc_a-findfp.o)
__seofread                                        /usr/lib/gcc/arm-none-eabi/16.1.0/../../../../arm-none-eabi/lib/thumb/v8-m.main+dp/hard/libc_nano.a(libc_a-stdio.o)
__sf                                              /usr/lib/gcc/arm-none-eabi/16.1.0/../../../../arm-none-eabi/lib/thumb/v8-m.main+dp/hard/libc_nano.a(libc_a-findfp.o)
                                                  /usr/lib/gcc/arm-none-eabi/16.1.0/../../../../arm-none-eabi/lib/thumb/v8-m.main+dp/hard/libc_nano.a(libc_a-impure.o)
__sflush_r                                        /usr/lib/gcc/arm-none-eabi/16.1.0/../../../../arm-none-eabi/lib/thumb/v8-m.main+dp/hard/libc_nano.a(libc_a-fflush.o)
__sfp                                             /usr/lib/gcc/arm-none-eabi/16.1.0/../../../../arm-none-eabi/lib/thumb/v8-m.main+dp/hard/libc_nano.a(libc_a-findfp.o)
__sfp_lock_acquire                                /usr/lib/gcc/arm-none-eabi/16.1.0/../../../../arm-none-eabi/lib/thumb/v8-m.main+dp/hard/libc_nano.a(libc_a-findfp.o)
__sfp_lock_release                                /usr/lib/gcc/arm-none-eabi/16.1.0/../../../../arm-none-eabi/lib/thumb/v8-m.main+dp/hard/libc_nano.a(libc_a-findfp.o)
__sfputs_r                                        /usr/lib/gcc/arm-none-eabi/16.1.0/../../../../arm-none-eabi/lib/thumb/v8-m.main+dp/hard/libc_nano.a(libc_a-nano-vfprintf.o)
__sfvwrite_r                                      /usr/lib/gcc/arm-none-eabi/16.1.0/../../../../arm-none-eabi/lib/thumb/v8-m.main+dp/hard/libc_nano.a(libc_a-fvwrite.o)
                                                  /usr/lib/gcc/arm-none-eabi/16.1.0/../../../../arm-none-eabi/lib/thumb/v8-m.main+dp/hard/libc_nano.a(libc_a-nano-vfprintf.o)
__sglue                                           /usr/lib/gcc/arm-none-eabi/16.1.0/../../../../arm-none-eabi/lib/thumb/v8-m.main+dp/hard/libc_nano.a(libc_a-findfp.o)
                                                  /usr/lib/gcc/arm-none-eabi/16.1.0/../../../../arm-none-eabi/lib/thumb/v8-m.main+dp/hard/libc_nano.a(libc_a-fflush.o)
__sinit                                           /usr/lib/gcc/arm-none-eabi/16.1.0/../../../../arm-none-eabi/lib/thumb/v8-m.main+dp/hard/libc_nano.a(libc_a-findfp.o)
                                                  /usr/lib/gcc/arm-none-eabi/16.1.0/../../../../arm-none-eabi/lib/thumb/v8-m.main+dp/hard/libc_nano.a(libc_a-wsetup.o)
                                                  /usr/lib/gcc/arm-none-eabi/16.1.0/../../../../arm-none-eabi/lib/thumb/v8-m.main+dp/hard/libc_nano.a(libc_a-wbuf.o)
                                                  /usr/lib/gcc/arm-none-eabi/16.1.0/../../../../arm-none-eabi/lib/thumb/v8-m.main+dp/hard/libc_nano.a(libc_a-fflush.o)
                                                  /usr/lib/gcc/arm-none-eabi/16.1.0/../../../../arm-none-eabi/lib/thumb/v8-m.main+dp/hard/libc_nano.a(libc_a-nano-vfprintf.o)
__smakebuf_r                                      /usr/lib/gcc/arm-none-eabi/16.1.0/../../../../arm-none-eabi/lib/thumb/v8-m.main+dp/hard/libc_nano.a(libc_a-makebuf.o)
                                                  /usr/lib/gcc/arm-none-eabi/16.1.0/../../../../arm-none-eabi/lib/thumb/v8-m.main+dp/hard/libc_nano.a(libc_a-wsetup.o)
__sprint_r                                        /usr/lib/gcc/arm-none-eabi/16.1.0/../../../../arm-none-eabi/lib/thumb/v8-m.main+dp/hard/libc_nano.a(libc_a-nano-vfprintf.o)
__sread                                           /usr/lib/gcc/arm-none-eabi/16.1.0/../../../../arm-none-eabi/lib/thumb/v8-m.main+dp/hard/libc_nano.a(libc_a-stdio.o)
                                                  /usr/lib/gcc/arm-none-eabi/16.1.0/../../../../arm-none-eabi/lib/thumb/v8-m.main+dp/hard/libc_nano.a(libc_a-findfp.o)
__sseek                                           /usr/lib/gcc/arm-none-eabi/16.1.0/../../../../arm-none-eabi/lib/thumb/v8-m.main+dp/hard/libc_nano.a(libc_a-stdio.o)
                                                  /usr/lib/gcc/arm-none-eabi/16.1.0/../../../../arm-none-eabi/lib/thumb/v8-m.main+dp/hard/libc_nano.a(libc_a-findfp.o)
__stack                                           /usr/lib/gcc/arm-none-eabi/16.1.0/../../../../arm-none-eabi/lib/thumb/v8-m.main+dp/hard/crt0.o
__stdio_exit_handler                              /usr/lib/gcc/arm-none-eabi/16.1.0/../../../../arm-none-eabi/lib/thumb/v8-m.main+dp/hard/libc_nano.a(libc_a-findfp.o)
                                                  /usr/lib/gcc/arm-none-eabi/16.1.0/../../../../arm-none-eabi/lib/thumb/v8-m.main+dp/hard/libc_nano.a(libc_a-exit.o)
__swbuf                                           /usr/lib/gcc/arm-none-eabi/16.1.0/../../../../arm-none-eabi/lib/thumb/v8-m.main+dp/hard/libc_nano.a(libc_a-wbuf.o)
__swbuf_r                                         /usr/lib/gcc/arm-none-eabi/16.1.0/../../../../arm-none-eabi/lib/thumb/v8-m.main+dp/hard/libc_nano.a(libc_a-wbuf.o)
                                                  /usr/lib/gcc/arm-none-eabi/16.1.0/../../../../arm-none-eabi/lib/thumb/v8-m.main+dp/hard/libc_nano.a(libc_a-nano-vfprintf.o)
__swhatbuf_r                                      /usr/lib/gcc/arm-none-eabi/16.1.0/../../../../arm-none-eabi/lib/thumb/v8-m.main+dp/hard/libc_nano.a(libc_a-makebuf.o)
__swrite                                          /usr/lib/gcc/arm-none-eabi/16.1.0/../../../../arm-none-eabi/lib/thumb/v8-m.main+dp/hard/libc_nano.a(libc_a-stdio.o)
                                                  /usr/lib/gcc/arm-none-eabi/16.1.0/../../../../arm-none-eabi/lib/thumb/v8-m.main+dp/hard/libc_nano.a(libc_a-findfp.o)
__swsetup_r                                       /usr/lib/gcc/arm-none-eabi/16.1.0/../../../../arm-none-eabi/lib/thumb/v8-m.main+dp/hard/libc_nano.a(libc_a-wsetup.o)
                                                  /usr/lib/gcc/arm-none-eabi/16.1.0/../../../../arm-none-eabi/lib/thumb/v8-m.main+dp/hard/libc_nano.a(libc_a-wbuf.o)
                                                  /usr/lib/gcc/arm-none-eabi/16.1.0/../../../../arm-none-eabi/lib/thumb/v8-m.main+dp/hard/libc_nano.a(libc_a-fvwrite.o)
                                                  /usr/lib/gcc/arm-none-eabi/16.1.0/../../../../arm-none-eabi/lib/thumb/v8-m.main+dp/hard/libc_nano.a(libc_a-nano-vfprintf.o)
__udivmoddi4                                      /usr/lib/gcc/arm-none-eabi/16.1.0/thumb/v8-m.main+dp/hard/libgcc.a(_udivmoddi4.o)
                                                  /usr/lib/gcc/arm-none-eabi/16.1.0/thumb/v8-m.main+dp/hard/libgcc.a(_aeabi_uldivmod.o)
_close                                            build/syscalls.o
                                                  /usr/lib/gcc/arm-none-eabi/16.1.0/../../../../arm-none-eabi/lib/thumb/v8-m.main+dp/hard/libc_nano.a(libc_a-closer.o)
_close_r                                          /usr/lib/gcc/arm-none-eabi/16.1.0/../../../../arm-none-eabi/lib/thumb/v8-m.main+dp/hard/libc_nano.a(libc_a-closer.o)
                                                  /usr/lib/gcc/arm-none-eabi/16.1.0/../../../../arm-none-eabi/lib/thumb/v8-m.main+dp/hard/libc_nano.a(libc_a-stdio.o)
_ebss                                             build/startup_stm32n657xx.o
_edata                                            build/startup_stm32n657xx.o
_end                                              build/sysmem.o
_estack                                           build/startup_stm32n657xx.o
                                                  build/sysmem.o
_execve                                           build/syscalls.o
_exit                                             build/syscalls.o
                                                  /usr/lib/gcc/arm-none-eabi/16.1.0/../../../../arm-none-eabi/lib/thumb/v8-m.main+dp/hard/libc_nano.a(libc_a-exit.o)
_fflush_r                                         /usr/lib/gcc/arm-none-eabi/16.1.0/../../../../arm-none-eabi/lib/thumb/v8-m.main+dp/hard/libc_nano.a(libc_a-fflush.o)
                                                  /usr/lib/gcc/arm-none-eabi/16.1.0/../../../../arm-none-eabi/lib/thumb/v8-m.main+dp/hard/libc_nano.a(libc_a-wbuf.o)
                                                  /usr/lib/gcc/arm-none-eabi/16.1.0/../../../../arm-none-eabi/lib/thumb/v8-m.main+dp/hard/libc_nano.a(libc_a-fvwrite.o)
                                                  /usr/lib/gcc/arm-none-eabi/16.1.0/../../../../arm-none-eabi/lib/thumb/v8-m.main+dp/hard/libc_nano.a(libc_a-findfp.o)
_fini                                             /usr/lib/gcc/arm-none-eabi/16.1.0/thumb/v8-m.main+dp/hard/crti.o
                                                  /usr/lib/gcc/arm-none-eabi/16.1.0/../../../../arm-none-eabi/lib/thumb/v8-m.main+dp/hard/libc_nano.a(libc_a-fini.o)
_fork                                             build/syscalls.o
_free_r                                           /usr/lib/gcc/arm-none-eabi/16.1.0/../../../../arm-none-eabi/lib/thumb/v8-m.main+dp/hard/libc_nano.a(libc_a-freer.o)
                                                  /usr/lib/gcc/arm-none-eabi/16.1.0/../../../../arm-none-eabi/lib/thumb/v8-m.main+dp/hard/libc_nano.a(libc_a-reallocr.o)
                                                  /usr/lib/gcc/arm-none-eabi/16.1.0/../../../../arm-none-eabi/lib/thumb/v8-m.main+dp/hard/libc_nano.a(libc_a-wsetup.o)
                                                  /usr/lib/gcc/arm-none-eabi/16.1.0/../../../../arm-none-eabi/lib/thumb/v8-m.main+dp/hard/libc_nano.a(libc_a-fvwrite.o)
                                                  /usr/lib/gcc/arm-none-eabi/16.1.0/../../../../arm-none-eabi/lib/thumb/v8-m.main+dp/hard/libc_nano.a(libc_a-fflush.o)
                                                  /usr/lib/gcc/arm-none-eabi/16.1.0/../../../../arm-none-eabi/lib/thumb/v8-m.main+dp/hard/libc_nano.a(libc_a-reent.o)
_fstat                                            build/syscalls.o
                                                  /usr/lib/gcc/arm-none-eabi/16.1.0/../../../../arm-none-eabi/lib/thumb/v8-m.main+dp/hard/libc_nano.a(libc_a-fstatr.o)
_fstat_r                                          /usr/lib/gcc/arm-none-eabi/16.1.0/../../../../arm-none-eabi/lib/thumb/v8-m.main+dp/hard/libc_nano.a(libc_a-fstatr.o)
                                                  /usr/lib/gcc/arm-none-eabi/16.1.0/../../../../arm-none-eabi/lib/thumb/v8-m.main+dp/hard/libc_nano.a(libc_a-makebuf.o)
_fwalk_sglue                                      /usr/lib/gcc/arm-none-eabi/16.1.0/../../../../arm-none-eabi/lib/thumb/v8-m.main+dp/hard/libc_nano.a(libc_a-fwalk.o)
                                                  /usr/lib/gcc/arm-none-eabi/16.1.0/../../../../arm-none-eabi/lib/thumb/v8-m.main+dp/hard/libc_nano.a(libc_a-fflush.o)
                                                  /usr/lib/gcc/arm-none-eabi/16.1.0/../../../../arm-none-eabi/lib/thumb/v8-m.main+dp/hard/libc_nano.a(libc_a-findfp.o)
_getpid                                           build/syscalls.o
_impure_data                                      /usr/lib/gcc/arm-none-eabi/16.1.0/../../../../arm-none-eabi/lib/thumb/v8-m.main+dp/hard/libc_nano.a(libc_a-impure.o)
                                                  /usr/lib/gcc/arm-none-eabi/16.1.0/../../../../arm-none-eabi/lib/thumb/v8-m.main+dp/hard/libc_nano.a(libc_a-fflush.o)
                                                  /usr/lib/gcc/arm-none-eabi/16.1.0/../../../../arm-none-eabi/lib/thumb/v8-m.main+dp/hard/libc_nano.a(libc_a-findfp.o)
_impure_ptr                                       /usr/lib/gcc/arm-none-eabi/16.1.0/../../../../arm-none-eabi/lib/thumb/v8-m.main+dp/hard/libc_nano.a(libc_a-impure.o)
                                                  /usr/lib/gcc/arm-none-eabi/16.1.0/../../../../arm-none-eabi/lib/thumb/v8-m.main+dp/hard/libc_nano.a(libc_a-wsetup.o)
                                                  /usr/lib/gcc/arm-none-eabi/16.1.0/../../../../arm-none-eabi/lib/thumb/v8-m.main+dp/hard/libc_nano.a(libc_a-wbuf.o)
                                                  /usr/lib/gcc/arm-none-eabi/16.1.0/../../../../arm-none-eabi/lib/thumb/v8-m.main+dp/hard/libc_nano.a(libc_a-fflush.o)
                                                  /usr/lib/gcc/arm-none-eabi/16.1.0/../../../../arm-none-eabi/lib/thumb/v8-m.main+dp/hard/libc_nano.a(libc_a-nano-vfprintf.o)
                                                  /usr/lib/gcc/arm-none-eabi/16.1.0/../../../../arm-none-eabi/lib/thumb/v8-m.main+dp/hard/libc_nano.a(libc_a-errno.o)
                                                  /usr/lib/gcc/arm-none-eabi/16.1.0/../../../../arm-none-eabi/lib/thumb/v8-m.main+dp/hard/libc_nano.a(libc_a-reent.o)
                                                  /usr/lib/gcc/arm-none-eabi/16.1.0/../../../../arm-none-eabi/lib/thumb/v8-m.main+dp/hard/libc_nano.a(libc_a-printf.o)
_init                                             /usr/lib/gcc/arm-none-eabi/16.1.0/thumb/v8-m.main+dp/hard/crti.o
                                                  /usr/lib/gcc/arm-none-eabi/16.1.0/../../../../arm-none-eabi/lib/thumb/v8-m.main+dp/hard/libc_nano.a(libc_a-init.o)
_iprintf_r                                        /usr/lib/gcc/arm-none-eabi/16.1.0/../../../../arm-none-eabi/lib/thumb/v8-m.main+dp/hard/libc_nano.a(libc_a-printf.o)
_isatty                                           build/syscalls.o
                                                  /usr/lib/gcc/arm-none-eabi/16.1.0/../../../../arm-none-eabi/lib/thumb/v8-m.main+dp/hard/libc_nano.a(libc_a-isattyr.o)
_isatty_r                                         /usr/lib/gcc/arm-none-eabi/16.1.0/../../../../arm-none-eabi/lib/thumb/v8-m.main+dp/hard/libc_nano.a(libc_a-isattyr.o)
                                                  /usr/lib/gcc/arm-none-eabi/16.1.0/../../../../arm-none-eabi/lib/thumb/v8-m.main+dp/hard/libc_nano.a(libc_a-makebuf.o)
_kill                                             build/syscalls.o
_link                                             build/syscalls.o
_lseek                                            build/syscalls.o
                                                  /usr/lib/gcc/arm-none-eabi/16.1.0/../../../../arm-none-eabi/lib/thumb/v8-m.main+dp/hard/libc_nano.a(libc_a-lseekr.o)
_lseek_r                                          /usr/lib/gcc/arm-none-eabi/16.1.0/../../../../arm-none-eabi/lib/thumb/v8-m.main+dp/hard/libc_nano.a(libc_a-lseekr.o)
                                                  /usr/lib/gcc/arm-none-eabi/16.1.0/../../../../arm-none-eabi/lib/thumb/v8-m.main+dp/hard/libc_nano.a(libc_a-stdio.o)
_mainCRTStartup                                   /usr/lib/gcc/arm-none-eabi/16.1.0/../../../../arm-none-eabi/lib/thumb/v8-m.main+dp/hard/crt0.o
_malloc_r                                         /usr/lib/gcc/arm-none-eabi/16.1.0/../../../../arm-none-eabi/lib/thumb/v8-m.main+dp/hard/libc_nano.a(libc_a-mallocr.o)
                                                  /usr/lib/gcc/arm-none-eabi/16.1.0/../../../../arm-none-eabi/lib/thumb/v8-m.main+dp/hard/libc_nano.a(libc_a-makebuf.o)
                                                  /usr/lib/gcc/arm-none-eabi/16.1.0/../../../../arm-none-eabi/lib/thumb/v8-m.main+dp/hard/libc_nano.a(libc_a-reallocr.o)
                                                  /usr/lib/gcc/arm-none-eabi/16.1.0/../../../../arm-none-eabi/lib/thumb/v8-m.main+dp/hard/libc_nano.a(libc_a-fvwrite.o)
                                                  /usr/lib/gcc/arm-none-eabi/16.1.0/../../../../arm-none-eabi/lib/thumb/v8-m.main+dp/hard/libc_nano.a(libc_a-findfp.o)
_malloc_usable_size_r                             /usr/lib/gcc/arm-none-eabi/16.1.0/../../../../arm-none-eabi/lib/thumb/v8-m.main+dp/hard/libc_nano.a(libc_a-msizer.o)
                                                  /usr/lib/gcc/arm-none-eabi/16.1.0/../../../../arm-none-eabi/lib/thumb/v8-m.main+dp/hard/libc_nano.a(libc_a-reallocr.o)
_open                                             build/syscalls.o
_printf_common                                    /usr/lib/gcc/arm-none-eabi/16.1.0/../../../../arm-none-eabi/lib/thumb/v8-m.main+dp/hard/libc_nano.a(libc_a-nano-vfprintf_i.o)
_printf_float                                     /usr/lib/gcc/arm-none-eabi/16.1.0/../../../../arm-none-eabi/lib/thumb/v8-m.main+dp/hard/libc_nano.a(libc_a-nano-vfprintf.o)
_printf_i                                         /usr/lib/gcc/arm-none-eabi/16.1.0/../../../../arm-none-eabi/lib/thumb/v8-m.main+dp/hard/libc_nano.a(libc_a-nano-vfprintf_i.o)
                                                  /usr/lib/gcc/arm-none-eabi/16.1.0/../../../../arm-none-eabi/lib/thumb/v8-m.main+dp/hard/libc_nano.a(libc_a-nano-vfprintf.o)
_printf_r                                         /usr/lib/gcc/arm-none-eabi/16.1.0/../../../../arm-none-eabi/lib/thumb/v8-m.main+dp/hard/libc_nano.a(libc_a-printf.o)
_read                                             build/syscalls.o
                                                  /usr/lib/gcc/arm-none-eabi/16.1.0/../../../../arm-none-eabi/lib/thumb/v8-m.main+dp/hard/libc_nano.a(libc_a-readr.o)
_read_r                                           /usr/lib/gcc/arm-none-eabi/16.1.0/../../../../arm-none-eabi/lib/thumb/v8-m.main+dp/hard/libc_nano.a(libc_a-readr.o)
                                                  /usr/lib/gcc/arm-none-eabi/16.1.0/../../../../arm-none-eabi/lib/thumb/v8-m.main+dp/hard/libc_nano.a(libc_a-stdio.o)
_realloc_r                                        /usr/lib/gcc/arm-none-eabi/16.1.0/../../../../arm-none-eabi/lib/thumb/v8-m.main+dp/hard/libc_nano.a(libc_a-reallocr.o)
                                                  /usr/lib/gcc/arm-none-eabi/16.1.0/../../../../arm-none-eabi/lib/thumb/v8-m.main+dp/hard/libc_nano.a(libc_a-fvwrite.o)
_reclaim_reent                                    /usr/lib/gcc/arm-none-eabi/16.1.0/../../../../arm-none-eabi/lib/thumb/v8-m.main+dp/hard/libc_nano.a(libc_a-reent.o)
_sbrk                                             build/sysmem.o
                                                  /usr/lib/gcc/arm-none-eabi/16.1.0/../../../../arm-none-eabi/lib/thumb/v8-m.main+dp/hard/libc_nano.a(libc_a-sbrkr.o)
_sbrk_r                                           /usr/lib/gcc/arm-none-eabi/16.1.0/../../../../arm-none-eabi/lib/thumb/v8-m.main+dp/hard/libc_nano.a(libc_a-sbrkr.o)
                                                  /usr/lib/gcc/arm-none-eabi/16.1.0/../../../../arm-none-eabi/lib/thumb/v8-m.main+dp/hard/libc_nano.a(libc_a-mallocr.o)
_sbss                                             build/startup_stm32n657xx.o
_sdata                                            build/startup_stm32n657xx.o
_sidata                                           build/startup_stm32n657xx.o
_sstack                                           build/startup_stm32n657xx.o
_stack_init                                       /usr/lib/gcc/arm-none-eabi/16.1.0/../../../../arm-none-eabi/lib/thumb/v8-m.main+dp/hard/crt0.o
_start                                            /usr/lib/gcc/arm-none-eabi/16.1.0/../../../../arm-none-eabi/lib/thumb/v8-m.main+dp/hard/crt0.o
_stat                                             build/syscalls.o
_times                                            build/syscalls.o
_unlink                                           build/syscalls.o
_vfiprintf_r                                      /usr/lib/gcc/arm-none-eabi/16.1.0/../../../../arm-none-eabi/lib/thumb/v8-m.main+dp/hard/libc_nano.a(libc_a-nano-vfprintf.o)
_vfprintf_r                                       /usr/lib/gcc/arm-none-eabi/16.1.0/../../../../arm-none-eabi/lib/thumb/v8-m.main+dp/hard/libc_nano.a(libc_a-nano-vfprintf.o)
                                                  /usr/lib/gcc/arm-none-eabi/16.1.0/../../../../arm-none-eabi/lib/thumb/v8-m.main+dp/hard/libc_nano.a(libc_a-printf.o)
_wait                                             build/syscalls.o
_write                                            build/syscalls.o
                                                  /usr/lib/gcc/arm-none-eabi/16.1.0/../../../../arm-none-eabi/lib/thumb/v8-m.main+dp/hard/libc_nano.a(libc_a-writer.o)
_write_r                                          /usr/lib/gcc/arm-none-eabi/16.1.0/../../../../arm-none-eabi/lib/thumb/v8-m.main+dp/hard/libc_nano.a(libc_a-writer.o)
                                                  /usr/lib/gcc/arm-none-eabi/16.1.0/../../../../arm-none-eabi/lib/thumb/v8-m.main+dp/hard/libc_nano.a(libc_a-stdio.o)
atexit                                            /usr/lib/gcc/arm-none-eabi/16.1.0/../../../../arm-none-eabi/lib/thumb/v8-m.main+dp/hard/libc_nano.a(libc_a-atexit.o)
                                                  /usr/lib/gcc/arm-none-eabi/16.1.0/../../../../arm-none-eabi/lib/thumb/v8-m.main+dp/hard/crt0.o
environ                                           build/syscalls.o
errno                                             /usr/lib/gcc/arm-none-eabi/16.1.0/../../../../arm-none-eabi/lib/thumb/v8-m.main+dp/hard/libc_nano.a(libc_a-reent.o)
                                                  /usr/lib/gcc/arm-none-eabi/16.1.0/../../../../arm-none-eabi/lib/thumb/v8-m.main+dp/hard/libc_nano.a(libc_a-isattyr.o)
                                                  /usr/lib/gcc/arm-none-eabi/16.1.0/../../../../arm-none-eabi/lib/thumb/v8-m.main+dp/hard/libc_nano.a(libc_a-fstatr.o)
                                                  /usr/lib/gcc/arm-none-eabi/16.1.0/../../../../arm-none-eabi/lib/thumb/v8-m.main+dp/hard/libc_nano.a(libc_a-sbrkr.o)
                                                  /usr/lib/gcc/arm-none-eabi/16.1.0/../../../../arm-none-eabi/lib/thumb/v8-m.main+dp/hard/libc_nano.a(libc_a-writer.o)
                                                  /usr/lib/gcc/arm-none-eabi/16.1.0/../../../../arm-none-eabi/lib/thumb/v8-m.main+dp/hard/libc_nano.a(libc_a-readr.o)
                                                  /usr/lib/gcc/arm-none-eabi/16.1.0/../../../../arm-none-eabi/lib/thumb/v8-m.main+dp/hard/libc_nano.a(libc_a-lseekr.o)
                                                  /usr/lib/gcc/arm-none-eabi/16.1.0/../../../../arm-none-eabi/lib/thumb/v8-m.main+dp/hard/libc_nano.a(libc_a-closer.o)
exit                                              /usr/lib/gcc/arm-none-eabi/16.1.0/../../../../arm-none-eabi/lib/thumb/v8-m.main+dp/hard/libc_nano.a(libc_a-exit.o)
                                                  /usr/lib/gcc/arm-none-eabi/16.1.0/../../../../arm-none-eabi/lib/thumb/v8-m.main+dp/hard/crt0.o
fflush                                            /usr/lib/gcc/arm-none-eabi/16.1.0/../../../../arm-none-eabi/lib/thumb/v8-m.main+dp/hard/libc_nano.a(libc_a-fflush.o)
g_pfnVectors                                      build/startup_stm32n657xx.o
                                                  build/system_stm32n6xx_s.o
hardware_init_hook                                /usr/lib/gcc/arm-none-eabi/16.1.0/../../../../arm-none-eabi/lib/thumb/v8-m.main+dp/hard/crt0.o
hcacheaxi                                         build/main.o
hcom_uart                                         build/stm32n6xx_nucleo.o
hdcmipp                                           build/main.o
hlpuart1                                          build/main.o
hramcfg_SRAM3                                     build/main.o
hramcfg_SRAM4                                     build/main.o
hramcfg_SRAM5                                     build/main.o
hramcfg_SRAM6                                     build/main.o
initialise_monitor_handles                        build/syscalls.o
iprintf                                           /usr/lib/gcc/arm-none-eabi/16.1.0/../../../../arm-none-eabi/lib/thumb/v8-m.main+dp/hard/libc_nano.a(libc_a-printf.o)
main                                              build/main.o
                                                  build/startup_stm32n657xx.o
                                                  /usr/lib/gcc/arm-none-eabi/16.1.0/../../../../arm-none-eabi/lib/thumb/v8-m.main+dp/hard/crt0.o
malloc                                            /usr/lib/gcc/arm-none-eabi/16.1.0/../../../../arm-none-eabi/lib/thumb/v8-m.main+dp/hard/libc_nano.a(libc_a-__atexit.o)
memchr                                            /usr/lib/gcc/arm-none-eabi/16.1.0/../../../../arm-none-eabi/lib/thumb/v8-m.main+dp/hard/libc_nano.a(libc_a-memchr-stub.o)
                                                  /usr/lib/gcc/arm-none-eabi/16.1.0/../../../../arm-none-eabi/lib/thumb/v8-m.main+dp/hard/libc_nano.a(libc_a-fvwrite.o)
                                                  /usr/lib/gcc/arm-none-eabi/16.1.0/../../../../arm-none-eabi/lib/thumb/v8-m.main+dp/hard/libc_nano.a(libc_a-nano-vfprintf_i.o)
                                                  /usr/lib/gcc/arm-none-eabi/16.1.0/../../../../arm-none-eabi/lib/thumb/v8-m.main+dp/hard/libc_nano.a(libc_a-nano-vfprintf.o)
memcpy                                            /usr/lib/gcc/arm-none-eabi/16.1.0/../../../../arm-none-eabi/lib/thumb/v8-m.main+dp/hard/libc_nano.a(libc_a-memcpy-stub.o)
                                                  /usr/lib/gcc/arm-none-eabi/16.1.0/../../../../arm-none-eabi/lib/thumb/v8-m.main+dp/hard/libc_nano.a(libc_a-reallocr.o)
                                                  /usr/lib/gcc/arm-none-eabi/16.1.0/../../../../arm-none-eabi/lib/thumb/v8-m.main+dp/hard/libc_nano.a(libc_a-fvwrite.o)
                                                  build/stm32n6xx_hal_dcmipp.o
memmove                                           /usr/lib/gcc/arm-none-eabi/16.1.0/../../../../arm-none-eabi/lib/thumb/v8-m.main+dp/hard/libc_nano.a(libc_a-memmove.o)
                                                  /usr/lib/gcc/arm-none-eabi/16.1.0/../../../../arm-none-eabi/lib/thumb/v8-m.main+dp/hard/libc_nano.a(libc_a-fvwrite.o)
memset                                            /usr/lib/gcc/arm-none-eabi/16.1.0/../../../../arm-none-eabi/lib/thumb/v8-m.main+dp/hard/libc_nano.a(libc_a-memset.o)
                                                  /usr/lib/gcc/arm-none-eabi/16.1.0/../../../../arm-none-eabi/lib/thumb/v8-m.main+dp/hard/libc_nano.a(libc_a-findfp.o)
                                                  build/stm32n6xx_hal_msp.o
                                                  build/main.o
                                                  /usr/lib/gcc/arm-none-eabi/16.1.0/../../../../arm-none-eabi/lib/thumb/v8-m.main+dp/hard/crt0.o
pSecureErrorCallback                              build/secure_nsc.o
pSecureFaultCallback                              build/secure_nsc.o
printf                                            /usr/lib/gcc/arm-none-eabi/16.1.0/../../../../arm-none-eabi/lib/thumb/v8-m.main+dp/hard/libc_nano.a(libc_a-printf.o)
                                                  build/main.o
software_init_hook                                /usr/lib/gcc/arm-none-eabi/16.1.0/../../../../arm-none-eabi/lib/thumb/v8-m.main+dp/hard/crt0.o
uwTick                                            build/stm32n6xx_hal.o
uwTickFreq                                        build/stm32n6xx_hal.o
uwTickPrio                                        build/stm32n6xx_hal.o
                                                  build/stm32n6xx_hal_rcc.o
vfiprintf                                         /usr/lib/gcc/arm-none-eabi/16.1.0/../../../../arm-none-eabi/lib/thumb/v8-m.main+dp/hard/libc_nano.a(libc_a-nano-vfprintf.o)
vfprintf                                          /usr/lib/gcc/arm-none-eabi/16.1.0/../../../../arm-none-eabi/lib/thumb/v8-m.main+dp/hard/libc_nano.a(libc_a-nano-vfprintf.o)
