ARM GAS  /tmp/ccvdUNht.s 			page 1


   1              		.arch armv8.1-m.main
   2              		.fpu fpv5-d16
   3              		.arch_extension dsp
   4              		.arch_extension fp
   5              		.arch_extension fp.dp
   6              		.arch_extension mve
   7              		.arch_extension mve.fp
   8              		.eabi_attribute 5, "cortex-m55"
   9              		.eabi_attribute 28, 1
  10              		.eabi_attribute 20, 1
  11              		.eabi_attribute 21, 1
  12              		.eabi_attribute 23, 3
  13              		.eabi_attribute 24, 1
  14              		.eabi_attribute 25, 1
  15              		.eabi_attribute 26, 1
  16              		.eabi_attribute 30, 1
  17              		.eabi_attribute 34, 1
  18              		.eabi_attribute 38, 1
  19              		.eabi_attribute 18, 4
  20              		.file	"stm32n6xx_hal.c"
  21              		.text
  22              	.Ltext0:
  23              		.cfi_sections	.debug_frame
  24              		.file 1 "../Drivers/STM32N6xx_HAL_Driver/Src/stm32n6xx_hal.c"
  25              		.section	.text.HAL_MspInit,"ax",%progbits
  26              		.align	1
  27              		.weak	HAL_MspInit
  28              		.syntax unified
  29              		.thumb
  30              		.thumb_func
  32              	HAL_MspInit:
  33              	.LFB883:
   1:../Drivers/STM32N6xx_HAL_Driver/Src/stm32n6xx_hal.c **** /**
   2:../Drivers/STM32N6xx_HAL_Driver/Src/stm32n6xx_hal.c ****   ******************************************************************************
   3:../Drivers/STM32N6xx_HAL_Driver/Src/stm32n6xx_hal.c ****   * @file    stm32n6xx_hal.c
   4:../Drivers/STM32N6xx_HAL_Driver/Src/stm32n6xx_hal.c ****   * @author  MCD Application Team
   5:../Drivers/STM32N6xx_HAL_Driver/Src/stm32n6xx_hal.c ****   * @brief   HAL module driver.
   6:../Drivers/STM32N6xx_HAL_Driver/Src/stm32n6xx_hal.c ****   *          This is the common part of the HAL initialization
   7:../Drivers/STM32N6xx_HAL_Driver/Src/stm32n6xx_hal.c ****   *
   8:../Drivers/STM32N6xx_HAL_Driver/Src/stm32n6xx_hal.c ****   ******************************************************************************
   9:../Drivers/STM32N6xx_HAL_Driver/Src/stm32n6xx_hal.c ****   * @attention
  10:../Drivers/STM32N6xx_HAL_Driver/Src/stm32n6xx_hal.c ****   *
  11:../Drivers/STM32N6xx_HAL_Driver/Src/stm32n6xx_hal.c ****   * Copyright (c) 2023 STMicroelectronics.
  12:../Drivers/STM32N6xx_HAL_Driver/Src/stm32n6xx_hal.c ****   * All rights reserved.
  13:../Drivers/STM32N6xx_HAL_Driver/Src/stm32n6xx_hal.c ****   *
  14:../Drivers/STM32N6xx_HAL_Driver/Src/stm32n6xx_hal.c ****   * This software is licensed under terms that can be found in the LICENSE file
  15:../Drivers/STM32N6xx_HAL_Driver/Src/stm32n6xx_hal.c ****   * in the root directory of this software component.
  16:../Drivers/STM32N6xx_HAL_Driver/Src/stm32n6xx_hal.c ****   * If no LICENSE file comes with this software, it is provided AS-IS.
  17:../Drivers/STM32N6xx_HAL_Driver/Src/stm32n6xx_hal.c ****   *
  18:../Drivers/STM32N6xx_HAL_Driver/Src/stm32n6xx_hal.c ****   ******************************************************************************
  19:../Drivers/STM32N6xx_HAL_Driver/Src/stm32n6xx_hal.c ****   @verbatim
  20:../Drivers/STM32N6xx_HAL_Driver/Src/stm32n6xx_hal.c ****   ==============================================================================
  21:../Drivers/STM32N6xx_HAL_Driver/Src/stm32n6xx_hal.c ****                      ##### How to use this driver #####
  22:../Drivers/STM32N6xx_HAL_Driver/Src/stm32n6xx_hal.c ****   ==============================================================================
  23:../Drivers/STM32N6xx_HAL_Driver/Src/stm32n6xx_hal.c ****     [..]
  24:../Drivers/STM32N6xx_HAL_Driver/Src/stm32n6xx_hal.c ****     The common HAL driver contains a set of generic and common APIs that can be
  25:../Drivers/STM32N6xx_HAL_Driver/Src/stm32n6xx_hal.c ****     used by the PPP peripheral drivers and the user to start using the HAL.
ARM GAS  /tmp/ccvdUNht.s 			page 2


  26:../Drivers/STM32N6xx_HAL_Driver/Src/stm32n6xx_hal.c ****     [..]
  27:../Drivers/STM32N6xx_HAL_Driver/Src/stm32n6xx_hal.c ****     The HAL contains two APIs' categories:
  28:../Drivers/STM32N6xx_HAL_Driver/Src/stm32n6xx_hal.c ****          (+) Common HAL APIs
  29:../Drivers/STM32N6xx_HAL_Driver/Src/stm32n6xx_hal.c ****          (+) Services HAL APIs
  30:../Drivers/STM32N6xx_HAL_Driver/Src/stm32n6xx_hal.c ****     [..]
  31:../Drivers/STM32N6xx_HAL_Driver/Src/stm32n6xx_hal.c ****     All the SYSCFG functions have the same privilege and security attributes.
  32:../Drivers/STM32N6xx_HAL_Driver/Src/stm32n6xx_hal.c ****          (+) Functions can operate in non-privileged code should
  33:../Drivers/STM32N6xx_HAL_Driver/Src/stm32n6xx_hal.c ****              privileged and unprivileged data access are granted to the
  34:../Drivers/STM32N6xx_HAL_Driver/Src/stm32n6xx_hal.c ****              peripheral (see HAL_RIF_RISC_SetSlaveSecureAttributes)
  35:../Drivers/STM32N6xx_HAL_Driver/Src/stm32n6xx_hal.c **** 
  36:../Drivers/STM32N6xx_HAL_Driver/Src/stm32n6xx_hal.c ****          (+) Functions  can operate in non-secure code should
  37:../Drivers/STM32N6xx_HAL_Driver/Src/stm32n6xx_hal.c ****              secure and non-secure data access are granted to the peripheral
  38:../Drivers/STM32N6xx_HAL_Driver/Src/stm32n6xx_hal.c ****              (see HAL_RIF_RISC_SetSlaveSecureAttributes).
  39:../Drivers/STM32N6xx_HAL_Driver/Src/stm32n6xx_hal.c **** 
  40:../Drivers/STM32N6xx_HAL_Driver/Src/stm32n6xx_hal.c ****   @endverbatim
  41:../Drivers/STM32N6xx_HAL_Driver/Src/stm32n6xx_hal.c ****   ******************************************************************************
  42:../Drivers/STM32N6xx_HAL_Driver/Src/stm32n6xx_hal.c ****   */
  43:../Drivers/STM32N6xx_HAL_Driver/Src/stm32n6xx_hal.c **** 
  44:../Drivers/STM32N6xx_HAL_Driver/Src/stm32n6xx_hal.c **** /* Includes ------------------------------------------------------------------*/
  45:../Drivers/STM32N6xx_HAL_Driver/Src/stm32n6xx_hal.c **** #include "stm32n6xx_hal.h"
  46:../Drivers/STM32N6xx_HAL_Driver/Src/stm32n6xx_hal.c **** 
  47:../Drivers/STM32N6xx_HAL_Driver/Src/stm32n6xx_hal.c **** /** @addtogroup STM32N6xx_HAL_Driver
  48:../Drivers/STM32N6xx_HAL_Driver/Src/stm32n6xx_hal.c ****   * @{
  49:../Drivers/STM32N6xx_HAL_Driver/Src/stm32n6xx_hal.c ****   */
  50:../Drivers/STM32N6xx_HAL_Driver/Src/stm32n6xx_hal.c **** 
  51:../Drivers/STM32N6xx_HAL_Driver/Src/stm32n6xx_hal.c **** /** @defgroup HAL HAL
  52:../Drivers/STM32N6xx_HAL_Driver/Src/stm32n6xx_hal.c ****   * @brief HAL module driver
  53:../Drivers/STM32N6xx_HAL_Driver/Src/stm32n6xx_hal.c ****   * @{
  54:../Drivers/STM32N6xx_HAL_Driver/Src/stm32n6xx_hal.c ****   */
  55:../Drivers/STM32N6xx_HAL_Driver/Src/stm32n6xx_hal.c **** 
  56:../Drivers/STM32N6xx_HAL_Driver/Src/stm32n6xx_hal.c **** #ifdef HAL_MODULE_ENABLED
  57:../Drivers/STM32N6xx_HAL_Driver/Src/stm32n6xx_hal.c **** 
  58:../Drivers/STM32N6xx_HAL_Driver/Src/stm32n6xx_hal.c **** /* Private typedef -----------------------------------------------------------*/
  59:../Drivers/STM32N6xx_HAL_Driver/Src/stm32n6xx_hal.c **** /* Private define ------------------------------------------------------------*/
  60:../Drivers/STM32N6xx_HAL_Driver/Src/stm32n6xx_hal.c **** #define HAL_TIMEOUT_SYSCFG_ABORT        5U    /* 5 ms */
  61:../Drivers/STM32N6xx_HAL_Driver/Src/stm32n6xx_hal.c **** 
  62:../Drivers/STM32N6xx_HAL_Driver/Src/stm32n6xx_hal.c **** /* Private macros ------------------------------------------------------------*/
  63:../Drivers/STM32N6xx_HAL_Driver/Src/stm32n6xx_hal.c **** /* Private variables ---------------------------------------------------------*/
  64:../Drivers/STM32N6xx_HAL_Driver/Src/stm32n6xx_hal.c **** /* Exported variables --------------------------------------------------------*/
  65:../Drivers/STM32N6xx_HAL_Driver/Src/stm32n6xx_hal.c **** 
  66:../Drivers/STM32N6xx_HAL_Driver/Src/stm32n6xx_hal.c **** /** @defgroup HAL_Exported_Variables HAL Exported Variables
  67:../Drivers/STM32N6xx_HAL_Driver/Src/stm32n6xx_hal.c ****   * @{
  68:../Drivers/STM32N6xx_HAL_Driver/Src/stm32n6xx_hal.c ****   */
  69:../Drivers/STM32N6xx_HAL_Driver/Src/stm32n6xx_hal.c **** __IO uint32_t uwTick;
  70:../Drivers/STM32N6xx_HAL_Driver/Src/stm32n6xx_hal.c **** uint32_t uwTickPrio   = (1UL << __NVIC_PRIO_BITS); /* Invalid PRIO */
  71:../Drivers/STM32N6xx_HAL_Driver/Src/stm32n6xx_hal.c **** HAL_TickFreqTypeDef uwTickFreq = HAL_TICK_FREQ_DEFAULT;  /* 1KHz */
  72:../Drivers/STM32N6xx_HAL_Driver/Src/stm32n6xx_hal.c **** /**
  73:../Drivers/STM32N6xx_HAL_Driver/Src/stm32n6xx_hal.c ****   * @}
  74:../Drivers/STM32N6xx_HAL_Driver/Src/stm32n6xx_hal.c ****   */
  75:../Drivers/STM32N6xx_HAL_Driver/Src/stm32n6xx_hal.c **** 
  76:../Drivers/STM32N6xx_HAL_Driver/Src/stm32n6xx_hal.c **** /* Private function prototypes -----------------------------------------------*/
  77:../Drivers/STM32N6xx_HAL_Driver/Src/stm32n6xx_hal.c **** /* Exported functions --------------------------------------------------------*/
  78:../Drivers/STM32N6xx_HAL_Driver/Src/stm32n6xx_hal.c **** 
  79:../Drivers/STM32N6xx_HAL_Driver/Src/stm32n6xx_hal.c **** /** @defgroup HAL_Exported_Functions HAL Exported Functions
  80:../Drivers/STM32N6xx_HAL_Driver/Src/stm32n6xx_hal.c ****   * @{
  81:../Drivers/STM32N6xx_HAL_Driver/Src/stm32n6xx_hal.c ****   */
  82:../Drivers/STM32N6xx_HAL_Driver/Src/stm32n6xx_hal.c **** 
ARM GAS  /tmp/ccvdUNht.s 			page 3


  83:../Drivers/STM32N6xx_HAL_Driver/Src/stm32n6xx_hal.c **** /** @defgroup HAL_Exported_Functions_Group1 Initialization and de-initialization Functions
  84:../Drivers/STM32N6xx_HAL_Driver/Src/stm32n6xx_hal.c ****   * @brief    Initialization and de-initialization functions
  85:../Drivers/STM32N6xx_HAL_Driver/Src/stm32n6xx_hal.c ****   *
  86:../Drivers/STM32N6xx_HAL_Driver/Src/stm32n6xx_hal.c **** @verbatim
  87:../Drivers/STM32N6xx_HAL_Driver/Src/stm32n6xx_hal.c ****  ===============================================================================
  88:../Drivers/STM32N6xx_HAL_Driver/Src/stm32n6xx_hal.c ****               ##### Initialization and de-initialization functions #####
  89:../Drivers/STM32N6xx_HAL_Driver/Src/stm32n6xx_hal.c ****  ===============================================================================
  90:../Drivers/STM32N6xx_HAL_Driver/Src/stm32n6xx_hal.c ****     [..]  This section provides functions allowing to:
  91:../Drivers/STM32N6xx_HAL_Driver/Src/stm32n6xx_hal.c ****       (+) Initializes the NVIC allocation and initial clock configuration.
  92:../Drivers/STM32N6xx_HAL_Driver/Src/stm32n6xx_hal.c ****           It initializes the systick also when timeout is needed
  93:../Drivers/STM32N6xx_HAL_Driver/Src/stm32n6xx_hal.c ****           and the backup domain when enabled.
  94:../Drivers/STM32N6xx_HAL_Driver/Src/stm32n6xx_hal.c ****       (+) De-Initializes common part of the HAL.
  95:../Drivers/STM32N6xx_HAL_Driver/Src/stm32n6xx_hal.c ****       (+) Configure The time base source to have 1ms time base with a dedicated
  96:../Drivers/STM32N6xx_HAL_Driver/Src/stm32n6xx_hal.c ****           Tick interrupt priority.
  97:../Drivers/STM32N6xx_HAL_Driver/Src/stm32n6xx_hal.c ****         (++) SysTick timer is used by default as source of time base, but user
  98:../Drivers/STM32N6xx_HAL_Driver/Src/stm32n6xx_hal.c ****              can eventually implement his proper time base source (a general purpose
  99:../Drivers/STM32N6xx_HAL_Driver/Src/stm32n6xx_hal.c ****              timer for example or other time source), keeping in mind that Time base
 100:../Drivers/STM32N6xx_HAL_Driver/Src/stm32n6xx_hal.c ****              duration should be kept 1ms since PPP_TIMEOUT_VALUEs are defined and
 101:../Drivers/STM32N6xx_HAL_Driver/Src/stm32n6xx_hal.c ****              handled in milliseconds basis.
 102:../Drivers/STM32N6xx_HAL_Driver/Src/stm32n6xx_hal.c ****         (++) Time base configuration function (HAL_InitTick ()) is called automatically
 103:../Drivers/STM32N6xx_HAL_Driver/Src/stm32n6xx_hal.c ****              at the beginning of the program after reset by HAL_Init() or at any time
 104:../Drivers/STM32N6xx_HAL_Driver/Src/stm32n6xx_hal.c ****              when clock is configured, by HAL_RCC_ClockConfig().
 105:../Drivers/STM32N6xx_HAL_Driver/Src/stm32n6xx_hal.c ****         (++) Source of time base is configured  to generate interrupts at regular
 106:../Drivers/STM32N6xx_HAL_Driver/Src/stm32n6xx_hal.c ****              time intervals. Care must be taken if HAL_Delay() is called from a
 107:../Drivers/STM32N6xx_HAL_Driver/Src/stm32n6xx_hal.c ****              peripheral ISR process, the Tick interrupt line must have higher priority
 108:../Drivers/STM32N6xx_HAL_Driver/Src/stm32n6xx_hal.c ****             (numerically lower) than the peripheral interrupt. Otherwise the caller
 109:../Drivers/STM32N6xx_HAL_Driver/Src/stm32n6xx_hal.c ****             ISR process will be blocked.
 110:../Drivers/STM32N6xx_HAL_Driver/Src/stm32n6xx_hal.c ****        (++) functions affecting time base configurations are declared as __weak
 111:../Drivers/STM32N6xx_HAL_Driver/Src/stm32n6xx_hal.c ****              to make  override possible  in case of other  implementations in user file.
 112:../Drivers/STM32N6xx_HAL_Driver/Src/stm32n6xx_hal.c **** @endverbatim
 113:../Drivers/STM32N6xx_HAL_Driver/Src/stm32n6xx_hal.c ****   * @{
 114:../Drivers/STM32N6xx_HAL_Driver/Src/stm32n6xx_hal.c ****   */
 115:../Drivers/STM32N6xx_HAL_Driver/Src/stm32n6xx_hal.c **** 
 116:../Drivers/STM32N6xx_HAL_Driver/Src/stm32n6xx_hal.c **** /**
 117:../Drivers/STM32N6xx_HAL_Driver/Src/stm32n6xx_hal.c ****   * @brief  Configure the time base source, NVIC and any required global low
 118:../Drivers/STM32N6xx_HAL_Driver/Src/stm32n6xx_hal.c ****   *         level hardware by calling the HAL_MspInit() callback function to be optionally defined
 119:../Drivers/STM32N6xx_HAL_Driver/Src/stm32n6xx_hal.c ****   *         in user file stm32n6xx_hal_msp.c.
 120:../Drivers/STM32N6xx_HAL_Driver/Src/stm32n6xx_hal.c ****   *
 121:../Drivers/STM32N6xx_HAL_Driver/Src/stm32n6xx_hal.c ****   * @note   HAL_Init() function is called at the beginning of program after reset and before
 122:../Drivers/STM32N6xx_HAL_Driver/Src/stm32n6xx_hal.c ****   *         the clock configuration.
 123:../Drivers/STM32N6xx_HAL_Driver/Src/stm32n6xx_hal.c ****   *
 124:../Drivers/STM32N6xx_HAL_Driver/Src/stm32n6xx_hal.c ****   * @note   In the default implementation the System Timer (Systick) is used as source of time base
 125:../Drivers/STM32N6xx_HAL_Driver/Src/stm32n6xx_hal.c ****   *         The Systick configuration is based on HSI clock, as HSI is the clock
 126:../Drivers/STM32N6xx_HAL_Driver/Src/stm32n6xx_hal.c ****   *         used after a system Reset and the NVIC configuration is set to Priority group 4.
 127:../Drivers/STM32N6xx_HAL_Driver/Src/stm32n6xx_hal.c ****   *         Once done, time base tick starts incrementing: the tick variable counter is incremented
 128:../Drivers/STM32N6xx_HAL_Driver/Src/stm32n6xx_hal.c ****   *         each 1ms in the SysTick_Handler() interrupt handler.
 129:../Drivers/STM32N6xx_HAL_Driver/Src/stm32n6xx_hal.c ****   *
 130:../Drivers/STM32N6xx_HAL_Driver/Src/stm32n6xx_hal.c ****   * @retval HAL status
 131:../Drivers/STM32N6xx_HAL_Driver/Src/stm32n6xx_hal.c ****   */
 132:../Drivers/STM32N6xx_HAL_Driver/Src/stm32n6xx_hal.c **** HAL_StatusTypeDef HAL_Init(void)
 133:../Drivers/STM32N6xx_HAL_Driver/Src/stm32n6xx_hal.c **** {
 134:../Drivers/STM32N6xx_HAL_Driver/Src/stm32n6xx_hal.c ****   /* Set Interrupt Group Priority */
 135:../Drivers/STM32N6xx_HAL_Driver/Src/stm32n6xx_hal.c ****   HAL_NVIC_SetPriorityGrouping(NVIC_PRIORITYGROUP_4);
 136:../Drivers/STM32N6xx_HAL_Driver/Src/stm32n6xx_hal.c **** 
 137:../Drivers/STM32N6xx_HAL_Driver/Src/stm32n6xx_hal.c ****   /* Ensure time base clock coherency in SystemCoreClock global variable */
 138:../Drivers/STM32N6xx_HAL_Driver/Src/stm32n6xx_hal.c ****   SystemCoreClockUpdate();
 139:../Drivers/STM32N6xx_HAL_Driver/Src/stm32n6xx_hal.c **** 
ARM GAS  /tmp/ccvdUNht.s 			page 4


 140:../Drivers/STM32N6xx_HAL_Driver/Src/stm32n6xx_hal.c ****   /* Initialize 1ms tick time base (default SysTick based on HSI clock after Reset) */
 141:../Drivers/STM32N6xx_HAL_Driver/Src/stm32n6xx_hal.c ****   if (HAL_InitTick(TICK_INT_PRIORITY) != HAL_OK)
 142:../Drivers/STM32N6xx_HAL_Driver/Src/stm32n6xx_hal.c ****   {
 143:../Drivers/STM32N6xx_HAL_Driver/Src/stm32n6xx_hal.c ****     return HAL_ERROR;
 144:../Drivers/STM32N6xx_HAL_Driver/Src/stm32n6xx_hal.c ****   }
 145:../Drivers/STM32N6xx_HAL_Driver/Src/stm32n6xx_hal.c **** 
 146:../Drivers/STM32N6xx_HAL_Driver/Src/stm32n6xx_hal.c ****   /* Init the low level hardware */
 147:../Drivers/STM32N6xx_HAL_Driver/Src/stm32n6xx_hal.c ****   HAL_MspInit();
 148:../Drivers/STM32N6xx_HAL_Driver/Src/stm32n6xx_hal.c **** 
 149:../Drivers/STM32N6xx_HAL_Driver/Src/stm32n6xx_hal.c ****   /* Return function status */
 150:../Drivers/STM32N6xx_HAL_Driver/Src/stm32n6xx_hal.c ****   return HAL_OK;
 151:../Drivers/STM32N6xx_HAL_Driver/Src/stm32n6xx_hal.c **** }
 152:../Drivers/STM32N6xx_HAL_Driver/Src/stm32n6xx_hal.c **** 
 153:../Drivers/STM32N6xx_HAL_Driver/Src/stm32n6xx_hal.c **** /**
 154:../Drivers/STM32N6xx_HAL_Driver/Src/stm32n6xx_hal.c ****   * @brief  This function de-initializes all peripherals and low level hardware resources.
 155:../Drivers/STM32N6xx_HAL_Driver/Src/stm32n6xx_hal.c ****   * @note   This function should only be called from code running in internal RAM
 156:../Drivers/STM32N6xx_HAL_Driver/Src/stm32n6xx_hal.c ****   *         since it resets the external peripheral memory interfaces.
 157:../Drivers/STM32N6xx_HAL_Driver/Src/stm32n6xx_hal.c ****   * @note   This function is optional.
 158:../Drivers/STM32N6xx_HAL_Driver/Src/stm32n6xx_hal.c ****   * @retval HAL status
 159:../Drivers/STM32N6xx_HAL_Driver/Src/stm32n6xx_hal.c ****   */
 160:../Drivers/STM32N6xx_HAL_Driver/Src/stm32n6xx_hal.c **** HAL_StatusTypeDef HAL_DeInit(void)
 161:../Drivers/STM32N6xx_HAL_Driver/Src/stm32n6xx_hal.c **** {
 162:../Drivers/STM32N6xx_HAL_Driver/Src/stm32n6xx_hal.c ****   /* Reset of all peripherals */
 163:../Drivers/STM32N6xx_HAL_Driver/Src/stm32n6xx_hal.c ****   __HAL_RCC_APB1_FORCE_RESET();
 164:../Drivers/STM32N6xx_HAL_Driver/Src/stm32n6xx_hal.c ****   __HAL_RCC_APB1_RELEASE_RESET();
 165:../Drivers/STM32N6xx_HAL_Driver/Src/stm32n6xx_hal.c **** 
 166:../Drivers/STM32N6xx_HAL_Driver/Src/stm32n6xx_hal.c ****   __HAL_RCC_APB2_FORCE_RESET();
 167:../Drivers/STM32N6xx_HAL_Driver/Src/stm32n6xx_hal.c ****   __HAL_RCC_APB2_RELEASE_RESET();
 168:../Drivers/STM32N6xx_HAL_Driver/Src/stm32n6xx_hal.c **** 
 169:../Drivers/STM32N6xx_HAL_Driver/Src/stm32n6xx_hal.c ****   __HAL_RCC_APB4_FORCE_RESET();
 170:../Drivers/STM32N6xx_HAL_Driver/Src/stm32n6xx_hal.c ****   __HAL_RCC_APB4_RELEASE_RESET();
 171:../Drivers/STM32N6xx_HAL_Driver/Src/stm32n6xx_hal.c **** 
 172:../Drivers/STM32N6xx_HAL_Driver/Src/stm32n6xx_hal.c ****   __HAL_RCC_APB5_FORCE_RESET();
 173:../Drivers/STM32N6xx_HAL_Driver/Src/stm32n6xx_hal.c ****   __HAL_RCC_APB5_RELEASE_RESET();
 174:../Drivers/STM32N6xx_HAL_Driver/Src/stm32n6xx_hal.c **** 
 175:../Drivers/STM32N6xx_HAL_Driver/Src/stm32n6xx_hal.c ****   __HAL_RCC_AHB1_FORCE_RESET();
 176:../Drivers/STM32N6xx_HAL_Driver/Src/stm32n6xx_hal.c ****   __HAL_RCC_AHB1_RELEASE_RESET();
 177:../Drivers/STM32N6xx_HAL_Driver/Src/stm32n6xx_hal.c **** 
 178:../Drivers/STM32N6xx_HAL_Driver/Src/stm32n6xx_hal.c ****   __HAL_RCC_AHB2_FORCE_RESET();
 179:../Drivers/STM32N6xx_HAL_Driver/Src/stm32n6xx_hal.c ****   __HAL_RCC_AHB2_RELEASE_RESET();
 180:../Drivers/STM32N6xx_HAL_Driver/Src/stm32n6xx_hal.c **** 
 181:../Drivers/STM32N6xx_HAL_Driver/Src/stm32n6xx_hal.c ****   __HAL_RCC_AHB3_FORCE_RESET();
 182:../Drivers/STM32N6xx_HAL_Driver/Src/stm32n6xx_hal.c ****   __HAL_RCC_AHB3_RELEASE_RESET();
 183:../Drivers/STM32N6xx_HAL_Driver/Src/stm32n6xx_hal.c **** 
 184:../Drivers/STM32N6xx_HAL_Driver/Src/stm32n6xx_hal.c ****   __HAL_RCC_AHB4_FORCE_RESET();
 185:../Drivers/STM32N6xx_HAL_Driver/Src/stm32n6xx_hal.c ****   __HAL_RCC_AHB4_RELEASE_RESET();
 186:../Drivers/STM32N6xx_HAL_Driver/Src/stm32n6xx_hal.c **** 
 187:../Drivers/STM32N6xx_HAL_Driver/Src/stm32n6xx_hal.c ****   __HAL_RCC_AHB5_FORCE_RESET();
 188:../Drivers/STM32N6xx_HAL_Driver/Src/stm32n6xx_hal.c ****   __HAL_RCC_AHB5_RELEASE_RESET();
 189:../Drivers/STM32N6xx_HAL_Driver/Src/stm32n6xx_hal.c **** 
 190:../Drivers/STM32N6xx_HAL_Driver/Src/stm32n6xx_hal.c ****   /* De-Init the low level hardware */
 191:../Drivers/STM32N6xx_HAL_Driver/Src/stm32n6xx_hal.c ****   HAL_MspDeInit();
 192:../Drivers/STM32N6xx_HAL_Driver/Src/stm32n6xx_hal.c **** 
 193:../Drivers/STM32N6xx_HAL_Driver/Src/stm32n6xx_hal.c ****   /* Return function status */
 194:../Drivers/STM32N6xx_HAL_Driver/Src/stm32n6xx_hal.c ****   return HAL_OK;
 195:../Drivers/STM32N6xx_HAL_Driver/Src/stm32n6xx_hal.c **** }
 196:../Drivers/STM32N6xx_HAL_Driver/Src/stm32n6xx_hal.c **** 
ARM GAS  /tmp/ccvdUNht.s 			page 5


 197:../Drivers/STM32N6xx_HAL_Driver/Src/stm32n6xx_hal.c **** /**
 198:../Drivers/STM32N6xx_HAL_Driver/Src/stm32n6xx_hal.c ****   * @brief  Initializes the MSP.
 199:../Drivers/STM32N6xx_HAL_Driver/Src/stm32n6xx_hal.c ****   * @retval None
 200:../Drivers/STM32N6xx_HAL_Driver/Src/stm32n6xx_hal.c ****   */
 201:../Drivers/STM32N6xx_HAL_Driver/Src/stm32n6xx_hal.c **** __weak void HAL_MspInit(void)
 202:../Drivers/STM32N6xx_HAL_Driver/Src/stm32n6xx_hal.c **** {
  34              		.loc 1 202 1 view -0
  35              		.cfi_startproc
  36              		@ args = 0, pretend = 0, frame = 0
  37              		@ frame_needed = 0, uses_anonymous_args = 0
  38              		@ link register save eliminated.
 203:../Drivers/STM32N6xx_HAL_Driver/Src/stm32n6xx_hal.c ****   /* NOTE : This function Should not be modified, when the callback is needed,
 204:../Drivers/STM32N6xx_HAL_Driver/Src/stm32n6xx_hal.c ****             the HAL_MspInit could be implemented in the user file
 205:../Drivers/STM32N6xx_HAL_Driver/Src/stm32n6xx_hal.c ****    */
 206:../Drivers/STM32N6xx_HAL_Driver/Src/stm32n6xx_hal.c **** }
  39              		.loc 1 206 1 view .LVU1
  40 0000 7047     		bx	lr
  41              		.cfi_endproc
  42              	.LFE883:
  44              		.section	.text.HAL_MspDeInit,"ax",%progbits
  45              		.align	1
  46              		.weak	HAL_MspDeInit
  47              		.syntax unified
  48              		.thumb
  49              		.thumb_func
  51              	HAL_MspDeInit:
  52              	.LFB884:
 207:../Drivers/STM32N6xx_HAL_Driver/Src/stm32n6xx_hal.c **** 
 208:../Drivers/STM32N6xx_HAL_Driver/Src/stm32n6xx_hal.c **** /**
 209:../Drivers/STM32N6xx_HAL_Driver/Src/stm32n6xx_hal.c ****   * @brief  DeInitializes the MSP.
 210:../Drivers/STM32N6xx_HAL_Driver/Src/stm32n6xx_hal.c ****   * @retval None
 211:../Drivers/STM32N6xx_HAL_Driver/Src/stm32n6xx_hal.c ****   */
 212:../Drivers/STM32N6xx_HAL_Driver/Src/stm32n6xx_hal.c **** __weak void HAL_MspDeInit(void)
 213:../Drivers/STM32N6xx_HAL_Driver/Src/stm32n6xx_hal.c **** {
  53              		.loc 1 213 1 view -0
  54              		.cfi_startproc
  55              		@ args = 0, pretend = 0, frame = 0
  56              		@ frame_needed = 0, uses_anonymous_args = 0
  57              		@ link register save eliminated.
 214:../Drivers/STM32N6xx_HAL_Driver/Src/stm32n6xx_hal.c ****   /* NOTE : This function Should not be modified, when the callback is needed,
 215:../Drivers/STM32N6xx_HAL_Driver/Src/stm32n6xx_hal.c ****             the HAL_MspDeInit could be implemented in the user file
 216:../Drivers/STM32N6xx_HAL_Driver/Src/stm32n6xx_hal.c ****    */
 217:../Drivers/STM32N6xx_HAL_Driver/Src/stm32n6xx_hal.c **** }
  58              		.loc 1 217 1 view .LVU3
  59 0000 7047     		bx	lr
  60              		.cfi_endproc
  61              	.LFE884:
  63              		.section	.text.HAL_DeInit,"ax",%progbits
  64              		.align	1
  65              		.global	HAL_DeInit
  66              		.syntax unified
  67              		.thumb
  68              		.thumb_func
  70              	HAL_DeInit:
  71              	.LFB882:
 161:../Drivers/STM32N6xx_HAL_Driver/Src/stm32n6xx_hal.c ****   /* Reset of all peripherals */
  72              		.loc 1 161 1 view -0
ARM GAS  /tmp/ccvdUNht.s 			page 6


  73              		.cfi_startproc
  74              		@ args = 0, pretend = 0, frame = 0
  75              		@ frame_needed = 0, uses_anonymous_args = 0
  76 0000 10B5     		push	{r4, lr}
  77              	.LCFI0:
  78              		.cfi_def_cfa_offset 8
  79              		.cfi_offset 4, -8
  80              		.cfi_offset 14, -4
 163:../Drivers/STM32N6xx_HAL_Driver/Src/stm32n6xx_hal.c ****   __HAL_RCC_APB1_RELEASE_RESET();
  81              		.loc 1 163 3 view .LVU5
 163:../Drivers/STM32N6xx_HAL_Driver/Src/stm32n6xx_hal.c ****   __HAL_RCC_APB1_RELEASE_RESET();
  82              		.loc 1 163 3 view .LVU6
  83 0002 1F4B     		ldr	r3, .L5
  84 0004 1F4A     		ldr	r2, .L5+4
  85 0006 C3F8242A 		str	r2, [r3, #2596]
 163:../Drivers/STM32N6xx_HAL_Driver/Src/stm32n6xx_hal.c ****   __HAL_RCC_APB1_RELEASE_RESET();
  86              		.loc 1 163 3 view .LVU7
  87 000a 1F4A     		ldr	r2, .L5+8
  88 000c C3F8282A 		str	r2, [r3, #2600]
 163:../Drivers/STM32N6xx_HAL_Driver/Src/stm32n6xx_hal.c ****   __HAL_RCC_APB1_RELEASE_RESET();
  89              		.loc 1 163 3 view .LVU8
 164:../Drivers/STM32N6xx_HAL_Driver/Src/stm32n6xx_hal.c **** 
  90              		.loc 1 164 3 view .LVU9
 164:../Drivers/STM32N6xx_HAL_Driver/Src/stm32n6xx_hal.c **** 
  91              		.loc 1 164 3 view .LVU10
  92 0010 0024     		movs	r4, #0
  93 0012 C3F8244A 		str	r4, [r3, #2596]
 164:../Drivers/STM32N6xx_HAL_Driver/Src/stm32n6xx_hal.c **** 
  94              		.loc 1 164 3 view .LVU11
  95 0016 C3F8284A 		str	r4, [r3, #2600]
 164:../Drivers/STM32N6xx_HAL_Driver/Src/stm32n6xx_hal.c **** 
  96              		.loc 1 164 3 view .LVU12
 166:../Drivers/STM32N6xx_HAL_Driver/Src/stm32n6xx_hal.c ****   __HAL_RCC_APB2_RELEASE_RESET();
  97              		.loc 1 166 3 view .LVU13
  98 001a 1C4A     		ldr	r2, .L5+12
  99 001c C3F82C2A 		str	r2, [r3, #2604]
 167:../Drivers/STM32N6xx_HAL_Driver/Src/stm32n6xx_hal.c **** 
 100              		.loc 1 167 3 view .LVU14
 101 0020 C3F82C4A 		str	r4, [r3, #2604]
 169:../Drivers/STM32N6xx_HAL_Driver/Src/stm32n6xx_hal.c ****   __HAL_RCC_APB4_RELEASE_RESET();
 102              		.loc 1 169 3 view .LVU15
 169:../Drivers/STM32N6xx_HAL_Driver/Src/stm32n6xx_hal.c ****   __HAL_RCC_APB4_RELEASE_RESET();
 103              		.loc 1 169 3 view .LVU16
 104 0024 1A4A     		ldr	r2, .L5+16
 105 0026 C3F8342A 		str	r2, [r3, #2612]
 169:../Drivers/STM32N6xx_HAL_Driver/Src/stm32n6xx_hal.c ****   __HAL_RCC_APB4_RELEASE_RESET();
 106              		.loc 1 169 3 view .LVU17
 107 002a 0522     		movs	r2, #5
 108 002c C3F8382A 		str	r2, [r3, #2616]
 169:../Drivers/STM32N6xx_HAL_Driver/Src/stm32n6xx_hal.c ****   __HAL_RCC_APB4_RELEASE_RESET();
 109              		.loc 1 169 3 view .LVU18
 170:../Drivers/STM32N6xx_HAL_Driver/Src/stm32n6xx_hal.c **** 
 110              		.loc 1 170 3 view .LVU19
 170:../Drivers/STM32N6xx_HAL_Driver/Src/stm32n6xx_hal.c **** 
 111              		.loc 1 170 3 view .LVU20
 112 0030 C3F8344A 		str	r4, [r3, #2612]
 170:../Drivers/STM32N6xx_HAL_Driver/Src/stm32n6xx_hal.c **** 
ARM GAS  /tmp/ccvdUNht.s 			page 7


 113              		.loc 1 170 3 view .LVU21
 114 0034 C3F8384A 		str	r4, [r3, #2616]
 170:../Drivers/STM32N6xx_HAL_Driver/Src/stm32n6xx_hal.c **** 
 115              		.loc 1 170 3 view .LVU22
 172:../Drivers/STM32N6xx_HAL_Driver/Src/stm32n6xx_hal.c ****   __HAL_RCC_APB5_RELEASE_RESET();
 116              		.loc 1 172 3 view .LVU23
 117 0038 7622     		movs	r2, #118
 118 003a C3F83C2A 		str	r2, [r3, #2620]
 173:../Drivers/STM32N6xx_HAL_Driver/Src/stm32n6xx_hal.c **** 
 119              		.loc 1 173 3 view .LVU24
 120 003e C3F83C4A 		str	r4, [r3, #2620]
 175:../Drivers/STM32N6xx_HAL_Driver/Src/stm32n6xx_hal.c ****   __HAL_RCC_AHB1_RELEASE_RESET();
 121              		.loc 1 175 3 view .LVU25
 122 0042 3022     		movs	r2, #48
 123 0044 C3F8102A 		str	r2, [r3, #2576]
 175:../Drivers/STM32N6xx_HAL_Driver/Src/stm32n6xx_hal.c ****   __HAL_RCC_AHB1_RELEASE_RESET();
 124              		.loc 1 175 31 view .LVU26
 176:../Drivers/STM32N6xx_HAL_Driver/Src/stm32n6xx_hal.c **** 
 125              		.loc 1 176 3 view .LVU27
 126 0048 C3F8104A 		str	r4, [r3, #2576]
 178:../Drivers/STM32N6xx_HAL_Driver/Src/stm32n6xx_hal.c ****   __HAL_RCC_AHB2_RELEASE_RESET();
 127              		.loc 1 178 3 view .LVU28
 128 004c 4FF44432 		mov	r2, #200704
 129 0050 C3F8142A 		str	r2, [r3, #2580]
 178:../Drivers/STM32N6xx_HAL_Driver/Src/stm32n6xx_hal.c ****   __HAL_RCC_AHB2_RELEASE_RESET();
 130              		.loc 1 178 31 view .LVU29
 179:../Drivers/STM32N6xx_HAL_Driver/Src/stm32n6xx_hal.c **** 
 131              		.loc 1 179 3 view .LVU30
 132 0054 C3F8144A 		str	r4, [r3, #2580]
 181:../Drivers/STM32N6xx_HAL_Driver/Src/stm32n6xx_hal.c ****   __HAL_RCC_AHB3_RELEASE_RESET();
 133              		.loc 1 181 3 view .LVU31
 134 0058 40F21752 		movw	r2, #1303
 135 005c C3F8182A 		str	r2, [r3, #2584]
 181:../Drivers/STM32N6xx_HAL_Driver/Src/stm32n6xx_hal.c ****   __HAL_RCC_AHB3_RELEASE_RESET();
 136              		.loc 1 181 31 view .LVU32
 182:../Drivers/STM32N6xx_HAL_Driver/Src/stm32n6xx_hal.c **** 
 137              		.loc 1 182 3 view .LVU33
 138 0060 C3F8184A 		str	r4, [r3, #2584]
 184:../Drivers/STM32N6xx_HAL_Driver/Src/stm32n6xx_hal.c ****   __HAL_RCC_AHB4_RELEASE_RESET();
 139              		.loc 1 184 3 view .LVU34
 140 0064 0B4A     		ldr	r2, .L5+20
 141 0066 C3F81C2A 		str	r2, [r3, #2588]
 184:../Drivers/STM32N6xx_HAL_Driver/Src/stm32n6xx_hal.c ****   __HAL_RCC_AHB4_RELEASE_RESET();
 142              		.loc 1 184 31 view .LVU35
 185:../Drivers/STM32N6xx_HAL_Driver/Src/stm32n6xx_hal.c **** 
 143              		.loc 1 185 3 view .LVU36
 144 006a C3F81C4A 		str	r4, [r3, #2588]
 187:../Drivers/STM32N6xx_HAL_Driver/Src/stm32n6xx_hal.c ****   __HAL_RCC_AHB5_RELEASE_RESET();
 145              		.loc 1 187 3 view .LVU37
 146 006e 0A4A     		ldr	r2, .L5+24
 147 0070 C3F8202A 		str	r2, [r3, #2592]
 188:../Drivers/STM32N6xx_HAL_Driver/Src/stm32n6xx_hal.c **** 
 148              		.loc 1 188 3 view .LVU38
 149 0074 C3F8204A 		str	r4, [r3, #2592]
 191:../Drivers/STM32N6xx_HAL_Driver/Src/stm32n6xx_hal.c **** 
 150              		.loc 1 191 3 view .LVU39
 151 0078 FFF7FEFF 		bl	HAL_MspDeInit
ARM GAS  /tmp/ccvdUNht.s 			page 8


 152              	.LVL0:
 194:../Drivers/STM32N6xx_HAL_Driver/Src/stm32n6xx_hal.c **** }
 153              		.loc 1 194 3 view .LVU40
 195:../Drivers/STM32N6xx_HAL_Driver/Src/stm32n6xx_hal.c **** 
 154              		.loc 1 195 1 is_stmt 0 view .LVU41
 155 007c 2046     		mov	r0, r4
 156 007e 10BD     		pop	{r4, pc}
 157              	.L6:
 158              		.align	2
 159              	.L5:
 160 0080 00800256 		.word	1443004416
 161 0084 FFF3FFC3 		.word	-1006636033
 162 0088 20010400 		.word	262432
 163 008c F3B07F00 		.word	8368371
 164 0090 AC9E0100 		.word	106156
 165 0094 FFE00D00 		.word	909567
 166 0098 FB319AFF 		.word	-6671877
 167              		.cfi_endproc
 168              	.LFE882:
 170              		.section	.text.HAL_InitTick,"ax",%progbits
 171              		.align	1
 172              		.weak	HAL_InitTick
 173              		.syntax unified
 174              		.thumb
 175              		.thumb_func
 177              	HAL_InitTick:
 178              	.LVL1:
 179              	.LFB885:
 218:../Drivers/STM32N6xx_HAL_Driver/Src/stm32n6xx_hal.c **** 
 219:../Drivers/STM32N6xx_HAL_Driver/Src/stm32n6xx_hal.c **** /**
 220:../Drivers/STM32N6xx_HAL_Driver/Src/stm32n6xx_hal.c ****   * @brief This function configures the source of the time base.
 221:../Drivers/STM32N6xx_HAL_Driver/Src/stm32n6xx_hal.c ****   *        The time source is configured to have 1ms time base with a dedicated
 222:../Drivers/STM32N6xx_HAL_Driver/Src/stm32n6xx_hal.c ****   *        Tick interrupt priority.
 223:../Drivers/STM32N6xx_HAL_Driver/Src/stm32n6xx_hal.c ****   * @note This function is called  automatically at the beginning of program after
 224:../Drivers/STM32N6xx_HAL_Driver/Src/stm32n6xx_hal.c ****   *       reset by HAL_Init() or at any time when clock is reconfigured  by HAL_RCC_ClockConfig().
 225:../Drivers/STM32N6xx_HAL_Driver/Src/stm32n6xx_hal.c ****   * @note In the default implementation, SysTick timer is the source of time base.
 226:../Drivers/STM32N6xx_HAL_Driver/Src/stm32n6xx_hal.c ****   *       It is used to generate interrupts at regular time intervals.
 227:../Drivers/STM32N6xx_HAL_Driver/Src/stm32n6xx_hal.c ****   *       Care must be taken if HAL_Delay() is called from a peripheral ISR process,
 228:../Drivers/STM32N6xx_HAL_Driver/Src/stm32n6xx_hal.c ****   *       The SysTick interrupt must have higher priority (numerically lower)
 229:../Drivers/STM32N6xx_HAL_Driver/Src/stm32n6xx_hal.c ****   *       than the peripheral interrupt. Otherwise the caller ISR process will be blocked.
 230:../Drivers/STM32N6xx_HAL_Driver/Src/stm32n6xx_hal.c ****   *       The function is declared as __weak  to be overwritten  in case of other
 231:../Drivers/STM32N6xx_HAL_Driver/Src/stm32n6xx_hal.c ****   *       implementation  in user file.
 232:../Drivers/STM32N6xx_HAL_Driver/Src/stm32n6xx_hal.c ****   * @param TickPriority: Tick interrupt priority.
 233:../Drivers/STM32N6xx_HAL_Driver/Src/stm32n6xx_hal.c ****   * @retval HAL status
 234:../Drivers/STM32N6xx_HAL_Driver/Src/stm32n6xx_hal.c ****   */
 235:../Drivers/STM32N6xx_HAL_Driver/Src/stm32n6xx_hal.c **** __weak HAL_StatusTypeDef HAL_InitTick(uint32_t TickPriority)
 236:../Drivers/STM32N6xx_HAL_Driver/Src/stm32n6xx_hal.c **** {
 180              		.loc 1 236 1 is_stmt 1 view -0
 181              		.cfi_startproc
 182              		@ args = 0, pretend = 0, frame = 0
 183              		@ frame_needed = 0, uses_anonymous_args = 0
 237:../Drivers/STM32N6xx_HAL_Driver/Src/stm32n6xx_hal.c ****   /* Check uwTickFreq for MisraC 2012 (even if uwTickFreq is a enum type that don't take the value 
 238:../Drivers/STM32N6xx_HAL_Driver/Src/stm32n6xx_hal.c ****   if ((uint32_t)uwTickFreq == 0UL)
 184              		.loc 1 238 3 view .LVU43
 185              		.loc 1 238 28 is_stmt 0 view .LVU44
 186 0000 0F4B     		ldr	r3, .L15
 187 0002 1B78     		ldrb	r3, [r3]	@ zero_extendqisi2
ARM GAS  /tmp/ccvdUNht.s 			page 9


 188              		.loc 1 238 6 view .LVU45
 189 0004 0BB9     		cbnz	r3, .L8
 239:../Drivers/STM32N6xx_HAL_Driver/Src/stm32n6xx_hal.c ****   {
 240:../Drivers/STM32N6xx_HAL_Driver/Src/stm32n6xx_hal.c ****     return HAL_ERROR;
 190              		.loc 1 240 12 view .LVU46
 191 0006 0120     		movs	r0, #1
 192              	.LVL2:
 241:../Drivers/STM32N6xx_HAL_Driver/Src/stm32n6xx_hal.c ****   }
 242:../Drivers/STM32N6xx_HAL_Driver/Src/stm32n6xx_hal.c **** 
 243:../Drivers/STM32N6xx_HAL_Driver/Src/stm32n6xx_hal.c ****   /* Configure the SysTick to have interrupt in 1ms time basis*/
 244:../Drivers/STM32N6xx_HAL_Driver/Src/stm32n6xx_hal.c ****   if (HAL_SYSTICK_Config(SystemCoreClock / (1000UL / (uint32_t)uwTickFreq)) > 0U)
 245:../Drivers/STM32N6xx_HAL_Driver/Src/stm32n6xx_hal.c ****   {
 246:../Drivers/STM32N6xx_HAL_Driver/Src/stm32n6xx_hal.c ****     return HAL_ERROR;
 247:../Drivers/STM32N6xx_HAL_Driver/Src/stm32n6xx_hal.c ****   }
 248:../Drivers/STM32N6xx_HAL_Driver/Src/stm32n6xx_hal.c **** 
 249:../Drivers/STM32N6xx_HAL_Driver/Src/stm32n6xx_hal.c ****   /* Configure the SysTick IRQ priority */
 250:../Drivers/STM32N6xx_HAL_Driver/Src/stm32n6xx_hal.c ****   if (TickPriority < (1UL << __NVIC_PRIO_BITS))
 251:../Drivers/STM32N6xx_HAL_Driver/Src/stm32n6xx_hal.c ****   {
 252:../Drivers/STM32N6xx_HAL_Driver/Src/stm32n6xx_hal.c ****     HAL_NVIC_SetPriority(SysTick_IRQn, TickPriority, 0U);
 253:../Drivers/STM32N6xx_HAL_Driver/Src/stm32n6xx_hal.c ****     uwTickPrio = TickPriority;
 254:../Drivers/STM32N6xx_HAL_Driver/Src/stm32n6xx_hal.c ****   }
 255:../Drivers/STM32N6xx_HAL_Driver/Src/stm32n6xx_hal.c ****   else
 256:../Drivers/STM32N6xx_HAL_Driver/Src/stm32n6xx_hal.c ****   {
 257:../Drivers/STM32N6xx_HAL_Driver/Src/stm32n6xx_hal.c ****     return HAL_ERROR;
 258:../Drivers/STM32N6xx_HAL_Driver/Src/stm32n6xx_hal.c ****   }
 259:../Drivers/STM32N6xx_HAL_Driver/Src/stm32n6xx_hal.c **** 
 260:../Drivers/STM32N6xx_HAL_Driver/Src/stm32n6xx_hal.c ****   /* Return function status */
 261:../Drivers/STM32N6xx_HAL_Driver/Src/stm32n6xx_hal.c ****   return HAL_OK;
 262:../Drivers/STM32N6xx_HAL_Driver/Src/stm32n6xx_hal.c **** }
 193              		.loc 1 262 1 view .LVU47
 194 0008 7047     		bx	lr
 195              	.LVL3:
 196              	.L8:
 236:../Drivers/STM32N6xx_HAL_Driver/Src/stm32n6xx_hal.c ****   /* Check uwTickFreq for MisraC 2012 (even if uwTickFreq is a enum type that don't take the value 
 197              		.loc 1 236 1 view .LVU48
 198 000a 10B5     		push	{r4, lr}
 199              	.LCFI1:
 200              		.cfi_def_cfa_offset 8
 201              		.cfi_offset 4, -8
 202              		.cfi_offset 14, -4
 203 000c 0446     		mov	r4, r0
 244:../Drivers/STM32N6xx_HAL_Driver/Src/stm32n6xx_hal.c ****   {
 204              		.loc 1 244 3 is_stmt 1 view .LVU49
 244:../Drivers/STM32N6xx_HAL_Driver/Src/stm32n6xx_hal.c ****   {
 205              		.loc 1 244 7 is_stmt 0 view .LVU50
 206 000e 0D4A     		ldr	r2, .L15+4
 207 0010 1068     		ldr	r0, [r2]
 208              	.LVL4:
 244:../Drivers/STM32N6xx_HAL_Driver/Src/stm32n6xx_hal.c ****   {
 209              		.loc 1 244 52 view .LVU51
 210 0012 4FF47A72 		mov	r2, #1000
 211 0016 B2FBF3F3 		udiv	r3, r2, r3
 244:../Drivers/STM32N6xx_HAL_Driver/Src/stm32n6xx_hal.c ****   {
 212              		.loc 1 244 7 view .LVU52
 213 001a B0FBF3F0 		udiv	r0, r0, r3
 214 001e FFF7FEFF 		bl	HAL_SYSTICK_Config
 215              	.LVL5:
ARM GAS  /tmp/ccvdUNht.s 			page 10


 244:../Drivers/STM32N6xx_HAL_Driver/Src/stm32n6xx_hal.c ****   {
 216              		.loc 1 244 6 discriminator 1 view .LVU53
 217 0022 08B9     		cbnz	r0, .L10
 250:../Drivers/STM32N6xx_HAL_Driver/Src/stm32n6xx_hal.c ****   {
 218              		.loc 1 250 3 is_stmt 1 view .LVU54
 250:../Drivers/STM32N6xx_HAL_Driver/Src/stm32n6xx_hal.c ****   {
 219              		.loc 1 250 6 is_stmt 0 view .LVU55
 220 0024 0F2C     		cmp	r4, #15
 221 0026 01D9     		bls	.L14
 222              	.L10:
 240:../Drivers/STM32N6xx_HAL_Driver/Src/stm32n6xx_hal.c ****   }
 223              		.loc 1 240 12 view .LVU56
 224 0028 0120     		movs	r0, #1
 225              	.L9:
 226              		.loc 1 262 1 view .LVU57
 227 002a 10BD     		pop	{r4, pc}
 228              	.LVL6:
 229              	.L14:
 252:../Drivers/STM32N6xx_HAL_Driver/Src/stm32n6xx_hal.c ****     uwTickPrio = TickPriority;
 230              		.loc 1 252 5 is_stmt 1 view .LVU58
 231 002c 0246     		mov	r2, r0
 232 002e 2146     		mov	r1, r4
 233 0030 4FF0FF30 		mov	r0, #-1
 234 0034 FFF7FEFF 		bl	HAL_NVIC_SetPriority
 235              	.LVL7:
 253:../Drivers/STM32N6xx_HAL_Driver/Src/stm32n6xx_hal.c ****   }
 236              		.loc 1 253 5 view .LVU59
 253:../Drivers/STM32N6xx_HAL_Driver/Src/stm32n6xx_hal.c ****   }
 237              		.loc 1 253 16 is_stmt 0 view .LVU60
 238 0038 034B     		ldr	r3, .L15+8
 239 003a 1C60     		str	r4, [r3]
 261:../Drivers/STM32N6xx_HAL_Driver/Src/stm32n6xx_hal.c **** }
 240              		.loc 1 261 3 is_stmt 1 view .LVU61
 261:../Drivers/STM32N6xx_HAL_Driver/Src/stm32n6xx_hal.c **** }
 241              		.loc 1 261 10 is_stmt 0 view .LVU62
 242 003c 0020     		movs	r0, #0
 243 003e F4E7     		b	.L9
 244              	.L16:
 245              		.align	2
 246              	.L15:
 247 0040 00000000 		.word	uwTickFreq
 248 0044 00000000 		.word	SystemCoreClock
 249 0048 00000000 		.word	uwTickPrio
 250              		.cfi_endproc
 251              	.LFE885:
 253              		.section	.text.HAL_Init,"ax",%progbits
 254              		.align	1
 255              		.global	HAL_Init
 256              		.syntax unified
 257              		.thumb
 258              		.thumb_func
 260              	HAL_Init:
 261              	.LFB881:
 133:../Drivers/STM32N6xx_HAL_Driver/Src/stm32n6xx_hal.c ****   /* Set Interrupt Group Priority */
 262              		.loc 1 133 1 is_stmt 1 view -0
 263              		.cfi_startproc
 264              		@ args = 0, pretend = 0, frame = 0
ARM GAS  /tmp/ccvdUNht.s 			page 11


 265              		@ frame_needed = 0, uses_anonymous_args = 0
 266 0000 10B5     		push	{r4, lr}
 267              	.LCFI2:
 268              		.cfi_def_cfa_offset 8
 269              		.cfi_offset 4, -8
 270              		.cfi_offset 14, -4
 135:../Drivers/STM32N6xx_HAL_Driver/Src/stm32n6xx_hal.c **** 
 271              		.loc 1 135 3 view .LVU64
 272 0002 0320     		movs	r0, #3
 273 0004 FFF7FEFF 		bl	HAL_NVIC_SetPriorityGrouping
 274              	.LVL8:
 138:../Drivers/STM32N6xx_HAL_Driver/Src/stm32n6xx_hal.c **** 
 275              		.loc 1 138 3 view .LVU65
 276 0008 FFF7FEFF 		bl	SystemCoreClockUpdate
 277              	.LVL9:
 141:../Drivers/STM32N6xx_HAL_Driver/Src/stm32n6xx_hal.c ****   {
 278              		.loc 1 141 3 view .LVU66
 141:../Drivers/STM32N6xx_HAL_Driver/Src/stm32n6xx_hal.c ****   {
 279              		.loc 1 141 7 is_stmt 0 view .LVU67
 280 000c 0F20     		movs	r0, #15
 281 000e FFF7FEFF 		bl	HAL_InitTick
 282              	.LVL10:
 141:../Drivers/STM32N6xx_HAL_Driver/Src/stm32n6xx_hal.c ****   {
 283              		.loc 1 141 6 discriminator 1 view .LVU68
 284 0012 18B1     		cbz	r0, .L21
 143:../Drivers/STM32N6xx_HAL_Driver/Src/stm32n6xx_hal.c ****   }
 285              		.loc 1 143 12 view .LVU69
 286 0014 0123     		movs	r3, #1
 287 0016 1C46     		mov	r4, r3
 288              	.L18:
 151:../Drivers/STM32N6xx_HAL_Driver/Src/stm32n6xx_hal.c **** 
 289              		.loc 1 151 1 view .LVU70
 290 0018 2046     		mov	r0, r4
 291 001a 10BD     		pop	{r4, pc}
 292              	.L21:
 293 001c 0446     		mov	r4, r0
 147:../Drivers/STM32N6xx_HAL_Driver/Src/stm32n6xx_hal.c **** 
 294              		.loc 1 147 3 is_stmt 1 view .LVU71
 295 001e FFF7FEFF 		bl	HAL_MspInit
 296              	.LVL11:
 150:../Drivers/STM32N6xx_HAL_Driver/Src/stm32n6xx_hal.c **** }
 297              		.loc 1 150 3 view .LVU72
 150:../Drivers/STM32N6xx_HAL_Driver/Src/stm32n6xx_hal.c **** }
 298              		.loc 1 150 10 is_stmt 0 view .LVU73
 299 0022 F9E7     		b	.L18
 300              		.cfi_endproc
 301              	.LFE881:
 303              		.section	.text.HAL_IncTick,"ax",%progbits
 304              		.align	1
 305              		.weak	HAL_IncTick
 306              		.syntax unified
 307              		.thumb
 308              		.thumb_func
 310              	HAL_IncTick:
 311              	.LFB886:
 263:../Drivers/STM32N6xx_HAL_Driver/Src/stm32n6xx_hal.c **** 
 264:../Drivers/STM32N6xx_HAL_Driver/Src/stm32n6xx_hal.c **** /**
ARM GAS  /tmp/ccvdUNht.s 			page 12


 265:../Drivers/STM32N6xx_HAL_Driver/Src/stm32n6xx_hal.c ****   * @}
 266:../Drivers/STM32N6xx_HAL_Driver/Src/stm32n6xx_hal.c ****   */
 267:../Drivers/STM32N6xx_HAL_Driver/Src/stm32n6xx_hal.c **** 
 268:../Drivers/STM32N6xx_HAL_Driver/Src/stm32n6xx_hal.c **** /** @defgroup HAL_Group2 HAL Control functions
 269:../Drivers/STM32N6xx_HAL_Driver/Src/stm32n6xx_hal.c ****   *  @brief    HAL Control functions
 270:../Drivers/STM32N6xx_HAL_Driver/Src/stm32n6xx_hal.c ****   *
 271:../Drivers/STM32N6xx_HAL_Driver/Src/stm32n6xx_hal.c **** @verbatim
 272:../Drivers/STM32N6xx_HAL_Driver/Src/stm32n6xx_hal.c ****  ===============================================================================
 273:../Drivers/STM32N6xx_HAL_Driver/Src/stm32n6xx_hal.c ****                       ##### HAL Control functions #####
 274:../Drivers/STM32N6xx_HAL_Driver/Src/stm32n6xx_hal.c ****  ===============================================================================
 275:../Drivers/STM32N6xx_HAL_Driver/Src/stm32n6xx_hal.c ****     [..]  This section provides functions allowing to:
 276:../Drivers/STM32N6xx_HAL_Driver/Src/stm32n6xx_hal.c ****       (+) Provide a tick value in millisecond
 277:../Drivers/STM32N6xx_HAL_Driver/Src/stm32n6xx_hal.c ****       (+) Provide a blocking delay in millisecond
 278:../Drivers/STM32N6xx_HAL_Driver/Src/stm32n6xx_hal.c ****       (+) Suspend the time base source interrupt
 279:../Drivers/STM32N6xx_HAL_Driver/Src/stm32n6xx_hal.c ****       (+) Resume the time base source interrupt
 280:../Drivers/STM32N6xx_HAL_Driver/Src/stm32n6xx_hal.c ****       (+) Get the HAL API driver version
 281:../Drivers/STM32N6xx_HAL_Driver/Src/stm32n6xx_hal.c ****       (+) Get the device identifier
 282:../Drivers/STM32N6xx_HAL_Driver/Src/stm32n6xx_hal.c ****       (+) Get the device revision identifier
 283:../Drivers/STM32N6xx_HAL_Driver/Src/stm32n6xx_hal.c ****       (+) Enable/Disable Debug module during SLEEP mode
 284:../Drivers/STM32N6xx_HAL_Driver/Src/stm32n6xx_hal.c ****       (+) Enable/Disable Debug module during STOP mode
 285:../Drivers/STM32N6xx_HAL_Driver/Src/stm32n6xx_hal.c ****       (+) Enable/Disable Debug module during STANDBY mode
 286:../Drivers/STM32N6xx_HAL_Driver/Src/stm32n6xx_hal.c **** 
 287:../Drivers/STM32N6xx_HAL_Driver/Src/stm32n6xx_hal.c **** @endverbatim
 288:../Drivers/STM32N6xx_HAL_Driver/Src/stm32n6xx_hal.c ****   * @{
 289:../Drivers/STM32N6xx_HAL_Driver/Src/stm32n6xx_hal.c ****   */
 290:../Drivers/STM32N6xx_HAL_Driver/Src/stm32n6xx_hal.c **** 
 291:../Drivers/STM32N6xx_HAL_Driver/Src/stm32n6xx_hal.c **** /**
 292:../Drivers/STM32N6xx_HAL_Driver/Src/stm32n6xx_hal.c ****   * @brief This function is called to increment a global variable "uwTick"
 293:../Drivers/STM32N6xx_HAL_Driver/Src/stm32n6xx_hal.c ****   *        used as application time base.
 294:../Drivers/STM32N6xx_HAL_Driver/Src/stm32n6xx_hal.c ****   * @note In the default implementation, this variable is incremented each 1ms
 295:../Drivers/STM32N6xx_HAL_Driver/Src/stm32n6xx_hal.c ****   *       in Systick ISR.
 296:../Drivers/STM32N6xx_HAL_Driver/Src/stm32n6xx_hal.c ****   * @note This function is declared as __weak to be overwritten in case of other
 297:../Drivers/STM32N6xx_HAL_Driver/Src/stm32n6xx_hal.c ****   *       implementations in user file.
 298:../Drivers/STM32N6xx_HAL_Driver/Src/stm32n6xx_hal.c ****   * @retval None
 299:../Drivers/STM32N6xx_HAL_Driver/Src/stm32n6xx_hal.c ****   */
 300:../Drivers/STM32N6xx_HAL_Driver/Src/stm32n6xx_hal.c **** __weak void HAL_IncTick(void)
 301:../Drivers/STM32N6xx_HAL_Driver/Src/stm32n6xx_hal.c **** {
 312              		.loc 1 301 1 is_stmt 1 view -0
 313              		.cfi_startproc
 314              		@ args = 0, pretend = 0, frame = 0
 315              		@ frame_needed = 0, uses_anonymous_args = 0
 316              		@ link register save eliminated.
 302:../Drivers/STM32N6xx_HAL_Driver/Src/stm32n6xx_hal.c ****   uwTick += (uint32_t)uwTickFreq;
 317              		.loc 1 302 3 view .LVU75
 318              		.loc 1 302 13 is_stmt 0 view .LVU76
 319 0000 034B     		ldr	r3, .L23
 320 0002 1B78     		ldrb	r3, [r3]	@ zero_extendqisi2
 321              		.loc 1 302 10 view .LVU77
 322 0004 034A     		ldr	r2, .L23+4
 323 0006 1168     		ldr	r1, [r2]
 324 0008 0B44     		add	r3, r3, r1
 325 000a 1360     		str	r3, [r2]
 303:../Drivers/STM32N6xx_HAL_Driver/Src/stm32n6xx_hal.c **** }
 326              		.loc 1 303 1 view .LVU78
 327 000c 7047     		bx	lr
 328              	.L24:
 329 000e 00BF     		.align	2
ARM GAS  /tmp/ccvdUNht.s 			page 13


 330              	.L23:
 331 0010 00000000 		.word	uwTickFreq
 332 0014 00000000 		.word	uwTick
 333              		.cfi_endproc
 334              	.LFE886:
 336              		.section	.text.HAL_GetTick,"ax",%progbits
 337              		.align	1
 338              		.weak	HAL_GetTick
 339              		.syntax unified
 340              		.thumb
 341              		.thumb_func
 343              	HAL_GetTick:
 344              	.LFB887:
 304:../Drivers/STM32N6xx_HAL_Driver/Src/stm32n6xx_hal.c **** 
 305:../Drivers/STM32N6xx_HAL_Driver/Src/stm32n6xx_hal.c **** /**
 306:../Drivers/STM32N6xx_HAL_Driver/Src/stm32n6xx_hal.c ****   * @brief Provides a tick value in millisecond.
 307:../Drivers/STM32N6xx_HAL_Driver/Src/stm32n6xx_hal.c ****   * @note This function is declared as __weak to be overwritten in case of other
 308:../Drivers/STM32N6xx_HAL_Driver/Src/stm32n6xx_hal.c ****   *       implementations in user file.
 309:../Drivers/STM32N6xx_HAL_Driver/Src/stm32n6xx_hal.c ****   * @retval tick value
 310:../Drivers/STM32N6xx_HAL_Driver/Src/stm32n6xx_hal.c ****   */
 311:../Drivers/STM32N6xx_HAL_Driver/Src/stm32n6xx_hal.c **** __weak uint32_t HAL_GetTick(void)
 312:../Drivers/STM32N6xx_HAL_Driver/Src/stm32n6xx_hal.c **** {
 345              		.loc 1 312 1 is_stmt 1 view -0
 346              		.cfi_startproc
 347              		@ args = 0, pretend = 0, frame = 0
 348              		@ frame_needed = 0, uses_anonymous_args = 0
 349              		@ link register save eliminated.
 313:../Drivers/STM32N6xx_HAL_Driver/Src/stm32n6xx_hal.c ****   return uwTick;
 350              		.loc 1 313 3 view .LVU80
 314:../Drivers/STM32N6xx_HAL_Driver/Src/stm32n6xx_hal.c **** }
 351              		.loc 1 314 1 is_stmt 0 view .LVU81
 352 0000 014B     		ldr	r3, .L26
 353 0002 1868     		ldr	r0, [r3]
 354 0004 7047     		bx	lr
 355              	.L27:
 356 0006 00BF     		.align	2
 357              	.L26:
 358 0008 00000000 		.word	uwTick
 359              		.cfi_endproc
 360              	.LFE887:
 362              		.section	.text.HAL_GetTickPrio,"ax",%progbits
 363              		.align	1
 364              		.global	HAL_GetTickPrio
 365              		.syntax unified
 366              		.thumb
 367              		.thumb_func
 369              	HAL_GetTickPrio:
 370              	.LFB888:
 315:../Drivers/STM32N6xx_HAL_Driver/Src/stm32n6xx_hal.c **** 
 316:../Drivers/STM32N6xx_HAL_Driver/Src/stm32n6xx_hal.c **** /**
 317:../Drivers/STM32N6xx_HAL_Driver/Src/stm32n6xx_hal.c ****   * @brief This function returns a tick priority.
 318:../Drivers/STM32N6xx_HAL_Driver/Src/stm32n6xx_hal.c ****   * @retval tick priority
 319:../Drivers/STM32N6xx_HAL_Driver/Src/stm32n6xx_hal.c ****   */
 320:../Drivers/STM32N6xx_HAL_Driver/Src/stm32n6xx_hal.c **** uint32_t HAL_GetTickPrio(void)
 321:../Drivers/STM32N6xx_HAL_Driver/Src/stm32n6xx_hal.c **** {
 371              		.loc 1 321 1 is_stmt 1 view -0
 372              		.cfi_startproc
ARM GAS  /tmp/ccvdUNht.s 			page 14


 373              		@ args = 0, pretend = 0, frame = 0
 374              		@ frame_needed = 0, uses_anonymous_args = 0
 375              		@ link register save eliminated.
 322:../Drivers/STM32N6xx_HAL_Driver/Src/stm32n6xx_hal.c ****   return uwTickPrio;
 376              		.loc 1 322 3 view .LVU83
 323:../Drivers/STM32N6xx_HAL_Driver/Src/stm32n6xx_hal.c **** }
 377              		.loc 1 323 1 is_stmt 0 view .LVU84
 378 0000 014B     		ldr	r3, .L29
 379 0002 1868     		ldr	r0, [r3]
 380 0004 7047     		bx	lr
 381              	.L30:
 382 0006 00BF     		.align	2
 383              	.L29:
 384 0008 00000000 		.word	uwTickPrio
 385              		.cfi_endproc
 386              	.LFE888:
 388              		.section	.text.HAL_SetTickFreq,"ax",%progbits
 389              		.align	1
 390              		.global	HAL_SetTickFreq
 391              		.syntax unified
 392              		.thumb
 393              		.thumb_func
 395              	HAL_SetTickFreq:
 396              	.LVL12:
 397              	.LFB889:
 324:../Drivers/STM32N6xx_HAL_Driver/Src/stm32n6xx_hal.c **** 
 325:../Drivers/STM32N6xx_HAL_Driver/Src/stm32n6xx_hal.c **** /**
 326:../Drivers/STM32N6xx_HAL_Driver/Src/stm32n6xx_hal.c ****   * @brief Set new tick Freq.
 327:../Drivers/STM32N6xx_HAL_Driver/Src/stm32n6xx_hal.c ****   * @param Freq Tick frequency, value of @ref HAL_TickFreqTypeDef.
 328:../Drivers/STM32N6xx_HAL_Driver/Src/stm32n6xx_hal.c ****   * @retval HAL status
 329:../Drivers/STM32N6xx_HAL_Driver/Src/stm32n6xx_hal.c ****   */
 330:../Drivers/STM32N6xx_HAL_Driver/Src/stm32n6xx_hal.c **** HAL_StatusTypeDef HAL_SetTickFreq(HAL_TickFreqTypeDef Freq)
 331:../Drivers/STM32N6xx_HAL_Driver/Src/stm32n6xx_hal.c **** {
 398              		.loc 1 331 1 is_stmt 1 view -0
 399              		.cfi_startproc
 400              		@ args = 0, pretend = 0, frame = 0
 401              		@ frame_needed = 0, uses_anonymous_args = 0
 402              		.loc 1 331 1 is_stmt 0 view .LVU86
 403 0000 10B5     		push	{r4, lr}
 404              	.LCFI3:
 405              		.cfi_def_cfa_offset 8
 406              		.cfi_offset 4, -8
 407              		.cfi_offset 14, -4
 332:../Drivers/STM32N6xx_HAL_Driver/Src/stm32n6xx_hal.c ****   HAL_StatusTypeDef status  = HAL_OK;
 408              		.loc 1 332 3 is_stmt 1 view .LVU87
 409              	.LVL13:
 333:../Drivers/STM32N6xx_HAL_Driver/Src/stm32n6xx_hal.c ****   HAL_TickFreqTypeDef prevTickFreq;
 410              		.loc 1 333 3 view .LVU88
 334:../Drivers/STM32N6xx_HAL_Driver/Src/stm32n6xx_hal.c **** 
 335:../Drivers/STM32N6xx_HAL_Driver/Src/stm32n6xx_hal.c ****   assert_param(IS_TICKFREQ(Freq));
 411              		.loc 1 335 3 view .LVU89
 336:../Drivers/STM32N6xx_HAL_Driver/Src/stm32n6xx_hal.c **** 
 337:../Drivers/STM32N6xx_HAL_Driver/Src/stm32n6xx_hal.c ****   if (uwTickFreq != Freq)
 412              		.loc 1 337 3 view .LVU90
 413              		.loc 1 337 18 is_stmt 0 view .LVU91
 414 0002 084B     		ldr	r3, .L38
 415 0004 1C78     		ldrb	r4, [r3]	@ zero_extendqisi2
ARM GAS  /tmp/ccvdUNht.s 			page 15


 416              		.loc 1 337 6 view .LVU92
 417 0006 8442     		cmp	r4, r0
 418 0008 01D1     		bne	.L37
 332:../Drivers/STM32N6xx_HAL_Driver/Src/stm32n6xx_hal.c ****   HAL_TickFreqTypeDef prevTickFreq;
 419              		.loc 1 332 21 view .LVU93
 420 000a 0020     		movs	r0, #0
 421              	.LVL14:
 422              	.L32:
 338:../Drivers/STM32N6xx_HAL_Driver/Src/stm32n6xx_hal.c ****   {
 339:../Drivers/STM32N6xx_HAL_Driver/Src/stm32n6xx_hal.c ****     /* Back up uwTickFreq frequency */
 340:../Drivers/STM32N6xx_HAL_Driver/Src/stm32n6xx_hal.c ****     prevTickFreq = uwTickFreq;
 341:../Drivers/STM32N6xx_HAL_Driver/Src/stm32n6xx_hal.c **** 
 342:../Drivers/STM32N6xx_HAL_Driver/Src/stm32n6xx_hal.c ****     /* Update uwTickFreq global variable used by HAL_InitTick() */
 343:../Drivers/STM32N6xx_HAL_Driver/Src/stm32n6xx_hal.c ****     uwTickFreq = Freq;
 344:../Drivers/STM32N6xx_HAL_Driver/Src/stm32n6xx_hal.c **** 
 345:../Drivers/STM32N6xx_HAL_Driver/Src/stm32n6xx_hal.c ****     /* Apply the new tick Freq  */
 346:../Drivers/STM32N6xx_HAL_Driver/Src/stm32n6xx_hal.c ****     status = HAL_InitTick(uwTickPrio);
 347:../Drivers/STM32N6xx_HAL_Driver/Src/stm32n6xx_hal.c ****     if (status != HAL_OK)
 348:../Drivers/STM32N6xx_HAL_Driver/Src/stm32n6xx_hal.c ****     {
 349:../Drivers/STM32N6xx_HAL_Driver/Src/stm32n6xx_hal.c ****       /* Restore previous tick frequency */
 350:../Drivers/STM32N6xx_HAL_Driver/Src/stm32n6xx_hal.c ****       uwTickFreq = prevTickFreq;
 351:../Drivers/STM32N6xx_HAL_Driver/Src/stm32n6xx_hal.c ****     }
 352:../Drivers/STM32N6xx_HAL_Driver/Src/stm32n6xx_hal.c ****   }
 353:../Drivers/STM32N6xx_HAL_Driver/Src/stm32n6xx_hal.c **** 
 354:../Drivers/STM32N6xx_HAL_Driver/Src/stm32n6xx_hal.c ****   return status;
 423              		.loc 1 354 3 is_stmt 1 view .LVU94
 355:../Drivers/STM32N6xx_HAL_Driver/Src/stm32n6xx_hal.c **** }
 424              		.loc 1 355 1 is_stmt 0 view .LVU95
 425 000c 10BD     		pop	{r4, pc}
 426              	.LVL15:
 427              	.L37:
 340:../Drivers/STM32N6xx_HAL_Driver/Src/stm32n6xx_hal.c **** 
 428              		.loc 1 340 5 is_stmt 1 view .LVU96
 343:../Drivers/STM32N6xx_HAL_Driver/Src/stm32n6xx_hal.c **** 
 429              		.loc 1 343 5 view .LVU97
 343:../Drivers/STM32N6xx_HAL_Driver/Src/stm32n6xx_hal.c **** 
 430              		.loc 1 343 16 is_stmt 0 view .LVU98
 431 000e 1870     		strb	r0, [r3]
 346:../Drivers/STM32N6xx_HAL_Driver/Src/stm32n6xx_hal.c ****     if (status != HAL_OK)
 432              		.loc 1 346 5 is_stmt 1 view .LVU99
 346:../Drivers/STM32N6xx_HAL_Driver/Src/stm32n6xx_hal.c ****     if (status != HAL_OK)
 433              		.loc 1 346 14 is_stmt 0 view .LVU100
 434 0010 054B     		ldr	r3, .L38+4
 435 0012 1868     		ldr	r0, [r3]
 436              	.LVL16:
 346:../Drivers/STM32N6xx_HAL_Driver/Src/stm32n6xx_hal.c ****     if (status != HAL_OK)
 437              		.loc 1 346 14 view .LVU101
 438 0014 FFF7FEFF 		bl	HAL_InitTick
 439              	.LVL17:
 347:../Drivers/STM32N6xx_HAL_Driver/Src/stm32n6xx_hal.c ****     {
 440              		.loc 1 347 5 is_stmt 1 view .LVU102
 347:../Drivers/STM32N6xx_HAL_Driver/Src/stm32n6xx_hal.c ****     {
 441              		.loc 1 347 8 is_stmt 0 view .LVU103
 442 0018 0028     		cmp	r0, #0
 443 001a F7D0     		beq	.L32
 350:../Drivers/STM32N6xx_HAL_Driver/Src/stm32n6xx_hal.c ****     }
 444              		.loc 1 350 7 is_stmt 1 view .LVU104
ARM GAS  /tmp/ccvdUNht.s 			page 16


 350:../Drivers/STM32N6xx_HAL_Driver/Src/stm32n6xx_hal.c ****     }
 445              		.loc 1 350 18 is_stmt 0 view .LVU105
 446 001c 014B     		ldr	r3, .L38
 447 001e 1C70     		strb	r4, [r3]
 448 0020 F4E7     		b	.L32
 449              	.L39:
 450 0022 00BF     		.align	2
 451              	.L38:
 452 0024 00000000 		.word	uwTickFreq
 453 0028 00000000 		.word	uwTickPrio
 454              		.cfi_endproc
 455              	.LFE889:
 457              		.section	.text.HAL_GetTickFreq,"ax",%progbits
 458              		.align	1
 459              		.global	HAL_GetTickFreq
 460              		.syntax unified
 461              		.thumb
 462              		.thumb_func
 464              	HAL_GetTickFreq:
 465              	.LFB890:
 356:../Drivers/STM32N6xx_HAL_Driver/Src/stm32n6xx_hal.c **** 
 357:../Drivers/STM32N6xx_HAL_Driver/Src/stm32n6xx_hal.c **** /**
 358:../Drivers/STM32N6xx_HAL_Driver/Src/stm32n6xx_hal.c ****   * @brief Return tick frequency.
 359:../Drivers/STM32N6xx_HAL_Driver/Src/stm32n6xx_hal.c ****   * @retval Tick frequency.
 360:../Drivers/STM32N6xx_HAL_Driver/Src/stm32n6xx_hal.c ****   *         Value of @ref HAL_TickFreqTypeDef.
 361:../Drivers/STM32N6xx_HAL_Driver/Src/stm32n6xx_hal.c ****   */
 362:../Drivers/STM32N6xx_HAL_Driver/Src/stm32n6xx_hal.c **** HAL_TickFreqTypeDef HAL_GetTickFreq(void)
 363:../Drivers/STM32N6xx_HAL_Driver/Src/stm32n6xx_hal.c **** {
 466              		.loc 1 363 1 is_stmt 1 view -0
 467              		.cfi_startproc
 468              		@ args = 0, pretend = 0, frame = 0
 469              		@ frame_needed = 0, uses_anonymous_args = 0
 470              		@ link register save eliminated.
 364:../Drivers/STM32N6xx_HAL_Driver/Src/stm32n6xx_hal.c ****   return uwTickFreq;
 471              		.loc 1 364 3 view .LVU107
 365:../Drivers/STM32N6xx_HAL_Driver/Src/stm32n6xx_hal.c **** }
 472              		.loc 1 365 1 is_stmt 0 view .LVU108
 473 0000 014B     		ldr	r3, .L41
 474 0002 1878     		ldrb	r0, [r3]	@ zero_extendqisi2
 475 0004 7047     		bx	lr
 476              	.L42:
 477 0006 00BF     		.align	2
 478              	.L41:
 479 0008 00000000 		.word	uwTickFreq
 480              		.cfi_endproc
 481              	.LFE890:
 483              		.section	.text.HAL_Delay,"ax",%progbits
 484              		.align	1
 485              		.weak	HAL_Delay
 486              		.syntax unified
 487              		.thumb
 488              		.thumb_func
 490              	HAL_Delay:
 491              	.LVL18:
 492              	.LFB891:
 366:../Drivers/STM32N6xx_HAL_Driver/Src/stm32n6xx_hal.c **** 
 367:../Drivers/STM32N6xx_HAL_Driver/Src/stm32n6xx_hal.c **** /**
ARM GAS  /tmp/ccvdUNht.s 			page 17


 368:../Drivers/STM32N6xx_HAL_Driver/Src/stm32n6xx_hal.c ****   * @brief This function provides minimum delay (in milliseconds) based
 369:../Drivers/STM32N6xx_HAL_Driver/Src/stm32n6xx_hal.c ****   *        on variable incremented.
 370:../Drivers/STM32N6xx_HAL_Driver/Src/stm32n6xx_hal.c ****   * @note In the default implementation , SysTick timer is the source of time base.
 371:../Drivers/STM32N6xx_HAL_Driver/Src/stm32n6xx_hal.c ****   *       It is used to generate interrupts at regular time intervals where uwTick
 372:../Drivers/STM32N6xx_HAL_Driver/Src/stm32n6xx_hal.c ****   *       is incremented.
 373:../Drivers/STM32N6xx_HAL_Driver/Src/stm32n6xx_hal.c ****   * @note This function is declared as __weak to be overwritten in case of other
 374:../Drivers/STM32N6xx_HAL_Driver/Src/stm32n6xx_hal.c ****   *       implementations in user file.
 375:../Drivers/STM32N6xx_HAL_Driver/Src/stm32n6xx_hal.c ****   * @param Delay Specifies the delay time length, in milliseconds.
 376:../Drivers/STM32N6xx_HAL_Driver/Src/stm32n6xx_hal.c ****   * @retval None
 377:../Drivers/STM32N6xx_HAL_Driver/Src/stm32n6xx_hal.c ****   */
 378:../Drivers/STM32N6xx_HAL_Driver/Src/stm32n6xx_hal.c **** __weak void HAL_Delay(uint32_t Delay)
 379:../Drivers/STM32N6xx_HAL_Driver/Src/stm32n6xx_hal.c **** {
 493              		.loc 1 379 1 is_stmt 1 view -0
 494              		.cfi_startproc
 495              		@ args = 0, pretend = 0, frame = 0
 496              		@ frame_needed = 0, uses_anonymous_args = 0
 497              		.loc 1 379 1 is_stmt 0 view .LVU110
 498 0000 38B5     		push	{r3, r4, r5, lr}
 499              	.LCFI4:
 500              		.cfi_def_cfa_offset 16
 501              		.cfi_offset 3, -16
 502              		.cfi_offset 4, -12
 503              		.cfi_offset 5, -8
 504              		.cfi_offset 14, -4
 505 0002 0446     		mov	r4, r0
 380:../Drivers/STM32N6xx_HAL_Driver/Src/stm32n6xx_hal.c ****   uint32_t tickstart = HAL_GetTick();
 506              		.loc 1 380 3 is_stmt 1 view .LVU111
 507              		.loc 1 380 24 is_stmt 0 view .LVU112
 508 0004 FFF7FEFF 		bl	HAL_GetTick
 509              	.LVL19:
 510              		.loc 1 380 24 view .LVU113
 511 0008 0546     		mov	r5, r0
 512              	.LVL20:
 381:../Drivers/STM32N6xx_HAL_Driver/Src/stm32n6xx_hal.c ****   uint32_t wait = Delay;
 513              		.loc 1 381 3 is_stmt 1 view .LVU114
 382:../Drivers/STM32N6xx_HAL_Driver/Src/stm32n6xx_hal.c **** 
 383:../Drivers/STM32N6xx_HAL_Driver/Src/stm32n6xx_hal.c ****   /* Add a freq to guarantee minimum wait */
 384:../Drivers/STM32N6xx_HAL_Driver/Src/stm32n6xx_hal.c ****   if (wait < HAL_MAX_DELAY)
 514              		.loc 1 384 3 view .LVU115
 515              		.loc 1 384 6 is_stmt 0 view .LVU116
 516 000a B4F1FF3F 		cmp	r4, #-1
 517 000e 02D0     		beq	.L45
 385:../Drivers/STM32N6xx_HAL_Driver/Src/stm32n6xx_hal.c ****   {
 386:../Drivers/STM32N6xx_HAL_Driver/Src/stm32n6xx_hal.c ****     wait += (uint32_t)(uwTickFreq);
 518              		.loc 1 386 5 is_stmt 1 view .LVU117
 519              		.loc 1 386 13 is_stmt 0 view .LVU118
 520 0010 044B     		ldr	r3, .L47
 521 0012 1B78     		ldrb	r3, [r3]	@ zero_extendqisi2
 522              		.loc 1 386 10 view .LVU119
 523 0014 1C44     		add	r4, r4, r3
 524              	.LVL21:
 525              	.L45:
 387:../Drivers/STM32N6xx_HAL_Driver/Src/stm32n6xx_hal.c ****   }
 388:../Drivers/STM32N6xx_HAL_Driver/Src/stm32n6xx_hal.c **** 
 389:../Drivers/STM32N6xx_HAL_Driver/Src/stm32n6xx_hal.c ****   while ((HAL_GetTick() - tickstart) < wait)
 390:../Drivers/STM32N6xx_HAL_Driver/Src/stm32n6xx_hal.c ****   {
 391:../Drivers/STM32N6xx_HAL_Driver/Src/stm32n6xx_hal.c ****   }
ARM GAS  /tmp/ccvdUNht.s 			page 18


 526              		.loc 1 391 3 is_stmt 1 view .LVU120
 389:../Drivers/STM32N6xx_HAL_Driver/Src/stm32n6xx_hal.c ****   {
 527              		.loc 1 389 38 discriminator 1 view .LVU121
 389:../Drivers/STM32N6xx_HAL_Driver/Src/stm32n6xx_hal.c ****   {
 528              		.loc 1 389 11 is_stmt 0 discriminator 1 view .LVU122
 529 0016 FFF7FEFF 		bl	HAL_GetTick
 530              	.LVL22:
 389:../Drivers/STM32N6xx_HAL_Driver/Src/stm32n6xx_hal.c ****   {
 531              		.loc 1 389 25 discriminator 2 view .LVU123
 532 001a 401B     		subs	r0, r0, r5
 389:../Drivers/STM32N6xx_HAL_Driver/Src/stm32n6xx_hal.c ****   {
 533              		.loc 1 389 38 discriminator 2 view .LVU124
 534 001c A042     		cmp	r0, r4
 535 001e FAD3     		bcc	.L45
 392:../Drivers/STM32N6xx_HAL_Driver/Src/stm32n6xx_hal.c **** }
 536              		.loc 1 392 1 view .LVU125
 537 0020 38BD     		pop	{r3, r4, r5, pc}
 538              	.LVL23:
 539              	.L48:
 540              		.loc 1 392 1 view .LVU126
 541 0022 00BF     		.align	2
 542              	.L47:
 543 0024 00000000 		.word	uwTickFreq
 544              		.cfi_endproc
 545              	.LFE891:
 547              		.section	.text.HAL_SuspendTick,"ax",%progbits
 548              		.align	1
 549              		.weak	HAL_SuspendTick
 550              		.syntax unified
 551              		.thumb
 552              		.thumb_func
 554              	HAL_SuspendTick:
 555              	.LFB892:
 393:../Drivers/STM32N6xx_HAL_Driver/Src/stm32n6xx_hal.c **** 
 394:../Drivers/STM32N6xx_HAL_Driver/Src/stm32n6xx_hal.c **** /**
 395:../Drivers/STM32N6xx_HAL_Driver/Src/stm32n6xx_hal.c ****   * @brief Suspend Tick increment.
 396:../Drivers/STM32N6xx_HAL_Driver/Src/stm32n6xx_hal.c ****   * @note In the default implementation , SysTick timer is the source of time base. It is
 397:../Drivers/STM32N6xx_HAL_Driver/Src/stm32n6xx_hal.c ****   *       used to generate interrupts at regular time intervals. Once HAL_SuspendTick()
 398:../Drivers/STM32N6xx_HAL_Driver/Src/stm32n6xx_hal.c ****   *       is called, the SysTick interrupt will be disabled and so Tick increment
 399:../Drivers/STM32N6xx_HAL_Driver/Src/stm32n6xx_hal.c ****   *       is suspended.
 400:../Drivers/STM32N6xx_HAL_Driver/Src/stm32n6xx_hal.c ****   * @note This function is declared as __weak to be overwritten in case of other
 401:../Drivers/STM32N6xx_HAL_Driver/Src/stm32n6xx_hal.c ****   *       implementations in user file.
 402:../Drivers/STM32N6xx_HAL_Driver/Src/stm32n6xx_hal.c ****   * @retval None
 403:../Drivers/STM32N6xx_HAL_Driver/Src/stm32n6xx_hal.c ****   */
 404:../Drivers/STM32N6xx_HAL_Driver/Src/stm32n6xx_hal.c **** __weak void HAL_SuspendTick(void)
 405:../Drivers/STM32N6xx_HAL_Driver/Src/stm32n6xx_hal.c **** {
 556              		.loc 1 405 1 is_stmt 1 view -0
 557              		.cfi_startproc
 558              		@ args = 0, pretend = 0, frame = 0
 559              		@ frame_needed = 0, uses_anonymous_args = 0
 560              		@ link register save eliminated.
 406:../Drivers/STM32N6xx_HAL_Driver/Src/stm32n6xx_hal.c ****   /* Disable SysTick Interrupt */
 407:../Drivers/STM32N6xx_HAL_Driver/Src/stm32n6xx_hal.c ****   SysTick->CTRL &= ~SysTick_CTRL_TICKINT_Msk;
 561              		.loc 1 407 3 view .LVU128
 562              		.loc 1 407 10 is_stmt 0 view .LVU129
 563 0000 4FF0E022 		mov	r2, #-536813568
 564 0004 1369     		ldr	r3, [r2, #16]
ARM GAS  /tmp/ccvdUNht.s 			page 19


 565              		.loc 1 407 17 view .LVU130
 566 0006 23F00203 		bic	r3, r3, #2
 567 000a 1361     		str	r3, [r2, #16]
 408:../Drivers/STM32N6xx_HAL_Driver/Src/stm32n6xx_hal.c **** }
 568              		.loc 1 408 1 view .LVU131
 569 000c 7047     		bx	lr
 570              		.cfi_endproc
 571              	.LFE892:
 573              		.section	.text.HAL_ResumeTick,"ax",%progbits
 574              		.align	1
 575              		.weak	HAL_ResumeTick
 576              		.syntax unified
 577              		.thumb
 578              		.thumb_func
 580              	HAL_ResumeTick:
 581              	.LFB893:
 409:../Drivers/STM32N6xx_HAL_Driver/Src/stm32n6xx_hal.c **** 
 410:../Drivers/STM32N6xx_HAL_Driver/Src/stm32n6xx_hal.c **** /**
 411:../Drivers/STM32N6xx_HAL_Driver/Src/stm32n6xx_hal.c ****   * @brief Resume Tick increment.
 412:../Drivers/STM32N6xx_HAL_Driver/Src/stm32n6xx_hal.c ****   * @note In the default implementation , SysTick timer is the source of time base. It is
 413:../Drivers/STM32N6xx_HAL_Driver/Src/stm32n6xx_hal.c ****   *       used to generate interrupts at regular time intervals. Once HAL_ResumeTick()
 414:../Drivers/STM32N6xx_HAL_Driver/Src/stm32n6xx_hal.c ****   *       is called, the SysTick interrupt will be enabled and so Tick increment
 415:../Drivers/STM32N6xx_HAL_Driver/Src/stm32n6xx_hal.c ****   *       is resumed.
 416:../Drivers/STM32N6xx_HAL_Driver/Src/stm32n6xx_hal.c ****   * @note This function is declared as __weak to be overwritten in case of other
 417:../Drivers/STM32N6xx_HAL_Driver/Src/stm32n6xx_hal.c ****   *       implementations in user file.
 418:../Drivers/STM32N6xx_HAL_Driver/Src/stm32n6xx_hal.c ****   * @retval None
 419:../Drivers/STM32N6xx_HAL_Driver/Src/stm32n6xx_hal.c ****   */
 420:../Drivers/STM32N6xx_HAL_Driver/Src/stm32n6xx_hal.c **** __weak void HAL_ResumeTick(void)
 421:../Drivers/STM32N6xx_HAL_Driver/Src/stm32n6xx_hal.c **** {
 582              		.loc 1 421 1 is_stmt 1 view -0
 583              		.cfi_startproc
 584              		@ args = 0, pretend = 0, frame = 0
 585              		@ frame_needed = 0, uses_anonymous_args = 0
 586              		@ link register save eliminated.
 422:../Drivers/STM32N6xx_HAL_Driver/Src/stm32n6xx_hal.c ****   /* Enable SysTick Interrupt */
 423:../Drivers/STM32N6xx_HAL_Driver/Src/stm32n6xx_hal.c ****   SysTick->CTRL  |= SysTick_CTRL_TICKINT_Msk;
 587              		.loc 1 423 3 view .LVU133
 588              		.loc 1 423 10 is_stmt 0 view .LVU134
 589 0000 4FF0E022 		mov	r2, #-536813568
 590 0004 1369     		ldr	r3, [r2, #16]
 591              		.loc 1 423 18 view .LVU135
 592 0006 43F00203 		orr	r3, r3, #2
 593 000a 1361     		str	r3, [r2, #16]
 424:../Drivers/STM32N6xx_HAL_Driver/Src/stm32n6xx_hal.c **** }
 594              		.loc 1 424 1 view .LVU136
 595 000c 7047     		bx	lr
 596              		.cfi_endproc
 597              	.LFE893:
 599              		.section	.text.HAL_GetHalVersion,"ax",%progbits
 600              		.align	1
 601              		.global	HAL_GetHalVersion
 602              		.syntax unified
 603              		.thumb
 604              		.thumb_func
 606              	HAL_GetHalVersion:
 607              	.LFB894:
 425:../Drivers/STM32N6xx_HAL_Driver/Src/stm32n6xx_hal.c **** 
ARM GAS  /tmp/ccvdUNht.s 			page 20


 426:../Drivers/STM32N6xx_HAL_Driver/Src/stm32n6xx_hal.c **** /**
 427:../Drivers/STM32N6xx_HAL_Driver/Src/stm32n6xx_hal.c ****   * @brief  Returns the HAL revision
 428:../Drivers/STM32N6xx_HAL_Driver/Src/stm32n6xx_hal.c ****   * @retval version : 0xXYZR (8bits for each decimal, R for RC)
 429:../Drivers/STM32N6xx_HAL_Driver/Src/stm32n6xx_hal.c ****   */
 430:../Drivers/STM32N6xx_HAL_Driver/Src/stm32n6xx_hal.c **** uint32_t HAL_GetHalVersion(void)
 431:../Drivers/STM32N6xx_HAL_Driver/Src/stm32n6xx_hal.c **** {
 608              		.loc 1 431 1 is_stmt 1 view -0
 609              		.cfi_startproc
 610              		@ args = 0, pretend = 0, frame = 0
 611              		@ frame_needed = 0, uses_anonymous_args = 0
 612              		@ link register save eliminated.
 432:../Drivers/STM32N6xx_HAL_Driver/Src/stm32n6xx_hal.c ****   return __STM32N6xx_HAL_VERSION;
 613              		.loc 1 432 3 view .LVU138
 433:../Drivers/STM32N6xx_HAL_Driver/Src/stm32n6xx_hal.c **** }
 614              		.loc 1 433 1 is_stmt 0 view .LVU139
 615 0000 0048     		ldr	r0, .L52
 616 0002 7047     		bx	lr
 617              	.L53:
 618              		.align	2
 619              	.L52:
 620 0004 00000301 		.word	16973824
 621              		.cfi_endproc
 622              	.LFE894:
 624              		.section	.text.HAL_GetREVID,"ax",%progbits
 625              		.align	1
 626              		.global	HAL_GetREVID
 627              		.syntax unified
 628              		.thumb
 629              		.thumb_func
 631              	HAL_GetREVID:
 632              	.LFB895:
 434:../Drivers/STM32N6xx_HAL_Driver/Src/stm32n6xx_hal.c **** 
 435:../Drivers/STM32N6xx_HAL_Driver/Src/stm32n6xx_hal.c **** /**
 436:../Drivers/STM32N6xx_HAL_Driver/Src/stm32n6xx_hal.c ****   * @brief  Returns the device revision identifier
 437:../Drivers/STM32N6xx_HAL_Driver/Src/stm32n6xx_hal.c ****   * @note Returned Revision ID can be
 438:../Drivers/STM32N6xx_HAL_Driver/Src/stm32n6xx_hal.c ****   *       0x00000100 for Cut1.0
 439:../Drivers/STM32N6xx_HAL_Driver/Src/stm32n6xx_hal.c ****   *       0x00000101 for Cut1.1
 440:../Drivers/STM32N6xx_HAL_Driver/Src/stm32n6xx_hal.c ****   *       0x00000200 for Cut2.0
 441:../Drivers/STM32N6xx_HAL_Driver/Src/stm32n6xx_hal.c ****   * @retval Device revision identifier
 442:../Drivers/STM32N6xx_HAL_Driver/Src/stm32n6xx_hal.c ****   */
 443:../Drivers/STM32N6xx_HAL_Driver/Src/stm32n6xx_hal.c **** uint32_t HAL_GetREVID(void)
 444:../Drivers/STM32N6xx_HAL_Driver/Src/stm32n6xx_hal.c **** {
 633              		.loc 1 444 1 is_stmt 1 view -0
 634              		.cfi_startproc
 635              		@ args = 0, pretend = 0, frame = 0
 636              		@ frame_needed = 0, uses_anonymous_args = 0
 637              		@ link register save eliminated.
 445:../Drivers/STM32N6xx_HAL_Driver/Src/stm32n6xx_hal.c ****   return *(uint32_t *)(REVID_BASE);
 638              		.loc 1 445 3 view .LVU141
 446:../Drivers/STM32N6xx_HAL_Driver/Src/stm32n6xx_hal.c **** }
 639              		.loc 1 446 1 is_stmt 0 view .LVU142
 640 0000 014B     		ldr	r3, .L55
 641 0002 5868     		ldr	r0, [r3, #4]
 642 0004 7047     		bx	lr
 643              	.L56:
 644 0006 00BF     		.align	2
 645              	.L55:
ARM GAS  /tmp/ccvdUNht.s 			page 21


 646 0008 00100018 		.word	402657280
 647              		.cfi_endproc
 648              	.LFE895:
 650              		.section	.text.HAL_GetDEVID,"ax",%progbits
 651              		.align	1
 652              		.global	HAL_GetDEVID
 653              		.syntax unified
 654              		.thumb
 655              		.thumb_func
 657              	HAL_GetDEVID:
 658              	.LFB896:
 447:../Drivers/STM32N6xx_HAL_Driver/Src/stm32n6xx_hal.c **** 
 448:../Drivers/STM32N6xx_HAL_Driver/Src/stm32n6xx_hal.c **** #if defined(CPU_IN_SECURE_STATE)
 449:../Drivers/STM32N6xx_HAL_Driver/Src/stm32n6xx_hal.c **** /**
 450:../Drivers/STM32N6xx_HAL_Driver/Src/stm32n6xx_hal.c ****   * @brief  Returns the device identifier
 451:../Drivers/STM32N6xx_HAL_Driver/Src/stm32n6xx_hal.c ****   * @note This function can only be used if the HAL BSEC module is enabled in the hal configuration
 452:../Drivers/STM32N6xx_HAL_Driver/Src/stm32n6xx_hal.c ****   *       The BSEC clock must be enabled before calling this function
 453:../Drivers/STM32N6xx_HAL_Driver/Src/stm32n6xx_hal.c ****   *       Returned Device ID can be
 454:../Drivers/STM32N6xx_HAL_Driver/Src/stm32n6xx_hal.c ****   *       0x00006200 for STM32N645xx
 455:../Drivers/STM32N6xx_HAL_Driver/Src/stm32n6xx_hal.c ****   *       0x00006000 for STM32N655xx
 456:../Drivers/STM32N6xx_HAL_Driver/Src/stm32n6xx_hal.c ****   *       0x00002200 for STM32N647xx
 457:../Drivers/STM32N6xx_HAL_Driver/Src/stm32n6xx_hal.c ****   *       0x00002000 for STM32N657xx
 458:../Drivers/STM32N6xx_HAL_Driver/Src/stm32n6xx_hal.c ****   *       0xFFFFFFFF if an error occurs
 459:../Drivers/STM32N6xx_HAL_Driver/Src/stm32n6xx_hal.c ****   * @retval Device identifier
 460:../Drivers/STM32N6xx_HAL_Driver/Src/stm32n6xx_hal.c ****   */
 461:../Drivers/STM32N6xx_HAL_Driver/Src/stm32n6xx_hal.c **** uint32_t HAL_GetDEVID(void)
 462:../Drivers/STM32N6xx_HAL_Driver/Src/stm32n6xx_hal.c **** {
 659              		.loc 1 462 1 is_stmt 1 view -0
 660              		.cfi_startproc
 661              		@ args = 0, pretend = 0, frame = 0
 662              		@ frame_needed = 0, uses_anonymous_args = 0
 663              		@ link register save eliminated.
 463:../Drivers/STM32N6xx_HAL_Driver/Src/stm32n6xx_hal.c **** #if defined(HAL_BSEC_MODULE_ENABLED)
 464:../Drivers/STM32N6xx_HAL_Driver/Src/stm32n6xx_hal.c **** #define BSEC_FUSE_ADDRESS               9U
 465:../Drivers/STM32N6xx_HAL_Driver/Src/stm32n6xx_hal.c ****   uint32_t data;
 466:../Drivers/STM32N6xx_HAL_Driver/Src/stm32n6xx_hal.c ****   if(__HAL_RCC_BSEC_IS_CLK_ENABLED() == 0UL){
 467:../Drivers/STM32N6xx_HAL_Driver/Src/stm32n6xx_hal.c ****     data = 0xFFFFFFFFU;
 468:../Drivers/STM32N6xx_HAL_Driver/Src/stm32n6xx_hal.c ****   }
 469:../Drivers/STM32N6xx_HAL_Driver/Src/stm32n6xx_hal.c ****   else
 470:../Drivers/STM32N6xx_HAL_Driver/Src/stm32n6xx_hal.c ****   {
 471:../Drivers/STM32N6xx_HAL_Driver/Src/stm32n6xx_hal.c ****     BSEC_HandleTypeDef sBsecHandler = {0};
 472:../Drivers/STM32N6xx_HAL_Driver/Src/stm32n6xx_hal.c ****     sBsecHandler.Instance = BSEC;
 473:../Drivers/STM32N6xx_HAL_Driver/Src/stm32n6xx_hal.c **** 
 474:../Drivers/STM32N6xx_HAL_Driver/Src/stm32n6xx_hal.c ****     if(HAL_BSEC_OTP_Read(&sBsecHandler, BSEC_FUSE_ADDRESS, &data) != HAL_OK){
 475:../Drivers/STM32N6xx_HAL_Driver/Src/stm32n6xx_hal.c ****       data = 0xFFFFFFFFU;
 476:../Drivers/STM32N6xx_HAL_Driver/Src/stm32n6xx_hal.c ****     }
 477:../Drivers/STM32N6xx_HAL_Driver/Src/stm32n6xx_hal.c ****   }
 478:../Drivers/STM32N6xx_HAL_Driver/Src/stm32n6xx_hal.c ****   return data;
 479:../Drivers/STM32N6xx_HAL_Driver/Src/stm32n6xx_hal.c **** #else
 480:../Drivers/STM32N6xx_HAL_Driver/Src/stm32n6xx_hal.c ****   return 0xFFFFFFFFU;
 664              		.loc 1 480 3 view .LVU144
 481:../Drivers/STM32N6xx_HAL_Driver/Src/stm32n6xx_hal.c **** #endif /* HAL_BSEC_MODULE_ENABLED */
 482:../Drivers/STM32N6xx_HAL_Driver/Src/stm32n6xx_hal.c **** }
 665              		.loc 1 482 1 is_stmt 0 view .LVU145
 666 0000 4FF0FF30 		mov	r0, #-1
 667 0004 7047     		bx	lr
 668              		.cfi_endproc
ARM GAS  /tmp/ccvdUNht.s 			page 22


 669              	.LFE896:
 671              		.section	.text.HAL_GetUIDw0,"ax",%progbits
 672              		.align	1
 673              		.global	HAL_GetUIDw0
 674              		.syntax unified
 675              		.thumb
 676              		.thumb_func
 678              	HAL_GetUIDw0:
 679              	.LFB897:
 483:../Drivers/STM32N6xx_HAL_Driver/Src/stm32n6xx_hal.c **** #endif /* CPU_IN_SECURE_STATE */
 484:../Drivers/STM32N6xx_HAL_Driver/Src/stm32n6xx_hal.c **** 
 485:../Drivers/STM32N6xx_HAL_Driver/Src/stm32n6xx_hal.c **** /**
 486:../Drivers/STM32N6xx_HAL_Driver/Src/stm32n6xx_hal.c ****   * @brief  Return the first word of the unique device identifier (UID based on 96 bits)
 487:../Drivers/STM32N6xx_HAL_Driver/Src/stm32n6xx_hal.c ****   * @note   The application must ensures that SYSCFG clock is enabled.
 488:../Drivers/STM32N6xx_HAL_Driver/Src/stm32n6xx_hal.c ****   * @retval Device identifier
 489:../Drivers/STM32N6xx_HAL_Driver/Src/stm32n6xx_hal.c ****   */
 490:../Drivers/STM32N6xx_HAL_Driver/Src/stm32n6xx_hal.c **** uint32_t HAL_GetUIDw0(void)
 491:../Drivers/STM32N6xx_HAL_Driver/Src/stm32n6xx_hal.c **** {
 680              		.loc 1 491 1 is_stmt 1 view -0
 681              		.cfi_startproc
 682              		@ args = 0, pretend = 0, frame = 0
 683              		@ frame_needed = 0, uses_anonymous_args = 0
 684              		@ link register save eliminated.
 492:../Drivers/STM32N6xx_HAL_Driver/Src/stm32n6xx_hal.c ****   return (READ_REG(*((uint32_t *)UID_BASE)));
 685              		.loc 1 492 3 view .LVU147
 493:../Drivers/STM32N6xx_HAL_Driver/Src/stm32n6xx_hal.c **** }
 686              		.loc 1 493 1 is_stmt 0 view .LVU148
 687 0000 014B     		ldr	r3, .L59
 688 0002 5869     		ldr	r0, [r3, #20]
 689 0004 7047     		bx	lr
 690              	.L60:
 691 0006 00BF     		.align	2
 692              	.L59:
 693 0008 00900056 		.word	1442877440
 694              		.cfi_endproc
 695              	.LFE897:
 697              		.section	.text.HAL_GetUIDw1,"ax",%progbits
 698              		.align	1
 699              		.global	HAL_GetUIDw1
 700              		.syntax unified
 701              		.thumb
 702              		.thumb_func
 704              	HAL_GetUIDw1:
 705              	.LFB898:
 494:../Drivers/STM32N6xx_HAL_Driver/Src/stm32n6xx_hal.c **** 
 495:../Drivers/STM32N6xx_HAL_Driver/Src/stm32n6xx_hal.c **** /**
 496:../Drivers/STM32N6xx_HAL_Driver/Src/stm32n6xx_hal.c ****   * @brief  Return the second word of the unique device identifier (UID based on 96 bits)
 497:../Drivers/STM32N6xx_HAL_Driver/Src/stm32n6xx_hal.c ****   * @note   The application must ensures that SYSCFG clock is enabled.
 498:../Drivers/STM32N6xx_HAL_Driver/Src/stm32n6xx_hal.c ****   * @retval Device identifier
 499:../Drivers/STM32N6xx_HAL_Driver/Src/stm32n6xx_hal.c ****   */
 500:../Drivers/STM32N6xx_HAL_Driver/Src/stm32n6xx_hal.c **** uint32_t HAL_GetUIDw1(void)
 501:../Drivers/STM32N6xx_HAL_Driver/Src/stm32n6xx_hal.c **** {
 706              		.loc 1 501 1 is_stmt 1 view -0
 707              		.cfi_startproc
 708              		@ args = 0, pretend = 0, frame = 0
 709              		@ frame_needed = 0, uses_anonymous_args = 0
 710              		@ link register save eliminated.
ARM GAS  /tmp/ccvdUNht.s 			page 23


 502:../Drivers/STM32N6xx_HAL_Driver/Src/stm32n6xx_hal.c ****   return (READ_REG(*((uint32_t *)(UID_BASE + 4U))));
 711              		.loc 1 502 3 view .LVU150
 503:../Drivers/STM32N6xx_HAL_Driver/Src/stm32n6xx_hal.c **** }
 712              		.loc 1 503 1 is_stmt 0 view .LVU151
 713 0000 014B     		ldr	r3, .L62
 714 0002 9869     		ldr	r0, [r3, #24]
 715 0004 7047     		bx	lr
 716              	.L63:
 717 0006 00BF     		.align	2
 718              	.L62:
 719 0008 00900056 		.word	1442877440
 720              		.cfi_endproc
 721              	.LFE898:
 723              		.section	.text.HAL_GetUIDw2,"ax",%progbits
 724              		.align	1
 725              		.global	HAL_GetUIDw2
 726              		.syntax unified
 727              		.thumb
 728              		.thumb_func
 730              	HAL_GetUIDw2:
 731              	.LFB899:
 504:../Drivers/STM32N6xx_HAL_Driver/Src/stm32n6xx_hal.c **** 
 505:../Drivers/STM32N6xx_HAL_Driver/Src/stm32n6xx_hal.c **** /**
 506:../Drivers/STM32N6xx_HAL_Driver/Src/stm32n6xx_hal.c ****   * @brief  Return the third word of the unique device identifier (UID based on 96 bits)
 507:../Drivers/STM32N6xx_HAL_Driver/Src/stm32n6xx_hal.c ****   * @note   The application must ensures that SYSCFG clock is enabled.
 508:../Drivers/STM32N6xx_HAL_Driver/Src/stm32n6xx_hal.c ****   * @retval Device identifier
 509:../Drivers/STM32N6xx_HAL_Driver/Src/stm32n6xx_hal.c ****   */
 510:../Drivers/STM32N6xx_HAL_Driver/Src/stm32n6xx_hal.c **** uint32_t HAL_GetUIDw2(void)
 511:../Drivers/STM32N6xx_HAL_Driver/Src/stm32n6xx_hal.c **** {
 732              		.loc 1 511 1 is_stmt 1 view -0
 733              		.cfi_startproc
 734              		@ args = 0, pretend = 0, frame = 0
 735              		@ frame_needed = 0, uses_anonymous_args = 0
 736              		@ link register save eliminated.
 512:../Drivers/STM32N6xx_HAL_Driver/Src/stm32n6xx_hal.c ****   return (READ_REG(*((uint32_t *)(UID_BASE + 8U))));
 737              		.loc 1 512 3 view .LVU153
 513:../Drivers/STM32N6xx_HAL_Driver/Src/stm32n6xx_hal.c **** }
 738              		.loc 1 513 1 is_stmt 0 view .LVU154
 739 0000 014B     		ldr	r3, .L65
 740 0002 D869     		ldr	r0, [r3, #28]
 741 0004 7047     		bx	lr
 742              	.L66:
 743 0006 00BF     		.align	2
 744              	.L65:
 745 0008 00900056 		.word	1442877440
 746              		.cfi_endproc
 747              	.LFE899:
 749              		.section	.text.HAL_DBGMCU_EnableDBGSleepMode,"ax",%progbits
 750              		.align	1
 751              		.global	HAL_DBGMCU_EnableDBGSleepMode
 752              		.syntax unified
 753              		.thumb
 754              		.thumb_func
 756              	HAL_DBGMCU_EnableDBGSleepMode:
 757              	.LFB900:
 514:../Drivers/STM32N6xx_HAL_Driver/Src/stm32n6xx_hal.c **** 
 515:../Drivers/STM32N6xx_HAL_Driver/Src/stm32n6xx_hal.c **** /**
ARM GAS  /tmp/ccvdUNht.s 			page 24


 516:../Drivers/STM32N6xx_HAL_Driver/Src/stm32n6xx_hal.c ****   * @}
 517:../Drivers/STM32N6xx_HAL_Driver/Src/stm32n6xx_hal.c ****   */
 518:../Drivers/STM32N6xx_HAL_Driver/Src/stm32n6xx_hal.c **** 
 519:../Drivers/STM32N6xx_HAL_Driver/Src/stm32n6xx_hal.c **** /** @defgroup HAL_Exported_Functions_Group3 HAL Debug functions
 520:../Drivers/STM32N6xx_HAL_Driver/Src/stm32n6xx_hal.c ****   *  @brief    HAL Debug functions
 521:../Drivers/STM32N6xx_HAL_Driver/Src/stm32n6xx_hal.c ****   *
 522:../Drivers/STM32N6xx_HAL_Driver/Src/stm32n6xx_hal.c **** @verbatim
 523:../Drivers/STM32N6xx_HAL_Driver/Src/stm32n6xx_hal.c ****  ===============================================================================
 524:../Drivers/STM32N6xx_HAL_Driver/Src/stm32n6xx_hal.c ****                       ##### HAL Debug functions #####
 525:../Drivers/STM32N6xx_HAL_Driver/Src/stm32n6xx_hal.c ****  ===============================================================================
 526:../Drivers/STM32N6xx_HAL_Driver/Src/stm32n6xx_hal.c ****     [..]  This section provides functions allowing to:
 527:../Drivers/STM32N6xx_HAL_Driver/Src/stm32n6xx_hal.c ****       (+) Enable/Disable Debug module during Sleep mode
 528:../Drivers/STM32N6xx_HAL_Driver/Src/stm32n6xx_hal.c ****       (+) Enable/Disable Debug module during Stop modes
 529:../Drivers/STM32N6xx_HAL_Driver/Src/stm32n6xx_hal.c ****       (+) Enable/Disable Debug module during Stanby mode
 530:../Drivers/STM32N6xx_HAL_Driver/Src/stm32n6xx_hal.c **** 
 531:../Drivers/STM32N6xx_HAL_Driver/Src/stm32n6xx_hal.c **** @endverbatim
 532:../Drivers/STM32N6xx_HAL_Driver/Src/stm32n6xx_hal.c ****   * @{
 533:../Drivers/STM32N6xx_HAL_Driver/Src/stm32n6xx_hal.c ****   */
 534:../Drivers/STM32N6xx_HAL_Driver/Src/stm32n6xx_hal.c **** 
 535:../Drivers/STM32N6xx_HAL_Driver/Src/stm32n6xx_hal.c **** /**
 536:../Drivers/STM32N6xx_HAL_Driver/Src/stm32n6xx_hal.c ****   * @brief  Enable the Debug Module during Sleep mode.
 537:../Drivers/STM32N6xx_HAL_Driver/Src/stm32n6xx_hal.c ****   * @retval None
 538:../Drivers/STM32N6xx_HAL_Driver/Src/stm32n6xx_hal.c ****   */
 539:../Drivers/STM32N6xx_HAL_Driver/Src/stm32n6xx_hal.c **** void HAL_DBGMCU_EnableDBGSleepMode(void)
 540:../Drivers/STM32N6xx_HAL_Driver/Src/stm32n6xx_hal.c **** {
 758              		.loc 1 540 1 is_stmt 1 view -0
 759              		.cfi_startproc
 760              		@ args = 0, pretend = 0, frame = 0
 761              		@ frame_needed = 0, uses_anonymous_args = 0
 762              		@ link register save eliminated.
 541:../Drivers/STM32N6xx_HAL_Driver/Src/stm32n6xx_hal.c ****   SET_BIT(DBGMCU->CR, DBGMCU_CR_DBG_SLEEP);
 763              		.loc 1 541 3 view .LVU156
 764 0000 024A     		ldr	r2, .L68
 765 0002 5368     		ldr	r3, [r2, #4]
 766 0004 43F00103 		orr	r3, r3, #1
 767 0008 5360     		str	r3, [r2, #4]
 542:../Drivers/STM32N6xx_HAL_Driver/Src/stm32n6xx_hal.c **** }
 768              		.loc 1 542 1 is_stmt 0 view .LVU157
 769 000a 7047     		bx	lr
 770              	.L69:
 771              		.align	2
 772              	.L68:
 773 000c 00100054 		.word	1409290240
 774              		.cfi_endproc
 775              	.LFE900:
 777              		.section	.text.HAL_DBGMCU_DisableDBGSleepMode,"ax",%progbits
 778              		.align	1
 779              		.global	HAL_DBGMCU_DisableDBGSleepMode
 780              		.syntax unified
 781              		.thumb
 782              		.thumb_func
 784              	HAL_DBGMCU_DisableDBGSleepMode:
 785              	.LFB901:
 543:../Drivers/STM32N6xx_HAL_Driver/Src/stm32n6xx_hal.c **** 
 544:../Drivers/STM32N6xx_HAL_Driver/Src/stm32n6xx_hal.c **** /**
 545:../Drivers/STM32N6xx_HAL_Driver/Src/stm32n6xx_hal.c ****   * @brief  Disable the Debug Module during Sleep mode.
 546:../Drivers/STM32N6xx_HAL_Driver/Src/stm32n6xx_hal.c ****   * @retval None
ARM GAS  /tmp/ccvdUNht.s 			page 25


 547:../Drivers/STM32N6xx_HAL_Driver/Src/stm32n6xx_hal.c ****   */
 548:../Drivers/STM32N6xx_HAL_Driver/Src/stm32n6xx_hal.c **** void HAL_DBGMCU_DisableDBGSleepMode(void)
 549:../Drivers/STM32N6xx_HAL_Driver/Src/stm32n6xx_hal.c **** {
 786              		.loc 1 549 1 is_stmt 1 view -0
 787              		.cfi_startproc
 788              		@ args = 0, pretend = 0, frame = 0
 789              		@ frame_needed = 0, uses_anonymous_args = 0
 790              		@ link register save eliminated.
 550:../Drivers/STM32N6xx_HAL_Driver/Src/stm32n6xx_hal.c ****   CLEAR_BIT(DBGMCU->CR, DBGMCU_CR_DBG_SLEEP);
 791              		.loc 1 550 3 view .LVU159
 792 0000 024A     		ldr	r2, .L71
 793 0002 5368     		ldr	r3, [r2, #4]
 794 0004 23F00103 		bic	r3, r3, #1
 795 0008 5360     		str	r3, [r2, #4]
 551:../Drivers/STM32N6xx_HAL_Driver/Src/stm32n6xx_hal.c **** }
 796              		.loc 1 551 1 is_stmt 0 view .LVU160
 797 000a 7047     		bx	lr
 798              	.L72:
 799              		.align	2
 800              	.L71:
 801 000c 00100054 		.word	1409290240
 802              		.cfi_endproc
 803              	.LFE901:
 805              		.section	.text.HAL_DBGMCU_EnableDBGStopMode,"ax",%progbits
 806              		.align	1
 807              		.global	HAL_DBGMCU_EnableDBGStopMode
 808              		.syntax unified
 809              		.thumb
 810              		.thumb_func
 812              	HAL_DBGMCU_EnableDBGStopMode:
 813              	.LFB902:
 552:../Drivers/STM32N6xx_HAL_Driver/Src/stm32n6xx_hal.c **** 
 553:../Drivers/STM32N6xx_HAL_Driver/Src/stm32n6xx_hal.c **** /**
 554:../Drivers/STM32N6xx_HAL_Driver/Src/stm32n6xx_hal.c ****   * @brief  Enable the Debug Module during Stop mode.
 555:../Drivers/STM32N6xx_HAL_Driver/Src/stm32n6xx_hal.c ****   * @retval None
 556:../Drivers/STM32N6xx_HAL_Driver/Src/stm32n6xx_hal.c ****   */
 557:../Drivers/STM32N6xx_HAL_Driver/Src/stm32n6xx_hal.c **** void HAL_DBGMCU_EnableDBGStopMode(void)
 558:../Drivers/STM32N6xx_HAL_Driver/Src/stm32n6xx_hal.c **** {
 814              		.loc 1 558 1 is_stmt 1 view -0
 815              		.cfi_startproc
 816              		@ args = 0, pretend = 0, frame = 0
 817              		@ frame_needed = 0, uses_anonymous_args = 0
 818              		@ link register save eliminated.
 559:../Drivers/STM32N6xx_HAL_Driver/Src/stm32n6xx_hal.c ****   SET_BIT(DBGMCU->CR, DBGMCU_CR_DBG_STOP);
 819              		.loc 1 559 3 view .LVU162
 820 0000 024A     		ldr	r2, .L74
 821 0002 5368     		ldr	r3, [r2, #4]
 822 0004 43F00203 		orr	r3, r3, #2
 823 0008 5360     		str	r3, [r2, #4]
 560:../Drivers/STM32N6xx_HAL_Driver/Src/stm32n6xx_hal.c **** }
 824              		.loc 1 560 1 is_stmt 0 view .LVU163
 825 000a 7047     		bx	lr
 826              	.L75:
 827              		.align	2
 828              	.L74:
 829 000c 00100054 		.word	1409290240
 830              		.cfi_endproc
ARM GAS  /tmp/ccvdUNht.s 			page 26


 831              	.LFE902:
 833              		.section	.text.HAL_DBGMCU_DisableDBGStopMode,"ax",%progbits
 834              		.align	1
 835              		.global	HAL_DBGMCU_DisableDBGStopMode
 836              		.syntax unified
 837              		.thumb
 838              		.thumb_func
 840              	HAL_DBGMCU_DisableDBGStopMode:
 841              	.LFB903:
 561:../Drivers/STM32N6xx_HAL_Driver/Src/stm32n6xx_hal.c **** 
 562:../Drivers/STM32N6xx_HAL_Driver/Src/stm32n6xx_hal.c **** /**
 563:../Drivers/STM32N6xx_HAL_Driver/Src/stm32n6xx_hal.c ****   * @brief  Disable the Debug Module during Stop mode.
 564:../Drivers/STM32N6xx_HAL_Driver/Src/stm32n6xx_hal.c ****   * @retval None
 565:../Drivers/STM32N6xx_HAL_Driver/Src/stm32n6xx_hal.c ****   */
 566:../Drivers/STM32N6xx_HAL_Driver/Src/stm32n6xx_hal.c **** void HAL_DBGMCU_DisableDBGStopMode(void)
 567:../Drivers/STM32N6xx_HAL_Driver/Src/stm32n6xx_hal.c **** {
 842              		.loc 1 567 1 is_stmt 1 view -0
 843              		.cfi_startproc
 844              		@ args = 0, pretend = 0, frame = 0
 845              		@ frame_needed = 0, uses_anonymous_args = 0
 846              		@ link register save eliminated.
 568:../Drivers/STM32N6xx_HAL_Driver/Src/stm32n6xx_hal.c ****   CLEAR_BIT(DBGMCU->CR, DBGMCU_CR_DBG_STOP);
 847              		.loc 1 568 3 view .LVU165
 848 0000 024A     		ldr	r2, .L77
 849 0002 5368     		ldr	r3, [r2, #4]
 850 0004 23F00203 		bic	r3, r3, #2
 851 0008 5360     		str	r3, [r2, #4]
 569:../Drivers/STM32N6xx_HAL_Driver/Src/stm32n6xx_hal.c **** }
 852              		.loc 1 569 1 is_stmt 0 view .LVU166
 853 000a 7047     		bx	lr
 854              	.L78:
 855              		.align	2
 856              	.L77:
 857 000c 00100054 		.word	1409290240
 858              		.cfi_endproc
 859              	.LFE903:
 861              		.section	.text.HAL_DBGMCU_EnableDBGStandbyMode,"ax",%progbits
 862              		.align	1
 863              		.global	HAL_DBGMCU_EnableDBGStandbyMode
 864              		.syntax unified
 865              		.thumb
 866              		.thumb_func
 868              	HAL_DBGMCU_EnableDBGStandbyMode:
 869              	.LFB904:
 570:../Drivers/STM32N6xx_HAL_Driver/Src/stm32n6xx_hal.c **** 
 571:../Drivers/STM32N6xx_HAL_Driver/Src/stm32n6xx_hal.c **** /**
 572:../Drivers/STM32N6xx_HAL_Driver/Src/stm32n6xx_hal.c ****   * @brief  Enable the Debug Module during Stanby mode.
 573:../Drivers/STM32N6xx_HAL_Driver/Src/stm32n6xx_hal.c ****   * @retval None
 574:../Drivers/STM32N6xx_HAL_Driver/Src/stm32n6xx_hal.c ****   */
 575:../Drivers/STM32N6xx_HAL_Driver/Src/stm32n6xx_hal.c **** void HAL_DBGMCU_EnableDBGStandbyMode(void)
 576:../Drivers/STM32N6xx_HAL_Driver/Src/stm32n6xx_hal.c **** {
 870              		.loc 1 576 1 is_stmt 1 view -0
 871              		.cfi_startproc
 872              		@ args = 0, pretend = 0, frame = 0
 873              		@ frame_needed = 0, uses_anonymous_args = 0
 874              		@ link register save eliminated.
 577:../Drivers/STM32N6xx_HAL_Driver/Src/stm32n6xx_hal.c ****   SET_BIT(DBGMCU->CR, DBGMCU_CR_DBG_STANDBY);
ARM GAS  /tmp/ccvdUNht.s 			page 27


 875              		.loc 1 577 3 view .LVU168
 876 0000 024A     		ldr	r2, .L80
 877 0002 5368     		ldr	r3, [r2, #4]
 878 0004 43F00403 		orr	r3, r3, #4
 879 0008 5360     		str	r3, [r2, #4]
 578:../Drivers/STM32N6xx_HAL_Driver/Src/stm32n6xx_hal.c **** }
 880              		.loc 1 578 1 is_stmt 0 view .LVU169
 881 000a 7047     		bx	lr
 882              	.L81:
 883              		.align	2
 884              	.L80:
 885 000c 00100054 		.word	1409290240
 886              		.cfi_endproc
 887              	.LFE904:
 889              		.section	.text.HAL_DBGMCU_DisableDBGStandbyMode,"ax",%progbits
 890              		.align	1
 891              		.global	HAL_DBGMCU_DisableDBGStandbyMode
 892              		.syntax unified
 893              		.thumb
 894              		.thumb_func
 896              	HAL_DBGMCU_DisableDBGStandbyMode:
 897              	.LFB905:
 579:../Drivers/STM32N6xx_HAL_Driver/Src/stm32n6xx_hal.c **** 
 580:../Drivers/STM32N6xx_HAL_Driver/Src/stm32n6xx_hal.c **** /**
 581:../Drivers/STM32N6xx_HAL_Driver/Src/stm32n6xx_hal.c ****   * @brief  Disable the Debug Module during Stanby mode.
 582:../Drivers/STM32N6xx_HAL_Driver/Src/stm32n6xx_hal.c ****   * @retval None
 583:../Drivers/STM32N6xx_HAL_Driver/Src/stm32n6xx_hal.c ****   */
 584:../Drivers/STM32N6xx_HAL_Driver/Src/stm32n6xx_hal.c **** void HAL_DBGMCU_DisableDBGStandbyMode(void)
 585:../Drivers/STM32N6xx_HAL_Driver/Src/stm32n6xx_hal.c **** {
 898              		.loc 1 585 1 is_stmt 1 view -0
 899              		.cfi_startproc
 900              		@ args = 0, pretend = 0, frame = 0
 901              		@ frame_needed = 0, uses_anonymous_args = 0
 902              		@ link register save eliminated.
 586:../Drivers/STM32N6xx_HAL_Driver/Src/stm32n6xx_hal.c ****   CLEAR_BIT(DBGMCU->CR, DBGMCU_CR_DBG_STANDBY);
 903              		.loc 1 586 3 view .LVU171
 904 0000 024A     		ldr	r2, .L83
 905 0002 5368     		ldr	r3, [r2, #4]
 906 0004 23F00403 		bic	r3, r3, #4
 907 0008 5360     		str	r3, [r2, #4]
 587:../Drivers/STM32N6xx_HAL_Driver/Src/stm32n6xx_hal.c **** }
 908              		.loc 1 587 1 is_stmt 0 view .LVU172
 909 000a 7047     		bx	lr
 910              	.L84:
 911              		.align	2
 912              	.L83:
 913 000c 00100054 		.word	1409290240
 914              		.cfi_endproc
 915              	.LFE905:
 917              		.section	.text.HAL_SYSCFG_EnablePullDown,"ax",%progbits
 918              		.align	1
 919              		.global	HAL_SYSCFG_EnablePullDown
 920              		.syntax unified
 921              		.thumb
 922              		.thumb_func
 924              	HAL_SYSCFG_EnablePullDown:
 925              	.LVL24:
ARM GAS  /tmp/ccvdUNht.s 			page 28


 926              	.LFB906:
 588:../Drivers/STM32N6xx_HAL_Driver/Src/stm32n6xx_hal.c **** 
 589:../Drivers/STM32N6xx_HAL_Driver/Src/stm32n6xx_hal.c **** /**
 590:../Drivers/STM32N6xx_HAL_Driver/Src/stm32n6xx_hal.c ****   * @}
 591:../Drivers/STM32N6xx_HAL_Driver/Src/stm32n6xx_hal.c ****   */
 592:../Drivers/STM32N6xx_HAL_Driver/Src/stm32n6xx_hal.c **** 
 593:../Drivers/STM32N6xx_HAL_Driver/Src/stm32n6xx_hal.c **** /** @defgroup HAL_Exported_Functions_Group4 HAL SYSCFG configuration functions
 594:../Drivers/STM32N6xx_HAL_Driver/Src/stm32n6xx_hal.c ****   *  @brief    HAL SYSCFG configuration functions
 595:../Drivers/STM32N6xx_HAL_Driver/Src/stm32n6xx_hal.c ****   *
 596:../Drivers/STM32N6xx_HAL_Driver/Src/stm32n6xx_hal.c **** @verbatim
 597:../Drivers/STM32N6xx_HAL_Driver/Src/stm32n6xx_hal.c ****  ===============================================================================
 598:../Drivers/STM32N6xx_HAL_Driver/Src/stm32n6xx_hal.c ****                       ##### HAL SYSCFG configuration functions #####
 599:../Drivers/STM32N6xx_HAL_Driver/Src/stm32n6xx_hal.c ****  ===============================================================================
 600:../Drivers/STM32N6xx_HAL_Driver/Src/stm32n6xx_hal.c ****     [..]  This section provides functions allowing to:
 601:../Drivers/STM32N6xx_HAL_Driver/Src/stm32n6xx_hal.c ****       (+) Enable or disable BOOT pins pull-down.
 602:../Drivers/STM32N6xx_HAL_Driver/Src/stm32n6xx_hal.c ****       (+) Lock and get locks status of system items.
 603:../Drivers/STM32N6xx_HAL_Driver/Src/stm32n6xx_hal.c ****       (+) Set (and get) TCM size and DTCM size.
 604:../Drivers/STM32N6xx_HAL_Driver/Src/stm32n6xx_hal.c ****       (+) Lock (and get) write accesses.
 605:../Drivers/STM32N6xx_HAL_Driver/Src/stm32n6xx_hal.c ****       (+) Enable or disable wait state on extended ITCM and DTCM.
 606:../Drivers/STM32N6xx_HAL_Driver/Src/stm32n6xx_hal.c ****       (+) Enable or disable external RW margin input for TCM memories.
 607:../Drivers/STM32N6xx_HAL_Driver/Src/stm32n6xx_hal.c ****       (+) Set and get the TCM biasing level.
 608:../Drivers/STM32N6xx_HAL_Driver/Src/stm32n6xx_hal.c ****       (+) Enable or disable the external RW for caches memories.
 609:../Drivers/STM32N6xx_HAL_Driver/Src/stm32n6xx_hal.c ****       (+) Set and get the cache biasing level.
 610:../Drivers/STM32N6xx_HAL_Driver/Src/stm32n6xx_hal.c ****       (+) Enable or disable the Power-on reset upon SW system request.
 611:../Drivers/STM32N6xx_HAL_Driver/Src/stm32n6xx_hal.c ****       (+) Enable or disable that Lockup requests a warm reset to the RCC
 612:../Drivers/STM32N6xx_HAL_Driver/Src/stm32n6xx_hal.c ****       (+) Enable or disable that Lockup generates a NMI on the core
 613:../Drivers/STM32N6xx_HAL_Driver/Src/stm32n6xx_hal.c ****       (+) Clear Error capture in write posting buffer
 614:../Drivers/STM32N6xx_HAL_Driver/Src/stm32n6xx_hal.c ****       (+) Reserve VENCRAM for VENC or release it (any use allowed)
 615:../Drivers/STM32N6xx_HAL_Driver/Src/stm32n6xx_hal.c ****       (+) Enable or disable PKA, SAES, CRYP1/2 and HASH reset in case of potential tamper
 616:../Drivers/STM32N6xx_HAL_Driver/Src/stm32n6xx_hal.c ****       (+) Set/Get write/read Qos for NP1, NP2 or CPU.
 617:../Drivers/STM32N6xx_HAL_Driver/Src/stm32n6xx_hal.c ****       (+) Enable or disable SDMMC early-write response.
 618:../Drivers/STM32N6xx_HAL_Driver/Src/stm32n6xx_hal.c ****       (+) Enable or disable USB early-write response.
 619:../Drivers/STM32N6xx_HAL_Driver/Src/stm32n6xx_hal.c ****       (+) Enable or disable the NPU NIC, NPU NOC or CPU NOC clock gating.
 620:../Drivers/STM32N6xx_HAL_Driver/Src/stm32n6xx_hal.c ****       (+) Enable or disable the VDDIOx compensation cell.
 621:../Drivers/STM32N6xx_HAL_Driver/Src/stm32n6xx_hal.c ****       (+) Configure or get VDDIOx compensation cells.
 622:../Drivers/STM32N6xx_HAL_Driver/Src/stm32n6xx_hal.c ****       (+) Get VDDIOx compensation ready status.
 623:../Drivers/STM32N6xx_HAL_Driver/Src/stm32n6xx_hal.c ****       (+) Enable or disable the VDD compensation cell.
 624:../Drivers/STM32N6xx_HAL_Driver/Src/stm32n6xx_hal.c ****       (+) Configure or get VDD compensation cells.
 625:../Drivers/STM32N6xx_HAL_Driver/Src/stm32n6xx_hal.c ****       (+) Configure or get the Timer Break input for error flag
 626:../Drivers/STM32N6xx_HAL_Driver/Src/stm32n6xx_hal.c ****       (+) Set and get secure OS allocation of specific CID to the DMA channel
 627:../Drivers/STM32N6xx_HAL_Driver/Src/stm32n6xx_hal.c ****       (+) Set and get non-secure OS allocation of specific CID to the DMA channel
 628:../Drivers/STM32N6xx_HAL_Driver/Src/stm32n6xx_hal.c ****       (+) Enable or disable Retiming on RX path.
 629:../Drivers/STM32N6xx_HAL_Driver/Src/stm32n6xx_hal.c ****       (+) Enable or disable Retiming on TX path.
 630:../Drivers/STM32N6xx_HAL_Driver/Src/stm32n6xx_hal.c ****       (+) Set and get Delay on feedback clock.
 631:../Drivers/STM32N6xx_HAL_Driver/Src/stm32n6xx_hal.c ****       (+) Enable or disable the interleaving on NPU RAM.
 632:../Drivers/STM32N6xx_HAL_Driver/Src/stm32n6xx_hal.c ****       (+) Get BOOT pin connection status
 633:../Drivers/STM32N6xx_HAL_Driver/Src/stm32n6xx_hal.c ****       (+) Get the address of first error in P-AHB write-posting buffer
 634:../Drivers/STM32N6xx_HAL_Driver/Src/stm32n6xx_hal.c **** 
 635:../Drivers/STM32N6xx_HAL_Driver/Src/stm32n6xx_hal.c **** @endverbatim
 636:../Drivers/STM32N6xx_HAL_Driver/Src/stm32n6xx_hal.c ****   * @{
 637:../Drivers/STM32N6xx_HAL_Driver/Src/stm32n6xx_hal.c ****   */
 638:../Drivers/STM32N6xx_HAL_Driver/Src/stm32n6xx_hal.c **** 
 639:../Drivers/STM32N6xx_HAL_Driver/Src/stm32n6xx_hal.c **** /**
 640:../Drivers/STM32N6xx_HAL_Driver/Src/stm32n6xx_hal.c ****   * @brief  Enable the Pull Down on BOOT pin.
 641:../Drivers/STM32N6xx_HAL_Driver/Src/stm32n6xx_hal.c ****   * @param  BootId Specifies the boot pins.
 642:../Drivers/STM32N6xx_HAL_Driver/Src/stm32n6xx_hal.c ****   *         This parameter can one of the following values:
 643:../Drivers/STM32N6xx_HAL_Driver/Src/stm32n6xx_hal.c ****   *            @arg SYSCFG_BOOT_0 boot 0 pin
ARM GAS  /tmp/ccvdUNht.s 			page 29


 644:../Drivers/STM32N6xx_HAL_Driver/Src/stm32n6xx_hal.c ****   *            @arg SYSCFG_BOOT_1 boot 1 pin
 645:../Drivers/STM32N6xx_HAL_Driver/Src/stm32n6xx_hal.c ****   * @retval None
 646:../Drivers/STM32N6xx_HAL_Driver/Src/stm32n6xx_hal.c ****   */
 647:../Drivers/STM32N6xx_HAL_Driver/Src/stm32n6xx_hal.c **** void HAL_SYSCFG_EnablePullDown(uint32_t BootId)
 648:../Drivers/STM32N6xx_HAL_Driver/Src/stm32n6xx_hal.c **** {
 927              		.loc 1 648 1 is_stmt 1 view -0
 928              		.cfi_startproc
 929              		@ args = 0, pretend = 0, frame = 0
 930              		@ frame_needed = 0, uses_anonymous_args = 0
 931              		@ link register save eliminated.
 649:../Drivers/STM32N6xx_HAL_Driver/Src/stm32n6xx_hal.c ****   /* Check the parameters */
 650:../Drivers/STM32N6xx_HAL_Driver/Src/stm32n6xx_hal.c ****   assert_param(IS_SYSCFG_BOOT_ID(BootId));
 932              		.loc 1 650 3 view .LVU174
 651:../Drivers/STM32N6xx_HAL_Driver/Src/stm32n6xx_hal.c **** 
 652:../Drivers/STM32N6xx_HAL_Driver/Src/stm32n6xx_hal.c ****   SET_BIT(SYSCFG->BOOTCR, BootId);
 933              		.loc 1 652 3 view .LVU175
 934 0000 024A     		ldr	r2, .L86
 935 0002 1368     		ldr	r3, [r2]
 936 0004 0343     		orrs	r3, r3, r0
 937 0006 1360     		str	r3, [r2]
 653:../Drivers/STM32N6xx_HAL_Driver/Src/stm32n6xx_hal.c **** }
 938              		.loc 1 653 1 is_stmt 0 view .LVU176
 939 0008 7047     		bx	lr
 940              	.L87:
 941 000a 00BF     		.align	2
 942              	.L86:
 943 000c 00800056 		.word	1442873344
 944              		.cfi_endproc
 945              	.LFE906:
 947              		.section	.text.HAL_SYSCFG_DisablePullDown,"ax",%progbits
 948              		.align	1
 949              		.global	HAL_SYSCFG_DisablePullDown
 950              		.syntax unified
 951              		.thumb
 952              		.thumb_func
 954              	HAL_SYSCFG_DisablePullDown:
 955              	.LVL25:
 956              	.LFB907:
 654:../Drivers/STM32N6xx_HAL_Driver/Src/stm32n6xx_hal.c **** 
 655:../Drivers/STM32N6xx_HAL_Driver/Src/stm32n6xx_hal.c **** /**
 656:../Drivers/STM32N6xx_HAL_Driver/Src/stm32n6xx_hal.c ****   * @brief  Disable the Pull Down on BOOT pin.
 657:../Drivers/STM32N6xx_HAL_Driver/Src/stm32n6xx_hal.c ****   * @param  BootId Specifies the boot pins.
 658:../Drivers/STM32N6xx_HAL_Driver/Src/stm32n6xx_hal.c ****   *         This parameter can one of the following values:
 659:../Drivers/STM32N6xx_HAL_Driver/Src/stm32n6xx_hal.c ****   *            @arg SYSCFG_BOOT_0 boot 0 pin
 660:../Drivers/STM32N6xx_HAL_Driver/Src/stm32n6xx_hal.c ****   *            @arg SYSCFG_BOOT_1 boot 1 pin
 661:../Drivers/STM32N6xx_HAL_Driver/Src/stm32n6xx_hal.c ****   * @retval None
 662:../Drivers/STM32N6xx_HAL_Driver/Src/stm32n6xx_hal.c ****   */
 663:../Drivers/STM32N6xx_HAL_Driver/Src/stm32n6xx_hal.c **** void HAL_SYSCFG_DisablePullDown(uint32_t BootId)
 664:../Drivers/STM32N6xx_HAL_Driver/Src/stm32n6xx_hal.c **** {
 957              		.loc 1 664 1 is_stmt 1 view -0
 958              		.cfi_startproc
 959              		@ args = 0, pretend = 0, frame = 0
 960              		@ frame_needed = 0, uses_anonymous_args = 0
 961              		@ link register save eliminated.
 665:../Drivers/STM32N6xx_HAL_Driver/Src/stm32n6xx_hal.c ****   /* Check the parameters */
 666:../Drivers/STM32N6xx_HAL_Driver/Src/stm32n6xx_hal.c ****   assert_param(IS_SYSCFG_BOOT_ID(BootId));
 962              		.loc 1 666 3 view .LVU178
ARM GAS  /tmp/ccvdUNht.s 			page 30


 667:../Drivers/STM32N6xx_HAL_Driver/Src/stm32n6xx_hal.c **** 
 668:../Drivers/STM32N6xx_HAL_Driver/Src/stm32n6xx_hal.c ****   CLEAR_BIT(SYSCFG->BOOTCR, BootId);
 963              		.loc 1 668 3 view .LVU179
 964 0000 024A     		ldr	r2, .L89
 965 0002 1368     		ldr	r3, [r2]
 966 0004 23EA0003 		bic	r3, r3, r0
 967 0008 1360     		str	r3, [r2]
 669:../Drivers/STM32N6xx_HAL_Driver/Src/stm32n6xx_hal.c **** }
 968              		.loc 1 669 1 is_stmt 0 view .LVU180
 969 000a 7047     		bx	lr
 970              	.L90:
 971              		.align	2
 972              	.L89:
 973 000c 00800056 		.word	1442873344
 974              		.cfi_endproc
 975              	.LFE907:
 977              		.section	.text.HAL_SYSCFG_Lock,"ax",%progbits
 978              		.align	1
 979              		.global	HAL_SYSCFG_Lock
 980              		.syntax unified
 981              		.thumb
 982              		.thumb_func
 984              	HAL_SYSCFG_Lock:
 985              	.LVL26:
 986              	.LFB908:
 670:../Drivers/STM32N6xx_HAL_Driver/Src/stm32n6xx_hal.c **** 
 671:../Drivers/STM32N6xx_HAL_Driver/Src/stm32n6xx_hal.c **** /**
 672:../Drivers/STM32N6xx_HAL_Driver/Src/stm32n6xx_hal.c ****   * @brief  Lock the SYSCFG item(s).
 673:../Drivers/STM32N6xx_HAL_Driver/Src/stm32n6xx_hal.c ****   * @note   Lock(s) cleared only at system reset
 674:../Drivers/STM32N6xx_HAL_Driver/Src/stm32n6xx_hal.c ****   * @param  Item Item(s) to set lock on.
 675:../Drivers/STM32N6xx_HAL_Driver/Src/stm32n6xx_hal.c ****   *         This parameter can be a combination of @ref SYSCFG_Lock_items
 676:../Drivers/STM32N6xx_HAL_Driver/Src/stm32n6xx_hal.c ****   * @retval None
 677:../Drivers/STM32N6xx_HAL_Driver/Src/stm32n6xx_hal.c ****   */
 678:../Drivers/STM32N6xx_HAL_Driver/Src/stm32n6xx_hal.c **** void HAL_SYSCFG_Lock(uint32_t Item)
 679:../Drivers/STM32N6xx_HAL_Driver/Src/stm32n6xx_hal.c **** {
 987              		.loc 1 679 1 is_stmt 1 view -0
 988              		.cfi_startproc
 989              		@ args = 0, pretend = 0, frame = 0
 990              		@ frame_needed = 0, uses_anonymous_args = 0
 991              		@ link register save eliminated.
 680:../Drivers/STM32N6xx_HAL_Driver/Src/stm32n6xx_hal.c ****   /* Check the parameters */
 681:../Drivers/STM32N6xx_HAL_Driver/Src/stm32n6xx_hal.c ****   assert_param(IS_SYSCFG_LOCK_ITEMS(Item));
 992              		.loc 1 681 3 view .LVU182
 682:../Drivers/STM32N6xx_HAL_Driver/Src/stm32n6xx_hal.c **** 
 683:../Drivers/STM32N6xx_HAL_Driver/Src/stm32n6xx_hal.c ****   MODIFY_REG(SYSCFG->CM55CR, SYSCFG_LOCK_ALL, Item);
 993              		.loc 1 683 3 view .LVU183
 994 0000 034A     		ldr	r2, .L92
 995 0002 5368     		ldr	r3, [r2, #4]
 996 0004 23F47C13 		bic	r3, r3, #4128768
 997 0008 0343     		orrs	r3, r3, r0
 998 000a 5360     		str	r3, [r2, #4]
 684:../Drivers/STM32N6xx_HAL_Driver/Src/stm32n6xx_hal.c **** }
 999              		.loc 1 684 1 is_stmt 0 view .LVU184
 1000 000c 7047     		bx	lr
 1001              	.L93:
 1002 000e 00BF     		.align	2
 1003              	.L92:
ARM GAS  /tmp/ccvdUNht.s 			page 31


 1004 0010 00800056 		.word	1442873344
 1005              		.cfi_endproc
 1006              	.LFE908:
 1008              		.section	.text.HAL_SYSCFG_GetLock,"ax",%progbits
 1009              		.align	1
 1010              		.global	HAL_SYSCFG_GetLock
 1011              		.syntax unified
 1012              		.thumb
 1013              		.thumb_func
 1015              	HAL_SYSCFG_GetLock:
 1016              	.LVL27:
 1017              	.LFB909:
 685:../Drivers/STM32N6xx_HAL_Driver/Src/stm32n6xx_hal.c **** 
 686:../Drivers/STM32N6xx_HAL_Driver/Src/stm32n6xx_hal.c **** /**
 687:../Drivers/STM32N6xx_HAL_Driver/Src/stm32n6xx_hal.c ****   * @brief  Get the lock state of SYSCFG item.
 688:../Drivers/STM32N6xx_HAL_Driver/Src/stm32n6xx_hal.c ****   * @param  pItem Pointer to return locked items
 689:../Drivers/STM32N6xx_HAL_Driver/Src/stm32n6xx_hal.c ****   *         the return value can be a combination of @ref SYSCFG_Lock_items
 690:../Drivers/STM32N6xx_HAL_Driver/Src/stm32n6xx_hal.c ****   * @retval HAL status
 691:../Drivers/STM32N6xx_HAL_Driver/Src/stm32n6xx_hal.c ****   */
 692:../Drivers/STM32N6xx_HAL_Driver/Src/stm32n6xx_hal.c **** HAL_StatusTypeDef HAL_SYSCFG_GetLock(uint32_t *pItem)
 693:../Drivers/STM32N6xx_HAL_Driver/Src/stm32n6xx_hal.c **** {
 1018              		.loc 1 693 1 is_stmt 1 view -0
 1019              		.cfi_startproc
 1020              		@ args = 0, pretend = 0, frame = 0
 1021              		@ frame_needed = 0, uses_anonymous_args = 0
 1022              		@ link register save eliminated.
 694:../Drivers/STM32N6xx_HAL_Driver/Src/stm32n6xx_hal.c ****   /* Check null pointer */
 695:../Drivers/STM32N6xx_HAL_Driver/Src/stm32n6xx_hal.c ****   if (pItem == NULL)
 1023              		.loc 1 695 3 view .LVU186
 1024              		.loc 1 695 6 is_stmt 0 view .LVU187
 1025 0000 30B1     		cbz	r0, .L96
 696:../Drivers/STM32N6xx_HAL_Driver/Src/stm32n6xx_hal.c ****   {
 697:../Drivers/STM32N6xx_HAL_Driver/Src/stm32n6xx_hal.c ****     return HAL_ERROR;
 698:../Drivers/STM32N6xx_HAL_Driver/Src/stm32n6xx_hal.c ****   }
 699:../Drivers/STM32N6xx_HAL_Driver/Src/stm32n6xx_hal.c **** 
 700:../Drivers/STM32N6xx_HAL_Driver/Src/stm32n6xx_hal.c ****   /* Get the non-secure lock state */
 701:../Drivers/STM32N6xx_HAL_Driver/Src/stm32n6xx_hal.c ****   *pItem = READ_BIT(SYSCFG->CM55CR, SYSCFG_LOCK_ALL);
 1026              		.loc 1 701 3 is_stmt 1 view .LVU188
 1027              		.loc 1 701 12 is_stmt 0 view .LVU189
 1028 0002 044B     		ldr	r3, .L97
 1029 0004 5B68     		ldr	r3, [r3, #4]
 1030 0006 03F47C13 		and	r3, r3, #4128768
 1031              		.loc 1 701 10 view .LVU190
 1032 000a 0360     		str	r3, [r0]
 702:../Drivers/STM32N6xx_HAL_Driver/Src/stm32n6xx_hal.c **** 
 703:../Drivers/STM32N6xx_HAL_Driver/Src/stm32n6xx_hal.c ****   return HAL_OK;
 1033              		.loc 1 703 3 is_stmt 1 view .LVU191
 1034              		.loc 1 703 10 is_stmt 0 view .LVU192
 1035 000c 0020     		movs	r0, #0
 1036              	.LVL28:
 1037              		.loc 1 703 10 view .LVU193
 1038 000e 7047     		bx	lr
 1039              	.LVL29:
 1040              	.L96:
 697:../Drivers/STM32N6xx_HAL_Driver/Src/stm32n6xx_hal.c ****   }
 1041              		.loc 1 697 12 view .LVU194
 1042 0010 0120     		movs	r0, #1
ARM GAS  /tmp/ccvdUNht.s 			page 32


 1043              	.LVL30:
 704:../Drivers/STM32N6xx_HAL_Driver/Src/stm32n6xx_hal.c **** }
 1044              		.loc 1 704 1 view .LVU195
 1045 0012 7047     		bx	lr
 1046              	.L98:
 1047              		.align	2
 1048              	.L97:
 1049 0014 00800056 		.word	1442873344
 1050              		.cfi_endproc
 1051              	.LFE909:
 1053              		.section	.text.HAL_SYSCFG_SetTCMSize,"ax",%progbits
 1054              		.align	1
 1055              		.global	HAL_SYSCFG_SetTCMSize
 1056              		.syntax unified
 1057              		.thumb
 1058              		.thumb_func
 1060              	HAL_SYSCFG_SetTCMSize:
 1061              	.LVL31:
 1062              	.LFB910:
 705:../Drivers/STM32N6xx_HAL_Driver/Src/stm32n6xx_hal.c **** 
 706:../Drivers/STM32N6xx_HAL_Driver/Src/stm32n6xx_hal.c **** /**
 707:../Drivers/STM32N6xx_HAL_Driver/Src/stm32n6xx_hal.c ****   * @brief  Set the DTCM and ITCM memory sizes.
 708:../Drivers/STM32N6xx_HAL_Driver/Src/stm32n6xx_hal.c ****   * @note   Write-once TCM configuration change.
 709:../Drivers/STM32N6xx_HAL_Driver/Src/stm32n6xx_hal.c ****   * @note   Effective change applied upon new power-on reset by calling
 710:../Drivers/STM32N6xx_HAL_Driver/Src/stm32n6xx_hal.c ****   *         HAL_SYSCFG_EnablePowerOnReset() and NVIC_SystemReset()
 711:../Drivers/STM32N6xx_HAL_Driver/Src/stm32n6xx_hal.c ****   * @param  DtcmSize DTCM memory size
 712:../Drivers/STM32N6xx_HAL_Driver/Src/stm32n6xx_hal.c ****   *         This parameter can one of the following values:
 713:../Drivers/STM32N6xx_HAL_Driver/Src/stm32n6xx_hal.c ****   *            @arg SYSCFG_DTCM_128K 128K
 714:../Drivers/STM32N6xx_HAL_Driver/Src/stm32n6xx_hal.c ****   *            @arg SYSCFG_DTCM_256K 256K
 715:../Drivers/STM32N6xx_HAL_Driver/Src/stm32n6xx_hal.c ****   * @param  ItcmSize ITCM memory size
 716:../Drivers/STM32N6xx_HAL_Driver/Src/stm32n6xx_hal.c ****   *         This parameter can one of the following values:
 717:../Drivers/STM32N6xx_HAL_Driver/Src/stm32n6xx_hal.c ****   *            @arg SYSCFG_ITCM_64K  64K
 718:../Drivers/STM32N6xx_HAL_Driver/Src/stm32n6xx_hal.c ****   *            @arg SYSCFG_ITCM_128K 128K
 719:../Drivers/STM32N6xx_HAL_Driver/Src/stm32n6xx_hal.c ****   *            @arg SYSCFG_ITCM_256K 256K
 720:../Drivers/STM32N6xx_HAL_Driver/Src/stm32n6xx_hal.c ****   * @retval None
 721:../Drivers/STM32N6xx_HAL_Driver/Src/stm32n6xx_hal.c ****   */
 722:../Drivers/STM32N6xx_HAL_Driver/Src/stm32n6xx_hal.c **** void HAL_SYSCFG_SetTCMSize(uint32_t DtcmSize, uint32_t ItcmSize)
 723:../Drivers/STM32N6xx_HAL_Driver/Src/stm32n6xx_hal.c **** {
 1063              		.loc 1 723 1 is_stmt 1 view -0
 1064              		.cfi_startproc
 1065              		@ args = 0, pretend = 0, frame = 0
 1066              		@ frame_needed = 0, uses_anonymous_args = 0
 1067              		@ link register save eliminated.
 724:../Drivers/STM32N6xx_HAL_Driver/Src/stm32n6xx_hal.c ****   /* Check the parameters */
 725:../Drivers/STM32N6xx_HAL_Driver/Src/stm32n6xx_hal.c ****   assert_param(IS_SYSCFG_DTCM_SIZE(DtcmSize));
 1068              		.loc 1 725 3 view .LVU197
 726:../Drivers/STM32N6xx_HAL_Driver/Src/stm32n6xx_hal.c ****   assert_param(IS_SYSCFG_ITCM_SIZE(ItcmSize));
 1069              		.loc 1 726 3 view .LVU198
 727:../Drivers/STM32N6xx_HAL_Driver/Src/stm32n6xx_hal.c **** 
 728:../Drivers/STM32N6xx_HAL_Driver/Src/stm32n6xx_hal.c ****   MODIFY_REG(SYSCFG->CM55TCMCR, SYSCFG_CM55TCMCR_CFGDTCMSZ | SYSCFG_CM55TCMCR_CFGITCMSZ, DtcmSize |
 1070              		.loc 1 728 3 view .LVU199
 1071 0000 034A     		ldr	r2, .L100
 1072 0002 9368     		ldr	r3, [r2, #8]
 1073 0004 23F0FF03 		bic	r3, r3, #255
 1074 0008 0843     		orrs	r0, r0, r1
 1075              	.LVL32:
 1076              		.loc 1 728 3 is_stmt 0 view .LVU200
ARM GAS  /tmp/ccvdUNht.s 			page 33


 1077 000a 0343     		orrs	r3, r3, r0
 1078 000c 9360     		str	r3, [r2, #8]
 729:../Drivers/STM32N6xx_HAL_Driver/Src/stm32n6xx_hal.c **** }
 1079              		.loc 1 729 1 view .LVU201
 1080 000e 7047     		bx	lr
 1081              	.L101:
 1082              		.align	2
 1083              	.L100:
 1084 0010 00800056 		.word	1442873344
 1085              		.cfi_endproc
 1086              	.LFE910:
 1088              		.section	.text.HAL_SYSCFG_GetTCMSize,"ax",%progbits
 1089              		.align	1
 1090              		.global	HAL_SYSCFG_GetTCMSize
 1091              		.syntax unified
 1092              		.thumb
 1093              		.thumb_func
 1095              	HAL_SYSCFG_GetTCMSize:
 1096              	.LVL33:
 1097              	.LFB911:
 730:../Drivers/STM32N6xx_HAL_Driver/Src/stm32n6xx_hal.c **** 
 731:../Drivers/STM32N6xx_HAL_Driver/Src/stm32n6xx_hal.c **** /**
 732:../Drivers/STM32N6xx_HAL_Driver/Src/stm32n6xx_hal.c ****   * @brief  Get the DTCM and ITCM memory sizes.
 733:../Drivers/STM32N6xx_HAL_Driver/Src/stm32n6xx_hal.c ****   * @param  pDtcmSize Pointer to return DTCM memory size
 734:../Drivers/STM32N6xx_HAL_Driver/Src/stm32n6xx_hal.c ****   *         This return value can be one of
 735:../Drivers/STM32N6xx_HAL_Driver/Src/stm32n6xx_hal.c ****   *            @arg SYSCFG_DTCM_128K 128K
 736:../Drivers/STM32N6xx_HAL_Driver/Src/stm32n6xx_hal.c ****   *            @arg SYSCFG_DTCM_256K 256K
 737:../Drivers/STM32N6xx_HAL_Driver/Src/stm32n6xx_hal.c ****   * @param  pItcmSize Pointer to return ITCM memory size
 738:../Drivers/STM32N6xx_HAL_Driver/Src/stm32n6xx_hal.c ****   *         This return value can be one of
 739:../Drivers/STM32N6xx_HAL_Driver/Src/stm32n6xx_hal.c ****   *            @arg SYSCFG_ITCM_64K  64K
 740:../Drivers/STM32N6xx_HAL_Driver/Src/stm32n6xx_hal.c ****   *            @arg SYSCFG_ITCM_128K 128K
 741:../Drivers/STM32N6xx_HAL_Driver/Src/stm32n6xx_hal.c ****   *            @arg SYSCFG_ITCM_256K 256K
 742:../Drivers/STM32N6xx_HAL_Driver/Src/stm32n6xx_hal.c ****   * @retval HAL status
 743:../Drivers/STM32N6xx_HAL_Driver/Src/stm32n6xx_hal.c ****    */
 744:../Drivers/STM32N6xx_HAL_Driver/Src/stm32n6xx_hal.c **** HAL_StatusTypeDef HAL_SYSCFG_GetTCMSize(uint32_t *pDtcmSize, uint32_t *pItcmSize)
 745:../Drivers/STM32N6xx_HAL_Driver/Src/stm32n6xx_hal.c **** {
 1098              		.loc 1 745 1 is_stmt 1 view -0
 1099              		.cfi_startproc
 1100              		@ args = 0, pretend = 0, frame = 0
 1101              		@ frame_needed = 0, uses_anonymous_args = 0
 1102              		@ link register save eliminated.
 746:../Drivers/STM32N6xx_HAL_Driver/Src/stm32n6xx_hal.c ****   uint32_t values;
 1103              		.loc 1 746 3 view .LVU203
 747:../Drivers/STM32N6xx_HAL_Driver/Src/stm32n6xx_hal.c **** 
 748:../Drivers/STM32N6xx_HAL_Driver/Src/stm32n6xx_hal.c ****   /* Check null pointer */
 749:../Drivers/STM32N6xx_HAL_Driver/Src/stm32n6xx_hal.c ****   if ((pDtcmSize == NULL) || (pItcmSize == NULL))
 1104              		.loc 1 749 3 view .LVU204
 1105              		.loc 1 749 6 is_stmt 0 view .LVU205
 1106 0000 0246     		mov	r2, r0
 1107 0002 50B1     		cbz	r0, .L103
 1108              		.loc 1 749 27 discriminator 1 view .LVU206
 1109 0004 49B1     		cbz	r1, .L103
 750:../Drivers/STM32N6xx_HAL_Driver/Src/stm32n6xx_hal.c ****   {
 751:../Drivers/STM32N6xx_HAL_Driver/Src/stm32n6xx_hal.c ****     return HAL_ERROR;
 752:../Drivers/STM32N6xx_HAL_Driver/Src/stm32n6xx_hal.c ****   }
 753:../Drivers/STM32N6xx_HAL_Driver/Src/stm32n6xx_hal.c **** 
 754:../Drivers/STM32N6xx_HAL_Driver/Src/stm32n6xx_hal.c ****   values = READ_REG(SYSCFG->CM55TCMCR);
ARM GAS  /tmp/ccvdUNht.s 			page 34


 1110              		.loc 1 754 3 is_stmt 1 view .LVU207
 1111              		.loc 1 754 10 is_stmt 0 view .LVU208
 1112 0006 064B     		ldr	r3, .L106
 1113 0008 9B68     		ldr	r3, [r3, #8]
 1114              	.LVL34:
 755:../Drivers/STM32N6xx_HAL_Driver/Src/stm32n6xx_hal.c ****   *pDtcmSize = (values & 0xF0U);
 1115              		.loc 1 755 3 is_stmt 1 view .LVU209
 1116              		.loc 1 755 24 is_stmt 0 view .LVU210
 1117 000a 03F0F000 		and	r0, r3, #240
 1118              	.LVL35:
 1119              		.loc 1 755 14 view .LVU211
 1120 000e 1060     		str	r0, [r2]
 756:../Drivers/STM32N6xx_HAL_Driver/Src/stm32n6xx_hal.c ****   *pItcmSize = (values & 0xFU);
 1121              		.loc 1 756 3 is_stmt 1 view .LVU212
 1122              		.loc 1 756 24 is_stmt 0 view .LVU213
 1123 0010 03F00F03 		and	r3, r3, #15
 1124              	.LVL36:
 1125              		.loc 1 756 14 view .LVU214
 1126 0014 0B60     		str	r3, [r1]
 757:../Drivers/STM32N6xx_HAL_Driver/Src/stm32n6xx_hal.c **** 
 758:../Drivers/STM32N6xx_HAL_Driver/Src/stm32n6xx_hal.c ****   return HAL_OK;
 1127              		.loc 1 758 3 is_stmt 1 view .LVU215
 1128              		.loc 1 758 10 is_stmt 0 view .LVU216
 1129 0016 0020     		movs	r0, #0
 759:../Drivers/STM32N6xx_HAL_Driver/Src/stm32n6xx_hal.c **** }
 1130              		.loc 1 759 1 view .LVU217
 1131 0018 7047     		bx	lr
 1132              	.LVL37:
 1133              	.L103:
 751:../Drivers/STM32N6xx_HAL_Driver/Src/stm32n6xx_hal.c ****   }
 1134              		.loc 1 751 12 view .LVU218
 1135 001a 0120     		movs	r0, #1
 1136              	.LVL38:
 751:../Drivers/STM32N6xx_HAL_Driver/Src/stm32n6xx_hal.c ****   }
 1137              		.loc 1 751 12 view .LVU219
 1138 001c 7047     		bx	lr
 1139              	.L107:
 1140 001e 00BF     		.align	2
 1141              	.L106:
 1142 0020 00800056 		.word	1442873344
 1143              		.cfi_endproc
 1144              	.LFE911:
 1146              		.section	.text.HAL_SYSCFG_LockWriteAccess,"ax",%progbits
 1147              		.align	1
 1148              		.global	HAL_SYSCFG_LockWriteAccess
 1149              		.syntax unified
 1150              		.thumb
 1151              		.thumb_func
 1153              	HAL_SYSCFG_LockWriteAccess:
 1154              	.LVL39:
 1155              	.LFB912:
 760:../Drivers/STM32N6xx_HAL_Driver/Src/stm32n6xx_hal.c **** 
 761:../Drivers/STM32N6xx_HAL_Driver/Src/stm32n6xx_hal.c **** /**
 762:../Drivers/STM32N6xx_HAL_Driver/Src/stm32n6xx_hal.c ****   * @brief  Lock the SYSCFG write access item(s).
 763:../Drivers/STM32N6xx_HAL_Driver/Src/stm32n6xx_hal.c ****   * @note   Lock(s) cleared only at system reset
 764:../Drivers/STM32N6xx_HAL_Driver/Src/stm32n6xx_hal.c ****   * @param  Item Item(s) to set lock on.
 765:../Drivers/STM32N6xx_HAL_Driver/Src/stm32n6xx_hal.c ****   *         This parameter can be a combination of @ref SYSCFG_WRITE_access
ARM GAS  /tmp/ccvdUNht.s 			page 35


 766:../Drivers/STM32N6xx_HAL_Driver/Src/stm32n6xx_hal.c ****   * @retval None
 767:../Drivers/STM32N6xx_HAL_Driver/Src/stm32n6xx_hal.c ****   */
 768:../Drivers/STM32N6xx_HAL_Driver/Src/stm32n6xx_hal.c **** void HAL_SYSCFG_LockWriteAccess(uint32_t Item)
 769:../Drivers/STM32N6xx_HAL_Driver/Src/stm32n6xx_hal.c **** {
 1156              		.loc 1 769 1 is_stmt 1 view -0
 1157              		.cfi_startproc
 1158              		@ args = 0, pretend = 0, frame = 0
 1159              		@ frame_needed = 0, uses_anonymous_args = 0
 1160              		@ link register save eliminated.
 770:../Drivers/STM32N6xx_HAL_Driver/Src/stm32n6xx_hal.c ****   /* Check the parameters */
 771:../Drivers/STM32N6xx_HAL_Driver/Src/stm32n6xx_hal.c ****   assert_param(IS_SYSCFG_LOCK_WRACCESS(Item));
 1161              		.loc 1 771 3 view .LVU221
 772:../Drivers/STM32N6xx_HAL_Driver/Src/stm32n6xx_hal.c **** 
 773:../Drivers/STM32N6xx_HAL_Driver/Src/stm32n6xx_hal.c ****   MODIFY_REG(SYSCFG->CM55TCMCR, SYSCFG_LOCK_WR_ALL, Item);
 1162              		.loc 1 773 3 view .LVU222
 1163 0000 034A     		ldr	r2, .L109
 1164 0002 9368     		ldr	r3, [r2, #8]
 1165 0004 23F4E023 		bic	r3, r3, #458752
 1166 0008 0343     		orrs	r3, r3, r0
 1167 000a 9360     		str	r3, [r2, #8]
 774:../Drivers/STM32N6xx_HAL_Driver/Src/stm32n6xx_hal.c **** }
 1168              		.loc 1 774 1 is_stmt 0 view .LVU223
 1169 000c 7047     		bx	lr
 1170              	.L110:
 1171 000e 00BF     		.align	2
 1172              	.L109:
 1173 0010 00800056 		.word	1442873344
 1174              		.cfi_endproc
 1175              	.LFE912:
 1177              		.section	.text.HAL_SYSCFG_GetLockWriteAccess,"ax",%progbits
 1178              		.align	1
 1179              		.global	HAL_SYSCFG_GetLockWriteAccess
 1180              		.syntax unified
 1181              		.thumb
 1182              		.thumb_func
 1184              	HAL_SYSCFG_GetLockWriteAccess:
 1185              	.LVL40:
 1186              	.LFB913:
 775:../Drivers/STM32N6xx_HAL_Driver/Src/stm32n6xx_hal.c **** 
 776:../Drivers/STM32N6xx_HAL_Driver/Src/stm32n6xx_hal.c **** /**
 777:../Drivers/STM32N6xx_HAL_Driver/Src/stm32n6xx_hal.c ****   * @brief  Get the lock state of SYSCFG  write access item.
 778:../Drivers/STM32N6xx_HAL_Driver/Src/stm32n6xx_hal.c ****   * @param  pItem pointer to return locked items
 779:../Drivers/STM32N6xx_HAL_Driver/Src/stm32n6xx_hal.c ****   *         the return value can be a combination of @ref SYSCFG_WRITE_access
 780:../Drivers/STM32N6xx_HAL_Driver/Src/stm32n6xx_hal.c ****   * @retval HAL status
 781:../Drivers/STM32N6xx_HAL_Driver/Src/stm32n6xx_hal.c ****   */
 782:../Drivers/STM32N6xx_HAL_Driver/Src/stm32n6xx_hal.c **** HAL_StatusTypeDef HAL_SYSCFG_GetLockWriteAccess(uint32_t *pItem)
 783:../Drivers/STM32N6xx_HAL_Driver/Src/stm32n6xx_hal.c **** {
 1187              		.loc 1 783 1 is_stmt 1 view -0
 1188              		.cfi_startproc
 1189              		@ args = 0, pretend = 0, frame = 0
 1190              		@ frame_needed = 0, uses_anonymous_args = 0
 1191              		@ link register save eliminated.
 784:../Drivers/STM32N6xx_HAL_Driver/Src/stm32n6xx_hal.c ****   /* Check null pointer */
 785:../Drivers/STM32N6xx_HAL_Driver/Src/stm32n6xx_hal.c ****   if (pItem == NULL)
 1192              		.loc 1 785 3 view .LVU225
 1193              		.loc 1 785 6 is_stmt 0 view .LVU226
 1194 0000 30B1     		cbz	r0, .L113
ARM GAS  /tmp/ccvdUNht.s 			page 36


 786:../Drivers/STM32N6xx_HAL_Driver/Src/stm32n6xx_hal.c ****   {
 787:../Drivers/STM32N6xx_HAL_Driver/Src/stm32n6xx_hal.c ****     return HAL_ERROR;
 788:../Drivers/STM32N6xx_HAL_Driver/Src/stm32n6xx_hal.c ****   }
 789:../Drivers/STM32N6xx_HAL_Driver/Src/stm32n6xx_hal.c **** 
 790:../Drivers/STM32N6xx_HAL_Driver/Src/stm32n6xx_hal.c ****   /* Get the non-secure lock state */
 791:../Drivers/STM32N6xx_HAL_Driver/Src/stm32n6xx_hal.c ****   *pItem = READ_BIT(SYSCFG->CM55TCMCR, SYSCFG_LOCK_WR_ALL);
 1195              		.loc 1 791 3 is_stmt 1 view .LVU227
 1196              		.loc 1 791 12 is_stmt 0 view .LVU228
 1197 0002 044B     		ldr	r3, .L114
 1198 0004 9B68     		ldr	r3, [r3, #8]
 1199 0006 03F4E023 		and	r3, r3, #458752
 1200              		.loc 1 791 10 view .LVU229
 1201 000a 0360     		str	r3, [r0]
 792:../Drivers/STM32N6xx_HAL_Driver/Src/stm32n6xx_hal.c **** 
 793:../Drivers/STM32N6xx_HAL_Driver/Src/stm32n6xx_hal.c ****   return HAL_OK;
 1202              		.loc 1 793 3 is_stmt 1 view .LVU230
 1203              		.loc 1 793 10 is_stmt 0 view .LVU231
 1204 000c 0020     		movs	r0, #0
 1205              	.LVL41:
 1206              		.loc 1 793 10 view .LVU232
 1207 000e 7047     		bx	lr
 1208              	.LVL42:
 1209              	.L113:
 787:../Drivers/STM32N6xx_HAL_Driver/Src/stm32n6xx_hal.c ****   }
 1210              		.loc 1 787 12 view .LVU233
 1211 0010 0120     		movs	r0, #1
 1212              	.LVL43:
 794:../Drivers/STM32N6xx_HAL_Driver/Src/stm32n6xx_hal.c **** }
 1213              		.loc 1 794 1 view .LVU234
 1214 0012 7047     		bx	lr
 1215              	.L115:
 1216              		.align	2
 1217              	.L114:
 1218 0014 00800056 		.word	1442873344
 1219              		.cfi_endproc
 1220              	.LFE913:
 1222              		.section	.text.HAL_SYSCFG_EnableITCMWaiteState,"ax",%progbits
 1223              		.align	1
 1224              		.global	HAL_SYSCFG_EnableITCMWaiteState
 1225              		.syntax unified
 1226              		.thumb
 1227              		.thumb_func
 1229              	HAL_SYSCFG_EnableITCMWaiteState:
 1230              	.LFB914:
 795:../Drivers/STM32N6xx_HAL_Driver/Src/stm32n6xx_hal.c **** 
 796:../Drivers/STM32N6xx_HAL_Driver/Src/stm32n6xx_hal.c **** /**
 797:../Drivers/STM32N6xx_HAL_Driver/Src/stm32n6xx_hal.c ****   * @brief  Enable the ITCM Wait State.
 798:../Drivers/STM32N6xx_HAL_Driver/Src/stm32n6xx_hal.c ****   * @retval None
 799:../Drivers/STM32N6xx_HAL_Driver/Src/stm32n6xx_hal.c ****   */
 800:../Drivers/STM32N6xx_HAL_Driver/Src/stm32n6xx_hal.c **** void HAL_SYSCFG_EnableITCMWaiteState(void)
 801:../Drivers/STM32N6xx_HAL_Driver/Src/stm32n6xx_hal.c **** {
 1231              		.loc 1 801 1 is_stmt 1 view -0
 1232              		.cfi_startproc
 1233              		@ args = 0, pretend = 0, frame = 0
 1234              		@ frame_needed = 0, uses_anonymous_args = 0
 1235              		@ link register save eliminated.
 802:../Drivers/STM32N6xx_HAL_Driver/Src/stm32n6xx_hal.c ****   SET_BIT(SYSCFG->CM55TCMCR, SYSCFG_CM55TCMCR_ITCMWSDISABLE);
ARM GAS  /tmp/ccvdUNht.s 			page 37


 1236              		.loc 1 802 3 view .LVU236
 1237 0000 024A     		ldr	r2, .L117
 1238 0002 9368     		ldr	r3, [r2, #8]
 1239 0004 43F40003 		orr	r3, r3, #8388608
 1240 0008 9360     		str	r3, [r2, #8]
 803:../Drivers/STM32N6xx_HAL_Driver/Src/stm32n6xx_hal.c **** }
 1241              		.loc 1 803 1 is_stmt 0 view .LVU237
 1242 000a 7047     		bx	lr
 1243              	.L118:
 1244              		.align	2
 1245              	.L117:
 1246 000c 00800056 		.word	1442873344
 1247              		.cfi_endproc
 1248              	.LFE914:
 1250              		.section	.text.HAL_SYSCFG_DisableITCMWaiteState,"ax",%progbits
 1251              		.align	1
 1252              		.global	HAL_SYSCFG_DisableITCMWaiteState
 1253              		.syntax unified
 1254              		.thumb
 1255              		.thumb_func
 1257              	HAL_SYSCFG_DisableITCMWaiteState:
 1258              	.LFB915:
 804:../Drivers/STM32N6xx_HAL_Driver/Src/stm32n6xx_hal.c **** 
 805:../Drivers/STM32N6xx_HAL_Driver/Src/stm32n6xx_hal.c **** /**
 806:../Drivers/STM32N6xx_HAL_Driver/Src/stm32n6xx_hal.c ****   * @brief  Disable the ITCM Wait State.
 807:../Drivers/STM32N6xx_HAL_Driver/Src/stm32n6xx_hal.c ****   * @retval None
 808:../Drivers/STM32N6xx_HAL_Driver/Src/stm32n6xx_hal.c ****   */
 809:../Drivers/STM32N6xx_HAL_Driver/Src/stm32n6xx_hal.c **** void HAL_SYSCFG_DisableITCMWaiteState(void)
 810:../Drivers/STM32N6xx_HAL_Driver/Src/stm32n6xx_hal.c **** {
 1259              		.loc 1 810 1 is_stmt 1 view -0
 1260              		.cfi_startproc
 1261              		@ args = 0, pretend = 0, frame = 0
 1262              		@ frame_needed = 0, uses_anonymous_args = 0
 1263              		@ link register save eliminated.
 811:../Drivers/STM32N6xx_HAL_Driver/Src/stm32n6xx_hal.c ****   CLEAR_BIT(SYSCFG->CM55TCMCR, SYSCFG_CM55TCMCR_ITCMWSDISABLE);
 1264              		.loc 1 811 3 view .LVU239
 1265 0000 024A     		ldr	r2, .L120
 1266 0002 9368     		ldr	r3, [r2, #8]
 1267 0004 23F40003 		bic	r3, r3, #8388608
 1268 0008 9360     		str	r3, [r2, #8]
 812:../Drivers/STM32N6xx_HAL_Driver/Src/stm32n6xx_hal.c **** }
 1269              		.loc 1 812 1 is_stmt 0 view .LVU240
 1270 000a 7047     		bx	lr
 1271              	.L121:
 1272              		.align	2
 1273              	.L120:
 1274 000c 00800056 		.word	1442873344
 1275              		.cfi_endproc
 1276              	.LFE915:
 1278              		.section	.text.HAL_SYSCFG_EnableDTCMWaiteState,"ax",%progbits
 1279              		.align	1
 1280              		.global	HAL_SYSCFG_EnableDTCMWaiteState
 1281              		.syntax unified
 1282              		.thumb
 1283              		.thumb_func
 1285              	HAL_SYSCFG_EnableDTCMWaiteState:
 1286              	.LFB916:
ARM GAS  /tmp/ccvdUNht.s 			page 38


 813:../Drivers/STM32N6xx_HAL_Driver/Src/stm32n6xx_hal.c **** 
 814:../Drivers/STM32N6xx_HAL_Driver/Src/stm32n6xx_hal.c **** /**
 815:../Drivers/STM32N6xx_HAL_Driver/Src/stm32n6xx_hal.c ****   * @brief  Enable the DTCM Wait State.
 816:../Drivers/STM32N6xx_HAL_Driver/Src/stm32n6xx_hal.c ****   * @retval None
 817:../Drivers/STM32N6xx_HAL_Driver/Src/stm32n6xx_hal.c ****   */
 818:../Drivers/STM32N6xx_HAL_Driver/Src/stm32n6xx_hal.c **** void HAL_SYSCFG_EnableDTCMWaiteState(void)
 819:../Drivers/STM32N6xx_HAL_Driver/Src/stm32n6xx_hal.c **** {
 1287              		.loc 1 819 1 is_stmt 1 view -0
 1288              		.cfi_startproc
 1289              		@ args = 0, pretend = 0, frame = 0
 1290              		@ frame_needed = 0, uses_anonymous_args = 0
 1291              		@ link register save eliminated.
 820:../Drivers/STM32N6xx_HAL_Driver/Src/stm32n6xx_hal.c ****   SET_BIT(SYSCFG->CM55TCMCR, SYSCFG_CM55TCMCR_DTCMWSDISABLE);
 1292              		.loc 1 820 3 view .LVU242
 1293 0000 024A     		ldr	r2, .L123
 1294 0002 9368     		ldr	r3, [r2, #8]
 1295 0004 43F08073 		orr	r3, r3, #16777216
 1296 0008 9360     		str	r3, [r2, #8]
 821:../Drivers/STM32N6xx_HAL_Driver/Src/stm32n6xx_hal.c **** }
 1297              		.loc 1 821 1 is_stmt 0 view .LVU243
 1298 000a 7047     		bx	lr
 1299              	.L124:
 1300              		.align	2
 1301              	.L123:
 1302 000c 00800056 		.word	1442873344
 1303              		.cfi_endproc
 1304              	.LFE916:
 1306              		.section	.text.HAL_SYSCFG_DisableDTCMWaiteState,"ax",%progbits
 1307              		.align	1
 1308              		.global	HAL_SYSCFG_DisableDTCMWaiteState
 1309              		.syntax unified
 1310              		.thumb
 1311              		.thumb_func
 1313              	HAL_SYSCFG_DisableDTCMWaiteState:
 1314              	.LFB917:
 822:../Drivers/STM32N6xx_HAL_Driver/Src/stm32n6xx_hal.c **** 
 823:../Drivers/STM32N6xx_HAL_Driver/Src/stm32n6xx_hal.c **** /**
 824:../Drivers/STM32N6xx_HAL_Driver/Src/stm32n6xx_hal.c ****   * @brief  Disable the DTCM Wait State.
 825:../Drivers/STM32N6xx_HAL_Driver/Src/stm32n6xx_hal.c ****   * @retval None
 826:../Drivers/STM32N6xx_HAL_Driver/Src/stm32n6xx_hal.c ****   */
 827:../Drivers/STM32N6xx_HAL_Driver/Src/stm32n6xx_hal.c **** void HAL_SYSCFG_DisableDTCMWaiteState(void)
 828:../Drivers/STM32N6xx_HAL_Driver/Src/stm32n6xx_hal.c **** {
 1315              		.loc 1 828 1 is_stmt 1 view -0
 1316              		.cfi_startproc
 1317              		@ args = 0, pretend = 0, frame = 0
 1318              		@ frame_needed = 0, uses_anonymous_args = 0
 1319              		@ link register save eliminated.
 829:../Drivers/STM32N6xx_HAL_Driver/Src/stm32n6xx_hal.c ****   CLEAR_BIT(SYSCFG->CM55TCMCR, SYSCFG_CM55TCMCR_DTCMWSDISABLE);
 1320              		.loc 1 829 3 view .LVU245
 1321 0000 024A     		ldr	r2, .L126
 1322 0002 9368     		ldr	r3, [r2, #8]
 1323 0004 23F08073 		bic	r3, r3, #16777216
 1324 0008 9360     		str	r3, [r2, #8]
 830:../Drivers/STM32N6xx_HAL_Driver/Src/stm32n6xx_hal.c **** }
 1325              		.loc 1 830 1 is_stmt 0 view .LVU246
 1326 000a 7047     		bx	lr
 1327              	.L127:
ARM GAS  /tmp/ccvdUNht.s 			page 39


 1328              		.align	2
 1329              	.L126:
 1330 000c 00800056 		.word	1442873344
 1331              		.cfi_endproc
 1332              	.LFE917:
 1334              		.section	.text.HAL_SYSCFG_EnableTCMExternalMargin,"ax",%progbits
 1335              		.align	1
 1336              		.global	HAL_SYSCFG_EnableTCMExternalMargin
 1337              		.syntax unified
 1338              		.thumb
 1339              		.thumb_func
 1341              	HAL_SYSCFG_EnableTCMExternalMargin:
 1342              	.LFB918:
 831:../Drivers/STM32N6xx_HAL_Driver/Src/stm32n6xx_hal.c **** 
 832:../Drivers/STM32N6xx_HAL_Driver/Src/stm32n6xx_hal.c **** /**
 833:../Drivers/STM32N6xx_HAL_Driver/Src/stm32n6xx_hal.c ****   * @brief  Enable external RW margin inputs for TCM memories
 834:../Drivers/STM32N6xx_HAL_Driver/Src/stm32n6xx_hal.c ****   * @retval None
 835:../Drivers/STM32N6xx_HAL_Driver/Src/stm32n6xx_hal.c ****   */
 836:../Drivers/STM32N6xx_HAL_Driver/Src/stm32n6xx_hal.c **** void HAL_SYSCFG_EnableTCMExternalMargin(void)
 837:../Drivers/STM32N6xx_HAL_Driver/Src/stm32n6xx_hal.c **** {
 1343              		.loc 1 837 1 is_stmt 1 view -0
 1344              		.cfi_startproc
 1345              		@ args = 0, pretend = 0, frame = 0
 1346              		@ frame_needed = 0, uses_anonymous_args = 0
 1347              		@ link register save eliminated.
 838:../Drivers/STM32N6xx_HAL_Driver/Src/stm32n6xx_hal.c ****   SET_BIT(SYSCFG->CM55RWMCR, SYSCFG_CM55RWMCR_RME_TCM);
 1348              		.loc 1 838 3 view .LVU248
 1349 0000 024A     		ldr	r2, .L129
 1350 0002 D368     		ldr	r3, [r2, #12]
 1351 0004 43F00103 		orr	r3, r3, #1
 1352 0008 D360     		str	r3, [r2, #12]
 839:../Drivers/STM32N6xx_HAL_Driver/Src/stm32n6xx_hal.c **** }
 1353              		.loc 1 839 1 is_stmt 0 view .LVU249
 1354 000a 7047     		bx	lr
 1355              	.L130:
 1356              		.align	2
 1357              	.L129:
 1358 000c 00800056 		.word	1442873344
 1359              		.cfi_endproc
 1360              	.LFE918:
 1362              		.section	.text.HAL_SYSCFG_DisableTCMExternalMargin,"ax",%progbits
 1363              		.align	1
 1364              		.global	HAL_SYSCFG_DisableTCMExternalMargin
 1365              		.syntax unified
 1366              		.thumb
 1367              		.thumb_func
 1369              	HAL_SYSCFG_DisableTCMExternalMargin:
 1370              	.LFB919:
 840:../Drivers/STM32N6xx_HAL_Driver/Src/stm32n6xx_hal.c **** 
 841:../Drivers/STM32N6xx_HAL_Driver/Src/stm32n6xx_hal.c **** /**
 842:../Drivers/STM32N6xx_HAL_Driver/Src/stm32n6xx_hal.c ****   * @brief  Disable external RW margin inputs for TCM memories
 843:../Drivers/STM32N6xx_HAL_Driver/Src/stm32n6xx_hal.c ****   * @retval None
 844:../Drivers/STM32N6xx_HAL_Driver/Src/stm32n6xx_hal.c ****   */
 845:../Drivers/STM32N6xx_HAL_Driver/Src/stm32n6xx_hal.c **** void HAL_SYSCFG_DisableTCMExternalMargin(void)
 846:../Drivers/STM32N6xx_HAL_Driver/Src/stm32n6xx_hal.c **** {
 1371              		.loc 1 846 1 is_stmt 1 view -0
 1372              		.cfi_startproc
ARM GAS  /tmp/ccvdUNht.s 			page 40


 1373              		@ args = 0, pretend = 0, frame = 0
 1374              		@ frame_needed = 0, uses_anonymous_args = 0
 1375              		@ link register save eliminated.
 847:../Drivers/STM32N6xx_HAL_Driver/Src/stm32n6xx_hal.c ****   CLEAR_BIT(SYSCFG->CM55RWMCR, SYSCFG_CM55RWMCR_RME_TCM);
 1376              		.loc 1 847 3 view .LVU251
 1377 0000 024A     		ldr	r2, .L132
 1378 0002 D368     		ldr	r3, [r2, #12]
 1379 0004 23F00103 		bic	r3, r3, #1
 1380 0008 D360     		str	r3, [r2, #12]
 848:../Drivers/STM32N6xx_HAL_Driver/Src/stm32n6xx_hal.c **** }
 1381              		.loc 1 848 1 is_stmt 0 view .LVU252
 1382 000a 7047     		bx	lr
 1383              	.L133:
 1384              		.align	2
 1385              	.L132:
 1386 000c 00800056 		.word	1442873344
 1387              		.cfi_endproc
 1388              	.LFE919:
 1390              		.section	.text.HAL_SYSCFG_SetTCMRWMarginInput,"ax",%progbits
 1391              		.align	1
 1392              		.global	HAL_SYSCFG_SetTCMRWMarginInput
 1393              		.syntax unified
 1394              		.thumb
 1395              		.thumb_func
 1397              	HAL_SYSCFG_SetTCMRWMarginInput:
 1398              	.LVL44:
 1399              	.LFB920:
 849:../Drivers/STM32N6xx_HAL_Driver/Src/stm32n6xx_hal.c **** 
 850:../Drivers/STM32N6xx_HAL_Driver/Src/stm32n6xx_hal.c **** /**
 851:../Drivers/STM32N6xx_HAL_Driver/Src/stm32n6xx_hal.c ****   * @brief  Set external RW margin inputs for TCM memories.
 852:../Drivers/STM32N6xx_HAL_Driver/Src/stm32n6xx_hal.c ****   * @param  TcmRwMarginInput Input Margin.
 853:../Drivers/STM32N6xx_HAL_Driver/Src/stm32n6xx_hal.c ****   * @retval None
 854:../Drivers/STM32N6xx_HAL_Driver/Src/stm32n6xx_hal.c ****   */
 855:../Drivers/STM32N6xx_HAL_Driver/Src/stm32n6xx_hal.c **** void HAL_SYSCFG_SetTCMRWMarginInput(uint32_t TcmRwMarginInput)
 856:../Drivers/STM32N6xx_HAL_Driver/Src/stm32n6xx_hal.c **** {
 1400              		.loc 1 856 1 is_stmt 1 view -0
 1401              		.cfi_startproc
 1402              		@ args = 0, pretend = 0, frame = 0
 1403              		@ frame_needed = 0, uses_anonymous_args = 0
 1404              		@ link register save eliminated.
 857:../Drivers/STM32N6xx_HAL_Driver/Src/stm32n6xx_hal.c ****   assert_param(IS_TCM_MARGIN_INPUT(TcmRwMarginInput));
 1405              		.loc 1 857 3 view .LVU254
 858:../Drivers/STM32N6xx_HAL_Driver/Src/stm32n6xx_hal.c **** 
 859:../Drivers/STM32N6xx_HAL_Driver/Src/stm32n6xx_hal.c ****   MODIFY_REG(SYSCFG->CM55RWMCR, SYSCFG_CM55RWMCR_RM_TCM, (TcmRwMarginInput << 1U));
 1406              		.loc 1 859 3 view .LVU255
 1407 0000 034A     		ldr	r2, .L135
 1408 0002 D368     		ldr	r3, [r2, #12]
 1409 0004 23F01E03 		bic	r3, r3, #30
 1410 0008 43EA4003 		orr	r3, r3, r0, lsl #1
 1411 000c D360     		str	r3, [r2, #12]
 860:../Drivers/STM32N6xx_HAL_Driver/Src/stm32n6xx_hal.c **** }
 1412              		.loc 1 860 1 is_stmt 0 view .LVU256
 1413 000e 7047     		bx	lr
 1414              	.L136:
 1415              		.align	2
 1416              	.L135:
 1417 0010 00800056 		.word	1442873344
ARM GAS  /tmp/ccvdUNht.s 			page 41


 1418              		.cfi_endproc
 1419              	.LFE920:
 1421              		.section	.text.HAL_SYSCFG_GetTCMRWMarginInput,"ax",%progbits
 1422              		.align	1
 1423              		.global	HAL_SYSCFG_GetTCMRWMarginInput
 1424              		.syntax unified
 1425              		.thumb
 1426              		.thumb_func
 1428              	HAL_SYSCFG_GetTCMRWMarginInput:
 1429              	.LVL45:
 1430              	.LFB921:
 861:../Drivers/STM32N6xx_HAL_Driver/Src/stm32n6xx_hal.c **** 
 862:../Drivers/STM32N6xx_HAL_Driver/Src/stm32n6xx_hal.c **** /**
 863:../Drivers/STM32N6xx_HAL_Driver/Src/stm32n6xx_hal.c ****   * @brief  Get the External RW margin inputs for TCM memories.
 864:../Drivers/STM32N6xx_HAL_Driver/Src/stm32n6xx_hal.c ****   * @param  pTcmRwMarginInput pointer to return Input Margin.
 865:../Drivers/STM32N6xx_HAL_Driver/Src/stm32n6xx_hal.c ****   * @retval HAL status.
 866:../Drivers/STM32N6xx_HAL_Driver/Src/stm32n6xx_hal.c ****   */
 867:../Drivers/STM32N6xx_HAL_Driver/Src/stm32n6xx_hal.c **** HAL_StatusTypeDef HAL_SYSCFG_GetTCMRWMarginInput(uint32_t *pTcmRwMarginInput)
 868:../Drivers/STM32N6xx_HAL_Driver/Src/stm32n6xx_hal.c **** {
 1431              		.loc 1 868 1 is_stmt 1 view -0
 1432              		.cfi_startproc
 1433              		@ args = 0, pretend = 0, frame = 0
 1434              		@ frame_needed = 0, uses_anonymous_args = 0
 1435              		@ link register save eliminated.
 869:../Drivers/STM32N6xx_HAL_Driver/Src/stm32n6xx_hal.c ****   /* Check null pointer */
 870:../Drivers/STM32N6xx_HAL_Driver/Src/stm32n6xx_hal.c ****   if (pTcmRwMarginInput == NULL)
 1436              		.loc 1 870 3 view .LVU258
 1437              		.loc 1 870 6 is_stmt 0 view .LVU259
 1438 0000 30B1     		cbz	r0, .L139
 871:../Drivers/STM32N6xx_HAL_Driver/Src/stm32n6xx_hal.c ****   {
 872:../Drivers/STM32N6xx_HAL_Driver/Src/stm32n6xx_hal.c ****     return HAL_ERROR;
 873:../Drivers/STM32N6xx_HAL_Driver/Src/stm32n6xx_hal.c ****   }
 874:../Drivers/STM32N6xx_HAL_Driver/Src/stm32n6xx_hal.c **** 
 875:../Drivers/STM32N6xx_HAL_Driver/Src/stm32n6xx_hal.c ****   /* Get the non-secure lock state */
 876:../Drivers/STM32N6xx_HAL_Driver/Src/stm32n6xx_hal.c ****   *pTcmRwMarginInput = (READ_BIT(SYSCFG->CM55RWMCR, SYSCFG_CM55RWMCR_RM_TCM) >> 1U);
 1439              		.loc 1 876 3 is_stmt 1 view .LVU260
 1440              		.loc 1 876 25 is_stmt 0 view .LVU261
 1441 0002 044B     		ldr	r3, .L140
 1442 0004 DB68     		ldr	r3, [r3, #12]
 1443              		.loc 1 876 78 view .LVU262
 1444 0006 C3F34303 		ubfx	r3, r3, #1, #4
 1445              		.loc 1 876 22 view .LVU263
 1446 000a 0360     		str	r3, [r0]
 877:../Drivers/STM32N6xx_HAL_Driver/Src/stm32n6xx_hal.c **** 
 878:../Drivers/STM32N6xx_HAL_Driver/Src/stm32n6xx_hal.c ****   return HAL_OK;
 1447              		.loc 1 878 3 is_stmt 1 view .LVU264
 1448              		.loc 1 878 10 is_stmt 0 view .LVU265
 1449 000c 0020     		movs	r0, #0
 1450              	.LVL46:
 1451              		.loc 1 878 10 view .LVU266
 1452 000e 7047     		bx	lr
 1453              	.LVL47:
 1454              	.L139:
 872:../Drivers/STM32N6xx_HAL_Driver/Src/stm32n6xx_hal.c ****   }
 1455              		.loc 1 872 12 view .LVU267
 1456 0010 0120     		movs	r0, #1
 1457              	.LVL48:
ARM GAS  /tmp/ccvdUNht.s 			page 42


 879:../Drivers/STM32N6xx_HAL_Driver/Src/stm32n6xx_hal.c **** }
 1458              		.loc 1 879 1 view .LVU268
 1459 0012 7047     		bx	lr
 1460              	.L141:
 1461              		.align	2
 1462              	.L140:
 1463 0014 00800056 		.word	1442873344
 1464              		.cfi_endproc
 1465              	.LFE921:
 1467              		.section	.text.HAL_SYSCFG_SetTCMBiasingLevel,"ax",%progbits
 1468              		.align	1
 1469              		.global	HAL_SYSCFG_SetTCMBiasingLevel
 1470              		.syntax unified
 1471              		.thumb
 1472              		.thumb_func
 1474              	HAL_SYSCFG_SetTCMBiasingLevel:
 1475              	.LVL49:
 1476              	.LFB922:
 880:../Drivers/STM32N6xx_HAL_Driver/Src/stm32n6xx_hal.c **** 
 881:../Drivers/STM32N6xx_HAL_Driver/Src/stm32n6xx_hal.c **** /**
 882:../Drivers/STM32N6xx_HAL_Driver/Src/stm32n6xx_hal.c ****   * @brief  Set the TCM biasing level adjust input.
 883:../Drivers/STM32N6xx_HAL_Driver/Src/stm32n6xx_hal.c ****   * @param  Level Biaising level adjust input
 884:../Drivers/STM32N6xx_HAL_Driver/Src/stm32n6xx_hal.c ****   *         This parameter can one of the following values:
 885:../Drivers/STM32N6xx_HAL_Driver/Src/stm32n6xx_hal.c ****   *            @arg SYSCFG_TCM_BIAS_VNOM : Biasing level adjust input recommended for Vnom
 886:../Drivers/STM32N6xx_HAL_Driver/Src/stm32n6xx_hal.c ****   *            @arg SYSCFG_TCM_BIAS_VNOM_10_PERCENT : Biasing level adjust input recommended for Vn
 887:../Drivers/STM32N6xx_HAL_Driver/Src/stm32n6xx_hal.c ****   * @retval None
 888:../Drivers/STM32N6xx_HAL_Driver/Src/stm32n6xx_hal.c ****   */
 889:../Drivers/STM32N6xx_HAL_Driver/Src/stm32n6xx_hal.c **** void HAL_SYSCFG_SetTCMBiasingLevel(uint32_t Level)
 890:../Drivers/STM32N6xx_HAL_Driver/Src/stm32n6xx_hal.c **** {
 1477              		.loc 1 890 1 is_stmt 1 view -0
 1478              		.cfi_startproc
 1479              		@ args = 0, pretend = 0, frame = 0
 1480              		@ frame_needed = 0, uses_anonymous_args = 0
 1481              		@ link register save eliminated.
 891:../Drivers/STM32N6xx_HAL_Driver/Src/stm32n6xx_hal.c ****   /* Check the parameters */
 892:../Drivers/STM32N6xx_HAL_Driver/Src/stm32n6xx_hal.c ****   assert_param(IS_SYSCFG_TCM_BIASING_LEVEL(Level));
 1482              		.loc 1 892 3 view .LVU270
 893:../Drivers/STM32N6xx_HAL_Driver/Src/stm32n6xx_hal.c **** 
 894:../Drivers/STM32N6xx_HAL_Driver/Src/stm32n6xx_hal.c ****   MODIFY_REG(SYSCFG->CM55RWMCR, SYSCFG_CM55RWMCR_BC2_TCM | SYSCFG_CM55RWMCR_BC1_TCM, Level);
 1483              		.loc 1 894 3 view .LVU271
 1484 0000 034A     		ldr	r2, .L143
 1485 0002 D368     		ldr	r3, [r2, #12]
 1486 0004 23F06003 		bic	r3, r3, #96
 1487 0008 0343     		orrs	r3, r3, r0
 1488 000a D360     		str	r3, [r2, #12]
 895:../Drivers/STM32N6xx_HAL_Driver/Src/stm32n6xx_hal.c **** }
 1489              		.loc 1 895 1 is_stmt 0 view .LVU272
 1490 000c 7047     		bx	lr
 1491              	.L144:
 1492 000e 00BF     		.align	2
 1493              	.L143:
 1494 0010 00800056 		.word	1442873344
 1495              		.cfi_endproc
 1496              	.LFE922:
 1498              		.section	.text.HAL_SYSCFG_GetTCMBiasingLevel,"ax",%progbits
 1499              		.align	1
 1500              		.global	HAL_SYSCFG_GetTCMBiasingLevel
ARM GAS  /tmp/ccvdUNht.s 			page 43


 1501              		.syntax unified
 1502              		.thumb
 1503              		.thumb_func
 1505              	HAL_SYSCFG_GetTCMBiasingLevel:
 1506              	.LVL50:
 1507              	.LFB923:
 896:../Drivers/STM32N6xx_HAL_Driver/Src/stm32n6xx_hal.c **** 
 897:../Drivers/STM32N6xx_HAL_Driver/Src/stm32n6xx_hal.c **** /**
 898:../Drivers/STM32N6xx_HAL_Driver/Src/stm32n6xx_hal.c ****   * @brief  Get the TCM biasing level adjust input.
 899:../Drivers/STM32N6xx_HAL_Driver/Src/stm32n6xx_hal.c ****   * @param  pLevel Pointer to return biasing level adjust input.
 900:../Drivers/STM32N6xx_HAL_Driver/Src/stm32n6xx_hal.c ****   *         The return value can be one of the following values:
 901:../Drivers/STM32N6xx_HAL_Driver/Src/stm32n6xx_hal.c ****   *            @arg SYSCFG_CACHE_BIAS_VNOM boot 0 pin: Biasing level adjust input recommended for V
 902:../Drivers/STM32N6xx_HAL_Driver/Src/stm32n6xx_hal.c ****   *            @arg SYSCFG_CACHE_BIAS_VNOM_10_PERCENT: Biasing level adjust input recommended for V
 903:../Drivers/STM32N6xx_HAL_Driver/Src/stm32n6xx_hal.c ****   * @retval HAL status
 904:../Drivers/STM32N6xx_HAL_Driver/Src/stm32n6xx_hal.c ****   */
 905:../Drivers/STM32N6xx_HAL_Driver/Src/stm32n6xx_hal.c **** HAL_StatusTypeDef HAL_SYSCFG_GetTCMBiasingLevel(uint32_t *pLevel)
 906:../Drivers/STM32N6xx_HAL_Driver/Src/stm32n6xx_hal.c **** {
 1508              		.loc 1 906 1 is_stmt 1 view -0
 1509              		.cfi_startproc
 1510              		@ args = 0, pretend = 0, frame = 0
 1511              		@ frame_needed = 0, uses_anonymous_args = 0
 1512              		@ link register save eliminated.
 907:../Drivers/STM32N6xx_HAL_Driver/Src/stm32n6xx_hal.c ****   /* Check null pointer */
 908:../Drivers/STM32N6xx_HAL_Driver/Src/stm32n6xx_hal.c ****   if (pLevel == NULL)
 1513              		.loc 1 908 3 view .LVU274
 1514              		.loc 1 908 6 is_stmt 0 view .LVU275
 1515 0000 30B1     		cbz	r0, .L147
 909:../Drivers/STM32N6xx_HAL_Driver/Src/stm32n6xx_hal.c ****   {
 910:../Drivers/STM32N6xx_HAL_Driver/Src/stm32n6xx_hal.c ****     return HAL_ERROR;
 911:../Drivers/STM32N6xx_HAL_Driver/Src/stm32n6xx_hal.c ****   }
 912:../Drivers/STM32N6xx_HAL_Driver/Src/stm32n6xx_hal.c **** 
 913:../Drivers/STM32N6xx_HAL_Driver/Src/stm32n6xx_hal.c ****   /* Get the non-secure lock state */
 914:../Drivers/STM32N6xx_HAL_Driver/Src/stm32n6xx_hal.c ****   *pLevel = READ_BIT(SYSCFG->CM55RWMCR, SYSCFG_CM55RWMCR_BC2_TCM | SYSCFG_CM55RWMCR_BC1_TCM);
 1516              		.loc 1 914 3 is_stmt 1 view .LVU276
 1517              		.loc 1 914 13 is_stmt 0 view .LVU277
 1518 0002 044B     		ldr	r3, .L148
 1519 0004 DB68     		ldr	r3, [r3, #12]
 1520 0006 03F06003 		and	r3, r3, #96
 1521              		.loc 1 914 11 view .LVU278
 1522 000a 0360     		str	r3, [r0]
 915:../Drivers/STM32N6xx_HAL_Driver/Src/stm32n6xx_hal.c **** 
 916:../Drivers/STM32N6xx_HAL_Driver/Src/stm32n6xx_hal.c ****   return HAL_OK;
 1523              		.loc 1 916 3 is_stmt 1 view .LVU279
 1524              		.loc 1 916 10 is_stmt 0 view .LVU280
 1525 000c 0020     		movs	r0, #0
 1526              	.LVL51:
 1527              		.loc 1 916 10 view .LVU281
 1528 000e 7047     		bx	lr
 1529              	.LVL52:
 1530              	.L147:
 910:../Drivers/STM32N6xx_HAL_Driver/Src/stm32n6xx_hal.c ****   }
 1531              		.loc 1 910 12 view .LVU282
 1532 0010 0120     		movs	r0, #1
 1533              	.LVL53:
 917:../Drivers/STM32N6xx_HAL_Driver/Src/stm32n6xx_hal.c **** }
 1534              		.loc 1 917 1 view .LVU283
 1535 0012 7047     		bx	lr
ARM GAS  /tmp/ccvdUNht.s 			page 44


 1536              	.L149:
 1537              		.align	2
 1538              	.L148:
 1539 0014 00800056 		.word	1442873344
 1540              		.cfi_endproc
 1541              	.LFE923:
 1543              		.section	.text.HAL_SYSCFG_EnableCacheExternalMargin,"ax",%progbits
 1544              		.align	1
 1545              		.global	HAL_SYSCFG_EnableCacheExternalMargin
 1546              		.syntax unified
 1547              		.thumb
 1548              		.thumb_func
 1550              	HAL_SYSCFG_EnableCacheExternalMargin:
 1551              	.LFB924:
 918:../Drivers/STM32N6xx_HAL_Driver/Src/stm32n6xx_hal.c **** 
 919:../Drivers/STM32N6xx_HAL_Driver/Src/stm32n6xx_hal.c **** /**
 920:../Drivers/STM32N6xx_HAL_Driver/Src/stm32n6xx_hal.c ****   * @brief  Enable external RW margin inputs for Cache memories
 921:../Drivers/STM32N6xx_HAL_Driver/Src/stm32n6xx_hal.c ****   * @retval None
 922:../Drivers/STM32N6xx_HAL_Driver/Src/stm32n6xx_hal.c ****   */
 923:../Drivers/STM32N6xx_HAL_Driver/Src/stm32n6xx_hal.c **** void HAL_SYSCFG_EnableCacheExternalMargin(void)
 924:../Drivers/STM32N6xx_HAL_Driver/Src/stm32n6xx_hal.c **** {
 1552              		.loc 1 924 1 is_stmt 1 view -0
 1553              		.cfi_startproc
 1554              		@ args = 0, pretend = 0, frame = 0
 1555              		@ frame_needed = 0, uses_anonymous_args = 0
 1556              		@ link register save eliminated.
 925:../Drivers/STM32N6xx_HAL_Driver/Src/stm32n6xx_hal.c ****   SET_BIT(SYSCFG->CM55RWMCR, SYSCFG_CM55RWMCR_RME_CACHE);
 1557              		.loc 1 925 3 view .LVU285
 1558 0000 024A     		ldr	r2, .L151
 1559 0002 D368     		ldr	r3, [r2, #12]
 1560 0004 43F08003 		orr	r3, r3, #128
 1561 0008 D360     		str	r3, [r2, #12]
 926:../Drivers/STM32N6xx_HAL_Driver/Src/stm32n6xx_hal.c **** }
 1562              		.loc 1 926 1 is_stmt 0 view .LVU286
 1563 000a 7047     		bx	lr
 1564              	.L152:
 1565              		.align	2
 1566              	.L151:
 1567 000c 00800056 		.word	1442873344
 1568              		.cfi_endproc
 1569              	.LFE924:
 1571              		.section	.text.HAL_SYSCFG_DisableCacheExternalMargin,"ax",%progbits
 1572              		.align	1
 1573              		.global	HAL_SYSCFG_DisableCacheExternalMargin
 1574              		.syntax unified
 1575              		.thumb
 1576              		.thumb_func
 1578              	HAL_SYSCFG_DisableCacheExternalMargin:
 1579              	.LFB925:
 927:../Drivers/STM32N6xx_HAL_Driver/Src/stm32n6xx_hal.c **** 
 928:../Drivers/STM32N6xx_HAL_Driver/Src/stm32n6xx_hal.c **** /**
 929:../Drivers/STM32N6xx_HAL_Driver/Src/stm32n6xx_hal.c ****   * @brief  Disable external RW margin inputs for Cache memories
 930:../Drivers/STM32N6xx_HAL_Driver/Src/stm32n6xx_hal.c ****   * @retval None
 931:../Drivers/STM32N6xx_HAL_Driver/Src/stm32n6xx_hal.c ****   */
 932:../Drivers/STM32N6xx_HAL_Driver/Src/stm32n6xx_hal.c **** void HAL_SYSCFG_DisableCacheExternalMargin(void)
 933:../Drivers/STM32N6xx_HAL_Driver/Src/stm32n6xx_hal.c **** {
 1580              		.loc 1 933 1 is_stmt 1 view -0
ARM GAS  /tmp/ccvdUNht.s 			page 45


 1581              		.cfi_startproc
 1582              		@ args = 0, pretend = 0, frame = 0
 1583              		@ frame_needed = 0, uses_anonymous_args = 0
 1584              		@ link register save eliminated.
 934:../Drivers/STM32N6xx_HAL_Driver/Src/stm32n6xx_hal.c ****   CLEAR_BIT(SYSCFG->CM55RWMCR, SYSCFG_CM55RWMCR_RME_CACHE);
 1585              		.loc 1 934 3 view .LVU288
 1586 0000 024A     		ldr	r2, .L154
 1587 0002 D368     		ldr	r3, [r2, #12]
 1588 0004 23F08003 		bic	r3, r3, #128
 1589 0008 D360     		str	r3, [r2, #12]
 935:../Drivers/STM32N6xx_HAL_Driver/Src/stm32n6xx_hal.c **** }
 1590              		.loc 1 935 1 is_stmt 0 view .LVU289
 1591 000a 7047     		bx	lr
 1592              	.L155:
 1593              		.align	2
 1594              	.L154:
 1595 000c 00800056 		.word	1442873344
 1596              		.cfi_endproc
 1597              	.LFE925:
 1599              		.section	.text.HAL_SYSCFG_SetCacheRWMarginInput,"ax",%progbits
 1600              		.align	1
 1601              		.global	HAL_SYSCFG_SetCacheRWMarginInput
 1602              		.syntax unified
 1603              		.thumb
 1604              		.thumb_func
 1606              	HAL_SYSCFG_SetCacheRWMarginInput:
 1607              	.LVL54:
 1608              	.LFB926:
 936:../Drivers/STM32N6xx_HAL_Driver/Src/stm32n6xx_hal.c **** 
 937:../Drivers/STM32N6xx_HAL_Driver/Src/stm32n6xx_hal.c **** /**
 938:../Drivers/STM32N6xx_HAL_Driver/Src/stm32n6xx_hal.c ****   * @brief  Set External RW margin inputs for Cache memories.
 939:../Drivers/STM32N6xx_HAL_Driver/Src/stm32n6xx_hal.c ****   * @param  CacheRWMarginInput Input Margin.
 940:../Drivers/STM32N6xx_HAL_Driver/Src/stm32n6xx_hal.c ****   * @retval None
 941:../Drivers/STM32N6xx_HAL_Driver/Src/stm32n6xx_hal.c ****   */
 942:../Drivers/STM32N6xx_HAL_Driver/Src/stm32n6xx_hal.c **** void HAL_SYSCFG_SetCacheRWMarginInput(uint32_t CacheRWMarginInput)
 943:../Drivers/STM32N6xx_HAL_Driver/Src/stm32n6xx_hal.c **** {
 1609              		.loc 1 943 1 is_stmt 1 view -0
 1610              		.cfi_startproc
 1611              		@ args = 0, pretend = 0, frame = 0
 1612              		@ frame_needed = 0, uses_anonymous_args = 0
 1613              		@ link register save eliminated.
 944:../Drivers/STM32N6xx_HAL_Driver/Src/stm32n6xx_hal.c ****   assert_param(IS_TCM_MARGIN_INPUT(CacheRWMarginInput));
 1614              		.loc 1 944 3 view .LVU291
 945:../Drivers/STM32N6xx_HAL_Driver/Src/stm32n6xx_hal.c **** 
 946:../Drivers/STM32N6xx_HAL_Driver/Src/stm32n6xx_hal.c ****   MODIFY_REG(SYSCFG->CM55RWMCR, SYSCFG_CM55RWMCR_RM_CACHE, (CacheRWMarginInput << 8U));
 1615              		.loc 1 946 3 view .LVU292
 1616 0000 034A     		ldr	r2, .L157
 1617 0002 D368     		ldr	r3, [r2, #12]
 1618 0004 23F47063 		bic	r3, r3, #3840
 1619 0008 43EA0023 		orr	r3, r3, r0, lsl #8
 1620 000c D360     		str	r3, [r2, #12]
 947:../Drivers/STM32N6xx_HAL_Driver/Src/stm32n6xx_hal.c **** }
 1621              		.loc 1 947 1 is_stmt 0 view .LVU293
 1622 000e 7047     		bx	lr
 1623              	.L158:
 1624              		.align	2
 1625              	.L157:
ARM GAS  /tmp/ccvdUNht.s 			page 46


 1626 0010 00800056 		.word	1442873344
 1627              		.cfi_endproc
 1628              	.LFE926:
 1630              		.section	.text.HAL_SYSCFG_GetCacheRWMarginInput,"ax",%progbits
 1631              		.align	1
 1632              		.global	HAL_SYSCFG_GetCacheRWMarginInput
 1633              		.syntax unified
 1634              		.thumb
 1635              		.thumb_func
 1637              	HAL_SYSCFG_GetCacheRWMarginInput:
 1638              	.LVL55:
 1639              	.LFB927:
 948:../Drivers/STM32N6xx_HAL_Driver/Src/stm32n6xx_hal.c **** 
 949:../Drivers/STM32N6xx_HAL_Driver/Src/stm32n6xx_hal.c **** /**
 950:../Drivers/STM32N6xx_HAL_Driver/Src/stm32n6xx_hal.c ****   * @brief  Get the External RW margin inputs for Cache memories.
 951:../Drivers/STM32N6xx_HAL_Driver/Src/stm32n6xx_hal.c ****   * @param  pCacheRWMarginInput Pointer to return Input Margin.
 952:../Drivers/STM32N6xx_HAL_Driver/Src/stm32n6xx_hal.c ****   * @retval HAL status
 953:../Drivers/STM32N6xx_HAL_Driver/Src/stm32n6xx_hal.c ****   */
 954:../Drivers/STM32N6xx_HAL_Driver/Src/stm32n6xx_hal.c **** HAL_StatusTypeDef HAL_SYSCFG_GetCacheRWMarginInput(uint32_t *pCacheRWMarginInput)
 955:../Drivers/STM32N6xx_HAL_Driver/Src/stm32n6xx_hal.c **** {
 1640              		.loc 1 955 1 is_stmt 1 view -0
 1641              		.cfi_startproc
 1642              		@ args = 0, pretend = 0, frame = 0
 1643              		@ frame_needed = 0, uses_anonymous_args = 0
 1644              		@ link register save eliminated.
 956:../Drivers/STM32N6xx_HAL_Driver/Src/stm32n6xx_hal.c ****   /* Check null pointer */
 957:../Drivers/STM32N6xx_HAL_Driver/Src/stm32n6xx_hal.c ****   if (pCacheRWMarginInput == NULL)
 1645              		.loc 1 957 3 view .LVU295
 1646              		.loc 1 957 6 is_stmt 0 view .LVU296
 1647 0000 30B1     		cbz	r0, .L161
 958:../Drivers/STM32N6xx_HAL_Driver/Src/stm32n6xx_hal.c ****   {
 959:../Drivers/STM32N6xx_HAL_Driver/Src/stm32n6xx_hal.c ****     return HAL_ERROR;
 960:../Drivers/STM32N6xx_HAL_Driver/Src/stm32n6xx_hal.c ****   }
 961:../Drivers/STM32N6xx_HAL_Driver/Src/stm32n6xx_hal.c **** 
 962:../Drivers/STM32N6xx_HAL_Driver/Src/stm32n6xx_hal.c ****   /* Get the non-secure lock state */
 963:../Drivers/STM32N6xx_HAL_Driver/Src/stm32n6xx_hal.c ****   *pCacheRWMarginInput = (READ_BIT(SYSCFG->CM55RWMCR, SYSCFG_CM55RWMCR_RM_CACHE) >> 8U);
 1648              		.loc 1 963 3 is_stmt 1 view .LVU297
 1649              		.loc 1 963 27 is_stmt 0 view .LVU298
 1650 0002 044B     		ldr	r3, .L162
 1651 0004 DB68     		ldr	r3, [r3, #12]
 1652              		.loc 1 963 82 view .LVU299
 1653 0006 C3F30323 		ubfx	r3, r3, #8, #4
 1654              		.loc 1 963 24 view .LVU300
 1655 000a 0360     		str	r3, [r0]
 964:../Drivers/STM32N6xx_HAL_Driver/Src/stm32n6xx_hal.c **** 
 965:../Drivers/STM32N6xx_HAL_Driver/Src/stm32n6xx_hal.c ****   return HAL_OK;
 1656              		.loc 1 965 3 is_stmt 1 view .LVU301
 1657              		.loc 1 965 10 is_stmt 0 view .LVU302
 1658 000c 0020     		movs	r0, #0
 1659              	.LVL56:
 1660              		.loc 1 965 10 view .LVU303
 1661 000e 7047     		bx	lr
 1662              	.LVL57:
 1663              	.L161:
 959:../Drivers/STM32N6xx_HAL_Driver/Src/stm32n6xx_hal.c ****   }
 1664              		.loc 1 959 12 view .LVU304
 1665 0010 0120     		movs	r0, #1
ARM GAS  /tmp/ccvdUNht.s 			page 47


 1666              	.LVL58:
 966:../Drivers/STM32N6xx_HAL_Driver/Src/stm32n6xx_hal.c **** }
 1667              		.loc 1 966 1 view .LVU305
 1668 0012 7047     		bx	lr
 1669              	.L163:
 1670              		.align	2
 1671              	.L162:
 1672 0014 00800056 		.word	1442873344
 1673              		.cfi_endproc
 1674              	.LFE927:
 1676              		.section	.text.HAL_SYSCFG_SetCacheBiasingLevel,"ax",%progbits
 1677              		.align	1
 1678              		.global	HAL_SYSCFG_SetCacheBiasingLevel
 1679              		.syntax unified
 1680              		.thumb
 1681              		.thumb_func
 1683              	HAL_SYSCFG_SetCacheBiasingLevel:
 1684              	.LVL59:
 1685              	.LFB928:
 967:../Drivers/STM32N6xx_HAL_Driver/Src/stm32n6xx_hal.c **** 
 968:../Drivers/STM32N6xx_HAL_Driver/Src/stm32n6xx_hal.c **** /**
 969:../Drivers/STM32N6xx_HAL_Driver/Src/stm32n6xx_hal.c ****   * @brief  Set the Cache biasing level adjust input.
 970:../Drivers/STM32N6xx_HAL_Driver/Src/stm32n6xx_hal.c ****   * @param  Level the biaising level adjust input
 971:../Drivers/STM32N6xx_HAL_Driver/Src/stm32n6xx_hal.c ****   *         This parameter can one of the following values:
 972:../Drivers/STM32N6xx_HAL_Driver/Src/stm32n6xx_hal.c ****   *            @arg SYSCFG_CACHE_BIAS_VNOM: Biasing level adjust input recommended for Vnom
 973:../Drivers/STM32N6xx_HAL_Driver/Src/stm32n6xx_hal.c ****   *            @arg SYSCFG_CACHE_BIAS_VNOM_10_PERCENT: Biasing level adjust input recommended for V
 974:../Drivers/STM32N6xx_HAL_Driver/Src/stm32n6xx_hal.c ****   * @retval None
 975:../Drivers/STM32N6xx_HAL_Driver/Src/stm32n6xx_hal.c ****   */
 976:../Drivers/STM32N6xx_HAL_Driver/Src/stm32n6xx_hal.c **** void HAL_SYSCFG_SetCacheBiasingLevel(uint32_t Level)
 977:../Drivers/STM32N6xx_HAL_Driver/Src/stm32n6xx_hal.c **** {
 1686              		.loc 1 977 1 is_stmt 1 view -0
 1687              		.cfi_startproc
 1688              		@ args = 0, pretend = 0, frame = 0
 1689              		@ frame_needed = 0, uses_anonymous_args = 0
 1690              		@ link register save eliminated.
 978:../Drivers/STM32N6xx_HAL_Driver/Src/stm32n6xx_hal.c ****   /* Check the parameters */
 979:../Drivers/STM32N6xx_HAL_Driver/Src/stm32n6xx_hal.c ****   assert_param(IS_SYSCFG_CACHE_BIASING_LEVEL(Level));
 1691              		.loc 1 979 3 view .LVU307
 980:../Drivers/STM32N6xx_HAL_Driver/Src/stm32n6xx_hal.c **** 
 981:../Drivers/STM32N6xx_HAL_Driver/Src/stm32n6xx_hal.c ****   MODIFY_REG(SYSCFG->CM55RWMCR, SYSCFG_CM55RWMCR_BC2_CACHE | SYSCFG_CM55RWMCR_BC1_CACHE, Level);
 1692              		.loc 1 981 3 view .LVU308
 1693 0000 034A     		ldr	r2, .L165
 1694 0002 D368     		ldr	r3, [r2, #12]
 1695 0004 23F44053 		bic	r3, r3, #12288
 1696 0008 0343     		orrs	r3, r3, r0
 1697 000a D360     		str	r3, [r2, #12]
 982:../Drivers/STM32N6xx_HAL_Driver/Src/stm32n6xx_hal.c **** }
 1698              		.loc 1 982 1 is_stmt 0 view .LVU309
 1699 000c 7047     		bx	lr
 1700              	.L166:
 1701 000e 00BF     		.align	2
 1702              	.L165:
 1703 0010 00800056 		.word	1442873344
 1704              		.cfi_endproc
 1705              	.LFE928:
 1707              		.section	.text.HAL_SYSCFG_GetCacheBiasingLevel,"ax",%progbits
 1708              		.align	1
ARM GAS  /tmp/ccvdUNht.s 			page 48


 1709              		.global	HAL_SYSCFG_GetCacheBiasingLevel
 1710              		.syntax unified
 1711              		.thumb
 1712              		.thumb_func
 1714              	HAL_SYSCFG_GetCacheBiasingLevel:
 1715              	.LVL60:
 1716              	.LFB929:
 983:../Drivers/STM32N6xx_HAL_Driver/Src/stm32n6xx_hal.c **** 
 984:../Drivers/STM32N6xx_HAL_Driver/Src/stm32n6xx_hal.c **** /**
 985:../Drivers/STM32N6xx_HAL_Driver/Src/stm32n6xx_hal.c ****   * @brief  Get the Cache biasing level adjust input.
 986:../Drivers/STM32N6xx_HAL_Driver/Src/stm32n6xx_hal.c ****   * @param  pLevel Pointer to return Cache biasing level adjust input.
 987:../Drivers/STM32N6xx_HAL_Driver/Src/stm32n6xx_hal.c ****   *         The return value can be onr of the following values:
 988:../Drivers/STM32N6xx_HAL_Driver/Src/stm32n6xx_hal.c ****   *            @arg SYSCFG_CACHE_BIAS_VNOM boot: Biasing level adjust input recommended for Vnom
 989:../Drivers/STM32N6xx_HAL_Driver/Src/stm32n6xx_hal.c ****   *            @arg SYSCFG_CACHE_BIAS_VNOM_10_PERCENT: Biasing level adjust input recommended for V
 990:../Drivers/STM32N6xx_HAL_Driver/Src/stm32n6xx_hal.c ****   * @retval HAL status
 991:../Drivers/STM32N6xx_HAL_Driver/Src/stm32n6xx_hal.c ****   */
 992:../Drivers/STM32N6xx_HAL_Driver/Src/stm32n6xx_hal.c **** HAL_StatusTypeDef HAL_SYSCFG_GetCacheBiasingLevel(uint32_t *pLevel)
 993:../Drivers/STM32N6xx_HAL_Driver/Src/stm32n6xx_hal.c **** {
 1717              		.loc 1 993 1 is_stmt 1 view -0
 1718              		.cfi_startproc
 1719              		@ args = 0, pretend = 0, frame = 0
 1720              		@ frame_needed = 0, uses_anonymous_args = 0
 1721              		@ link register save eliminated.
 994:../Drivers/STM32N6xx_HAL_Driver/Src/stm32n6xx_hal.c ****   /* Check null pointer */
 995:../Drivers/STM32N6xx_HAL_Driver/Src/stm32n6xx_hal.c ****   if (pLevel == NULL)
 1722              		.loc 1 995 3 view .LVU311
 1723              		.loc 1 995 6 is_stmt 0 view .LVU312
 1724 0000 30B1     		cbz	r0, .L169
 996:../Drivers/STM32N6xx_HAL_Driver/Src/stm32n6xx_hal.c ****   {
 997:../Drivers/STM32N6xx_HAL_Driver/Src/stm32n6xx_hal.c ****     return HAL_ERROR;
 998:../Drivers/STM32N6xx_HAL_Driver/Src/stm32n6xx_hal.c ****   }
 999:../Drivers/STM32N6xx_HAL_Driver/Src/stm32n6xx_hal.c **** 
1000:../Drivers/STM32N6xx_HAL_Driver/Src/stm32n6xx_hal.c ****   /* Get the cache biaising */
1001:../Drivers/STM32N6xx_HAL_Driver/Src/stm32n6xx_hal.c ****   *pLevel = READ_BIT(SYSCFG->CM55RWMCR, SYSCFG_CM55RWMCR_BC2_CACHE | SYSCFG_CM55RWMCR_BC1_CACHE);
 1725              		.loc 1 1001 3 is_stmt 1 view .LVU313
 1726              		.loc 1 1001 13 is_stmt 0 view .LVU314
 1727 0002 044B     		ldr	r3, .L170
 1728 0004 DB68     		ldr	r3, [r3, #12]
 1729 0006 03F44053 		and	r3, r3, #12288
 1730              		.loc 1 1001 11 view .LVU315
 1731 000a 0360     		str	r3, [r0]
1002:../Drivers/STM32N6xx_HAL_Driver/Src/stm32n6xx_hal.c **** 
1003:../Drivers/STM32N6xx_HAL_Driver/Src/stm32n6xx_hal.c ****   return HAL_OK;
 1732              		.loc 1 1003 3 is_stmt 1 view .LVU316
 1733              		.loc 1 1003 10 is_stmt 0 view .LVU317
 1734 000c 0020     		movs	r0, #0
 1735              	.LVL61:
 1736              		.loc 1 1003 10 view .LVU318
 1737 000e 7047     		bx	lr
 1738              	.LVL62:
 1739              	.L169:
 997:../Drivers/STM32N6xx_HAL_Driver/Src/stm32n6xx_hal.c ****   }
 1740              		.loc 1 997 12 view .LVU319
 1741 0010 0120     		movs	r0, #1
 1742              	.LVL63:
1004:../Drivers/STM32N6xx_HAL_Driver/Src/stm32n6xx_hal.c **** }
 1743              		.loc 1 1004 1 view .LVU320
ARM GAS  /tmp/ccvdUNht.s 			page 49


 1744 0012 7047     		bx	lr
 1745              	.L171:
 1746              		.align	2
 1747              	.L170:
 1748 0014 00800056 		.word	1442873344
 1749              		.cfi_endproc
 1750              	.LFE929:
 1752              		.section	.text.HAL_SYSCFG_SetSVTORAddress,"ax",%progbits
 1753              		.align	1
 1754              		.global	HAL_SYSCFG_SetSVTORAddress
 1755              		.syntax unified
 1756              		.thumb
 1757              		.thumb_func
 1759              	HAL_SYSCFG_SetSVTORAddress:
 1760              	.LVL64:
 1761              	.LFB930:
1005:../Drivers/STM32N6xx_HAL_Driver/Src/stm32n6xx_hal.c **** 
1006:../Drivers/STM32N6xx_HAL_Driver/Src/stm32n6xx_hal.c **** /**
1007:../Drivers/STM32N6xx_HAL_Driver/Src/stm32n6xx_hal.c ****   * @brief  Set the secure vector table (VTOR) address.
1008:../Drivers/STM32N6xx_HAL_Driver/Src/stm32n6xx_hal.c ****   * @note   Secure vector table address must be set to ensure return from STANDBY state.
1009:../Drivers/STM32N6xx_HAL_Driver/Src/stm32n6xx_hal.c ****   * @param  Address Secure VTOR address
1010:../Drivers/STM32N6xx_HAL_Driver/Src/stm32n6xx_hal.c ****   * @retval None
1011:../Drivers/STM32N6xx_HAL_Driver/Src/stm32n6xx_hal.c ****   */
1012:../Drivers/STM32N6xx_HAL_Driver/Src/stm32n6xx_hal.c **** void HAL_SYSCFG_SetSVTORAddress(uint32_t Address)
1013:../Drivers/STM32N6xx_HAL_Driver/Src/stm32n6xx_hal.c **** {
 1762              		.loc 1 1013 1 is_stmt 1 view -0
 1763              		.cfi_startproc
 1764              		@ args = 0, pretend = 0, frame = 0
 1765              		@ frame_needed = 0, uses_anonymous_args = 0
 1766              		@ link register save eliminated.
1014:../Drivers/STM32N6xx_HAL_Driver/Src/stm32n6xx_hal.c ****   /* Check the parameters */
1015:../Drivers/STM32N6xx_HAL_Driver/Src/stm32n6xx_hal.c ****   assert_param(IS_VTOR_ADDRESS(Address));
 1767              		.loc 1 1015 3 view .LVU322
1016:../Drivers/STM32N6xx_HAL_Driver/Src/stm32n6xx_hal.c **** 
1017:../Drivers/STM32N6xx_HAL_Driver/Src/stm32n6xx_hal.c ****   WRITE_REG(SYSCFG->INITSVTORCR, Address);
 1768              		.loc 1 1017 3 view .LVU323
 1769 0000 014B     		ldr	r3, .L173
 1770 0002 1861     		str	r0, [r3, #16]
1018:../Drivers/STM32N6xx_HAL_Driver/Src/stm32n6xx_hal.c **** }
 1771              		.loc 1 1018 1 is_stmt 0 view .LVU324
 1772 0004 7047     		bx	lr
 1773              	.L174:
 1774 0006 00BF     		.align	2
 1775              	.L173:
 1776 0008 00800056 		.word	1442873344
 1777              		.cfi_endproc
 1778              	.LFE930:
 1780              		.section	.text.HAL_SYSCFG_GetSVTORAddress,"ax",%progbits
 1781              		.align	1
 1782              		.global	HAL_SYSCFG_GetSVTORAddress
 1783              		.syntax unified
 1784              		.thumb
 1785              		.thumb_func
 1787              	HAL_SYSCFG_GetSVTORAddress:
 1788              	.LVL65:
 1789              	.LFB931:
1019:../Drivers/STM32N6xx_HAL_Driver/Src/stm32n6xx_hal.c **** 
ARM GAS  /tmp/ccvdUNht.s 			page 50


1020:../Drivers/STM32N6xx_HAL_Driver/Src/stm32n6xx_hal.c **** /**
1021:../Drivers/STM32N6xx_HAL_Driver/Src/stm32n6xx_hal.c ****   * @brief  Get the secure vector table (VTOR) address.
1022:../Drivers/STM32N6xx_HAL_Driver/Src/stm32n6xx_hal.c ****   * @param  pAddress  Pointer to return the secure vector table address
1023:../Drivers/STM32N6xx_HAL_Driver/Src/stm32n6xx_hal.c ****   * @retval HAL status
1024:../Drivers/STM32N6xx_HAL_Driver/Src/stm32n6xx_hal.c ****   */
1025:../Drivers/STM32N6xx_HAL_Driver/Src/stm32n6xx_hal.c **** HAL_StatusTypeDef HAL_SYSCFG_GetSVTORAddress(uint32_t *pAddress)
1026:../Drivers/STM32N6xx_HAL_Driver/Src/stm32n6xx_hal.c **** {
 1790              		.loc 1 1026 1 is_stmt 1 view -0
 1791              		.cfi_startproc
 1792              		@ args = 0, pretend = 0, frame = 0
 1793              		@ frame_needed = 0, uses_anonymous_args = 0
 1794              		@ link register save eliminated.
1027:../Drivers/STM32N6xx_HAL_Driver/Src/stm32n6xx_hal.c ****   /* Check null pointer */
1028:../Drivers/STM32N6xx_HAL_Driver/Src/stm32n6xx_hal.c ****   if (pAddress == NULL)
 1795              		.loc 1 1028 3 view .LVU326
 1796              		.loc 1 1028 6 is_stmt 0 view .LVU327
 1797 0000 20B1     		cbz	r0, .L177
1029:../Drivers/STM32N6xx_HAL_Driver/Src/stm32n6xx_hal.c ****   {
1030:../Drivers/STM32N6xx_HAL_Driver/Src/stm32n6xx_hal.c ****     return HAL_ERROR;
1031:../Drivers/STM32N6xx_HAL_Driver/Src/stm32n6xx_hal.c ****   }
1032:../Drivers/STM32N6xx_HAL_Driver/Src/stm32n6xx_hal.c **** 
1033:../Drivers/STM32N6xx_HAL_Driver/Src/stm32n6xx_hal.c ****   /* Get the secure VTOR address */
1034:../Drivers/STM32N6xx_HAL_Driver/Src/stm32n6xx_hal.c ****   *pAddress = READ_REG(SYSCFG->INITSVTORCR);
 1798              		.loc 1 1034 3 is_stmt 1 view .LVU328
 1799              		.loc 1 1034 15 is_stmt 0 view .LVU329
 1800 0002 034A     		ldr	r2, .L178
 1801 0004 1269     		ldr	r2, [r2, #16]
 1802              		.loc 1 1034 13 view .LVU330
 1803 0006 0260     		str	r2, [r0]
1035:../Drivers/STM32N6xx_HAL_Driver/Src/stm32n6xx_hal.c **** 
1036:../Drivers/STM32N6xx_HAL_Driver/Src/stm32n6xx_hal.c ****   return HAL_OK;
 1804              		.loc 1 1036 3 is_stmt 1 view .LVU331
 1805              		.loc 1 1036 10 is_stmt 0 view .LVU332
 1806 0008 0020     		movs	r0, #0
 1807              	.LVL66:
 1808              		.loc 1 1036 10 view .LVU333
 1809 000a 7047     		bx	lr
 1810              	.LVL67:
 1811              	.L177:
1030:../Drivers/STM32N6xx_HAL_Driver/Src/stm32n6xx_hal.c ****   }
 1812              		.loc 1 1030 12 view .LVU334
 1813 000c 0120     		movs	r0, #1
 1814              	.LVL68:
1037:../Drivers/STM32N6xx_HAL_Driver/Src/stm32n6xx_hal.c **** }
 1815              		.loc 1 1037 1 view .LVU335
 1816 000e 7047     		bx	lr
 1817              	.L179:
 1818              		.align	2
 1819              	.L178:
 1820 0010 00800056 		.word	1442873344
 1821              		.cfi_endproc
 1822              	.LFE931:
 1824              		.section	.text.HAL_SYSCFG_SetNSVTORAddress,"ax",%progbits
 1825              		.align	1
 1826              		.global	HAL_SYSCFG_SetNSVTORAddress
 1827              		.syntax unified
 1828              		.thumb
ARM GAS  /tmp/ccvdUNht.s 			page 51


 1829              		.thumb_func
 1831              	HAL_SYSCFG_SetNSVTORAddress:
 1832              	.LVL69:
 1833              	.LFB932:
1038:../Drivers/STM32N6xx_HAL_Driver/Src/stm32n6xx_hal.c **** 
1039:../Drivers/STM32N6xx_HAL_Driver/Src/stm32n6xx_hal.c **** /**
1040:../Drivers/STM32N6xx_HAL_Driver/Src/stm32n6xx_hal.c ****   * @brief  Set the non secure vector table (VTOR) address.
1041:../Drivers/STM32N6xx_HAL_Driver/Src/stm32n6xx_hal.c ****   * @param  Address Non-secure VTOR address
1042:../Drivers/STM32N6xx_HAL_Driver/Src/stm32n6xx_hal.c ****   * @retval None
1043:../Drivers/STM32N6xx_HAL_Driver/Src/stm32n6xx_hal.c ****   */
1044:../Drivers/STM32N6xx_HAL_Driver/Src/stm32n6xx_hal.c **** void HAL_SYSCFG_SetNSVTORAddress(uint32_t Address)
1045:../Drivers/STM32N6xx_HAL_Driver/Src/stm32n6xx_hal.c **** {
 1834              		.loc 1 1045 1 is_stmt 1 view -0
 1835              		.cfi_startproc
 1836              		@ args = 0, pretend = 0, frame = 0
 1837              		@ frame_needed = 0, uses_anonymous_args = 0
 1838              		@ link register save eliminated.
1046:../Drivers/STM32N6xx_HAL_Driver/Src/stm32n6xx_hal.c ****   /* Check the parameters */
1047:../Drivers/STM32N6xx_HAL_Driver/Src/stm32n6xx_hal.c ****   assert_param(IS_VTOR_ADDRESS(Address));
 1839              		.loc 1 1047 3 view .LVU337
1048:../Drivers/STM32N6xx_HAL_Driver/Src/stm32n6xx_hal.c **** 
1049:../Drivers/STM32N6xx_HAL_Driver/Src/stm32n6xx_hal.c ****   WRITE_REG(SYSCFG->INITNSVTORCR, Address);
 1840              		.loc 1 1049 3 view .LVU338
 1841 0000 014B     		ldr	r3, .L181
 1842 0002 5861     		str	r0, [r3, #20]
1050:../Drivers/STM32N6xx_HAL_Driver/Src/stm32n6xx_hal.c **** }
 1843              		.loc 1 1050 1 is_stmt 0 view .LVU339
 1844 0004 7047     		bx	lr
 1845              	.L182:
 1846 0006 00BF     		.align	2
 1847              	.L181:
 1848 0008 00800056 		.word	1442873344
 1849              		.cfi_endproc
 1850              	.LFE932:
 1852              		.section	.text.HAL_SYSCFG_GetNSVTORAddress,"ax",%progbits
 1853              		.align	1
 1854              		.global	HAL_SYSCFG_GetNSVTORAddress
 1855              		.syntax unified
 1856              		.thumb
 1857              		.thumb_func
 1859              	HAL_SYSCFG_GetNSVTORAddress:
 1860              	.LVL70:
 1861              	.LFB933:
1051:../Drivers/STM32N6xx_HAL_Driver/Src/stm32n6xx_hal.c **** 
1052:../Drivers/STM32N6xx_HAL_Driver/Src/stm32n6xx_hal.c **** /**
1053:../Drivers/STM32N6xx_HAL_Driver/Src/stm32n6xx_hal.c ****   * @brief  Get the non secure VTOR address.
1054:../Drivers/STM32N6xx_HAL_Driver/Src/stm32n6xx_hal.c ****   * @param  pAddress  Pointer to return the non-secure vector table address
1055:../Drivers/STM32N6xx_HAL_Driver/Src/stm32n6xx_hal.c ****   * @retval HAL status
1056:../Drivers/STM32N6xx_HAL_Driver/Src/stm32n6xx_hal.c ****   */
1057:../Drivers/STM32N6xx_HAL_Driver/Src/stm32n6xx_hal.c **** HAL_StatusTypeDef HAL_SYSCFG_GetNSVTORAddress(uint32_t *pAddress)
1058:../Drivers/STM32N6xx_HAL_Driver/Src/stm32n6xx_hal.c **** {
 1862              		.loc 1 1058 1 is_stmt 1 view -0
 1863              		.cfi_startproc
 1864              		@ args = 0, pretend = 0, frame = 0
 1865              		@ frame_needed = 0, uses_anonymous_args = 0
 1866              		@ link register save eliminated.
1059:../Drivers/STM32N6xx_HAL_Driver/Src/stm32n6xx_hal.c ****   /* Check null pointer */
ARM GAS  /tmp/ccvdUNht.s 			page 52


1060:../Drivers/STM32N6xx_HAL_Driver/Src/stm32n6xx_hal.c ****   if (pAddress == NULL)
 1867              		.loc 1 1060 3 view .LVU341
 1868              		.loc 1 1060 6 is_stmt 0 view .LVU342
 1869 0000 20B1     		cbz	r0, .L185
1061:../Drivers/STM32N6xx_HAL_Driver/Src/stm32n6xx_hal.c ****   {
1062:../Drivers/STM32N6xx_HAL_Driver/Src/stm32n6xx_hal.c ****     return HAL_ERROR;
1063:../Drivers/STM32N6xx_HAL_Driver/Src/stm32n6xx_hal.c ****   }
1064:../Drivers/STM32N6xx_HAL_Driver/Src/stm32n6xx_hal.c **** 
1065:../Drivers/STM32N6xx_HAL_Driver/Src/stm32n6xx_hal.c ****   /* Get the non-secure VTOR address */
1066:../Drivers/STM32N6xx_HAL_Driver/Src/stm32n6xx_hal.c ****   *pAddress = READ_REG(SYSCFG->INITNSVTORCR);
 1870              		.loc 1 1066 3 is_stmt 1 view .LVU343
 1871              		.loc 1 1066 15 is_stmt 0 view .LVU344
 1872 0002 034A     		ldr	r2, .L186
 1873 0004 5269     		ldr	r2, [r2, #20]
 1874              		.loc 1 1066 13 view .LVU345
 1875 0006 0260     		str	r2, [r0]
1067:../Drivers/STM32N6xx_HAL_Driver/Src/stm32n6xx_hal.c **** 
1068:../Drivers/STM32N6xx_HAL_Driver/Src/stm32n6xx_hal.c ****   return HAL_OK;
 1876              		.loc 1 1068 3 is_stmt 1 view .LVU346
 1877              		.loc 1 1068 10 is_stmt 0 view .LVU347
 1878 0008 0020     		movs	r0, #0
 1879              	.LVL71:
 1880              		.loc 1 1068 10 view .LVU348
 1881 000a 7047     		bx	lr
 1882              	.LVL72:
 1883              	.L185:
1062:../Drivers/STM32N6xx_HAL_Driver/Src/stm32n6xx_hal.c ****   }
 1884              		.loc 1 1062 12 view .LVU349
 1885 000c 0120     		movs	r0, #1
 1886              	.LVL73:
1069:../Drivers/STM32N6xx_HAL_Driver/Src/stm32n6xx_hal.c **** }
 1887              		.loc 1 1069 1 view .LVU350
 1888 000e 7047     		bx	lr
 1889              	.L187:
 1890              		.align	2
 1891              	.L186:
 1892 0010 00800056 		.word	1442873344
 1893              		.cfi_endproc
 1894              	.LFE933:
 1896              		.section	.text.HAL_SYSCFG_EnablePowerOnReset,"ax",%progbits
 1897              		.align	1
 1898              		.global	HAL_SYSCFG_EnablePowerOnReset
 1899              		.syntax unified
 1900              		.thumb
 1901              		.thumb_func
 1903              	HAL_SYSCFG_EnablePowerOnReset:
 1904              	.LFB934:
1070:../Drivers/STM32N6xx_HAL_Driver/Src/stm32n6xx_hal.c **** 
1071:../Drivers/STM32N6xx_HAL_Driver/Src/stm32n6xx_hal.c **** /**
1072:../Drivers/STM32N6xx_HAL_Driver/Src/stm32n6xx_hal.c ****   * @brief  Enable the Power-on reset.
1073:../Drivers/STM32N6xx_HAL_Driver/Src/stm32n6xx_hal.c ****   * @note   Select power-on reset to apply on core upon SYSRESETREQ (NVIC_SystemReset())
1074:../Drivers/STM32N6xx_HAL_Driver/Src/stm32n6xx_hal.c ****   * @retval None
1075:../Drivers/STM32N6xx_HAL_Driver/Src/stm32n6xx_hal.c ****   */
1076:../Drivers/STM32N6xx_HAL_Driver/Src/stm32n6xx_hal.c **** void HAL_SYSCFG_EnablePowerOnReset(void)
1077:../Drivers/STM32N6xx_HAL_Driver/Src/stm32n6xx_hal.c **** {
 1905              		.loc 1 1077 1 is_stmt 1 view -0
 1906              		.cfi_startproc
ARM GAS  /tmp/ccvdUNht.s 			page 53


 1907              		@ args = 0, pretend = 0, frame = 0
 1908              		@ frame_needed = 0, uses_anonymous_args = 0
 1909              		@ link register save eliminated.
1078:../Drivers/STM32N6xx_HAL_Driver/Src/stm32n6xx_hal.c ****   SET_BIT(SYSCFG->CM55RSTCR, SYSCFG_CM55RSTCR_CORE_RESET_TYPE);
 1910              		.loc 1 1078 3 view .LVU352
 1911 0000 024A     		ldr	r2, .L189
 1912 0002 9369     		ldr	r3, [r2, #24]
 1913 0004 43F00103 		orr	r3, r3, #1
 1914 0008 9361     		str	r3, [r2, #24]
1079:../Drivers/STM32N6xx_HAL_Driver/Src/stm32n6xx_hal.c **** }
 1915              		.loc 1 1079 1 is_stmt 0 view .LVU353
 1916 000a 7047     		bx	lr
 1917              	.L190:
 1918              		.align	2
 1919              	.L189:
 1920 000c 00800056 		.word	1442873344
 1921              		.cfi_endproc
 1922              	.LFE934:
 1924              		.section	.text.HAL_SYSCFG_DisablePowerOnReset,"ax",%progbits
 1925              		.align	1
 1926              		.global	HAL_SYSCFG_DisablePowerOnReset
 1927              		.syntax unified
 1928              		.thumb
 1929              		.thumb_func
 1931              	HAL_SYSCFG_DisablePowerOnReset:
 1932              	.LFB935:
1080:../Drivers/STM32N6xx_HAL_Driver/Src/stm32n6xx_hal.c **** 
1081:../Drivers/STM32N6xx_HAL_Driver/Src/stm32n6xx_hal.c **** /**
1082:../Drivers/STM32N6xx_HAL_Driver/Src/stm32n6xx_hal.c ****   * @brief  Disable the Power-on reset.
1083:../Drivers/STM32N6xx_HAL_Driver/Src/stm32n6xx_hal.c ****   * @note   Select warm reset to apply on core upon SYSRESETREQ (NVIC_SystemReset())
1084:../Drivers/STM32N6xx_HAL_Driver/Src/stm32n6xx_hal.c ****   * @retval None
1085:../Drivers/STM32N6xx_HAL_Driver/Src/stm32n6xx_hal.c ****   */
1086:../Drivers/STM32N6xx_HAL_Driver/Src/stm32n6xx_hal.c **** void HAL_SYSCFG_DisablePowerOnReset(void)
1087:../Drivers/STM32N6xx_HAL_Driver/Src/stm32n6xx_hal.c **** {
 1933              		.loc 1 1087 1 is_stmt 1 view -0
 1934              		.cfi_startproc
 1935              		@ args = 0, pretend = 0, frame = 0
 1936              		@ frame_needed = 0, uses_anonymous_args = 0
 1937              		@ link register save eliminated.
1088:../Drivers/STM32N6xx_HAL_Driver/Src/stm32n6xx_hal.c ****   CLEAR_BIT(SYSCFG->CM55RSTCR, SYSCFG_CM55RSTCR_CORE_RESET_TYPE);
 1938              		.loc 1 1088 3 view .LVU355
 1939 0000 024A     		ldr	r2, .L192
 1940 0002 9369     		ldr	r3, [r2, #24]
 1941 0004 23F00103 		bic	r3, r3, #1
 1942 0008 9361     		str	r3, [r2, #24]
1089:../Drivers/STM32N6xx_HAL_Driver/Src/stm32n6xx_hal.c **** }
 1943              		.loc 1 1089 1 is_stmt 0 view .LVU356
 1944 000a 7047     		bx	lr
 1945              	.L193:
 1946              		.align	2
 1947              	.L192:
 1948 000c 00800056 		.word	1442873344
 1949              		.cfi_endproc
 1950              	.LFE935:
 1952              		.section	.text.HAL_SYSCFG_EnableLockupWarmResetonRCC,"ax",%progbits
 1953              		.align	1
 1954              		.global	HAL_SYSCFG_EnableLockupWarmResetonRCC
ARM GAS  /tmp/ccvdUNht.s 			page 54


 1955              		.syntax unified
 1956              		.thumb
 1957              		.thumb_func
 1959              	HAL_SYSCFG_EnableLockupWarmResetonRCC:
 1960              	.LFB936:
1090:../Drivers/STM32N6xx_HAL_Driver/Src/stm32n6xx_hal.c **** 
1091:../Drivers/STM32N6xx_HAL_Driver/Src/stm32n6xx_hal.c **** /**
1092:../Drivers/STM32N6xx_HAL_Driver/Src/stm32n6xx_hal.c ****   * @brief  Enable Lockup requests a warm reset to the RCC.
1093:../Drivers/STM32N6xx_HAL_Driver/Src/stm32n6xx_hal.c ****   * @note   Select action to perform on a lockup state on the core
1094:../Drivers/STM32N6xx_HAL_Driver/Src/stm32n6xx_hal.c ****   * @retval None
1095:../Drivers/STM32N6xx_HAL_Driver/Src/stm32n6xx_hal.c ****   */
1096:../Drivers/STM32N6xx_HAL_Driver/Src/stm32n6xx_hal.c **** void HAL_SYSCFG_EnableLockupWarmResetonRCC(void)
1097:../Drivers/STM32N6xx_HAL_Driver/Src/stm32n6xx_hal.c **** {
 1961              		.loc 1 1097 1 is_stmt 1 view -0
 1962              		.cfi_startproc
 1963              		@ args = 0, pretend = 0, frame = 0
 1964              		@ frame_needed = 0, uses_anonymous_args = 0
 1965              		@ link register save eliminated.
1098:../Drivers/STM32N6xx_HAL_Driver/Src/stm32n6xx_hal.c ****   SET_BIT(SYSCFG->CM55RSTCR, SYSCFG_CM55RSTCR_LOCKUP_RST_EN);
 1966              		.loc 1 1098 3 view .LVU358
 1967 0000 024A     		ldr	r2, .L195
 1968 0002 9369     		ldr	r3, [r2, #24]
 1969 0004 43F00203 		orr	r3, r3, #2
 1970 0008 9361     		str	r3, [r2, #24]
1099:../Drivers/STM32N6xx_HAL_Driver/Src/stm32n6xx_hal.c **** }
 1971              		.loc 1 1099 1 is_stmt 0 view .LVU359
 1972 000a 7047     		bx	lr
 1973              	.L196:
 1974              		.align	2
 1975              	.L195:
 1976 000c 00800056 		.word	1442873344
 1977              		.cfi_endproc
 1978              	.LFE936:
 1980              		.section	.text.HAL_SYSCFG_DisableLockupWarmResetonRCC,"ax",%progbits
 1981              		.align	1
 1982              		.global	HAL_SYSCFG_DisableLockupWarmResetonRCC
 1983              		.syntax unified
 1984              		.thumb
 1985              		.thumb_func
 1987              	HAL_SYSCFG_DisableLockupWarmResetonRCC:
 1988              	.LFB937:
1100:../Drivers/STM32N6xx_HAL_Driver/Src/stm32n6xx_hal.c **** 
1101:../Drivers/STM32N6xx_HAL_Driver/Src/stm32n6xx_hal.c **** /**
1102:../Drivers/STM32N6xx_HAL_Driver/Src/stm32n6xx_hal.c ****   * @brief  Disable Lockup requests a warm reset to the RCC.
1103:../Drivers/STM32N6xx_HAL_Driver/Src/stm32n6xx_hal.c ****   * @note   Select action to perform on a lockup state on the core
1104:../Drivers/STM32N6xx_HAL_Driver/Src/stm32n6xx_hal.c ****   * @retval None
1105:../Drivers/STM32N6xx_HAL_Driver/Src/stm32n6xx_hal.c ****   */
1106:../Drivers/STM32N6xx_HAL_Driver/Src/stm32n6xx_hal.c **** void HAL_SYSCFG_DisableLockupWarmResetonRCC(void)
1107:../Drivers/STM32N6xx_HAL_Driver/Src/stm32n6xx_hal.c **** {
 1989              		.loc 1 1107 1 is_stmt 1 view -0
 1990              		.cfi_startproc
 1991              		@ args = 0, pretend = 0, frame = 0
 1992              		@ frame_needed = 0, uses_anonymous_args = 0
 1993              		@ link register save eliminated.
1108:../Drivers/STM32N6xx_HAL_Driver/Src/stm32n6xx_hal.c ****   CLEAR_BIT(SYSCFG->CM55RSTCR, SYSCFG_CM55RSTCR_LOCKUP_RST_EN);
 1994              		.loc 1 1108 3 view .LVU361
 1995 0000 024A     		ldr	r2, .L198
ARM GAS  /tmp/ccvdUNht.s 			page 55


 1996 0002 9369     		ldr	r3, [r2, #24]
 1997 0004 23F00203 		bic	r3, r3, #2
 1998 0008 9361     		str	r3, [r2, #24]
1109:../Drivers/STM32N6xx_HAL_Driver/Src/stm32n6xx_hal.c **** }
 1999              		.loc 1 1109 1 is_stmt 0 view .LVU362
 2000 000a 7047     		bx	lr
 2001              	.L199:
 2002              		.align	2
 2003              	.L198:
 2004 000c 00800056 		.word	1442873344
 2005              		.cfi_endproc
 2006              	.LFE937:
 2008              		.section	.text.HAL_SYSCFG_EnableLockupGenerateNMI,"ax",%progbits
 2009              		.align	1
 2010              		.global	HAL_SYSCFG_EnableLockupGenerateNMI
 2011              		.syntax unified
 2012              		.thumb
 2013              		.thumb_func
 2015              	HAL_SYSCFG_EnableLockupGenerateNMI:
 2016              	.LFB938:
1110:../Drivers/STM32N6xx_HAL_Driver/Src/stm32n6xx_hal.c **** 
1111:../Drivers/STM32N6xx_HAL_Driver/Src/stm32n6xx_hal.c **** /**
1112:../Drivers/STM32N6xx_HAL_Driver/Src/stm32n6xx_hal.c ****   * @brief  Enable Lockup generates a NMI on the core.
1113:../Drivers/STM32N6xx_HAL_Driver/Src/stm32n6xx_hal.c ****   * @note   Select action to perform on a lockup state on the core
1114:../Drivers/STM32N6xx_HAL_Driver/Src/stm32n6xx_hal.c ****   * @retval None
1115:../Drivers/STM32N6xx_HAL_Driver/Src/stm32n6xx_hal.c ****   */
1116:../Drivers/STM32N6xx_HAL_Driver/Src/stm32n6xx_hal.c **** void HAL_SYSCFG_EnableLockupGenerateNMI(void)
1117:../Drivers/STM32N6xx_HAL_Driver/Src/stm32n6xx_hal.c **** {
 2017              		.loc 1 1117 1 is_stmt 1 view -0
 2018              		.cfi_startproc
 2019              		@ args = 0, pretend = 0, frame = 0
 2020              		@ frame_needed = 0, uses_anonymous_args = 0
 2021              		@ link register save eliminated.
1118:../Drivers/STM32N6xx_HAL_Driver/Src/stm32n6xx_hal.c ****   SET_BIT(SYSCFG->CM55RSTCR, SYSCFG_CM55RSTCR_LOCKUP_NMI_EN);
 2022              		.loc 1 1118 3 view .LVU364
 2023 0000 024A     		ldr	r2, .L201
 2024 0002 9369     		ldr	r3, [r2, #24]
 2025 0004 43F00403 		orr	r3, r3, #4
 2026 0008 9361     		str	r3, [r2, #24]
1119:../Drivers/STM32N6xx_HAL_Driver/Src/stm32n6xx_hal.c **** }
 2027              		.loc 1 1119 1 is_stmt 0 view .LVU365
 2028 000a 7047     		bx	lr
 2029              	.L202:
 2030              		.align	2
 2031              	.L201:
 2032 000c 00800056 		.word	1442873344
 2033              		.cfi_endproc
 2034              	.LFE938:
 2036              		.section	.text.HAL_SYSCFG_DisableLockupGenerateNMI,"ax",%progbits
 2037              		.align	1
 2038              		.global	HAL_SYSCFG_DisableLockupGenerateNMI
 2039              		.syntax unified
 2040              		.thumb
 2041              		.thumb_func
 2043              	HAL_SYSCFG_DisableLockupGenerateNMI:
 2044              	.LFB939:
1120:../Drivers/STM32N6xx_HAL_Driver/Src/stm32n6xx_hal.c **** 
ARM GAS  /tmp/ccvdUNht.s 			page 56


1121:../Drivers/STM32N6xx_HAL_Driver/Src/stm32n6xx_hal.c **** /**
1122:../Drivers/STM32N6xx_HAL_Driver/Src/stm32n6xx_hal.c ****   * @brief  Disable Lockup generates a NMI on the core.
1123:../Drivers/STM32N6xx_HAL_Driver/Src/stm32n6xx_hal.c ****   * @note   Select action to perform on a lockup state on the core
1124:../Drivers/STM32N6xx_HAL_Driver/Src/stm32n6xx_hal.c ****   * @retval None
1125:../Drivers/STM32N6xx_HAL_Driver/Src/stm32n6xx_hal.c ****   */
1126:../Drivers/STM32N6xx_HAL_Driver/Src/stm32n6xx_hal.c **** void HAL_SYSCFG_DisableLockupGenerateNMI(void)
1127:../Drivers/STM32N6xx_HAL_Driver/Src/stm32n6xx_hal.c **** {
 2045              		.loc 1 1127 1 is_stmt 1 view -0
 2046              		.cfi_startproc
 2047              		@ args = 0, pretend = 0, frame = 0
 2048              		@ frame_needed = 0, uses_anonymous_args = 0
 2049              		@ link register save eliminated.
1128:../Drivers/STM32N6xx_HAL_Driver/Src/stm32n6xx_hal.c ****   CLEAR_BIT(SYSCFG->CM55RSTCR, SYSCFG_CM55RSTCR_LOCKUP_NMI_EN);
 2050              		.loc 1 1128 3 view .LVU367
 2051 0000 024A     		ldr	r2, .L204
 2052 0002 9369     		ldr	r3, [r2, #24]
 2053 0004 23F00403 		bic	r3, r3, #4
 2054 0008 9361     		str	r3, [r2, #24]
1129:../Drivers/STM32N6xx_HAL_Driver/Src/stm32n6xx_hal.c **** }
 2055              		.loc 1 1129 1 is_stmt 0 view .LVU368
 2056 000a 7047     		bx	lr
 2057              	.L205:
 2058              		.align	2
 2059              	.L204:
 2060 000c 00800056 		.word	1442873344
 2061              		.cfi_endproc
 2062              	.LFE939:
 2064              		.section	.text.HAL_SYSCFG_ReEnableWritePostingErrorCapture,"ax",%progbits
 2065              		.align	1
 2066              		.global	HAL_SYSCFG_ReEnableWritePostingErrorCapture
 2067              		.syntax unified
 2068              		.thumb
 2069              		.thumb_func
 2071              	HAL_SYSCFG_ReEnableWritePostingErrorCapture:
 2072              	.LFB940:
1130:../Drivers/STM32N6xx_HAL_Driver/Src/stm32n6xx_hal.c **** 
1131:../Drivers/STM32N6xx_HAL_Driver/Src/stm32n6xx_hal.c **** /**
1132:../Drivers/STM32N6xx_HAL_Driver/Src/stm32n6xx_hal.c ****   * @brief   Enable the capture mechanism upon write posting buffer error.
1133:../Drivers/STM32N6xx_HAL_Driver/Src/stm32n6xx_hal.c ****   * @note    Upon error detection, the erroneous address is logged on and
1134:../Drivers/STM32N6xx_HAL_Driver/Src/stm32n6xx_hal.c ****   *          the capture mechanism is on hold.
1135:../Drivers/STM32N6xx_HAL_Driver/Src/stm32n6xx_hal.c ****   *          The address error can be read thanks to
1136:../Drivers/STM32N6xx_HAL_Driver/Src/stm32n6xx_hal.c ****   *          HAL_SYSCFG_GetAddressWritePostingBuffer.
1137:../Drivers/STM32N6xx_HAL_Driver/Src/stm32n6xx_hal.c ****   *  @note   This function enables the error capture mechanism again.
1138:../Drivers/STM32N6xx_HAL_Driver/Src/stm32n6xx_hal.c ****   *  @retval HAL status.
1139:../Drivers/STM32N6xx_HAL_Driver/Src/stm32n6xx_hal.c ****   */
1140:../Drivers/STM32N6xx_HAL_Driver/Src/stm32n6xx_hal.c **** HAL_StatusTypeDef HAL_SYSCFG_ReEnableWritePostingErrorCapture(void)
1141:../Drivers/STM32N6xx_HAL_Driver/Src/stm32n6xx_hal.c **** {
 2073              		.loc 1 1141 1 is_stmt 1 view -0
 2074              		.cfi_startproc
 2075              		@ args = 0, pretend = 0, frame = 0
 2076              		@ frame_needed = 0, uses_anonymous_args = 0
 2077              		@ link register save eliminated.
1142:../Drivers/STM32N6xx_HAL_Driver/Src/stm32n6xx_hal.c ****   /* Re-enable HW write posting detection mechanism */
1143:../Drivers/STM32N6xx_HAL_Driver/Src/stm32n6xx_hal.c ****   SET_BIT(SYSCFG->CM55PAHBWPR, SYSCFG_CM55PAHBWPR_PAHB_ERROR_ACK);
 2078              		.loc 1 1143 3 view .LVU370
 2079 0000 054B     		ldr	r3, .L207
 2080 0002 DA69     		ldr	r2, [r3, #28]
ARM GAS  /tmp/ccvdUNht.s 			page 57


 2081 0004 42F00102 		orr	r2, r2, #1
 2082 0008 DA61     		str	r2, [r3, #28]
1144:../Drivers/STM32N6xx_HAL_Driver/Src/stm32n6xx_hal.c **** 
1145:../Drivers/STM32N6xx_HAL_Driver/Src/stm32n6xx_hal.c ****   CLEAR_BIT(SYSCFG->CM55PAHBWPR, SYSCFG_CM55PAHBWPR_PAHB_ERROR_ACK);
 2083              		.loc 1 1145 3 view .LVU371
 2084 000a DA69     		ldr	r2, [r3, #28]
 2085 000c 22F00102 		bic	r2, r2, #1
 2086 0010 DA61     		str	r2, [r3, #28]
1146:../Drivers/STM32N6xx_HAL_Driver/Src/stm32n6xx_hal.c **** 
1147:../Drivers/STM32N6xx_HAL_Driver/Src/stm32n6xx_hal.c ****   return HAL_OK;
 2087              		.loc 1 1147 3 view .LVU372
1148:../Drivers/STM32N6xx_HAL_Driver/Src/stm32n6xx_hal.c **** }
 2088              		.loc 1 1148 1 is_stmt 0 view .LVU373
 2089 0012 0020     		movs	r0, #0
 2090 0014 7047     		bx	lr
 2091              	.L208:
 2092 0016 00BF     		.align	2
 2093              	.L207:
 2094 0018 00800056 		.word	1442873344
 2095              		.cfi_endproc
 2096              	.LFE940:
 2098              		.section	.text.HAL_SYSCFG_EnableVENCRAMReserved,"ax",%progbits
 2099              		.align	1
 2100              		.global	HAL_SYSCFG_EnableVENCRAMReserved
 2101              		.syntax unified
 2102              		.thumb
 2103              		.thumb_func
 2105              	HAL_SYSCFG_EnableVENCRAMReserved:
 2106              	.LFB941:
1149:../Drivers/STM32N6xx_HAL_Driver/Src/stm32n6xx_hal.c **** 
1150:../Drivers/STM32N6xx_HAL_Driver/Src/stm32n6xx_hal.c **** #if defined(VENC)
1151:../Drivers/STM32N6xx_HAL_Driver/Src/stm32n6xx_hal.c **** /**
1152:../Drivers/STM32N6xx_HAL_Driver/Src/stm32n6xx_hal.c ****   * @brief  Reserve the VENCRAM allocation to VENC.
1153:../Drivers/STM32N6xx_HAL_Driver/Src/stm32n6xx_hal.c ****   * @retval None
1154:../Drivers/STM32N6xx_HAL_Driver/Src/stm32n6xx_hal.c ****   */
1155:../Drivers/STM32N6xx_HAL_Driver/Src/stm32n6xx_hal.c **** void HAL_SYSCFG_EnableVENCRAMReserved(void)
1156:../Drivers/STM32N6xx_HAL_Driver/Src/stm32n6xx_hal.c **** {
 2107              		.loc 1 1156 1 is_stmt 1 view -0
 2108              		.cfi_startproc
 2109              		@ args = 0, pretend = 0, frame = 0
 2110              		@ frame_needed = 0, uses_anonymous_args = 0
 2111              		@ link register save eliminated.
1157:../Drivers/STM32N6xx_HAL_Driver/Src/stm32n6xx_hal.c ****   CLEAR_BIT(SYSCFG->VENCRAMCR, SYSCFG_VENCRAMCR_VENCRAM_EN);
 2112              		.loc 1 1157 3 view .LVU375
 2113 0000 024A     		ldr	r2, .L210
 2114 0002 136A     		ldr	r3, [r2, #32]
 2115 0004 23F00103 		bic	r3, r3, #1
 2116 0008 1362     		str	r3, [r2, #32]
1158:../Drivers/STM32N6xx_HAL_Driver/Src/stm32n6xx_hal.c **** }
 2117              		.loc 1 1158 1 is_stmt 0 view .LVU376
 2118 000a 7047     		bx	lr
 2119              	.L211:
 2120              		.align	2
 2121              	.L210:
 2122 000c 00800056 		.word	1442873344
 2123              		.cfi_endproc
 2124              	.LFE941:
ARM GAS  /tmp/ccvdUNht.s 			page 58


 2126              		.section	.text.HAL_SYSCFG_DisableVENCRAMReserved,"ax",%progbits
 2127              		.align	1
 2128              		.global	HAL_SYSCFG_DisableVENCRAMReserved
 2129              		.syntax unified
 2130              		.thumb
 2131              		.thumb_func
 2133              	HAL_SYSCFG_DisableVENCRAMReserved:
 2134              	.LFB942:
1159:../Drivers/STM32N6xx_HAL_Driver/Src/stm32n6xx_hal.c **** 
1160:../Drivers/STM32N6xx_HAL_Driver/Src/stm32n6xx_hal.c **** /**
1161:../Drivers/STM32N6xx_HAL_Driver/Src/stm32n6xx_hal.c ****   * @brief  Release the VENCRAM allocation to VENC (any use allowed).
1162:../Drivers/STM32N6xx_HAL_Driver/Src/stm32n6xx_hal.c ****   * @retval None
1163:../Drivers/STM32N6xx_HAL_Driver/Src/stm32n6xx_hal.c ****   */
1164:../Drivers/STM32N6xx_HAL_Driver/Src/stm32n6xx_hal.c **** void HAL_SYSCFG_DisableVENCRAMReserved(void)
1165:../Drivers/STM32N6xx_HAL_Driver/Src/stm32n6xx_hal.c **** {
 2135              		.loc 1 1165 1 is_stmt 1 view -0
 2136              		.cfi_startproc
 2137              		@ args = 0, pretend = 0, frame = 0
 2138              		@ frame_needed = 0, uses_anonymous_args = 0
 2139              		@ link register save eliminated.
1166:../Drivers/STM32N6xx_HAL_Driver/Src/stm32n6xx_hal.c ****   SET_BIT(SYSCFG->VENCRAMCR, SYSCFG_VENCRAMCR_VENCRAM_EN);
 2140              		.loc 1 1166 3 view .LVU378
 2141 0000 024A     		ldr	r2, .L213
 2142 0002 136A     		ldr	r3, [r2, #32]
 2143 0004 43F00103 		orr	r3, r3, #1
 2144 0008 1362     		str	r3, [r2, #32]
1167:../Drivers/STM32N6xx_HAL_Driver/Src/stm32n6xx_hal.c **** }
 2145              		.loc 1 1167 1 is_stmt 0 view .LVU379
 2146 000a 7047     		bx	lr
 2147              	.L214:
 2148              		.align	2
 2149              	.L213:
 2150 000c 00800056 		.word	1442873344
 2151              		.cfi_endproc
 2152              	.LFE942:
 2154              		.section	.text.HAL_SYSCFG_EnableCRYPPotentialTamper,"ax",%progbits
 2155              		.align	1
 2156              		.global	HAL_SYSCFG_EnableCRYPPotentialTamper
 2157              		.syntax unified
 2158              		.thumb
 2159              		.thumb_func
 2161              	HAL_SYSCFG_EnableCRYPPotentialTamper:
 2162              	.LFB943:
1168:../Drivers/STM32N6xx_HAL_Driver/Src/stm32n6xx_hal.c **** 
1169:../Drivers/STM32N6xx_HAL_Driver/Src/stm32n6xx_hal.c **** #endif /* VENC */
1170:../Drivers/STM32N6xx_HAL_Driver/Src/stm32n6xx_hal.c **** 
1171:../Drivers/STM32N6xx_HAL_Driver/Src/stm32n6xx_hal.c **** /**
1172:../Drivers/STM32N6xx_HAL_Driver/Src/stm32n6xx_hal.c ****   * @brief  Enable PKA, SAES, CRYP1/2, and HASH reset, in case of potential tamper
1173:../Drivers/STM32N6xx_HAL_Driver/Src/stm32n6xx_hal.c ****   * @retval None
1174:../Drivers/STM32N6xx_HAL_Driver/Src/stm32n6xx_hal.c ****   */
1175:../Drivers/STM32N6xx_HAL_Driver/Src/stm32n6xx_hal.c **** void HAL_SYSCFG_EnableCRYPPotentialTamper(void)
1176:../Drivers/STM32N6xx_HAL_Driver/Src/stm32n6xx_hal.c **** {
 2163              		.loc 1 1176 1 is_stmt 1 view -0
 2164              		.cfi_startproc
 2165              		@ args = 0, pretend = 0, frame = 0
 2166              		@ frame_needed = 0, uses_anonymous_args = 0
 2167              		@ link register save eliminated.
ARM GAS  /tmp/ccvdUNht.s 			page 59


1177:../Drivers/STM32N6xx_HAL_Driver/Src/stm32n6xx_hal.c ****   CLEAR_BIT(SYSCFG->POTTAMPRSTCR, SYSCFG_POTTAMPRSTCR_POTTAMPERSETMASK);
 2168              		.loc 1 1177 3 view .LVU381
 2169 0000 024A     		ldr	r2, .L216
 2170 0002 536A     		ldr	r3, [r2, #36]
 2171 0004 23F00103 		bic	r3, r3, #1
 2172 0008 5362     		str	r3, [r2, #36]
1178:../Drivers/STM32N6xx_HAL_Driver/Src/stm32n6xx_hal.c **** }
 2173              		.loc 1 1178 1 is_stmt 0 view .LVU382
 2174 000a 7047     		bx	lr
 2175              	.L217:
 2176              		.align	2
 2177              	.L216:
 2178 000c 00800056 		.word	1442873344
 2179              		.cfi_endproc
 2180              	.LFE943:
 2182              		.section	.text.HAL_SYSCFG_DisableCRYPPotentialTamper,"ax",%progbits
 2183              		.align	1
 2184              		.global	HAL_SYSCFG_DisableCRYPPotentialTamper
 2185              		.syntax unified
 2186              		.thumb
 2187              		.thumb_func
 2189              	HAL_SYSCFG_DisableCRYPPotentialTamper:
 2190              	.LFB944:
1179:../Drivers/STM32N6xx_HAL_Driver/Src/stm32n6xx_hal.c **** 
1180:../Drivers/STM32N6xx_HAL_Driver/Src/stm32n6xx_hal.c **** /**
1181:../Drivers/STM32N6xx_HAL_Driver/Src/stm32n6xx_hal.c ****   * @brief  Disable PKA, SAES, CRYP1/2, and HASH reset, in case of potential tamper
1182:../Drivers/STM32N6xx_HAL_Driver/Src/stm32n6xx_hal.c ****   * @retval None
1183:../Drivers/STM32N6xx_HAL_Driver/Src/stm32n6xx_hal.c ****   */
1184:../Drivers/STM32N6xx_HAL_Driver/Src/stm32n6xx_hal.c **** void HAL_SYSCFG_DisableCRYPPotentialTamper(void)
1185:../Drivers/STM32N6xx_HAL_Driver/Src/stm32n6xx_hal.c **** {
 2191              		.loc 1 1185 1 is_stmt 1 view -0
 2192              		.cfi_startproc
 2193              		@ args = 0, pretend = 0, frame = 0
 2194              		@ frame_needed = 0, uses_anonymous_args = 0
 2195              		@ link register save eliminated.
1186:../Drivers/STM32N6xx_HAL_Driver/Src/stm32n6xx_hal.c ****   SET_BIT(SYSCFG->POTTAMPRSTCR, SYSCFG_POTTAMPRSTCR_POTTAMPERSETMASK);
 2196              		.loc 1 1186 3 view .LVU384
 2197 0000 024A     		ldr	r2, .L219
 2198 0002 536A     		ldr	r3, [r2, #36]
 2199 0004 43F00103 		orr	r3, r3, #1
 2200 0008 5362     		str	r3, [r2, #36]
1187:../Drivers/STM32N6xx_HAL_Driver/Src/stm32n6xx_hal.c **** }
 2201              		.loc 1 1187 1 is_stmt 0 view .LVU385
 2202 000a 7047     		bx	lr
 2203              	.L220:
 2204              		.align	2
 2205              	.L219:
 2206 000c 00800056 		.word	1442873344
 2207              		.cfi_endproc
 2208              	.LFE944:
 2210              		.section	.text.HAL_SYSCFG_SetWriteQosNP1,"ax",%progbits
 2211              		.align	1
 2212              		.global	HAL_SYSCFG_SetWriteQosNP1
 2213              		.syntax unified
 2214              		.thumb
 2215              		.thumb_func
 2217              	HAL_SYSCFG_SetWriteQosNP1:
ARM GAS  /tmp/ccvdUNht.s 			page 60


 2218              	.LVL74:
 2219              	.LFB945:
1188:../Drivers/STM32N6xx_HAL_Driver/Src/stm32n6xx_hal.c **** 
1189:../Drivers/STM32N6xx_HAL_Driver/Src/stm32n6xx_hal.c **** #if defined(SYSCFG_NPUNICQOSCR_NPU1_ARQOSR)
1190:../Drivers/STM32N6xx_HAL_Driver/Src/stm32n6xx_hal.c **** /**
1191:../Drivers/STM32N6xx_HAL_Driver/Src/stm32n6xx_hal.c ****   * @brief  Set write QoS information for master port from NP1 NPUNIC
1192:../Drivers/STM32N6xx_HAL_Driver/Src/stm32n6xx_hal.c ****   * @param  QosValue Write QoS value (0 to 15).
1193:../Drivers/STM32N6xx_HAL_Driver/Src/stm32n6xx_hal.c ****   * @retval None
1194:../Drivers/STM32N6xx_HAL_Driver/Src/stm32n6xx_hal.c ****   */
1195:../Drivers/STM32N6xx_HAL_Driver/Src/stm32n6xx_hal.c **** void HAL_SYSCFG_SetWriteQosNP1(uint32_t QosValue)
1196:../Drivers/STM32N6xx_HAL_Driver/Src/stm32n6xx_hal.c **** {
 2220              		.loc 1 1196 1 is_stmt 1 view -0
 2221              		.cfi_startproc
 2222              		@ args = 0, pretend = 0, frame = 0
 2223              		@ frame_needed = 0, uses_anonymous_args = 0
 2224              		@ link register save eliminated.
1197:../Drivers/STM32N6xx_HAL_Driver/Src/stm32n6xx_hal.c ****   /* Check the parameters */
1198:../Drivers/STM32N6xx_HAL_Driver/Src/stm32n6xx_hal.c ****   assert_param(IS_SYSCFG_QOS_CPU(QosValue));
 2225              		.loc 1 1198 3 view .LVU387
1199:../Drivers/STM32N6xx_HAL_Driver/Src/stm32n6xx_hal.c **** 
1200:../Drivers/STM32N6xx_HAL_Driver/Src/stm32n6xx_hal.c ****   MODIFY_REG(SYSCFG->NPUNICQOSCR, SYSCFG_NPUNICQOSCR_NPU1_ARQOSW, QosValue << 4U);
 2226              		.loc 1 1200 3 view .LVU388
 2227 0000 034A     		ldr	r2, .L222
 2228 0002 936A     		ldr	r3, [r2, #40]
 2229 0004 23F0F003 		bic	r3, r3, #240
 2230 0008 43EA0013 		orr	r3, r3, r0, lsl #4
 2231 000c 9362     		str	r3, [r2, #40]
1201:../Drivers/STM32N6xx_HAL_Driver/Src/stm32n6xx_hal.c **** }
 2232              		.loc 1 1201 1 is_stmt 0 view .LVU389
 2233 000e 7047     		bx	lr
 2234              	.L223:
 2235              		.align	2
 2236              	.L222:
 2237 0010 00800056 		.word	1442873344
 2238              		.cfi_endproc
 2239              	.LFE945:
 2241              		.section	.text.HAL_SYSCFG_GetWriteQosNP1,"ax",%progbits
 2242              		.align	1
 2243              		.global	HAL_SYSCFG_GetWriteQosNP1
 2244              		.syntax unified
 2245              		.thumb
 2246              		.thumb_func
 2248              	HAL_SYSCFG_GetWriteQosNP1:
 2249              	.LVL75:
 2250              	.LFB946:
1202:../Drivers/STM32N6xx_HAL_Driver/Src/stm32n6xx_hal.c **** 
1203:../Drivers/STM32N6xx_HAL_Driver/Src/stm32n6xx_hal.c **** /**
1204:../Drivers/STM32N6xx_HAL_Driver/Src/stm32n6xx_hal.c ****   * @brief  Get write QoS information for master port from NP1 NPUNIC
1205:../Drivers/STM32N6xx_HAL_Driver/Src/stm32n6xx_hal.c ****   * @param  pQosValue Pointer to return write QOS value (0 to 15)
1206:../Drivers/STM32N6xx_HAL_Driver/Src/stm32n6xx_hal.c ****   * @retval HAL status
1207:../Drivers/STM32N6xx_HAL_Driver/Src/stm32n6xx_hal.c ****   */
1208:../Drivers/STM32N6xx_HAL_Driver/Src/stm32n6xx_hal.c **** 
1209:../Drivers/STM32N6xx_HAL_Driver/Src/stm32n6xx_hal.c **** HAL_StatusTypeDef HAL_SYSCFG_GetWriteQosNP1(uint32_t *pQosValue)
1210:../Drivers/STM32N6xx_HAL_Driver/Src/stm32n6xx_hal.c **** {
 2251              		.loc 1 1210 1 is_stmt 1 view -0
 2252              		.cfi_startproc
 2253              		@ args = 0, pretend = 0, frame = 0
ARM GAS  /tmp/ccvdUNht.s 			page 61


 2254              		@ frame_needed = 0, uses_anonymous_args = 0
 2255              		@ link register save eliminated.
1211:../Drivers/STM32N6xx_HAL_Driver/Src/stm32n6xx_hal.c ****   /* Check null pointer */
1212:../Drivers/STM32N6xx_HAL_Driver/Src/stm32n6xx_hal.c ****   if (pQosValue == NULL)
 2256              		.loc 1 1212 3 view .LVU391
 2257              		.loc 1 1212 6 is_stmt 0 view .LVU392
 2258 0000 30B1     		cbz	r0, .L226
1213:../Drivers/STM32N6xx_HAL_Driver/Src/stm32n6xx_hal.c ****   {
1214:../Drivers/STM32N6xx_HAL_Driver/Src/stm32n6xx_hal.c ****     return HAL_ERROR;
1215:../Drivers/STM32N6xx_HAL_Driver/Src/stm32n6xx_hal.c ****   }
1216:../Drivers/STM32N6xx_HAL_Driver/Src/stm32n6xx_hal.c **** 
1217:../Drivers/STM32N6xx_HAL_Driver/Src/stm32n6xx_hal.c ****   /* Get the QOS */
1218:../Drivers/STM32N6xx_HAL_Driver/Src/stm32n6xx_hal.c ****   *pQosValue = (READ_BIT(SYSCFG->NPUNICQOSCR, SYSCFG_NPUNICQOSCR_NPU1_ARQOSW) >> 4U);
 2259              		.loc 1 1218 3 is_stmt 1 view .LVU393
 2260              		.loc 1 1218 17 is_stmt 0 view .LVU394
 2261 0002 044B     		ldr	r3, .L227
 2262 0004 9B6A     		ldr	r3, [r3, #40]
 2263              		.loc 1 1218 79 view .LVU395
 2264 0006 C3F30313 		ubfx	r3, r3, #4, #4
 2265              		.loc 1 1218 14 view .LVU396
 2266 000a 0360     		str	r3, [r0]
1219:../Drivers/STM32N6xx_HAL_Driver/Src/stm32n6xx_hal.c **** 
1220:../Drivers/STM32N6xx_HAL_Driver/Src/stm32n6xx_hal.c ****   return HAL_OK;
 2267              		.loc 1 1220 3 is_stmt 1 view .LVU397
 2268              		.loc 1 1220 10 is_stmt 0 view .LVU398
 2269 000c 0020     		movs	r0, #0
 2270              	.LVL76:
 2271              		.loc 1 1220 10 view .LVU399
 2272 000e 7047     		bx	lr
 2273              	.LVL77:
 2274              	.L226:
1214:../Drivers/STM32N6xx_HAL_Driver/Src/stm32n6xx_hal.c ****   }
 2275              		.loc 1 1214 12 view .LVU400
 2276 0010 0120     		movs	r0, #1
 2277              	.LVL78:
1221:../Drivers/STM32N6xx_HAL_Driver/Src/stm32n6xx_hal.c **** }
 2278              		.loc 1 1221 1 view .LVU401
 2279 0012 7047     		bx	lr
 2280              	.L228:
 2281              		.align	2
 2282              	.L227:
 2283 0014 00800056 		.word	1442873344
 2284              		.cfi_endproc
 2285              	.LFE946:
 2287              		.section	.text.HAL_SYSCFG_SetReadQosNP1,"ax",%progbits
 2288              		.align	1
 2289              		.global	HAL_SYSCFG_SetReadQosNP1
 2290              		.syntax unified
 2291              		.thumb
 2292              		.thumb_func
 2294              	HAL_SYSCFG_SetReadQosNP1:
 2295              	.LVL79:
 2296              	.LFB947:
1222:../Drivers/STM32N6xx_HAL_Driver/Src/stm32n6xx_hal.c **** 
1223:../Drivers/STM32N6xx_HAL_Driver/Src/stm32n6xx_hal.c **** /**
1224:../Drivers/STM32N6xx_HAL_Driver/Src/stm32n6xx_hal.c ****   * @brief  Set read QoS information for master port from NP1 NPUNIC
1225:../Drivers/STM32N6xx_HAL_Driver/Src/stm32n6xx_hal.c ****   * @param  QosValue Read QoS value (0 to 15)
ARM GAS  /tmp/ccvdUNht.s 			page 62


1226:../Drivers/STM32N6xx_HAL_Driver/Src/stm32n6xx_hal.c ****   * @retval None
1227:../Drivers/STM32N6xx_HAL_Driver/Src/stm32n6xx_hal.c ****   */
1228:../Drivers/STM32N6xx_HAL_Driver/Src/stm32n6xx_hal.c **** void HAL_SYSCFG_SetReadQosNP1(uint32_t QosValue)
1229:../Drivers/STM32N6xx_HAL_Driver/Src/stm32n6xx_hal.c **** {
 2297              		.loc 1 1229 1 is_stmt 1 view -0
 2298              		.cfi_startproc
 2299              		@ args = 0, pretend = 0, frame = 0
 2300              		@ frame_needed = 0, uses_anonymous_args = 0
 2301              		@ link register save eliminated.
1230:../Drivers/STM32N6xx_HAL_Driver/Src/stm32n6xx_hal.c ****   /* Check the parameters */
1231:../Drivers/STM32N6xx_HAL_Driver/Src/stm32n6xx_hal.c ****   assert_param(IS_SYSCFG_QOS_CPU(QosValue));
 2302              		.loc 1 1231 3 view .LVU403
1232:../Drivers/STM32N6xx_HAL_Driver/Src/stm32n6xx_hal.c **** 
1233:../Drivers/STM32N6xx_HAL_Driver/Src/stm32n6xx_hal.c ****   MODIFY_REG(SYSCFG->NPUNICQOSCR, SYSCFG_NPUNICQOSCR_NPU1_ARQOSR, QosValue);
 2303              		.loc 1 1233 3 view .LVU404
 2304 0000 034A     		ldr	r2, .L230
 2305 0002 936A     		ldr	r3, [r2, #40]
 2306 0004 23F00F03 		bic	r3, r3, #15
 2307 0008 0343     		orrs	r3, r3, r0
 2308 000a 9362     		str	r3, [r2, #40]
1234:../Drivers/STM32N6xx_HAL_Driver/Src/stm32n6xx_hal.c **** }
 2309              		.loc 1 1234 1 is_stmt 0 view .LVU405
 2310 000c 7047     		bx	lr
 2311              	.L231:
 2312 000e 00BF     		.align	2
 2313              	.L230:
 2314 0010 00800056 		.word	1442873344
 2315              		.cfi_endproc
 2316              	.LFE947:
 2318              		.section	.text.HAL_SYSCFG_GetReadQosNP1,"ax",%progbits
 2319              		.align	1
 2320              		.global	HAL_SYSCFG_GetReadQosNP1
 2321              		.syntax unified
 2322              		.thumb
 2323              		.thumb_func
 2325              	HAL_SYSCFG_GetReadQosNP1:
 2326              	.LVL80:
 2327              	.LFB948:
1235:../Drivers/STM32N6xx_HAL_Driver/Src/stm32n6xx_hal.c **** 
1236:../Drivers/STM32N6xx_HAL_Driver/Src/stm32n6xx_hal.c **** /**
1237:../Drivers/STM32N6xx_HAL_Driver/Src/stm32n6xx_hal.c ****   * @brief  Get read QoS information for master port from NP1 NPUNIC
1238:../Drivers/STM32N6xx_HAL_Driver/Src/stm32n6xx_hal.c ****   * @param  pQosValue Pointer to return read QOS value (0 to 15)
1239:../Drivers/STM32N6xx_HAL_Driver/Src/stm32n6xx_hal.c ****   * @retval HAL status
1240:../Drivers/STM32N6xx_HAL_Driver/Src/stm32n6xx_hal.c ****   */
1241:../Drivers/STM32N6xx_HAL_Driver/Src/stm32n6xx_hal.c **** HAL_StatusTypeDef HAL_SYSCFG_GetReadQosNP1(uint32_t *pQosValue)
1242:../Drivers/STM32N6xx_HAL_Driver/Src/stm32n6xx_hal.c **** {
 2328              		.loc 1 1242 1 is_stmt 1 view -0
 2329              		.cfi_startproc
 2330              		@ args = 0, pretend = 0, frame = 0
 2331              		@ frame_needed = 0, uses_anonymous_args = 0
 2332              		@ link register save eliminated.
1243:../Drivers/STM32N6xx_HAL_Driver/Src/stm32n6xx_hal.c ****   /* Check null pointer */
1244:../Drivers/STM32N6xx_HAL_Driver/Src/stm32n6xx_hal.c ****   if (pQosValue == NULL)
 2333              		.loc 1 1244 3 view .LVU407
 2334              		.loc 1 1244 6 is_stmt 0 view .LVU408
 2335 0000 30B1     		cbz	r0, .L234
1245:../Drivers/STM32N6xx_HAL_Driver/Src/stm32n6xx_hal.c ****   {
ARM GAS  /tmp/ccvdUNht.s 			page 63


1246:../Drivers/STM32N6xx_HAL_Driver/Src/stm32n6xx_hal.c ****     return HAL_ERROR;
1247:../Drivers/STM32N6xx_HAL_Driver/Src/stm32n6xx_hal.c ****   }
1248:../Drivers/STM32N6xx_HAL_Driver/Src/stm32n6xx_hal.c **** 
1249:../Drivers/STM32N6xx_HAL_Driver/Src/stm32n6xx_hal.c ****   /* Get the QOS */
1250:../Drivers/STM32N6xx_HAL_Driver/Src/stm32n6xx_hal.c ****   *pQosValue = READ_BIT(SYSCFG->NPUNICQOSCR, SYSCFG_NPUNICQOSCR_NPU1_ARQOSR);
 2336              		.loc 1 1250 3 is_stmt 1 view .LVU409
 2337              		.loc 1 1250 16 is_stmt 0 view .LVU410
 2338 0002 044B     		ldr	r3, .L235
 2339 0004 9B6A     		ldr	r3, [r3, #40]
 2340 0006 03F00F03 		and	r3, r3, #15
 2341              		.loc 1 1250 14 view .LVU411
 2342 000a 0360     		str	r3, [r0]
1251:../Drivers/STM32N6xx_HAL_Driver/Src/stm32n6xx_hal.c **** 
1252:../Drivers/STM32N6xx_HAL_Driver/Src/stm32n6xx_hal.c ****   return HAL_OK;
 2343              		.loc 1 1252 3 is_stmt 1 view .LVU412
 2344              		.loc 1 1252 10 is_stmt 0 view .LVU413
 2345 000c 0020     		movs	r0, #0
 2346              	.LVL81:
 2347              		.loc 1 1252 10 view .LVU414
 2348 000e 7047     		bx	lr
 2349              	.LVL82:
 2350              	.L234:
1246:../Drivers/STM32N6xx_HAL_Driver/Src/stm32n6xx_hal.c ****   }
 2351              		.loc 1 1246 12 view .LVU415
 2352 0010 0120     		movs	r0, #1
 2353              	.LVL83:
1253:../Drivers/STM32N6xx_HAL_Driver/Src/stm32n6xx_hal.c **** }
 2354              		.loc 1 1253 1 view .LVU416
 2355 0012 7047     		bx	lr
 2356              	.L236:
 2357              		.align	2
 2358              	.L235:
 2359 0014 00800056 		.word	1442873344
 2360              		.cfi_endproc
 2361              	.LFE948:
 2363              		.section	.text.HAL_SYSCFG_SetWriteQosNP2,"ax",%progbits
 2364              		.align	1
 2365              		.global	HAL_SYSCFG_SetWriteQosNP2
 2366              		.syntax unified
 2367              		.thumb
 2368              		.thumb_func
 2370              	HAL_SYSCFG_SetWriteQosNP2:
 2371              	.LVL84:
 2372              	.LFB949:
1254:../Drivers/STM32N6xx_HAL_Driver/Src/stm32n6xx_hal.c **** 
1255:../Drivers/STM32N6xx_HAL_Driver/Src/stm32n6xx_hal.c **** /**
1256:../Drivers/STM32N6xx_HAL_Driver/Src/stm32n6xx_hal.c ****   * @brief  Set write QoS information for master port from NP2 NPUNIC
1257:../Drivers/STM32N6xx_HAL_Driver/Src/stm32n6xx_hal.c ****   * @param  QosValue Write Qos value (0 to 15)
1258:../Drivers/STM32N6xx_HAL_Driver/Src/stm32n6xx_hal.c ****   * @retval None
1259:../Drivers/STM32N6xx_HAL_Driver/Src/stm32n6xx_hal.c ****   */
1260:../Drivers/STM32N6xx_HAL_Driver/Src/stm32n6xx_hal.c **** void HAL_SYSCFG_SetWriteQosNP2(uint32_t QosValue)
1261:../Drivers/STM32N6xx_HAL_Driver/Src/stm32n6xx_hal.c **** {
 2373              		.loc 1 1261 1 is_stmt 1 view -0
 2374              		.cfi_startproc
 2375              		@ args = 0, pretend = 0, frame = 0
 2376              		@ frame_needed = 0, uses_anonymous_args = 0
 2377              		@ link register save eliminated.
ARM GAS  /tmp/ccvdUNht.s 			page 64


1262:../Drivers/STM32N6xx_HAL_Driver/Src/stm32n6xx_hal.c ****   /* Check the parameters */
1263:../Drivers/STM32N6xx_HAL_Driver/Src/stm32n6xx_hal.c ****   assert_param(IS_SYSCFG_QOS_CPU(QosValue));
 2378              		.loc 1 1263 3 view .LVU418
1264:../Drivers/STM32N6xx_HAL_Driver/Src/stm32n6xx_hal.c **** 
1265:../Drivers/STM32N6xx_HAL_Driver/Src/stm32n6xx_hal.c ****   MODIFY_REG(SYSCFG->NPUNICQOSCR, SYSCFG_NPUNICQOSCR_NPU2_ARQOSW, QosValue << 12U);
 2379              		.loc 1 1265 3 view .LVU419
 2380 0000 034A     		ldr	r2, .L238
 2381 0002 936A     		ldr	r3, [r2, #40]
 2382 0004 23F47043 		bic	r3, r3, #61440
 2383 0008 43EA0033 		orr	r3, r3, r0, lsl #12
 2384 000c 9362     		str	r3, [r2, #40]
1266:../Drivers/STM32N6xx_HAL_Driver/Src/stm32n6xx_hal.c **** }
 2385              		.loc 1 1266 1 is_stmt 0 view .LVU420
 2386 000e 7047     		bx	lr
 2387              	.L239:
 2388              		.align	2
 2389              	.L238:
 2390 0010 00800056 		.word	1442873344
 2391              		.cfi_endproc
 2392              	.LFE949:
 2394              		.section	.text.HAL_SYSCFG_GetWriteQosNP2,"ax",%progbits
 2395              		.align	1
 2396              		.global	HAL_SYSCFG_GetWriteQosNP2
 2397              		.syntax unified
 2398              		.thumb
 2399              		.thumb_func
 2401              	HAL_SYSCFG_GetWriteQosNP2:
 2402              	.LVL85:
 2403              	.LFB950:
1267:../Drivers/STM32N6xx_HAL_Driver/Src/stm32n6xx_hal.c **** 
1268:../Drivers/STM32N6xx_HAL_Driver/Src/stm32n6xx_hal.c **** /**
1269:../Drivers/STM32N6xx_HAL_Driver/Src/stm32n6xx_hal.c ****   * @brief  Get write QoS information for master port from NP2 NPUNIC
1270:../Drivers/STM32N6xx_HAL_Driver/Src/stm32n6xx_hal.c ****   * @param  pQosValue Pointer to return write QOS value (0 to 15)
1271:../Drivers/STM32N6xx_HAL_Driver/Src/stm32n6xx_hal.c ****   * @retval HAL status
1272:../Drivers/STM32N6xx_HAL_Driver/Src/stm32n6xx_hal.c ****   */
1273:../Drivers/STM32N6xx_HAL_Driver/Src/stm32n6xx_hal.c **** HAL_StatusTypeDef HAL_SYSCFG_GetWriteQosNP2(uint32_t *pQosValue)
1274:../Drivers/STM32N6xx_HAL_Driver/Src/stm32n6xx_hal.c **** {
 2404              		.loc 1 1274 1 is_stmt 1 view -0
 2405              		.cfi_startproc
 2406              		@ args = 0, pretend = 0, frame = 0
 2407              		@ frame_needed = 0, uses_anonymous_args = 0
 2408              		@ link register save eliminated.
1275:../Drivers/STM32N6xx_HAL_Driver/Src/stm32n6xx_hal.c ****   /* Check null pointer */
1276:../Drivers/STM32N6xx_HAL_Driver/Src/stm32n6xx_hal.c ****   if (pQosValue == NULL)
 2409              		.loc 1 1276 3 view .LVU422
 2410              		.loc 1 1276 6 is_stmt 0 view .LVU423
 2411 0000 30B1     		cbz	r0, .L242
1277:../Drivers/STM32N6xx_HAL_Driver/Src/stm32n6xx_hal.c ****   {
1278:../Drivers/STM32N6xx_HAL_Driver/Src/stm32n6xx_hal.c ****     return HAL_ERROR;
1279:../Drivers/STM32N6xx_HAL_Driver/Src/stm32n6xx_hal.c ****   }
1280:../Drivers/STM32N6xx_HAL_Driver/Src/stm32n6xx_hal.c **** 
1281:../Drivers/STM32N6xx_HAL_Driver/Src/stm32n6xx_hal.c ****   /* Get the QOS */
1282:../Drivers/STM32N6xx_HAL_Driver/Src/stm32n6xx_hal.c ****   *pQosValue = (READ_BIT(SYSCFG->NPUNICQOSCR, SYSCFG_NPUNICQOSCR_NPU2_ARQOSW) >> 12U);
 2412              		.loc 1 1282 3 is_stmt 1 view .LVU424
 2413              		.loc 1 1282 17 is_stmt 0 view .LVU425
 2414 0002 044B     		ldr	r3, .L243
 2415 0004 9B6A     		ldr	r3, [r3, #40]
ARM GAS  /tmp/ccvdUNht.s 			page 65


 2416              		.loc 1 1282 79 view .LVU426
 2417 0006 C3F30333 		ubfx	r3, r3, #12, #4
 2418              		.loc 1 1282 14 view .LVU427
 2419 000a 0360     		str	r3, [r0]
1283:../Drivers/STM32N6xx_HAL_Driver/Src/stm32n6xx_hal.c **** 
1284:../Drivers/STM32N6xx_HAL_Driver/Src/stm32n6xx_hal.c ****   return HAL_OK;
 2420              		.loc 1 1284 3 is_stmt 1 view .LVU428
 2421              		.loc 1 1284 10 is_stmt 0 view .LVU429
 2422 000c 0020     		movs	r0, #0
 2423              	.LVL86:
 2424              		.loc 1 1284 10 view .LVU430
 2425 000e 7047     		bx	lr
 2426              	.LVL87:
 2427              	.L242:
1278:../Drivers/STM32N6xx_HAL_Driver/Src/stm32n6xx_hal.c ****   }
 2428              		.loc 1 1278 12 view .LVU431
 2429 0010 0120     		movs	r0, #1
 2430              	.LVL88:
1285:../Drivers/STM32N6xx_HAL_Driver/Src/stm32n6xx_hal.c **** }
 2431              		.loc 1 1285 1 view .LVU432
 2432 0012 7047     		bx	lr
 2433              	.L244:
 2434              		.align	2
 2435              	.L243:
 2436 0014 00800056 		.word	1442873344
 2437              		.cfi_endproc
 2438              	.LFE950:
 2440              		.section	.text.HAL_SYSCFG_SetReadQosNP2,"ax",%progbits
 2441              		.align	1
 2442              		.global	HAL_SYSCFG_SetReadQosNP2
 2443              		.syntax unified
 2444              		.thumb
 2445              		.thumb_func
 2447              	HAL_SYSCFG_SetReadQosNP2:
 2448              	.LVL89:
 2449              	.LFB951:
1286:../Drivers/STM32N6xx_HAL_Driver/Src/stm32n6xx_hal.c **** 
1287:../Drivers/STM32N6xx_HAL_Driver/Src/stm32n6xx_hal.c **** /**
1288:../Drivers/STM32N6xx_HAL_Driver/Src/stm32n6xx_hal.c ****   * @brief  Set read QoS information for master port from NP2 NPUNIC
1289:../Drivers/STM32N6xx_HAL_Driver/Src/stm32n6xx_hal.c ****   * @param  QosValue Read Qos value (0 to 15)
1290:../Drivers/STM32N6xx_HAL_Driver/Src/stm32n6xx_hal.c ****   * @retval None
1291:../Drivers/STM32N6xx_HAL_Driver/Src/stm32n6xx_hal.c ****   */
1292:../Drivers/STM32N6xx_HAL_Driver/Src/stm32n6xx_hal.c **** void HAL_SYSCFG_SetReadQosNP2(uint32_t QosValue)
1293:../Drivers/STM32N6xx_HAL_Driver/Src/stm32n6xx_hal.c **** {
 2450              		.loc 1 1293 1 is_stmt 1 view -0
 2451              		.cfi_startproc
 2452              		@ args = 0, pretend = 0, frame = 0
 2453              		@ frame_needed = 0, uses_anonymous_args = 0
 2454              		@ link register save eliminated.
1294:../Drivers/STM32N6xx_HAL_Driver/Src/stm32n6xx_hal.c ****   /* Check the parameters */
1295:../Drivers/STM32N6xx_HAL_Driver/Src/stm32n6xx_hal.c ****   assert_param(IS_SYSCFG_QOS_CPU(QosValue));
 2455              		.loc 1 1295 3 view .LVU434
1296:../Drivers/STM32N6xx_HAL_Driver/Src/stm32n6xx_hal.c **** 
1297:../Drivers/STM32N6xx_HAL_Driver/Src/stm32n6xx_hal.c ****   MODIFY_REG(SYSCFG->NPUNICQOSCR, SYSCFG_NPUNICQOSCR_NPU2_ARQOSR, QosValue << 8U);
 2456              		.loc 1 1297 3 view .LVU435
 2457 0000 034A     		ldr	r2, .L246
 2458 0002 936A     		ldr	r3, [r2, #40]
ARM GAS  /tmp/ccvdUNht.s 			page 66


 2459 0004 23F47063 		bic	r3, r3, #3840
 2460 0008 43EA0023 		orr	r3, r3, r0, lsl #8
 2461 000c 9362     		str	r3, [r2, #40]
1298:../Drivers/STM32N6xx_HAL_Driver/Src/stm32n6xx_hal.c **** }
 2462              		.loc 1 1298 1 is_stmt 0 view .LVU436
 2463 000e 7047     		bx	lr
 2464              	.L247:
 2465              		.align	2
 2466              	.L246:
 2467 0010 00800056 		.word	1442873344
 2468              		.cfi_endproc
 2469              	.LFE951:
 2471              		.section	.text.HAL_SYSCFG_GetReadQosNP2,"ax",%progbits
 2472              		.align	1
 2473              		.global	HAL_SYSCFG_GetReadQosNP2
 2474              		.syntax unified
 2475              		.thumb
 2476              		.thumb_func
 2478              	HAL_SYSCFG_GetReadQosNP2:
 2479              	.LVL90:
 2480              	.LFB952:
1299:../Drivers/STM32N6xx_HAL_Driver/Src/stm32n6xx_hal.c **** 
1300:../Drivers/STM32N6xx_HAL_Driver/Src/stm32n6xx_hal.c **** /**
1301:../Drivers/STM32N6xx_HAL_Driver/Src/stm32n6xx_hal.c ****   * @brief  Get read QoS information for master port from NP2 NPUNIC
1302:../Drivers/STM32N6xx_HAL_Driver/Src/stm32n6xx_hal.c ****   * @param  pQosValue Pointer to return read QOS value (0 to 15)
1303:../Drivers/STM32N6xx_HAL_Driver/Src/stm32n6xx_hal.c ****   * @retval HAL status
1304:../Drivers/STM32N6xx_HAL_Driver/Src/stm32n6xx_hal.c ****   */
1305:../Drivers/STM32N6xx_HAL_Driver/Src/stm32n6xx_hal.c **** HAL_StatusTypeDef HAL_SYSCFG_GetReadQosNP2(uint32_t *pQosValue)
1306:../Drivers/STM32N6xx_HAL_Driver/Src/stm32n6xx_hal.c **** {
 2481              		.loc 1 1306 1 is_stmt 1 view -0
 2482              		.cfi_startproc
 2483              		@ args = 0, pretend = 0, frame = 0
 2484              		@ frame_needed = 0, uses_anonymous_args = 0
 2485              		@ link register save eliminated.
1307:../Drivers/STM32N6xx_HAL_Driver/Src/stm32n6xx_hal.c ****   /* Check null pointer */
1308:../Drivers/STM32N6xx_HAL_Driver/Src/stm32n6xx_hal.c ****   if (pQosValue == NULL)
 2486              		.loc 1 1308 3 view .LVU438
 2487              		.loc 1 1308 6 is_stmt 0 view .LVU439
 2488 0000 30B1     		cbz	r0, .L250
1309:../Drivers/STM32N6xx_HAL_Driver/Src/stm32n6xx_hal.c ****   {
1310:../Drivers/STM32N6xx_HAL_Driver/Src/stm32n6xx_hal.c ****     return HAL_ERROR;
1311:../Drivers/STM32N6xx_HAL_Driver/Src/stm32n6xx_hal.c ****   }
1312:../Drivers/STM32N6xx_HAL_Driver/Src/stm32n6xx_hal.c **** 
1313:../Drivers/STM32N6xx_HAL_Driver/Src/stm32n6xx_hal.c ****   /* Get the QOS */
1314:../Drivers/STM32N6xx_HAL_Driver/Src/stm32n6xx_hal.c ****   *pQosValue = (READ_BIT(SYSCFG->NPUNICQOSCR, SYSCFG_NPUNICQOSCR_NPU2_ARQOSR) >> 8U);
 2489              		.loc 1 1314 3 is_stmt 1 view .LVU440
 2490              		.loc 1 1314 17 is_stmt 0 view .LVU441
 2491 0002 044B     		ldr	r3, .L251
 2492 0004 9B6A     		ldr	r3, [r3, #40]
 2493              		.loc 1 1314 79 view .LVU442
 2494 0006 C3F30323 		ubfx	r3, r3, #8, #4
 2495              		.loc 1 1314 14 view .LVU443
 2496 000a 0360     		str	r3, [r0]
1315:../Drivers/STM32N6xx_HAL_Driver/Src/stm32n6xx_hal.c **** 
1316:../Drivers/STM32N6xx_HAL_Driver/Src/stm32n6xx_hal.c ****   return HAL_OK;
 2497              		.loc 1 1316 3 is_stmt 1 view .LVU444
 2498              		.loc 1 1316 10 is_stmt 0 view .LVU445
ARM GAS  /tmp/ccvdUNht.s 			page 67


 2499 000c 0020     		movs	r0, #0
 2500              	.LVL91:
 2501              		.loc 1 1316 10 view .LVU446
 2502 000e 7047     		bx	lr
 2503              	.LVL92:
 2504              	.L250:
1310:../Drivers/STM32N6xx_HAL_Driver/Src/stm32n6xx_hal.c ****   }
 2505              		.loc 1 1310 12 view .LVU447
 2506 0010 0120     		movs	r0, #1
 2507              	.LVL93:
1317:../Drivers/STM32N6xx_HAL_Driver/Src/stm32n6xx_hal.c **** }
 2508              		.loc 1 1317 1 view .LVU448
 2509 0012 7047     		bx	lr
 2510              	.L252:
 2511              		.align	2
 2512              	.L251:
 2513 0014 00800056 		.word	1442873344
 2514              		.cfi_endproc
 2515              	.LFE952:
 2517              		.section	.text.HAL_SYSCFG_SetWriteQosCPUSS,"ax",%progbits
 2518              		.align	1
 2519              		.global	HAL_SYSCFG_SetWriteQosCPUSS
 2520              		.syntax unified
 2521              		.thumb
 2522              		.thumb_func
 2524              	HAL_SYSCFG_SetWriteQosCPUSS:
 2525              	.LVL94:
 2526              	.LFB953:
1318:../Drivers/STM32N6xx_HAL_Driver/Src/stm32n6xx_hal.c **** 
1319:../Drivers/STM32N6xx_HAL_Driver/Src/stm32n6xx_hal.c **** /**
1320:../Drivers/STM32N6xx_HAL_Driver/Src/stm32n6xx_hal.c ****   * @brief  Set write QoS information for master port from CPUSS NPUNIC
1321:../Drivers/STM32N6xx_HAL_Driver/Src/stm32n6xx_hal.c ****   * @param  QosValue Write QoS value (0 to 15)
1322:../Drivers/STM32N6xx_HAL_Driver/Src/stm32n6xx_hal.c ****   * @retval None
1323:../Drivers/STM32N6xx_HAL_Driver/Src/stm32n6xx_hal.c ****   */
1324:../Drivers/STM32N6xx_HAL_Driver/Src/stm32n6xx_hal.c **** void HAL_SYSCFG_SetWriteQosCPUSS(uint32_t QosValue)
1325:../Drivers/STM32N6xx_HAL_Driver/Src/stm32n6xx_hal.c **** {
 2527              		.loc 1 1325 1 is_stmt 1 view -0
 2528              		.cfi_startproc
 2529              		@ args = 0, pretend = 0, frame = 0
 2530              		@ frame_needed = 0, uses_anonymous_args = 0
 2531              		@ link register save eliminated.
1326:../Drivers/STM32N6xx_HAL_Driver/Src/stm32n6xx_hal.c ****   /* Check the parameters */
1327:../Drivers/STM32N6xx_HAL_Driver/Src/stm32n6xx_hal.c ****   assert_param(IS_SYSCFG_QOS_CPU(QosValue));
 2532              		.loc 1 1327 3 view .LVU450
1328:../Drivers/STM32N6xx_HAL_Driver/Src/stm32n6xx_hal.c **** 
1329:../Drivers/STM32N6xx_HAL_Driver/Src/stm32n6xx_hal.c ****   MODIFY_REG(SYSCFG->NPUNICQOSCR, SYSCFG_NPUNICQOSCR_CPUSS_ARQOSW, QosValue << 20U);
 2533              		.loc 1 1329 3 view .LVU451
 2534 0000 034A     		ldr	r2, .L254
 2535 0002 936A     		ldr	r3, [r2, #40]
 2536 0004 23F47003 		bic	r3, r3, #15728640
 2537 0008 43EA0053 		orr	r3, r3, r0, lsl #20
 2538 000c 9362     		str	r3, [r2, #40]
1330:../Drivers/STM32N6xx_HAL_Driver/Src/stm32n6xx_hal.c **** }
 2539              		.loc 1 1330 1 is_stmt 0 view .LVU452
 2540 000e 7047     		bx	lr
 2541              	.L255:
 2542              		.align	2
ARM GAS  /tmp/ccvdUNht.s 			page 68


 2543              	.L254:
 2544 0010 00800056 		.word	1442873344
 2545              		.cfi_endproc
 2546              	.LFE953:
 2548              		.section	.text.HAL_SYSCFG_GetwriteQosCPUSS,"ax",%progbits
 2549              		.align	1
 2550              		.global	HAL_SYSCFG_GetwriteQosCPUSS
 2551              		.syntax unified
 2552              		.thumb
 2553              		.thumb_func
 2555              	HAL_SYSCFG_GetwriteQosCPUSS:
 2556              	.LVL95:
 2557              	.LFB954:
1331:../Drivers/STM32N6xx_HAL_Driver/Src/stm32n6xx_hal.c **** 
1332:../Drivers/STM32N6xx_HAL_Driver/Src/stm32n6xx_hal.c **** /**
1333:../Drivers/STM32N6xx_HAL_Driver/Src/stm32n6xx_hal.c ****   * @brief  Get write QoS information for master port from CPUSS NPUNIC
1334:../Drivers/STM32N6xx_HAL_Driver/Src/stm32n6xx_hal.c ****   * @param  pQosValue Pointer to return write QOS value (0 to 15)
1335:../Drivers/STM32N6xx_HAL_Driver/Src/stm32n6xx_hal.c ****   * @retval HAL status
1336:../Drivers/STM32N6xx_HAL_Driver/Src/stm32n6xx_hal.c ****   */
1337:../Drivers/STM32N6xx_HAL_Driver/Src/stm32n6xx_hal.c **** HAL_StatusTypeDef HAL_SYSCFG_GetwriteQosCPUSS(uint32_t *pQosValue)
1338:../Drivers/STM32N6xx_HAL_Driver/Src/stm32n6xx_hal.c **** {
 2558              		.loc 1 1338 1 is_stmt 1 view -0
 2559              		.cfi_startproc
 2560              		@ args = 0, pretend = 0, frame = 0
 2561              		@ frame_needed = 0, uses_anonymous_args = 0
 2562              		@ link register save eliminated.
1339:../Drivers/STM32N6xx_HAL_Driver/Src/stm32n6xx_hal.c ****   /* Check null pointer */
1340:../Drivers/STM32N6xx_HAL_Driver/Src/stm32n6xx_hal.c ****   if (pQosValue == NULL)
 2563              		.loc 1 1340 3 view .LVU454
 2564              		.loc 1 1340 6 is_stmt 0 view .LVU455
 2565 0000 30B1     		cbz	r0, .L258
1341:../Drivers/STM32N6xx_HAL_Driver/Src/stm32n6xx_hal.c ****   {
1342:../Drivers/STM32N6xx_HAL_Driver/Src/stm32n6xx_hal.c ****     return HAL_ERROR;
1343:../Drivers/STM32N6xx_HAL_Driver/Src/stm32n6xx_hal.c ****   }
1344:../Drivers/STM32N6xx_HAL_Driver/Src/stm32n6xx_hal.c **** 
1345:../Drivers/STM32N6xx_HAL_Driver/Src/stm32n6xx_hal.c ****   /* Get the QOS */
1346:../Drivers/STM32N6xx_HAL_Driver/Src/stm32n6xx_hal.c ****   *pQosValue = (READ_BIT(SYSCFG->NPUNICQOSCR, SYSCFG_NPUNICQOSCR_CPUSS_ARQOSW) >> 20U);
 2566              		.loc 1 1346 3 is_stmt 1 view .LVU456
 2567              		.loc 1 1346 17 is_stmt 0 view .LVU457
 2568 0002 044B     		ldr	r3, .L259
 2569 0004 9B6A     		ldr	r3, [r3, #40]
 2570              		.loc 1 1346 80 view .LVU458
 2571 0006 C3F30353 		ubfx	r3, r3, #20, #4
 2572              		.loc 1 1346 14 view .LVU459
 2573 000a 0360     		str	r3, [r0]
1347:../Drivers/STM32N6xx_HAL_Driver/Src/stm32n6xx_hal.c **** 
1348:../Drivers/STM32N6xx_HAL_Driver/Src/stm32n6xx_hal.c ****   return HAL_OK;
 2574              		.loc 1 1348 3 is_stmt 1 view .LVU460
 2575              		.loc 1 1348 10 is_stmt 0 view .LVU461
 2576 000c 0020     		movs	r0, #0
 2577              	.LVL96:
 2578              		.loc 1 1348 10 view .LVU462
 2579 000e 7047     		bx	lr
 2580              	.LVL97:
 2581              	.L258:
1342:../Drivers/STM32N6xx_HAL_Driver/Src/stm32n6xx_hal.c ****   }
 2582              		.loc 1 1342 12 view .LVU463
ARM GAS  /tmp/ccvdUNht.s 			page 69


 2583 0010 0120     		movs	r0, #1
 2584              	.LVL98:
1349:../Drivers/STM32N6xx_HAL_Driver/Src/stm32n6xx_hal.c **** }
 2585              		.loc 1 1349 1 view .LVU464
 2586 0012 7047     		bx	lr
 2587              	.L260:
 2588              		.align	2
 2589              	.L259:
 2590 0014 00800056 		.word	1442873344
 2591              		.cfi_endproc
 2592              	.LFE954:
 2594              		.section	.text.HAL_SYSCFG_SetReadQosCPUSS,"ax",%progbits
 2595              		.align	1
 2596              		.global	HAL_SYSCFG_SetReadQosCPUSS
 2597              		.syntax unified
 2598              		.thumb
 2599              		.thumb_func
 2601              	HAL_SYSCFG_SetReadQosCPUSS:
 2602              	.LVL99:
 2603              	.LFB955:
1350:../Drivers/STM32N6xx_HAL_Driver/Src/stm32n6xx_hal.c **** 
1351:../Drivers/STM32N6xx_HAL_Driver/Src/stm32n6xx_hal.c **** /**
1352:../Drivers/STM32N6xx_HAL_Driver/Src/stm32n6xx_hal.c ****   * @brief  Set read QoS information for master port from CPUSS NPUNIC
1353:../Drivers/STM32N6xx_HAL_Driver/Src/stm32n6xx_hal.c ****   * @param  QosValue Read QoS value (0 to 15)
1354:../Drivers/STM32N6xx_HAL_Driver/Src/stm32n6xx_hal.c ****   * @retval None
1355:../Drivers/STM32N6xx_HAL_Driver/Src/stm32n6xx_hal.c ****   */
1356:../Drivers/STM32N6xx_HAL_Driver/Src/stm32n6xx_hal.c **** void HAL_SYSCFG_SetReadQosCPUSS(uint32_t QosValue)
1357:../Drivers/STM32N6xx_HAL_Driver/Src/stm32n6xx_hal.c **** {
 2604              		.loc 1 1357 1 is_stmt 1 view -0
 2605              		.cfi_startproc
 2606              		@ args = 0, pretend = 0, frame = 0
 2607              		@ frame_needed = 0, uses_anonymous_args = 0
 2608              		@ link register save eliminated.
1358:../Drivers/STM32N6xx_HAL_Driver/Src/stm32n6xx_hal.c ****   /* Check the parameters */
1359:../Drivers/STM32N6xx_HAL_Driver/Src/stm32n6xx_hal.c ****   assert_param(IS_SYSCFG_QOS_CPU(QosValue));
 2609              		.loc 1 1359 3 view .LVU466
1360:../Drivers/STM32N6xx_HAL_Driver/Src/stm32n6xx_hal.c **** 
1361:../Drivers/STM32N6xx_HAL_Driver/Src/stm32n6xx_hal.c ****   MODIFY_REG(SYSCFG->NPUNICQOSCR, SYSCFG_NPUNICQOSCR_CPUSS_ARQOSR, QosValue << 16U);
 2610              		.loc 1 1361 3 view .LVU467
 2611 0000 034A     		ldr	r2, .L262
 2612 0002 936A     		ldr	r3, [r2, #40]
 2613 0004 23F47023 		bic	r3, r3, #983040
 2614 0008 43EA0043 		orr	r3, r3, r0, lsl #16
 2615 000c 9362     		str	r3, [r2, #40]
1362:../Drivers/STM32N6xx_HAL_Driver/Src/stm32n6xx_hal.c **** }
 2616              		.loc 1 1362 1 is_stmt 0 view .LVU468
 2617 000e 7047     		bx	lr
 2618              	.L263:
 2619              		.align	2
 2620              	.L262:
 2621 0010 00800056 		.word	1442873344
 2622              		.cfi_endproc
 2623              	.LFE955:
 2625              		.section	.text.HAL_SYSCFG_GetReadQosCPUSS,"ax",%progbits
 2626              		.align	1
 2627              		.global	HAL_SYSCFG_GetReadQosCPUSS
 2628              		.syntax unified
ARM GAS  /tmp/ccvdUNht.s 			page 70


 2629              		.thumb
 2630              		.thumb_func
 2632              	HAL_SYSCFG_GetReadQosCPUSS:
 2633              	.LVL100:
 2634              	.LFB956:
1363:../Drivers/STM32N6xx_HAL_Driver/Src/stm32n6xx_hal.c **** 
1364:../Drivers/STM32N6xx_HAL_Driver/Src/stm32n6xx_hal.c **** /**
1365:../Drivers/STM32N6xx_HAL_Driver/Src/stm32n6xx_hal.c ****   * @brief  Get read QoS information for master port from CPUSS NPUNIC
1366:../Drivers/STM32N6xx_HAL_Driver/Src/stm32n6xx_hal.c ****   * @param  pQosValue Pointer to return read QOS value (0 to 15)
1367:../Drivers/STM32N6xx_HAL_Driver/Src/stm32n6xx_hal.c ****   * @retval HAL status
1368:../Drivers/STM32N6xx_HAL_Driver/Src/stm32n6xx_hal.c ****   */
1369:../Drivers/STM32N6xx_HAL_Driver/Src/stm32n6xx_hal.c **** HAL_StatusTypeDef HAL_SYSCFG_GetReadQosCPUSS(uint32_t *pQosValue)
1370:../Drivers/STM32N6xx_HAL_Driver/Src/stm32n6xx_hal.c **** {
 2635              		.loc 1 1370 1 is_stmt 1 view -0
 2636              		.cfi_startproc
 2637              		@ args = 0, pretend = 0, frame = 0
 2638              		@ frame_needed = 0, uses_anonymous_args = 0
 2639              		@ link register save eliminated.
1371:../Drivers/STM32N6xx_HAL_Driver/Src/stm32n6xx_hal.c ****   /* Check null pointer */
1372:../Drivers/STM32N6xx_HAL_Driver/Src/stm32n6xx_hal.c ****   if (pQosValue == NULL)
 2640              		.loc 1 1372 3 view .LVU470
 2641              		.loc 1 1372 6 is_stmt 0 view .LVU471
 2642 0000 30B1     		cbz	r0, .L266
1373:../Drivers/STM32N6xx_HAL_Driver/Src/stm32n6xx_hal.c ****   {
1374:../Drivers/STM32N6xx_HAL_Driver/Src/stm32n6xx_hal.c ****     return HAL_ERROR;
1375:../Drivers/STM32N6xx_HAL_Driver/Src/stm32n6xx_hal.c ****   }
1376:../Drivers/STM32N6xx_HAL_Driver/Src/stm32n6xx_hal.c **** 
1377:../Drivers/STM32N6xx_HAL_Driver/Src/stm32n6xx_hal.c ****   /* Get the QOS */
1378:../Drivers/STM32N6xx_HAL_Driver/Src/stm32n6xx_hal.c ****   *pQosValue = (READ_BIT(SYSCFG->NPUNICQOSCR, SYSCFG_NPUNICQOSCR_CPUSS_ARQOSR) >> 16U);
 2643              		.loc 1 1378 3 is_stmt 1 view .LVU472
 2644              		.loc 1 1378 17 is_stmt 0 view .LVU473
 2645 0002 044B     		ldr	r3, .L267
 2646 0004 9B6A     		ldr	r3, [r3, #40]
 2647              		.loc 1 1378 80 view .LVU474
 2648 0006 C3F30343 		ubfx	r3, r3, #16, #4
 2649              		.loc 1 1378 14 view .LVU475
 2650 000a 0360     		str	r3, [r0]
1379:../Drivers/STM32N6xx_HAL_Driver/Src/stm32n6xx_hal.c **** 
1380:../Drivers/STM32N6xx_HAL_Driver/Src/stm32n6xx_hal.c ****   return HAL_OK;
 2651              		.loc 1 1380 3 is_stmt 1 view .LVU476
 2652              		.loc 1 1380 10 is_stmt 0 view .LVU477
 2653 000c 0020     		movs	r0, #0
 2654              	.LVL101:
 2655              		.loc 1 1380 10 view .LVU478
 2656 000e 7047     		bx	lr
 2657              	.LVL102:
 2658              	.L266:
1374:../Drivers/STM32N6xx_HAL_Driver/Src/stm32n6xx_hal.c ****   }
 2659              		.loc 1 1374 12 view .LVU479
 2660 0010 0120     		movs	r0, #1
 2661              	.LVL103:
1381:../Drivers/STM32N6xx_HAL_Driver/Src/stm32n6xx_hal.c **** }
 2662              		.loc 1 1381 1 view .LVU480
 2663 0012 7047     		bx	lr
 2664              	.L268:
 2665              		.align	2
 2666              	.L267:
ARM GAS  /tmp/ccvdUNht.s 			page 71


 2667 0014 00800056 		.word	1442873344
 2668              		.cfi_endproc
 2669              	.LFE956:
 2671              		.section	.text.HAL_SYSCFG_EnableSDMMCEarlyWRRESP,"ax",%progbits
 2672              		.align	1
 2673              		.global	HAL_SYSCFG_EnableSDMMCEarlyWRRESP
 2674              		.syntax unified
 2675              		.thumb
 2676              		.thumb_func
 2678              	HAL_SYSCFG_EnableSDMMCEarlyWRRESP:
 2679              	.LVL104:
 2680              	.LFB957:
1382:../Drivers/STM32N6xx_HAL_Driver/Src/stm32n6xx_hal.c **** #endif /* defined(SYSCFG_NPUNICQOSCR_NPU1_ARQOSR) */
1383:../Drivers/STM32N6xx_HAL_Driver/Src/stm32n6xx_hal.c **** 
1384:../Drivers/STM32N6xx_HAL_Driver/Src/stm32n6xx_hal.c **** /**
1385:../Drivers/STM32N6xx_HAL_Driver/Src/stm32n6xx_hal.c ****   * @brief  Enable SDMMC early-write response.
1386:../Drivers/STM32N6xx_HAL_Driver/Src/stm32n6xx_hal.c ****   * @param  Sdmmc Selected SDMMC instance(s).
1387:../Drivers/STM32N6xx_HAL_Driver/Src/stm32n6xx_hal.c ****   *               This parameter can be a one of @ref SYSCFG_SDMMCId
1388:../Drivers/STM32N6xx_HAL_Driver/Src/stm32n6xx_hal.c ****   * @retval None
1389:../Drivers/STM32N6xx_HAL_Driver/Src/stm32n6xx_hal.c ****   */
1390:../Drivers/STM32N6xx_HAL_Driver/Src/stm32n6xx_hal.c **** void HAL_SYSCFG_EnableSDMMCEarlyWRRESP(uint32_t Sdmmc)
1391:../Drivers/STM32N6xx_HAL_Driver/Src/stm32n6xx_hal.c **** {
 2681              		.loc 1 1391 1 is_stmt 1 view -0
 2682              		.cfi_startproc
 2683              		@ args = 0, pretend = 0, frame = 0
 2684              		@ frame_needed = 0, uses_anonymous_args = 0
 2685              		@ link register save eliminated.
1392:../Drivers/STM32N6xx_HAL_Driver/Src/stm32n6xx_hal.c ****   /* Check the parameters */
1393:../Drivers/STM32N6xx_HAL_Driver/Src/stm32n6xx_hal.c ****   assert_param(IS_SYSCFG_SDMMC(Sdmmc));
 2686              		.loc 1 1393 3 view .LVU482
1394:../Drivers/STM32N6xx_HAL_Driver/Src/stm32n6xx_hal.c **** 
1395:../Drivers/STM32N6xx_HAL_Driver/Src/stm32n6xx_hal.c ****   SET_BIT(SYSCFG->ICNEWRCR, Sdmmc);
 2687              		.loc 1 1395 3 view .LVU483
 2688 0000 024A     		ldr	r2, .L270
 2689 0002 536B     		ldr	r3, [r2, #52]
 2690 0004 0343     		orrs	r3, r3, r0
 2691 0006 5363     		str	r3, [r2, #52]
1396:../Drivers/STM32N6xx_HAL_Driver/Src/stm32n6xx_hal.c **** }
 2692              		.loc 1 1396 1 is_stmt 0 view .LVU484
 2693 0008 7047     		bx	lr
 2694              	.L271:
 2695 000a 00BF     		.align	2
 2696              	.L270:
 2697 000c 00800056 		.word	1442873344
 2698              		.cfi_endproc
 2699              	.LFE957:
 2701              		.section	.text.HAL_SYSCFG_DisableSDMMCEarlyWRRSP,"ax",%progbits
 2702              		.align	1
 2703              		.global	HAL_SYSCFG_DisableSDMMCEarlyWRRSP
 2704              		.syntax unified
 2705              		.thumb
 2706              		.thumb_func
 2708              	HAL_SYSCFG_DisableSDMMCEarlyWRRSP:
 2709              	.LVL105:
 2710              	.LFB958:
1397:../Drivers/STM32N6xx_HAL_Driver/Src/stm32n6xx_hal.c **** 
1398:../Drivers/STM32N6xx_HAL_Driver/Src/stm32n6xx_hal.c **** /**
ARM GAS  /tmp/ccvdUNht.s 			page 72


1399:../Drivers/STM32N6xx_HAL_Driver/Src/stm32n6xx_hal.c ****   * @brief  Disable SDMMC early-write response.
1400:../Drivers/STM32N6xx_HAL_Driver/Src/stm32n6xx_hal.c ****   * @param  Sdmmc Selected SDMMC instance(s).
1401:../Drivers/STM32N6xx_HAL_Driver/Src/stm32n6xx_hal.c ****   *               This parameter can be a one of @ref SYSCFG_SDMMCId
1402:../Drivers/STM32N6xx_HAL_Driver/Src/stm32n6xx_hal.c ****   * @retval None
1403:../Drivers/STM32N6xx_HAL_Driver/Src/stm32n6xx_hal.c ****   */
1404:../Drivers/STM32N6xx_HAL_Driver/Src/stm32n6xx_hal.c **** void HAL_SYSCFG_DisableSDMMCEarlyWRRSP(uint32_t Sdmmc)
1405:../Drivers/STM32N6xx_HAL_Driver/Src/stm32n6xx_hal.c **** {
 2711              		.loc 1 1405 1 is_stmt 1 view -0
 2712              		.cfi_startproc
 2713              		@ args = 0, pretend = 0, frame = 0
 2714              		@ frame_needed = 0, uses_anonymous_args = 0
 2715              		@ link register save eliminated.
1406:../Drivers/STM32N6xx_HAL_Driver/Src/stm32n6xx_hal.c ****   /* Check the parameters */
1407:../Drivers/STM32N6xx_HAL_Driver/Src/stm32n6xx_hal.c ****   assert_param(IS_SYSCFG_SDMMC(Sdmmc));
 2716              		.loc 1 1407 3 view .LVU486
1408:../Drivers/STM32N6xx_HAL_Driver/Src/stm32n6xx_hal.c **** 
1409:../Drivers/STM32N6xx_HAL_Driver/Src/stm32n6xx_hal.c ****   CLEAR_BIT(SYSCFG->ICNEWRCR, Sdmmc);
 2717              		.loc 1 1409 3 view .LVU487
 2718 0000 024A     		ldr	r2, .L273
 2719 0002 536B     		ldr	r3, [r2, #52]
 2720 0004 23EA0003 		bic	r3, r3, r0
 2721 0008 5363     		str	r3, [r2, #52]
1410:../Drivers/STM32N6xx_HAL_Driver/Src/stm32n6xx_hal.c **** }
 2722              		.loc 1 1410 1 is_stmt 0 view .LVU488
 2723 000a 7047     		bx	lr
 2724              	.L274:
 2725              		.align	2
 2726              	.L273:
 2727 000c 00800056 		.word	1442873344
 2728              		.cfi_endproc
 2729              	.LFE958:
 2731              		.section	.text.HAL_SYSCFG_EnableUSBEarlyEarlyWRRESP,"ax",%progbits
 2732              		.align	1
 2733              		.global	HAL_SYSCFG_EnableUSBEarlyEarlyWRRESP
 2734              		.syntax unified
 2735              		.thumb
 2736              		.thumb_func
 2738              	HAL_SYSCFG_EnableUSBEarlyEarlyWRRESP:
 2739              	.LVL106:
 2740              	.LFB959:
1411:../Drivers/STM32N6xx_HAL_Driver/Src/stm32n6xx_hal.c **** 
1412:../Drivers/STM32N6xx_HAL_Driver/Src/stm32n6xx_hal.c **** /**
1413:../Drivers/STM32N6xx_HAL_Driver/Src/stm32n6xx_hal.c ****   * @brief  Enable USB early-write response.
1414:../Drivers/STM32N6xx_HAL_Driver/Src/stm32n6xx_hal.c ****   * @param  Usb Selected USB instance(s).
1415:../Drivers/STM32N6xx_HAL_Driver/Src/stm32n6xx_hal.c ****   *             This parameter can be a one of @ref SYSCFG_USBId
1416:../Drivers/STM32N6xx_HAL_Driver/Src/stm32n6xx_hal.c ****   * @retval None
1417:../Drivers/STM32N6xx_HAL_Driver/Src/stm32n6xx_hal.c ****   */
1418:../Drivers/STM32N6xx_HAL_Driver/Src/stm32n6xx_hal.c **** void HAL_SYSCFG_EnableUSBEarlyEarlyWRRESP(uint32_t Usb)
1419:../Drivers/STM32N6xx_HAL_Driver/Src/stm32n6xx_hal.c **** {
 2741              		.loc 1 1419 1 is_stmt 1 view -0
 2742              		.cfi_startproc
 2743              		@ args = 0, pretend = 0, frame = 0
 2744              		@ frame_needed = 0, uses_anonymous_args = 0
 2745              		@ link register save eliminated.
1420:../Drivers/STM32N6xx_HAL_Driver/Src/stm32n6xx_hal.c ****   /* Check the parameters */
1421:../Drivers/STM32N6xx_HAL_Driver/Src/stm32n6xx_hal.c ****   assert_param(IS_SYSCFG_USB(Usb));
 2746              		.loc 1 1421 3 view .LVU490
ARM GAS  /tmp/ccvdUNht.s 			page 73


1422:../Drivers/STM32N6xx_HAL_Driver/Src/stm32n6xx_hal.c **** 
1423:../Drivers/STM32N6xx_HAL_Driver/Src/stm32n6xx_hal.c ****   SET_BIT(SYSCFG->ICNEWRCR, Usb);
 2747              		.loc 1 1423 3 view .LVU491
 2748 0000 024A     		ldr	r2, .L276
 2749 0002 536B     		ldr	r3, [r2, #52]
 2750 0004 0343     		orrs	r3, r3, r0
 2751 0006 5363     		str	r3, [r2, #52]
1424:../Drivers/STM32N6xx_HAL_Driver/Src/stm32n6xx_hal.c **** }
 2752              		.loc 1 1424 1 is_stmt 0 view .LVU492
 2753 0008 7047     		bx	lr
 2754              	.L277:
 2755 000a 00BF     		.align	2
 2756              	.L276:
 2757 000c 00800056 		.word	1442873344
 2758              		.cfi_endproc
 2759              	.LFE959:
 2761              		.section	.text.HAL_SYSCFG_DisableUSBEarlyEarlyWRRESP,"ax",%progbits
 2762              		.align	1
 2763              		.global	HAL_SYSCFG_DisableUSBEarlyEarlyWRRESP
 2764              		.syntax unified
 2765              		.thumb
 2766              		.thumb_func
 2768              	HAL_SYSCFG_DisableUSBEarlyEarlyWRRESP:
 2769              	.LVL107:
 2770              	.LFB960:
1425:../Drivers/STM32N6xx_HAL_Driver/Src/stm32n6xx_hal.c **** 
1426:../Drivers/STM32N6xx_HAL_Driver/Src/stm32n6xx_hal.c **** /**
1427:../Drivers/STM32N6xx_HAL_Driver/Src/stm32n6xx_hal.c ****   * @brief  Disable USB early-write response.
1428:../Drivers/STM32N6xx_HAL_Driver/Src/stm32n6xx_hal.c ****   * @param  Usb Selected USB instance(s).
1429:../Drivers/STM32N6xx_HAL_Driver/Src/stm32n6xx_hal.c ****   *             This parameter can be a one of @ref SYSCFG_USBId
1430:../Drivers/STM32N6xx_HAL_Driver/Src/stm32n6xx_hal.c ****   * @retval None
1431:../Drivers/STM32N6xx_HAL_Driver/Src/stm32n6xx_hal.c ****   */
1432:../Drivers/STM32N6xx_HAL_Driver/Src/stm32n6xx_hal.c **** void HAL_SYSCFG_DisableUSBEarlyEarlyWRRESP(uint32_t Usb)
1433:../Drivers/STM32N6xx_HAL_Driver/Src/stm32n6xx_hal.c **** {
 2771              		.loc 1 1433 1 is_stmt 1 view -0
 2772              		.cfi_startproc
 2773              		@ args = 0, pretend = 0, frame = 0
 2774              		@ frame_needed = 0, uses_anonymous_args = 0
 2775              		@ link register save eliminated.
1434:../Drivers/STM32N6xx_HAL_Driver/Src/stm32n6xx_hal.c ****   /* Check the parameters */
1435:../Drivers/STM32N6xx_HAL_Driver/Src/stm32n6xx_hal.c ****   assert_param(IS_SYSCFG_USB(Usb));
 2776              		.loc 1 1435 3 view .LVU494
1436:../Drivers/STM32N6xx_HAL_Driver/Src/stm32n6xx_hal.c **** 
1437:../Drivers/STM32N6xx_HAL_Driver/Src/stm32n6xx_hal.c ****   CLEAR_BIT(SYSCFG->ICNEWRCR, Usb);
 2777              		.loc 1 1437 3 view .LVU495
 2778 0000 024A     		ldr	r2, .L279
 2779 0002 536B     		ldr	r3, [r2, #52]
 2780 0004 23EA0003 		bic	r3, r3, r0
 2781 0008 5363     		str	r3, [r2, #52]
1438:../Drivers/STM32N6xx_HAL_Driver/Src/stm32n6xx_hal.c **** }
 2782              		.loc 1 1438 1 is_stmt 0 view .LVU496
 2783 000a 7047     		bx	lr
 2784              	.L280:
 2785              		.align	2
 2786              	.L279:
 2787 000c 00800056 		.word	1442873344
 2788              		.cfi_endproc
ARM GAS  /tmp/ccvdUNht.s 			page 74


 2789              	.LFE960:
 2791              		.section	.text.HAL_SYSCFG_EnablexPUClockGating,"ax",%progbits
 2792              		.align	1
 2793              		.global	HAL_SYSCFG_EnablexPUClockGating
 2794              		.syntax unified
 2795              		.thumb
 2796              		.thumb_func
 2798              	HAL_SYSCFG_EnablexPUClockGating:
 2799              	.LVL108:
 2800              	.LFB961:
1439:../Drivers/STM32N6xx_HAL_Driver/Src/stm32n6xx_hal.c **** 
1440:../Drivers/STM32N6xx_HAL_Driver/Src/stm32n6xx_hal.c **** /**
1441:../Drivers/STM32N6xx_HAL_Driver/Src/stm32n6xx_hal.c ****   * @brief  Enable xPU clock gating.
1442:../Drivers/STM32N6xx_HAL_Driver/Src/stm32n6xx_hal.c ****   * @param  Xpu Selected CPU(s).
1443:../Drivers/STM32N6xx_HAL_Driver/Src/stm32n6xx_hal.c ****   *             This parameter can be a one of @ref SYSCFG_XPUId
1444:../Drivers/STM32N6xx_HAL_Driver/Src/stm32n6xx_hal.c ****   * @retval None
1445:../Drivers/STM32N6xx_HAL_Driver/Src/stm32n6xx_hal.c ****   */
1446:../Drivers/STM32N6xx_HAL_Driver/Src/stm32n6xx_hal.c **** void HAL_SYSCFG_EnablexPUClockGating(uint32_t Xpu)
1447:../Drivers/STM32N6xx_HAL_Driver/Src/stm32n6xx_hal.c **** {
 2801              		.loc 1 1447 1 is_stmt 1 view -0
 2802              		.cfi_startproc
 2803              		@ args = 0, pretend = 0, frame = 0
 2804              		@ frame_needed = 0, uses_anonymous_args = 0
 2805              		@ link register save eliminated.
