ARM GAS  /tmp/ccvdUNht.s 			page 1


   1              		.arch armv8.1-m.main
   2              		.fpu fpv5-d16
   3              		.arch_extension dsp
   4              		.arch_extension fp
   5              		.arch_extension fp.dp
   6              		.arch_extension mve
   7              		.arch_extension mve.fp
   8              		.eabi_attribute 5, "cortex-m55"
   9              		.eabi_attribute 28, 1
  10              		.eabi_attribute 20, 1
  11              		.eabi_attribute 21, 1
  12              		.eabi_attribute 23, 3
  13              		.eabi_attribute 24, 1
  14              		.eabi_attribute 25, 1
  15              		.eabi_attribute 26, 1
  16              		.eabi_attribute 30, 1
  17              		.eabi_attribute 34, 1
  18              		.eabi_attribute 38, 1
  19              		.eabi_attribute 18, 4
  20              		.file	"stm32n6xx_hal.c"
  21              		.text
  22              	.Ltext0:
  23              		.cfi_sections	.debug_frame
  24              		.file 1 "../Drivers/STM32N6xx_HAL_Driver/Src/stm32n6xx_hal.c"
  25              		.section	.text.HAL_MspInit,"ax",%progbits
  26              		.align	1
  27              		.weak	HAL_MspInit
  28              		.syntax unified
  29              		.thumb
  30              		.thumb_func
  32              	HAL_MspInit:
  33              	.LFB883:
   1:../Drivers/STM32N6xx_HAL_Driver/Src/stm32n6xx_hal.c **** /**
   2:../Drivers/STM32N6xx_HAL_Driver/Src/stm32n6xx_hal.c ****   ******************************************************************************
   3:../Drivers/STM32N6xx_HAL_Driver/Src/stm32n6xx_hal.c ****   * @file    stm32n6xx_hal.c
   4:../Drivers/STM32N6xx_HAL_Driver/Src/stm32n6xx_hal.c ****   * @author  MCD Application Team
   5:../Drivers/STM32N6xx_HAL_Driver/Src/stm32n6xx_hal.c ****   * @brief   HAL module driver.
   6:../Drivers/STM32N6xx_HAL_Driver/Src/stm32n6xx_hal.c ****   *          This is the common part of the HAL initialization
   7:../Drivers/STM32N6xx_HAL_Driver/Src/stm32n6xx_hal.c ****   *
   8:../Drivers/STM32N6xx_HAL_Driver/Src/stm32n6xx_hal.c ****   ******************************************************************************
   9:../Drivers/STM32N6xx_HAL_Driver/Src/stm32n6xx_hal.c ****   * @attention
  10:../Drivers/STM32N6xx_HAL_Driver/Src/stm32n6xx_hal.c ****   *
  11:../Drivers/STM32N6xx_HAL_Driver/Src/stm32n6xx_hal.c ****   * Copyright (c) 2023 STMicroelectronics.
  12:../Drivers/STM32N6xx_HAL_Driver/Src/stm32n6xx_hal.c ****   * All rights reserved.
  13:../Drivers/STM32N6xx_HAL_Driver/Src/stm32n6xx_hal.c ****   *
  14:../Drivers/STM32N6xx_HAL_Driver/Src/stm32n6xx_hal.c ****   * This software is licensed under terms that can be found in the LICENSE file
  15:../Drivers/STM32N6xx_HAL_Driver/Src/stm32n6xx_hal.c ****   * in the root directory of this software component.
  16:../Drivers/STM32N6xx_HAL_Driver/Src/stm32n6xx_hal.c ****   * If no LICENSE file comes with this software, it is provided AS-IS.
  17:../Drivers/STM32N6xx_HAL_Driver/Src/stm32n6xx_hal.c ****   *
  18:../Drivers/STM32N6xx_HAL_Driver/Src/stm32n6xx_hal.c ****   ******************************************************************************
  19:../Drivers/STM32N6xx_HAL_Driver/Src/stm32n6xx_hal.c ****   @verbatim
  20:../Drivers/STM32N6xx_HAL_Driver/Src/stm32n6xx_hal.c ****   ==============================================================================
  21:../Drivers/STM32N6xx_HAL_Driver/Src/stm32n6xx_hal.c ****                      ##### How to use this driver #####
  22:../Drivers/STM32N6xx_HAL_Driver/Src/stm32n6xx_hal.c ****   ==============================================================================
  23:../Drivers/STM32N6xx_HAL_Driver/Src/stm32n6xx_hal.c ****     [..]
  24:../Drivers/STM32N6xx_HAL_Driver/Src/stm32n6xx_hal.c ****     The common HAL driver contains a set of generic and common APIs that can be
  25:../Drivers/STM32N6xx_HAL_Driver/Src/stm32n6xx_hal.c ****     used by the PPP peripheral drivers and the user to start using the HAL.
ARM GAS  /tmp/ccvdUNht.s 			page 2


  26:../Drivers/STM32N6xx_HAL_Driver/Src/stm32n6xx_hal.c ****     [..]
  27:../Drivers/STM32N6xx_HAL_Driver/Src/stm32n6xx_hal.c ****     The HAL contains two APIs' categories:
  28:../Drivers/STM32N6xx_HAL_Driver/Src/stm32n6xx_hal.c ****          (+) Common HAL APIs
  29:../Drivers/STM32N6xx_HAL_Driver/Src/stm32n6xx_hal.c ****          (+) Services HAL APIs
  30:../Drivers/STM32N6xx_HAL_Driver/Src/stm32n6xx_hal.c ****     [..]
  31:../Drivers/STM32N6xx_HAL_Driver/Src/stm32n6xx_hal.c ****     All the SYSCFG functions have the same privilege and security attributes.
  32:../Drivers/STM32N6xx_HAL_Driver/Src/stm32n6xx_hal.c ****          (+) Functions can operate in non-privileged code should
  33:../Drivers/STM32N6xx_HAL_Driver/Src/stm32n6xx_hal.c ****              privileged and unprivileged data access are granted to the
  34:../Drivers/STM32N6xx_HAL_Driver/Src/stm32n6xx_hal.c ****              peripheral (see HAL_RIF_RISC_SetSlaveSecureAttributes)
  35:../Drivers/STM32N6xx_HAL_Driver/Src/stm32n6xx_hal.c **** 
  36:../Drivers/STM32N6xx_HAL_Driver/Src/stm32n6xx_hal.c ****          (+) Functions  can operate in non-secure code should
  37:../Drivers/STM32N6xx_HAL_Driver/Src/stm32n6xx_hal.c ****              secure and non-secure data access are granted to the peripheral
  38:../Drivers/STM32N6xx_HAL_Driver/Src/stm32n6xx_hal.c ****              (see HAL_RIF_RISC_SetSlaveSecureAttributes).
  39:../Drivers/STM32N6xx_HAL_Driver/Src/stm32n6xx_hal.c **** 
  40:../Drivers/STM32N6xx_HAL_Driver/Src/stm32n6xx_hal.c ****   @endverbatim
  41:../Drivers/STM32N6xx_HAL_Driver/Src/stm32n6xx_hal.c ****   ******************************************************************************
  42:../Drivers/STM32N6xx_HAL_Driver/Src/stm32n6xx_hal.c ****   */
  43:../Drivers/STM32N6xx_HAL_Driver/Src/stm32n6xx_hal.c **** 
  44:../Drivers/STM32N6xx_HAL_Driver/Src/stm32n6xx_hal.c **** /* Includes ------------------------------------------------------------------*/
  45:../Drivers/STM32N6xx_HAL_Driver/Src/stm32n6xx_hal.c **** #include "stm32n6xx_hal.h"
  46:../Drivers/STM32N6xx_HAL_Driver/Src/stm32n6xx_hal.c **** 
  47:../Drivers/STM32N6xx_HAL_Driver/Src/stm32n6xx_hal.c **** /** @addtogroup STM32N6xx_HAL_Driver
  48:../Drivers/STM32N6xx_HAL_Driver/Src/stm32n6xx_hal.c ****   * @{
  49:../Drivers/STM32N6xx_HAL_Driver/Src/stm32n6xx_hal.c ****   */
  50:../Drivers/STM32N6xx_HAL_Driver/Src/stm32n6xx_hal.c **** 
  51:../Drivers/STM32N6xx_HAL_Driver/Src/stm32n6xx_hal.c **** /** @defgroup HAL HAL
  52:../Drivers/STM32N6xx_HAL_Driver/Src/stm32n6xx_hal.c ****   * @brief HAL module driver
  53:../Drivers/STM32N6xx_HAL_Driver/Src/stm32n6xx_hal.c ****   * @{
  54:../Drivers/STM32N6xx_HAL_Driver/Src/stm32n6xx_hal.c ****   */
  55:../Drivers/STM32N6xx_HAL_Driver/Src/stm32n6xx_hal.c **** 
  56:../Drivers/STM32N6xx_HAL_Driver/Src/stm32n6xx_hal.c **** #ifdef HAL_MODULE_ENABLED
  57:../Drivers/STM32N6xx_HAL_Driver/Src/stm32n6xx_hal.c **** 
  58:../Drivers/STM32N6xx_HAL_Driver/Src/stm32n6xx_hal.c **** /* Private typedef -----------------------------------------------------------*/
  59:../Drivers/STM32N6xx_HAL_Driver/Src/stm32n6xx_hal.c **** /* Private define ------------------------------------------------------------*/
  60:../Drivers/STM32N6xx_HAL_Driver/Src/stm32n6xx_hal.c **** #define HAL_TIMEOUT_SYSCFG_ABORT        5U    /* 5 ms */
  61:../Drivers/STM32N6xx_HAL_Driver/Src/stm32n6xx_hal.c **** 
  62:../Drivers/STM32N6xx_HAL_Driver/Src/stm32n6xx_hal.c **** /* Private macros ------------------------------------------------------------*/
  63:../Drivers/STM32N6xx_HAL_Driver/Src/stm32n6xx_hal.c **** /* Private variables ---------------------------------------------------------*/
  64:../Drivers/STM32N6xx_HAL_Driver/Src/stm32n6xx_hal.c **** /* Exported variables --------------------------------------------------------*/
  65:../Drivers/STM32N6xx_HAL_Driver/Src/stm32n6xx_hal.c **** 
  66:../Drivers/STM32N6xx_HAL_Driver/Src/stm32n6xx_hal.c **** /** @defgroup HAL_Exported_Variables HAL Exported Variables
  67:../Drivers/STM32N6xx_HAL_Driver/Src/stm32n6xx_hal.c ****   * @{
  68:../Drivers/STM32N6xx_HAL_Driver/Src/stm32n6xx_hal.c ****   */
  69:../Drivers/STM32N6xx_HAL_Driver/Src/stm32n6xx_hal.c **** __IO uint32_t uwTick;
  70:../Drivers/STM32N6xx_HAL_Driver/Src/stm32n6xx_hal.c **** uint32_t uwTickPrio   = (1UL << __NVIC_PRIO_BITS); /* Invalid PRIO */
  71:../Drivers/STM32N6xx_HAL_Driver/Src/stm32n6xx_hal.c **** HAL_TickFreqTypeDef uwTickFreq = HAL_TICK_FREQ_DEFAULT;  /* 1KHz */
  72:../Drivers/STM32N6xx_HAL_Driver/Src/stm32n6xx_hal.c **** /**
  73:../Drivers/STM32N6xx_HAL_Driver/Src/stm32n6xx_hal.c ****   * @}
  74:../Drivers/STM32N6xx_HAL_Driver/Src/stm32n6xx_hal.c ****   */
  75:../Drivers/STM32N6xx_HAL_Driver/Src/stm32n6xx_hal.c **** 
  76:../Drivers/STM32N6xx_HAL_Driver/Src/stm32n6xx_hal.c **** /* Private function prototypes -----------------------------------------------*/
  77:../Drivers/STM32N6xx_HAL_Driver/Src/stm32n6xx_hal.c **** /* Exported functions --------------------------------------------------------*/
  78:../Drivers/STM32N6xx_HAL_Driver/Src/stm32n6xx_hal.c **** 
  79:../Drivers/STM32N6xx_HAL_Driver/Src/stm32n6xx_hal.c **** /** @defgroup HAL_Exported_Functions HAL Exported Functions
  80:../Drivers/STM32N6xx_HAL_Driver/Src/stm32n6xx_hal.c ****   * @{
  81:../Drivers/STM32N6xx_HAL_Driver/Src/stm32n6xx_hal.c ****   */
  82:../Drivers/STM32N6xx_HAL_Driver/Src/stm32n6xx_hal.c **** 
ARM GAS  /tmp/ccvdUNht.s 			page 3


  83:../Drivers/STM32N6xx_HAL_Driver/Src/stm32n6xx_hal.c **** /** @defgroup HAL_Exported_Functions_Group1 Initialization and de-initialization Functions
  84:../Drivers/STM32N6xx_HAL_Driver/Src/stm32n6xx_hal.c ****   * @brief    Initialization and de-initialization functions
  85:../Drivers/STM32N6xx_HAL_Driver/Src/stm32n6xx_hal.c ****   *
  86:../Drivers/STM32N6xx_HAL_Driver/Src/stm32n6xx_hal.c **** @verbatim
  87:../Drivers/STM32N6xx_HAL_Driver/Src/stm32n6xx_hal.c ****  ===============================================================================
  88:../Drivers/STM32N6xx_HAL_Driver/Src/stm32n6xx_hal.c ****               ##### Initialization and de-initialization functions #####
  89:../Drivers/STM32N6xx_HAL_Driver/Src/stm32n6xx_hal.c ****  ===============================================================================
  90:../Drivers/STM32N6xx_HAL_Driver/Src/stm32n6xx_hal.c ****     [..]  This section provides functions allowing to:
  91:../Drivers/STM32N6xx_HAL_Driver/Src/stm32n6xx_hal.c ****       (+) Initializes the NVIC allocation and initial clock configuration.
  92:../Drivers/STM32N6xx_HAL_Driver/Src/stm32n6xx_hal.c ****           It initializes the systick also when timeout is needed
  93:../Drivers/STM32N6xx_HAL_Driver/Src/stm32n6xx_hal.c ****           and the backup domain when enabled.
  94:../Drivers/STM32N6xx_HAL_Driver/Src/stm32n6xx_hal.c ****       (+) De-Initializes common part of the HAL.
  95:../Drivers/STM32N6xx_HAL_Driver/Src/stm32n6xx_hal.c ****       (+) Configure The time base source to have 1ms time base with a dedicated
  96:../Drivers/STM32N6xx_HAL_Driver/Src/stm32n6xx_hal.c ****           Tick interrupt priority.
  97:../Drivers/STM32N6xx_HAL_Driver/Src/stm32n6xx_hal.c ****         (++) SysTick timer is used by default as source of time base, but user
  98:../Drivers/STM32N6xx_HAL_Driver/Src/stm32n6xx_hal.c ****              can eventually implement his proper time base source (a general purpose
  99:../Drivers/STM32N6xx_HAL_Driver/Src/stm32n6xx_hal.c ****              timer for example or other time source), keeping in mind that Time base
 100:../Drivers/STM32N6xx_HAL_Driver/Src/stm32n6xx_hal.c ****              duration should be kept 1ms since PPP_TIMEOUT_VALUEs are defined and
 101:../Drivers/STM32N6xx_HAL_Driver/Src/stm32n6xx_hal.c ****              handled in milliseconds basis.
 102:../Drivers/STM32N6xx_HAL_Driver/Src/stm32n6xx_hal.c ****         (++) Time base configuration function (HAL_InitTick ()) is called automatically
 103:../Drivers/STM32N6xx_HAL_Driver/Src/stm32n6xx_hal.c ****              at the beginning of the program after reset by HAL_Init() or at any time
 104:../Drivers/STM32N6xx_HAL_Driver/Src/stm32n6xx_hal.c ****              when clock is configured, by HAL_RCC_ClockConfig().
 105:../Drivers/STM32N6xx_HAL_Driver/Src/stm32n6xx_hal.c ****         (++) Source of time base is configured  to generate interrupts at regular
 106:../Drivers/STM32N6xx_HAL_Driver/Src/stm32n6xx_hal.c ****              time intervals. Care must be taken if HAL_Delay() is called from a
 107:../Drivers/STM32N6xx_HAL_Driver/Src/stm32n6xx_hal.c ****              peripheral ISR process, the Tick interrupt line must have higher priority
 108:../Drivers/STM32N6xx_HAL_Driver/Src/stm32n6xx_hal.c ****             (numerically lower) than the peripheral interrupt. Otherwise the caller
 109:../Drivers/STM32N6xx_HAL_Driver/Src/stm32n6xx_hal.c ****             ISR process will be blocked.
 110:../Drivers/STM32N6xx_HAL_Driver/Src/stm32n6xx_hal.c ****        (++) functions affecting time base configurations are declared as __weak
 111:../Drivers/STM32N6xx_HAL_Driver/Src/stm32n6xx_hal.c ****              to make  override possible  in case of other  implementations in user file.
 112:../Drivers/STM32N6xx_HAL_Driver/Src/stm32n6xx_hal.c **** @endverbatim
 113:../Drivers/STM32N6xx_HAL_Driver/Src/stm32n6xx_hal.c ****   * @{
 114:../Drivers/STM32N6xx_HAL_Driver/Src/stm32n6xx_hal.c ****   */
 115:../Drivers/STM32N6xx_HAL_Driver/Src/stm32n6xx_hal.c **** 
 116:../Drivers/STM32N6xx_HAL_Driver/Src/stm32n6xx_hal.c **** /**
 117:../Drivers/STM32N6xx_HAL_Driver/Src/stm32n6xx_hal.c ****   * @brief  Configure the time base source, NVIC and any required global low
 118:../Drivers/STM32N6xx_HAL_Driver/Src/stm32n6xx_hal.c ****   *         level hardware by calling the HAL_MspInit() callback function to be optionally defined
 119:../Drivers/STM32N6xx_HAL_Driver/Src/stm32n6xx_hal.c ****   *         in user file stm32n6xx_hal_msp.c.
 120:../Drivers/STM32N6xx_HAL_Driver/Src/stm32n6xx_hal.c ****   *
 121:../Drivers/STM32N6xx_HAL_Driver/Src/stm32n6xx_hal.c ****   * @note   HAL_Init() function is called at the beginning of program after reset and before
 122:../Drivers/STM32N6xx_HAL_Driver/Src/stm32n6xx_hal.c ****   *         the clock configuration.
 123:../Drivers/STM32N6xx_HAL_Driver/Src/stm32n6xx_hal.c ****   *
 124:../Drivers/STM32N6xx_HAL_Driver/Src/stm32n6xx_hal.c ****   * @note   In the default implementation the System Timer (Systick) is used as source of time base
 125:../Drivers/STM32N6xx_HAL_Driver/Src/stm32n6xx_hal.c ****   *         The Systick configuration is based on HSI clock, as HSI is the clock
 126:../Drivers/STM32N6xx_HAL_Driver/Src/stm32n6xx_hal.c ****   *         used after a system Reset and the NVIC configuration is set to Priority group 4.
 127:../Drivers/STM32N6xx_HAL_Driver/Src/stm32n6xx_hal.c ****   *         Once done, time base tick starts incrementing: the tick variable counter is incremented
 128:../Drivers/STM32N6xx_HAL_Driver/Src/stm32n6xx_hal.c ****   *         each 1ms in the SysTick_Handler() interrupt handler.
 129:../Drivers/STM32N6xx_HAL_Driver/Src/stm32n6xx_hal.c ****   *
 130:../Drivers/STM32N6xx_HAL_Driver/Src/stm32n6xx_hal.c ****   * @retval HAL status
 131:../Drivers/STM32N6xx_HAL_Driver/Src/stm32n6xx_hal.c ****   */
 132:../Drivers/STM32N6xx_HAL_Driver/Src/stm32n6xx_hal.c **** HAL_StatusTypeDef HAL_Init(void)
 133:../Drivers/STM32N6xx_HAL_Driver/Src/stm32n6xx_hal.c **** {
 134:../Drivers/STM32N6xx_HAL_Driver/Src/stm32n6xx_hal.c ****   /* Set Interrupt Group Priority */
 135:../Drivers/STM32N6xx_HAL_Driver/Src/stm32n6xx_hal.c ****   HAL_NVIC_SetPriorityGrouping(NVIC_PRIORITYGROUP_4);
 136:../Drivers/STM32N6xx_HAL_Driver/Src/stm32n6xx_hal.c **** 
 137:../Drivers/STM32N6xx_HAL_Driver/Src/stm32n6xx_hal.c ****   /* Ensure time base clock coherency in SystemCoreClock global variable */
 138:../Drivers/STM32N6xx_HAL_Driver/Src/stm32n6xx_hal.c ****   SystemCoreClockUpdate();
 139:../Drivers/STM32N6xx_HAL_Driver/Src/stm32n6xx_hal.c **** 
ARM GAS  /tmp/ccvdUNht.s 			page 4


 140:../Drivers/STM32N6xx_HAL_Driver/Src/stm32n6xx_hal.c ****   /* Initialize 1ms tick time base (default SysTick based on HSI clock after Reset) */
 141:../Drivers/STM32N6xx_HAL_Driver/Src/stm32n6xx_hal.c ****   if (HAL_InitTick(TICK_INT_PRIORITY) != HAL_OK)
 142:../Drivers/STM32N6xx_HAL_Driver/Src/stm32n6xx_hal.c ****   {
 143:../Drivers/STM32N6xx_HAL_Driver/Src/stm32n6xx_hal.c ****     return HAL_ERROR;
 144:../Drivers/STM32N6xx_HAL_Driver/Src/stm32n6xx_hal.c ****   }
 145:../Drivers/STM32N6xx_HAL_Driver/Src/stm32n6xx_hal.c **** 
 146:../Drivers/STM32N6xx_HAL_Driver/Src/stm32n6xx_hal.c ****   /* Init the low level hardware */
 147:../Drivers/STM32N6xx_HAL_Driver/Src/stm32n6xx_hal.c ****   HAL_MspInit();
 148:../Drivers/STM32N6xx_HAL_Driver/Src/stm32n6xx_hal.c **** 
 149:../Drivers/STM32N6xx_HAL_Driver/Src/stm32n6xx_hal.c ****   /* Return function status */
 150:../Drivers/STM32N6xx_HAL_Driver/Src/stm32n6xx_hal.c ****   return HAL_OK;
 151:../Drivers/STM32N6xx_HAL_Driver/Src/stm32n6xx_hal.c **** }
 152:../Drivers/STM32N6xx_HAL_Driver/Src/stm32n6xx_hal.c **** 
 153:../Drivers/STM32N6xx_HAL_Driver/Src/stm32n6xx_hal.c **** /**
 154:../Drivers/STM32N6xx_HAL_Driver/Src/stm32n6xx_hal.c ****   * @brief  This function de-initializes all peripherals and low level hardware resources.
 155:../Drivers/STM32N6xx_HAL_Driver/Src/stm32n6xx_hal.c ****   * @note   This function should only be called from code running in internal RAM
 156:../Drivers/STM32N6xx_HAL_Driver/Src/stm32n6xx_hal.c ****   *         since it resets the external peripheral memory interfaces.
 157:../Drivers/STM32N6xx_HAL_Driver/Src/stm32n6xx_hal.c ****   * @note   This function is optional.
 158:../Drivers/STM32N6xx_HAL_Driver/Src/stm32n6xx_hal.c ****   * @retval HAL status
 159:../Drivers/STM32N6xx_HAL_Driver/Src/stm32n6xx_hal.c ****   */
 160:../Drivers/STM32N6xx_HAL_Driver/Src/stm32n6xx_hal.c **** HAL_StatusTypeDef HAL_DeInit(void)
 161:../Drivers/STM32N6xx_HAL_Driver/Src/stm32n6xx_hal.c **** {
 162:../Drivers/STM32N6xx_HAL_Driver/Src/stm32n6xx_hal.c ****   /* Reset of all peripherals */
 163:../Drivers/STM32N6xx_HAL_Driver/Src/stm32n6xx_hal.c ****   __HAL_RCC_APB1_FORCE_RESET();
 164:../Drivers/STM32N6xx_HAL_Driver/Src/stm32n6xx_hal.c ****   __HAL_RCC_APB1_RELEASE_RESET();
 165:../Drivers/STM32N6xx_HAL_Driver/Src/stm32n6xx_hal.c **** 
 166:../Drivers/STM32N6xx_HAL_Driver/Src/stm32n6xx_hal.c ****   __HAL_RCC_APB2_FORCE_RESET();
 167:../Drivers/STM32N6xx_HAL_Driver/Src/stm32n6xx_hal.c ****   __HAL_RCC_APB2_RELEASE_RESET();
 168:../Drivers/STM32N6xx_HAL_Driver/Src/stm32n6xx_hal.c **** 
 169:../Drivers/STM32N6xx_HAL_Driver/Src/stm32n6xx_hal.c ****   __HAL_RCC_APB4_FORCE_RESET();
 170:../Drivers/STM32N6xx_HAL_Driver/Src/stm32n6xx_hal.c ****   __HAL_RCC_APB4_RELEASE_RESET();
 171:../Drivers/STM32N6xx_HAL_Driver/Src/stm32n6xx_hal.c **** 
 172:../Drivers/STM32N6xx_HAL_Driver/Src/stm32n6xx_hal.c ****   __HAL_RCC_APB5_FORCE_RESET();
 173:../Drivers/STM32N6xx_HAL_Driver/Src/stm32n6xx_hal.c ****   __HAL_RCC_APB5_RELEASE_RESET();
 174:../Drivers/STM32N6xx_HAL_Driver/Src/stm32n6xx_hal.c **** 
 175:../Drivers/STM32N6xx_HAL_Driver/Src/stm32n6xx_hal.c ****   __HAL_RCC_AHB1_FORCE_RESET();
 176:../Drivers/STM32N6xx_HAL_Driver/Src/stm32n6xx_hal.c ****   __HAL_RCC_AHB1_RELEASE_RESET();
 177:../Drivers/STM32N6xx_HAL_Driver/Src/stm32n6xx_hal.c **** 
 178:../Drivers/STM32N6xx_HAL_Driver/Src/stm32n6xx_hal.c ****   __HAL_RCC_AHB2_FORCE_RESET();
 179:../Drivers/STM32N6xx_HAL_Driver/Src/stm32n6xx_hal.c ****   __HAL_RCC_AHB2_RELEASE_RESET();
 180:../Drivers/STM32N6xx_HAL_Driver/Src/stm32n6xx_hal.c **** 
 181:../Drivers/STM32N6xx_HAL_Driver/Src/stm32n6xx_hal.c ****   __HAL_RCC_AHB3_FORCE_RESET();
 182:../Drivers/STM32N6xx_HAL_Driver/Src/stm32n6xx_hal.c ****   __HAL_RCC_AHB3_RELEASE_RESET();
 183:../Drivers/STM32N6xx_HAL_Driver/Src/stm32n6xx_hal.c **** 
 184:../Drivers/STM32N6xx_HAL_Driver/Src/stm32n6xx_hal.c ****   __HAL_RCC_AHB4_FORCE_RESET();
 185:../Drivers/STM32N6xx_HAL_Driver/Src/stm32n6xx_hal.c ****   __HAL_RCC_AHB4_RELEASE_RESET();
 186:../Drivers/STM32N6xx_HAL_Driver/Src/stm32n6xx_hal.c **** 
 187:../Drivers/STM32N6xx_HAL_Driver/Src/stm32n6xx_hal.c ****   __HAL_RCC_AHB5_FORCE_RESET();
 188:../Drivers/STM32N6xx_HAL_Driver/Src/stm32n6xx_hal.c ****   __HAL_RCC_AHB5_RELEASE_RESET();
 189:../Drivers/STM32N6xx_HAL_Driver/Src/stm32n6xx_hal.c **** 
 190:../Drivers/STM32N6xx_HAL_Driver/Src/stm32n6xx_hal.c ****   /* De-Init the low level hardware */
 191:../Drivers/STM32N6xx_HAL_Driver/Src/stm32n6xx_hal.c ****   HAL_MspDeInit();
 192:../Drivers/STM32N6xx_HAL_Driver/Src/stm32n6xx_hal.c **** 
 193:../Drivers/STM32N6xx_HAL_Driver/Src/stm32n6xx_hal.c ****   /* Return function status */
 194:../Drivers/STM32N6xx_HAL_Driver/Src/stm32n6xx_hal.c ****   return HAL_OK;
 195:../Drivers/STM32N6xx_HAL_Driver/Src/stm32n6xx_hal.c **** }
 196:../Drivers/STM32N6xx_HAL_Driver/Src/stm32n6xx_hal.c **** 
ARM GAS  /tmp/ccvdUNht.s 			page 5


 197:../Drivers/STM32N6xx_HAL_Driver/Src/stm32n6xx_hal.c **** /**
 198:../Drivers/STM32N6xx_HAL_Driver/Src/stm32n6xx_hal.c ****   * @brief  Initializes the MSP.
 199:../Drivers/STM32N6xx_HAL_Driver/Src/stm32n6xx_hal.c ****   * @retval None
 200:../Drivers/STM32N6xx_HAL_Driver/Src/stm32n6xx_hal.c ****   */
 201:../Drivers/STM32N6xx_HAL_Driver/Src/stm32n6xx_hal.c **** __weak void HAL_MspInit(void)
 202:../Drivers/STM32N6xx_HAL_Driver/Src/stm32n6xx_hal.c **** {
  34              		.loc 1 202 1 view -0
  35              		.cfi_startproc
  36              		@ args = 0, pretend = 0, frame = 0
  37              		@ frame_needed = 0, uses_anonymous_args = 0
  38              		@ link register save eliminated.
 203:../Drivers/STM32N6xx_HAL_Driver/Src/stm32n6xx_hal.c ****   /* NOTE : This function Should not be modified, when the callback is needed,
 204:../Drivers/STM32N6xx_HAL_Driver/Src/stm32n6xx_hal.c ****             the HAL_MspInit could be implemented in the user file
 205:../Drivers/STM32N6xx_HAL_Driver/Src/stm32n6xx_hal.c ****    */
 206:../Drivers/STM32N6xx_HAL_Driver/Src/stm32n6xx_hal.c **** }
  39              		.loc 1 206 1 view .LVU1
  40 0000 7047     		bx	lr
  41              		.cfi_endproc
  42              	.LFE883:
  44              		.section	.text.HAL_MspDeInit,"ax",%progbits
  45              		.align	1
  46              		.weak	HAL_MspDeInit
  47              		.syntax unified
  48              		.thumb
  49              		.thumb_func
  51              	HAL_MspDeInit:
  52              	.LFB884:
 207:../Drivers/STM32N6xx_HAL_Driver/Src/stm32n6xx_hal.c **** 
 208:../Drivers/STM32N6xx_HAL_Driver/Src/stm32n6xx_hal.c **** /**
 209:../Drivers/STM32N6xx_HAL_Driver/Src/stm32n6xx_hal.c ****   * @brief  DeInitializes the MSP.
 210:../Drivers/STM32N6xx_HAL_Driver/Src/stm32n6xx_hal.c ****   * @retval None
 211:../Drivers/STM32N6xx_HAL_Driver/Src/stm32n6xx_hal.c ****   */
 212:../Drivers/STM32N6xx_HAL_Driver/Src/stm32n6xx_hal.c **** __weak void HAL_MspDeInit(void)
 213:../Drivers/STM32N6xx_HAL_Driver/Src/stm32n6xx_hal.c **** {
  53              		.loc 1 213 1 view -0
  54              		.cfi_startproc
  55              		@ args = 0, pretend = 0, frame = 0
  56              		@ frame_needed = 0, uses_anonymous_args = 0
  57              		@ link register save eliminated.
 214:../Drivers/STM32N6xx_HAL_Driver/Src/stm32n6xx_hal.c ****   /* NOTE : This function Should not be modified, when the callback is needed,
 215:../Drivers/STM32N6xx_HAL_Driver/Src/stm32n6xx_hal.c ****             the HAL_MspDeInit could be implemented in the user file
 216:../Drivers/STM32N6xx_HAL_Driver/Src/stm32n6xx_hal.c ****    */
 217:../Drivers/STM32N6xx_HAL_Driver/Src/stm32n6xx_hal.c **** }
  58              		.loc 1 217 1 view .LVU3
  59 0000 7047     		bx	lr
  60              		.cfi_endproc
  61              	.LFE884:
  63              		.section	.text.HAL_DeInit,"ax",%progbits
  64              		.align	1
  65              		.global	HAL_DeInit
  66              		.syntax unified
  67              		.thumb
  68              		.thumb_func
  70              	HAL_DeInit:
  71              	.LFB882:
 161:../Drivers/STM32N6xx_HAL_Driver/Src/stm32n6xx_hal.c ****   /* Reset of all peripherals */
  72              		.loc 1 161 1 view -0
ARM GAS  /tmp/ccvdUNht.s 			page 6


  73              		.cfi_startproc
  74              		@ args = 0, pretend = 0, frame = 0
  75              		@ frame_needed = 0, uses_anonymous_args = 0
  76 0000 10B5     		push	{r4, lr}
  77              	.LCFI0:
  78              		.cfi_def_cfa_offset 8
  79              		.cfi_offset 4, -8
  80              		.cfi_offset 14, -4
 163:../Drivers/STM32N6xx_HAL_Driver/Src/stm32n6xx_hal.c ****   __HAL_RCC_APB1_RELEASE_RESET();
  81              		.loc 1 163 3 view .LVU5
 163:../Drivers/STM32N6xx_HAL_Driver/Src/stm32n6xx_hal.c ****   __HAL_RCC_APB1_RELEASE_RESET();
  82              		.loc 1 163 3 view .LVU6
  83 0002 1F4B     		ldr	r3, .L5
  84 0004 1F4A     		ldr	r2, .L5+4
  85 0006 C3F8242A 		str	r2, [r3, #2596]
 163:../Drivers/STM32N6xx_HAL_Driver/Src/stm32n6xx_hal.c ****   __HAL_RCC_APB1_RELEASE_RESET();
  86              		.loc 1 163 3 view .LVU7
  87 000a 1F4A     		ldr	r2, .L5+8
  88 000c C3F8282A 		str	r2, [r3, #2600]
 163:../Drivers/STM32N6xx_HAL_Driver/Src/stm32n6xx_hal.c ****   __HAL_RCC_APB1_RELEASE_RESET();
  89              		.loc 1 163 3 view .LVU8
 164:../Drivers/STM32N6xx_HAL_Driver/Src/stm32n6xx_hal.c **** 
  90              		.loc 1 164 3 view .LVU9
 164:../Drivers/STM32N6xx_HAL_Driver/Src/stm32n6xx_hal.c **** 
  91              		.loc 1 164 3 view .LVU10
  92 0010 0024     		movs	r4, #0
  93 0012 C3F8244A 		str	r4, [r3, #2596]
 164:../Drivers/STM32N6xx_HAL_Driver/Src/stm32n6xx_hal.c **** 
  94              		.loc 1 164 3 view .LVU11
  95 0016 C3F8284A 		str	r4, [r3, #2600]
 164:../Drivers/STM32N6xx_HAL_Driver/Src/stm32n6xx_hal.c **** 
  96              		.loc 1 164 3 view .LVU12
 166:../Drivers/STM32N6xx_HAL_Driver/Src/stm32n6xx_hal.c ****   __HAL_RCC_APB2_RELEASE_RESET();
  97              		.loc 1 166 3 view .LVU13
  98 001a 1C4A     		ldr	r2, .L5+12
  99 001c C3F82C2A 		str	r2, [r3, #2604]
 167:../Drivers/STM32N6xx_HAL_Driver/Src/stm32n6xx_hal.c **** 
 100              		.loc 1 167 3 view .LVU14
 101 0020 C3F82C4A 		str	r4, [r3, #2604]
 169:../Drivers/STM32N6xx_HAL_Driver/Src/stm32n6xx_hal.c ****   __HAL_RCC_APB4_RELEASE_RESET();
 102              		.loc 1 169 3 view .LVU15
 169:../Drivers/STM32N6xx_HAL_Driver/Src/stm32n6xx_hal.c ****   __HAL_RCC_APB4_RELEASE_RESET();
 103              		.loc 1 169 3 view .LVU16
 104 0024 1A4A     		ldr	r2, .L5+16
 105 0026 C3F8342A 		str	r2, [r3, #2612]
 169:../Drivers/STM32N6xx_HAL_Driver/Src/stm32n6xx_hal.c ****   __HAL_RCC_APB4_RELEASE_RESET();
 106              		.loc 1 169 3 view .LVU17
 107 002a 0522     		movs	r2, #5
 108 002c C3F8382A 		str	r2, [r3, #2616]
 169:../Drivers/STM32N6xx_HAL_Driver/Src/stm32n6xx_hal.c ****   __HAL_RCC_APB4_RELEASE_RESET();
 109              		.loc 1 169 3 view .LVU18
 170:../Drivers/STM32N6xx_HAL_Driver/Src/stm32n6xx_hal.c **** 
 110              		.loc 1 170 3 view .LVU19
 170:../Drivers/STM32N6xx_HAL_Driver/Src/stm32n6xx_hal.c **** 
 111              		.loc 1 170 3 view .LVU20
 112 0030 C3F8344A 		str	r4, [r3, #2612]
 170:../Drivers/STM32N6xx_HAL_Driver/Src/stm32n6xx_hal.c **** 
ARM GAS  /tmp/ccvdUNht.s 			page 7


 113              		.loc 1 170 3 view .LVU21
 114 0034 C3F8384A 		str	r4, [r3, #2616]
 170:../Drivers/STM32N6xx_HAL_Driver/Src/stm32n6xx_hal.c **** 
 115              		.loc 1 170 3 view .LVU22
 172:../Drivers/STM32N6xx_HAL_Driver/Src/stm32n6xx_hal.c ****   __HAL_RCC_APB5_RELEASE_RESET();
 116              		.loc 1 172 3 view .LVU23
 117 0038 7622     		movs	r2, #118
 118 003a C3F83C2A 		str	r2, [r3, #2620]
 173:../Drivers/STM32N6xx_HAL_Driver/Src/stm32n6xx_hal.c **** 
 119              		.loc 1 173 3 view .LVU24
 120 003e C3F83C4A 		str	r4, [r3, #2620]
 175:../Drivers/STM32N6xx_HAL_Driver/Src/stm32n6xx_hal.c ****   __HAL_RCC_AHB1_RELEASE_RESET();
 121              		.loc 1 175 3 view .LVU25
 122 0042 3022     		movs	r2, #48
 123 0044 C3F8102A 		str	r2, [r3, #2576]
 175:../Drivers/STM32N6xx_HAL_Driver/Src/stm32n6xx_hal.c ****   __HAL_RCC_AHB1_RELEASE_RESET();
 124              		.loc 1 175 31 view .LVU26
 176:../Drivers/STM32N6xx_HAL_Driver/Src/stm32n6xx_hal.c **** 
 125              		.loc 1 176 3 view .LVU27
 126 0048 C3F8104A 		str	r4, [r3, #2576]
 178:../Drivers/STM32N6xx_HAL_Driver/Src/stm32n6xx_hal.c ****   __HAL_RCC_AHB2_RELEASE_RESET();
 127              		.loc 1 178 3 view .LVU28
 128 004c 4FF44432 		mov	r2, #200704
 129 0050 C3F8142A 		str	r2, [r3, #2580]
 178:../Drivers/STM32N6xx_HAL_Driver/Src/stm32n6xx_hal.c ****   __HAL_RCC_AHB2_RELEASE_RESET();
 130              		.loc 1 178 31 view .LVU29
 179:../Drivers/STM32N6xx_HAL_Driver/Src/stm32n6xx_hal.c **** 
 131              		.loc 1 179 3 view .LVU30
 132 0054 C3F8144A 		str	r4, [r3, #2580]
 181:../Drivers/STM32N6xx_HAL_Driver/Src/stm32n6xx_hal.c ****   __HAL_RCC_AHB3_RELEASE_RESET();
 133              		.loc 1 181 3 view .LVU31
 134 0058 40F21752 		movw	r2, #1303
 135 005c C3F8182A 		str	r2, [r3, #2584]
 181:../Drivers/STM32N6xx_HAL_Driver/Src/stm32n6xx_hal.c ****   __HAL_RCC_AHB3_RELEASE_RESET();
 136              		.loc 1 181 31 view .LVU32
 182:../Drivers/STM32N6xx_HAL_Driver/Src/stm32n6xx_hal.c **** 
 137              		.loc 1 182 3 view .LVU33
 138 0060 C3F8184A 		str	r4, [r3, #2584]
 184:../Drivers/STM32N6xx_HAL_Driver/Src/stm32n6xx_hal.c ****   __HAL_RCC_AHB4_RELEASE_RESET();
 139              		.loc 1 184 3 view .LVU34
 140 0064 0B4A     		ldr	r2, .L5+20
 141 0066 C3F81C2A 		str	r2, [r3, #2588]
 184:../Drivers/STM32N6xx_HAL_Driver/Src/stm32n6xx_hal.c ****   __HAL_RCC_AHB4_RELEASE_RESET();
 142              		.loc 1 184 31 view .LVU35
 185:../Drivers/STM32N6xx_HAL_Driver/Src/stm32n6xx_hal.c **** 
 143              		.loc 1 185 3 view .LVU36
 144 006a C3F81C4A 		str	r4, [r3, #2588]
 187:../Drivers/STM32N6xx_HAL_Driver/Src/stm32n6xx_hal.c ****   __HAL_RCC_AHB5_RELEASE_RESET();
 145              		.loc 1 187 3 view .LVU37
 146 006e 0A4A     		ldr	r2, .L5+24
 147 0070 C3F8202A 		str	r2, [r3, #2592]
 188:../Drivers/STM32N6xx_HAL_Driver/Src/stm32n6xx_hal.c **** 
 148              		.loc 1 188 3 view .LVU38
 149 0074 C3F8204A 		str	r4, [r3, #2592]
 191:../Drivers/STM32N6xx_HAL_Driver/Src/stm32n6xx_hal.c **** 
 150              		.loc 1 191 3 view .LVU39
 151 0078 FFF7FEFF 		bl	HAL_MspDeInit
ARM GAS  /tmp/ccvdUNht.s 			page 8


 152              	.LVL0:
 194:../Drivers/STM32N6xx_HAL_Driver/Src/stm32n6xx_hal.c **** }
 153              		.loc 1 194 3 view .LVU40
 195:../Drivers/STM32N6xx_HAL_Driver/Src/stm32n6xx_hal.c **** 
 154              		.loc 1 195 1 is_stmt 0 view .LVU41
 155 007c 2046     		mov	r0, r4
 156 007e 10BD     		pop	{r4, pc}
 157              	.L6:
 158              		.align	2
 159              	.L5:
 160 0080 00800256 		.word	1443004416
 161 0084 FFF3FFC3 		.word	-1006636033
 162 0088 20010400 		.word	262432
 163 008c F3B07F00 		.word	8368371
 164 0090 AC9E0100 		.word	106156
 165 0094 FFE00D00 		.word	909567
 166 0098 FB319AFF 		.word	-6671877
 167              		.cfi_endproc
 168              	.LFE882:
 170              		.section	.text.HAL_InitTick,"ax",%progbits
 171              		.align	1
 172              		.weak	HAL_InitTick
 173              		.syntax unified
 174              		.thumb
 175              		.thumb_func
 177              	HAL_InitTick:
 178              	.LVL1:
 179              	.LFB885:
 218:../Drivers/STM32N6xx_HAL_Driver/Src/stm32n6xx_hal.c **** 
 219:../Drivers/STM32N6xx_HAL_Driver/Src/stm32n6xx_hal.c **** /**
 220:../Drivers/STM32N6xx_HAL_Driver/Src/stm32n6xx_hal.c ****   * @brief This function configures the source of the time base.
 221:../Drivers/STM32N6xx_HAL_Driver/Src/stm32n6xx_hal.c ****   *        The time source is configured to have 1ms time base with a dedicated
 222:../Drivers/STM32N6xx_HAL_Driver/Src/stm32n6xx_hal.c ****   *        Tick interrupt priority.
 223:../Drivers/STM32N6xx_HAL_Driver/Src/stm32n6xx_hal.c ****   * @note This function is called  automatically at the beginning of program after
 224:../Drivers/STM32N6xx_HAL_Driver/Src/stm32n6xx_hal.c ****   *       reset by HAL_Init() or at any time when clock is reconfigured  by HAL_RCC_ClockConfig().
 225:../Drivers/STM32N6xx_HAL_Driver/Src/stm32n6xx_hal.c ****   * @note In the default implementation, SysTick timer is the source of time base.
 226:../Drivers/STM32N6xx_HAL_Driver/Src/stm32n6xx_hal.c ****   *       It is used to generate interrupts at regular time intervals.
 227:../Drivers/STM32N6xx_HAL_Driver/Src/stm32n6xx_hal.c ****   *       Care must be taken if HAL_Delay() is called from a peripheral ISR process,
 228:../Drivers/STM32N6xx_HAL_Driver/Src/stm32n6xx_hal.c ****   *       The SysTick interrupt must have higher priority (numerically lower)
 229:../Drivers/STM32N6xx_HAL_Driver/Src/stm32n6xx_hal.c ****   *       than the peripheral interrupt. Otherwise the caller ISR process will be blocked.
 230:../Drivers/STM32N6xx_HAL_Driver/Src/stm32n6xx_hal.c ****   *       The function is declared as __weak  to be overwritten  in case of other
 231:../Drivers/STM32N6xx_HAL_Driver/Src/stm32n6xx_hal.c ****   *       implementation  in user file.
 232:../Drivers/STM32N6xx_HAL_Driver/Src/stm32n6xx_hal.c ****   * @param TickPriority: Tick interrupt priority.
 233:../Drivers/STM32N6xx_HAL_Driver/Src/stm32n6xx_hal.c ****   * @retval HAL status
 234:../Drivers/STM32N6xx_HAL_Driver/Src/stm32n6xx_hal.c ****   */
 235:../Drivers/STM32N6xx_HAL_Driver/Src/stm32n6xx_hal.c **** __weak HAL_StatusTypeDef HAL_InitTick(uint32_t TickPriority)
 236:../Drivers/STM32N6xx_HAL_Driver/Src/stm32n6xx_hal.c **** {
 180              		.loc 1 236 1 is_stmt 1 view -0
 181              		.cfi_startproc
 182              		@ args = 0, pretend = 0, frame = 0
 183              		@ frame_needed = 0, uses_anonymous_args = 0
 237:../Drivers/STM32N6xx_HAL_Driver/Src/stm32n6xx_hal.c ****   /* Check uwTickFreq for MisraC 2012 (even if uwTickFreq is a enum type that don't take the value 
 238:../Drivers/STM32N6xx_HAL_Driver/Src/stm32n6xx_hal.c ****   if ((uint32_t)uwTickFreq == 0UL)
 184              		.loc 1 238 3 view .LVU43
 185              		.loc 1 238 28 is_stmt 0 view .LVU44
 186 0000 0F4B     		ldr	r3, .L15
 187 0002 1B78     		ldrb	r3, [r3]	@ zero_extendqisi2
ARM GAS  /tmp/ccvdUNht.s 			page 9


 188              		.loc 1 238 6 view .LVU45
 189 0004 0BB9     		cbnz	r3, .L8
 239:../Drivers/STM32N6xx_HAL_Driver/Src/stm32n6xx_hal.c ****   {
 240:../Drivers/STM32N6xx_HAL_Driver/Src/stm32n6xx_hal.c ****     return HAL_ERROR;
 190              		.loc 1 240 12 view .LVU46
 191 0006 0120     		movs	r0, #1
 192              	.LVL2:
 241:../Drivers/STM32N6xx_HAL_Driver/Src/stm32n6xx_hal.c ****   }
 242:../Drivers/STM32N6xx_HAL_Driver/Src/stm32n6xx_hal.c **** 
 243:../Drivers/STM32N6xx_HAL_Driver/Src/stm32n6xx_hal.c ****   /* Configure the SysTick to have interrupt in 1ms time basis*/
 244:../Drivers/STM32N6xx_HAL_Driver/Src/stm32n6xx_hal.c ****   if (HAL_SYSTICK_Config(SystemCoreClock / (1000UL / (uint32_t)uwTickFreq)) > 0U)
 245:../Drivers/STM32N6xx_HAL_Driver/Src/stm32n6xx_hal.c ****   {
 246:../Drivers/STM32N6xx_HAL_Driver/Src/stm32n6xx_hal.c ****     return HAL_ERROR;
 247:../Drivers/STM32N6xx_HAL_Driver/Src/stm32n6xx_hal.c ****   }
 248:../Drivers/STM32N6xx_HAL_Driver/Src/stm32n6xx_hal.c **** 
 249:../Drivers/STM32N6xx_HAL_Driver/Src/stm32n6xx_hal.c ****   /* Configure the SysTick IRQ priority */
 250:../Drivers/STM32N6xx_HAL_Driver/Src/stm32n6xx_hal.c ****   if (TickPriority < (1UL << __NVIC_PRIO_BITS))
 251:../Drivers/STM32N6xx_HAL_Driver/Src/stm32n6xx_hal.c ****   {
 252:../Drivers/STM32N6xx_HAL_Driver/Src/stm32n6xx_hal.c ****     HAL_NVIC_SetPriority(SysTick_IRQn, TickPriority, 0U);
 253:../Drivers/STM32N6xx_HAL_Driver/Src/stm32n6xx_hal.c ****     uwTickPrio = TickPriority;
 254:../Drivers/STM32N6xx_HAL_Driver/Src/stm32n6xx_hal.c ****   }
 255:../Drivers/STM32N6xx_HAL_Driver/Src/stm32n6xx_hal.c ****   else
 256:../Drivers/STM32N6xx_HAL_Driver/Src/stm32n6xx_hal.c ****   {
 257:../Drivers/STM32N6xx_HAL_Driver/Src/stm32n6xx_hal.c ****     return HAL_ERROR;
 258:../Drivers/STM32N6xx_HAL_Driver/Src/stm32n6xx_hal.c ****   }
 259:../Drivers/STM32N6xx_HAL_Driver/Src/stm32n6xx_hal.c **** 
 260:../Drivers/STM32N6xx_HAL_Driver/Src/stm32n6xx_hal.c ****   /* Return function status */
 261:../Drivers/STM32N6xx_HAL_Driver/Src/stm32n6xx_hal.c ****   return HAL_OK;
 262:../Drivers/STM32N6xx_HAL_Driver/Src/stm32n6xx_hal.c **** }
 193              		.loc 1 262 1 view .LVU47
 194 0008 7047     		bx	lr
 195              	.LVL3:
 196              	.L8:
 236:../Drivers/STM32N6xx_HAL_Driver/Src/stm32n6xx_hal.c ****   /* Check uwTickFreq for MisraC 2012 (even if uwTickFreq is a enum type that don't take the value 
 197              		.loc 1 236 1 view .LVU48
 198 000a 10B5     		push	{r4, lr}
 199              	.LCFI1:
 200              		.cfi_def_cfa_offset 8
 201              		.cfi_offset 4, -8
 202              		.cfi_offset 14, -4
 203 000c 0446     		mov	r4, r0
 244:../Drivers/STM32N6xx_HAL_Driver/Src/stm32n6xx_hal.c ****   {
 204              		.loc 1 244 3 is_stmt 1 view .LVU49
 244:../Drivers/STM32N6xx_HAL_Driver/Src/stm32n6xx_hal.c ****   {
 205              		.loc 1 244 7 is_stmt 0 view .LVU50
 206 000e 0D4A     		ldr	r2, .L15+4
 207 0010 1068     		ldr	r0, [r2]
 208              	.LVL4:
 244:../Drivers/STM32N6xx_HAL_Driver/Src/stm32n6xx_hal.c ****   {
 209              		.loc 1 244 52 view .LVU51
 210 0012 4FF47A72 		mov	r2, #1000
 211 0016 B2FBF3F3 		udiv	r3, r2, r3
 244:../Drivers/STM32N6xx_HAL_Driver/Src/stm32n6xx_hal.c ****   {
 212              		.loc 1 244 7 view .LVU52
 213 001a B0FBF3F0 		udiv	r0, r0, r3
 214 001e FFF7FEFF 		bl	HAL_SYSTICK_Config
 215              	.LVL5:
ARM GAS  /tmp/ccvdUNht.s 			page 10


 244:../Drivers/STM32N6xx_HAL_Driver/Src/stm32n6xx_hal.c ****   {
 216              		.loc 1 244 6 discriminator 1 view .LVU53
 217 0022 08B9     		cbnz	r0, .L10
 250:../Drivers/STM32N6xx_HAL_Driver/Src/stm32n6xx_hal.c ****   {
 218              		.loc 1 250 3 is_stmt 1 view .LVU54
 250:../Drivers/STM32N6xx_HAL_Driver/Src/stm32n6xx_hal.c ****   {
 219              		.loc 1 250 6 is_stmt 0 view .LVU55
 220 0024 0F2C     		cmp	r4, #15
 221 0026 01D9     		bls	.L14
 222              	.L10:
 240:../Drivers/STM32N6xx_HAL_Driver/Src/stm32n6xx_hal.c ****   }
 223              		.loc 1 240 12 view .LVU56
 224 0028 0120     		movs	r0, #1
 225              	.L9:
 226              		.loc 1 262 1 view .LVU57
 227 002a 10BD     		pop	{r4, pc}
 228              	.LVL6:
 229              	.L14:
 252:../Drivers/STM32N6xx_HAL_Driver/Src/stm32n6xx_hal.c ****     uwTickPrio = TickPriority;
 230              		.loc 1 252 5 is_stmt 1 view .LVU58
 231 002c 0246     		mov	r2, r0
 232 002e 2146     		mov	r1, r4
 233 0030 4FF0FF30 		mov	r0, #-1
 234 0034 FFF7FEFF 		bl	HAL_NVIC_SetPriority
 235              	.LVL7:
 253:../Drivers/STM32N6xx_HAL_Driver/Src/stm32n6xx_hal.c ****   }
 236              		.loc 1 253 5 view .LVU59
 253:../Drivers/STM32N6xx_HAL_Driver/Src/stm32n6xx_hal.c ****   }
 237              		.loc 1 253 16 is_stmt 0 view .LVU60
 238 0038 034B     		ldr	r3, .L15+8
 239 003a 1C60     		str	r4, [r3]
 261:../Drivers/STM32N6xx_HAL_Driver/Src/stm32n6xx_hal.c **** }
 240              		.loc 1 261 3 is_stmt 1 view .LVU61
 261:../Drivers/STM32N6xx_HAL_Driver/Src/stm32n6xx_hal.c **** }
 241              		.loc 1 261 10 is_stmt 0 view .LVU62
 242 003c 0020     		movs	r0, #0
 243 003e F4E7     		b	.L9
 244              	.L16:
 245              		.align	2
 246              	.L15:
 247 0040 00000000 		.word	uwTickFreq
 248 0044 00000000 		.word	SystemCoreClock
 249 0048 00000000 		.word	uwTickPrio
 250              		.cfi_endproc
 251              	.LFE885:
 253              		.section	.text.HAL_Init,"ax",%progbits
 254              		.align	1
 255              		.global	HAL_Init
 256              		.syntax unified
 257              		.thumb
 258              		.thumb_func
 260              	HAL_Init:
 261              	.LFB881:
 133:../Drivers/STM32N6xx_HAL_Driver/Src/stm32n6xx_hal.c ****   /* Set Interrupt Group Priority */
 262              		.loc 1 133 1 is_stmt 1 view -0
 263              		.cfi_startproc
 264              		@ args = 0, pretend = 0, frame = 0
ARM GAS  /tmp/ccvdUNht.s 			page 11


 265              		@ frame_needed = 0, uses_anonymous_args = 0
 266 0000 10B5     		push	{r4, lr}
 267              	.LCFI2:
 268              		.cfi_def_cfa_offset 8
 269              		.cfi_offset 4, -8
 270              		.cfi_offset 14, -4
 135:../Drivers/STM32N6xx_HAL_Driver/Src/stm32n6xx_hal.c **** 
 271              		.loc 1 135 3 view .LVU64
 272 0002 0320     		movs	r0, #3
 273 0004 FFF7FEFF 		bl	HAL_NVIC_SetPriorityGrouping
 274              	.LVL8:
 138:../Drivers/STM32N6xx_HAL_Driver/Src/stm32n6xx_hal.c **** 
 275              		.loc 1 138 3 view .LVU65
 276 0008 FFF7FEFF 		bl	SystemCoreClockUpdate
 277              	.LVL9:
 141:../Drivers/STM32N6xx_HAL_Driver/Src/stm32n6xx_hal.c ****   {
 278              		.loc 1 141 3 view .LVU66
 141:../Drivers/STM32N6xx_HAL_Driver/Src/stm32n6xx_hal.c ****   {
 279              		.loc 1 141 7 is_stmt 0 view .LVU67
 280 000c 0F20     		movs	r0, #15
 281 000e FFF7FEFF 		bl	HAL_InitTick
 282              	.LVL10:
 141:../Drivers/STM32N6xx_HAL_Driver/Src/stm32n6xx_hal.c ****   {
 283              		.loc 1 141 6 discriminator 1 view .LVU68
 284 0012 18B1     		cbz	r0, .L21
 143:../Drivers/STM32N6xx_HAL_Driver/Src/stm32n6xx_hal.c ****   }
 285              		.loc 1 143 12 view .LVU69
 286 0014 0123     		movs	r3, #1
 287 0016 1C46     		mov	r4, r3
 288              	.L18:
 151:../Drivers/STM32N6xx_HAL_Driver/Src/stm32n6xx_hal.c **** 
 289              		.loc 1 151 1 view .LVU70
 290 0018 2046     		mov	r0, r4
 291 001a 10BD     		pop	{r4, pc}
 292              	.L21:
 293 001c 0446     		mov	r4, r0
 147:../Drivers/STM32N6xx_HAL_Driver/Src/stm32n6xx_hal.c **** 
 294              		.loc 1 147 3 is_stmt 1 view .LVU71
 295 001e FFF7FEFF 		bl	HAL_MspInit
 296              	.LVL11:
 150:../Drivers/STM32N6xx_HAL_Driver/Src/stm32n6xx_hal.c **** }
 297              		.loc 1 150 3 view .LVU72
 150:../Drivers/STM32N6xx_HAL_Driver/Src/stm32n6xx_hal.c **** }
 298              		.loc 1 150 10 is_stmt 0 view .LVU73
 299 0022 F9E7     		b	.L18
 300              		.cfi_endproc
 301              	.LFE881:
 303              		.section	.text.HAL_IncTick,"ax",%progbits
 304              		.align	1
 305              		.weak	HAL_IncTick
 306              		.syntax unified
 307              		.thumb
 308              		.thumb_func
 310              	HAL_IncTick:
 311              	.LFB886:
 263:../Drivers/STM32N6xx_HAL_Driver/Src/stm32n6xx_hal.c **** 
 264:../Drivers/STM32N6xx_HAL_Driver/Src/stm32n6xx_hal.c **** /**
ARM GAS  /tmp/ccvdUNht.s 			page 12


 265:../Drivers/STM32N6xx_HAL_Driver/Src/stm32n6xx_hal.c ****   * @}
 266:../Drivers/STM32N6xx_HAL_Driver/Src/stm32n6xx_hal.c ****   */
 267:../Drivers/STM32N6xx_HAL_Driver/Src/stm32n6xx_hal.c **** 
 268:../Drivers/STM32N6xx_HAL_Driver/Src/stm32n6xx_hal.c **** /** @defgroup HAL_Group2 HAL Control functions
 269:../Drivers/STM32N6xx_HAL_Driver/Src/stm32n6xx_hal.c ****   *  @brief    HAL Control functions
 270:../Drivers/STM32N6xx_HAL_Driver/Src/stm32n6xx_hal.c ****   *
 271:../Drivers/STM32N6xx_HAL_Driver/Src/stm32n6xx_hal.c **** @verbatim
 272:../Drivers/STM32N6xx_HAL_Driver/Src/stm32n6xx_hal.c ****  ===============================================================================
 273:../Drivers/STM32N6xx_HAL_Driver/Src/stm32n6xx_hal.c ****                       ##### HAL Control functions #####
 274:../Drivers/STM32N6xx_HAL_Driver/Src/stm32n6xx_hal.c ****  ===============================================================================
 275:../Drivers/STM32N6xx_HAL_Driver/Src/stm32n6xx_hal.c ****     [..]  This section provides functions allowing to:
 276:../Drivers/STM32N6xx_HAL_Driver/Src/stm32n6xx_hal.c ****       (+) Provide a tick value in millisecond
 277:../Drivers/STM32N6xx_HAL_Driver/Src/stm32n6xx_hal.c ****       (+) Provide a blocking delay in millisecond
 278:../Drivers/STM32N6xx_HAL_Driver/Src/stm32n6xx_hal.c ****       (+) Suspend the time base source interrupt
 279:../Drivers/STM32N6xx_HAL_Driver/Src/stm32n6xx_hal.c ****       (+) Resume the time base source interrupt
 280:../Drivers/STM32N6xx_HAL_Driver/Src/stm32n6xx_hal.c ****       (+) Get the HAL API driver version
 281:../Drivers/STM32N6xx_HAL_Driver/Src/stm32n6xx_hal.c ****       (+) Get the device identifier
 282:../Drivers/STM32N6xx_HAL_Driver/Src/stm32n6xx_hal.c ****       (+) Get the device revision identifier
 283:../Drivers/STM32N6xx_HAL_Driver/Src/stm32n6xx_hal.c ****       (+) Enable/Disable Debug module during SLEEP mode
 284:../Drivers/STM32N6xx_HAL_Driver/Src/stm32n6xx_hal.c ****       (+) Enable/Disable Debug module during STOP mode
 285:../Drivers/STM32N6xx_HAL_Driver/Src/stm32n6xx_hal.c ****       (+) Enable/Disable Debug module during STANDBY mode
 286:../Drivers/STM32N6xx_HAL_Driver/Src/stm32n6xx_hal.c **** 
 287:../Drivers/STM32N6xx_HAL_Driver/Src/stm32n6xx_hal.c **** @endverbatim
 288:../Drivers/STM32N6xx_HAL_Driver/Src/stm32n6xx_hal.c ****   * @{
 289:../Drivers/STM32N6xx_HAL_Driver/Src/stm32n6xx_hal.c ****   */
 290:../Drivers/STM32N6xx_HAL_Driver/Src/stm32n6xx_hal.c **** 
 291:../Drivers/STM32N6xx_HAL_Driver/Src/stm32n6xx_hal.c **** /**
 292:../Drivers/STM32N6xx_HAL_Driver/Src/stm32n6xx_hal.c ****   * @brief This function is called to increment a global variable "uwTick"
 293:../Drivers/STM32N6xx_HAL_Driver/Src/stm32n6xx_hal.c ****   *        used as application time base.
 294:../Drivers/STM32N6xx_HAL_Driver/Src/stm32n6xx_hal.c ****   * @note In the default implementation, this variable is incremented each 1ms
 295:../Drivers/STM32N6xx_HAL_Driver/Src/stm32n6xx_hal.c ****   *       in Systick ISR.
 296:../Drivers/STM32N6xx_HAL_Driver/Src/stm32n6xx_hal.c ****   * @note This function is declared as __weak to be overwritten in case of other
 297:../Drivers/STM32N6xx_HAL_Driver/Src/stm32n6xx_hal.c ****   *       implementations in user file.
 298:../Drivers/STM32N6xx_HAL_Driver/Src/stm32n6xx_hal.c ****   * @retval None
 299:../Drivers/STM32N6xx_HAL_Driver/Src/stm32n6xx_hal.c ****   */
 300:../Drivers/STM32N6xx_HAL_Driver/Src/stm32n6xx_hal.c **** __weak void HAL_IncTick(void)
 301:../Drivers/STM32N6xx_HAL_Driver/Src/stm32n6xx_hal.c **** {
 312              		.loc 1 301 1 is_stmt 1 view -0
 313              		.cfi_startproc
 314              		@ args = 0, pretend = 0, frame = 0
 315              		@ frame_needed = 0, uses_anonymous_args = 0
 316              		@ link register save eliminated.
 302:../Drivers/STM32N6xx_HAL_Driver/Src/stm32n6xx_hal.c ****   uwTick += (uint32_t)uwTickFreq;
 317              		.loc 1 302 3 view .LVU75
 318              		.loc 1 302 13 is_stmt 0 view .LVU76
 319 0000 034B     		ldr	r3, .L23
 320 0002 1B78     		ldrb	r3, [r3]	@ zero_extendqisi2
 321              		.loc 1 302 10 view .LVU77
 322 0004 034A     		ldr	r2, .L23+4
 323 0006 1168     		ldr	r1, [r2]
 324 0008 0B44     		add	r3, r3, r1
 325 000a 1360     		str	r3, [r2]
 303:../Drivers/STM32N6xx_HAL_Driver/Src/stm32n6xx_hal.c **** }
 326              		.loc 1 303 1 view .LVU78
 327 000c 7047     		bx	lr
 328              	.L24:
 329 000e 00BF     		.align	2
ARM GAS  /tmp/ccvdUNht.s 			page 13


 330              	.L23:
 331 0010 00000000 		.word	uwTickFreq
 332 0014 00000000 		.word	uwTick
 333              		.cfi_endproc
 334              	.LFE886:
 336              		.section	.text.HAL_GetTick,"ax",%progbits
 337              		.align	1
 338              		.weak	HAL_GetTick
 339              		.syntax unified
 340              		.thumb
 341              		.thumb_func
 343              	HAL_GetTick:
 344              	.LFB887:
 304:../Drivers/STM32N6xx_HAL_Driver/Src/stm32n6xx_hal.c **** 
 305:../Drivers/STM32N6xx_HAL_Driver/Src/stm32n6xx_hal.c **** /**
 306:../Drivers/STM32N6xx_HAL_Driver/Src/stm32n6xx_hal.c ****   * @brief Provides a tick value in millisecond.
 307:../Drivers/STM32N6xx_HAL_Driver/Src/stm32n6xx_hal.c ****   * @note This function is declared as __weak to be overwritten in case of other
 308:../Drivers/STM32N6xx_HAL_Driver/Src/stm32n6xx_hal.c ****   *       implementations in user file.
 309:../Drivers/STM32N6xx_HAL_Driver/Src/stm32n6xx_hal.c ****   * @retval tick value
 310:../Drivers/STM32N6xx_HAL_Driver/Src/stm32n6xx_hal.c ****   */
 311:../Drivers/STM32N6xx_HAL_Driver/Src/stm32n6xx_hal.c **** __weak uint32_t HAL_GetTick(void)
 312:../Drivers/STM32N6xx_HAL_Driver/Src/stm32n6xx_hal.c **** {
 345              		.loc 1 312 1 is_stmt 1 view -0
 346              		.cfi_startproc
 347              		@ args = 0, pretend = 0, frame = 0
 348              		@ frame_needed = 0, uses_anonymous_args = 0
 349              		@ link register save eliminated.
 313:../Drivers/STM32N6xx_HAL_Driver/Src/stm32n6xx_hal.c ****   return uwTick;
 350              		.loc 1 313 3 view .LVU80
 314:../Drivers/STM32N6xx_HAL_Driver/Src/stm32n6xx_hal.c **** }
 351              		.loc 1 314 1 is_stmt 0 view .LVU81
 352 0000 014B     		ldr	r3, .L26
 353 0002 1868     		ldr	r0, [r3]
 354 0004 7047     		bx	lr
 355              	.L27:
 356 0006 00BF     		.align	2
 357              	.L26:
 358 0008 00000000 		.word	uwTick
 359              		.cfi_endproc
 360              	.LFE887:
 362              		.section	.text.HAL_GetTickPrio,"ax",%progbits
 363              		.align	1
 364              		.global	HAL_GetTickPrio
 365              		.syntax unified
 366              		.thumb
 367              		.thumb_func
 369              	HAL_GetTickPrio:
 370              	.LFB888:
 315:../Drivers/STM32N6xx_HAL_Driver/Src/stm32n6xx_hal.c **** 
 316:../Drivers/STM32N6xx_HAL_Driver/Src/stm32n6xx_hal.c **** /**
 317:../Drivers/STM32N6xx_HAL_Driver/Src/stm32n6xx_hal.c ****   * @brief This function returns a tick priority.
 318:../Drivers/STM32N6xx_HAL_Driver/Src/stm32n6xx_hal.c ****   * @retval tick priority
 319:../Drivers/STM32N6xx_HAL_Driver/Src/stm32n6xx_hal.c ****   */
 320:../Drivers/STM32N6xx_HAL_Driver/Src/stm32n6xx_hal.c **** uint32_t HAL_GetTickPrio(void)
 321:../Drivers/STM32N6xx_HAL_Driver/Src/stm32n6xx_hal.c **** {
 371              		.loc 1 321 1 is_stmt 1 view -0
 372              		.cfi_startproc
ARM GAS  /tmp/ccvdUNht.s 			page 14


 373              		@ args = 0, pretend = 0, frame = 0
 374              		@ frame_needed = 0, uses_anonymous_args = 0
 375              		@ link register save eliminated.
 322:../Drivers/STM32N6xx_HAL_Driver/Src/stm32n6xx_hal.c ****   return uwTickPrio;
 376              		.loc 1 322 3 view .LVU83
 323:../Drivers/STM32N6xx_HAL_Driver/Src/stm32n6xx_hal.c **** }
 377              		.loc 1 323 1 is_stmt 0 view .LVU84
 378 0000 014B     		ldr	r3, .L29
 379 0002 1868     		ldr	r0, [r3]
 380 0004 7047     		bx	lr
 381              	.L30:
 382 0006 00BF     		.align	2
 383              	.L29:
 384 0008 00000000 		.word	uwTickPrio
 385              		.cfi_endproc
 386              	.LFE888:
 388              		.section	.text.HAL_SetTickFreq,"ax",%progbits
 389              		.align	1
 390              		.global	HAL_SetTickFreq
 391              		.syntax unified
 392              		.thumb
 393              		.thumb_func
 395              	HAL_SetTickFreq:
 396              	.LVL12:
 397              	.LFB889:
 324:../Drivers/STM32N6xx_HAL_Driver/Src/stm32n6xx_hal.c **** 
 325:../Drivers/STM32N6xx_HAL_Driver/Src/stm32n6xx_hal.c **** /**
 326:../Drivers/STM32N6xx_HAL_Driver/Src/stm32n6xx_hal.c ****   * @brief Set new tick Freq.
 327:../Drivers/STM32N6xx_HAL_Driver/Src/stm32n6xx_hal.c ****   * @param Freq Tick frequency, value of @ref HAL_TickFreqTypeDef.
 328:../Drivers/STM32N6xx_HAL_Driver/Src/stm32n6xx_hal.c ****   * @retval HAL status
 329:../Drivers/STM32N6xx_HAL_Driver/Src/stm32n6xx_hal.c ****   */
 330:../Drivers/STM32N6xx_HAL_Driver/Src/stm32n6xx_hal.c **** HAL_StatusTypeDef HAL_SetTickFreq(HAL_TickFreqTypeDef Freq)
 331:../Drivers/STM32N6xx_HAL_Driver/Src/stm32n6xx_hal.c **** {
 398              		.loc 1 331 1 is_stmt 1 view -0
 399              		.cfi_startproc
 400              		@ args = 0, pretend = 0, frame = 0
 401              		@ frame_needed = 0, uses_anonymous_args = 0
 402              		.loc 1 331 1 is_stmt 0 view .LVU86
 403 0000 10B5     		push	{r4, lr}
 404              	.LCFI3:
 405              		.cfi_def_cfa_offset 8
 406              		.cfi_offset 4, -8
 407              		.cfi_offset 14, -4
 332:../Drivers/STM32N6xx_HAL_Driver/Src/stm32n6xx_hal.c ****   HAL_StatusTypeDef status  = HAL_OK;
 408              		.loc 1 332 3 is_stmt 1 view .LVU87
 409              	.LVL13:
 333:../Drivers/STM32N6xx_HAL_Driver/Src/stm32n6xx_hal.c ****   HAL_TickFreqTypeDef prevTickFreq;
 410              		.loc 1 333 3 view .LVU88
 334:../Drivers/STM32N6xx_HAL_Driver/Src/stm32n6xx_hal.c **** 
 335:../Drivers/STM32N6xx_HAL_Driver/Src/stm32n6xx_hal.c ****   assert_param(IS_TICKFREQ(Freq));
 411              		.loc 1 335 3 view .LVU89
 336:../Drivers/STM32N6xx_HAL_Driver/Src/stm32n6xx_hal.c **** 
 337:../Drivers/STM32N6xx_HAL_Driver/Src/stm32n6xx_hal.c ****   if (uwTickFreq != Freq)
 412              		.loc 1 337 3 view .LVU90
 413              		.loc 1 337 18 is_stmt 0 view .LVU91
 414 0002 084B     		ldr	r3, .L38
 415 0004 1C78     		ldrb	r4, [r3]	@ zero_extendqisi2
ARM GAS  /tmp/ccvdUNht.s 			page 15


 416              		.loc 1 337 6 view .LVU92
 417 0006 8442     		cmp	r4, r0
 418 0008 01D1     		bne	.L37
 332:../Drivers/STM32N6xx_HAL_Driver/Src/stm32n6xx_hal.c ****   HAL_TickFreqTypeDef prevTickFreq;
 419              		.loc 1 332 21 view .LVU93
 420 000a 0020     		movs	r0, #0
 421              	.LVL14:
 422              	.L32:
 338:../Drivers/STM32N6xx_HAL_Driver/Src/stm32n6xx_hal.c ****   {
 339:../Drivers/STM32N6xx_HAL_Driver/Src/stm32n6xx_hal.c ****     /* Back up uwTickFreq frequency */
 340:../Drivers/STM32N6xx_HAL_Driver/Src/stm32n6xx_hal.c ****     prevTickFreq = uwTickFreq;
 341:../Drivers/STM32N6xx_HAL_Driver/Src/stm32n6xx_hal.c **** 
 342:../Drivers/STM32N6xx_HAL_Driver/Src/stm32n6xx_hal.c ****     /* Update uwTickFreq global variable used by HAL_InitTick() */
 343:../Drivers/STM32N6xx_HAL_Driver/Src/stm32n6xx_hal.c ****     uwTickFreq = Freq;
 344:../Drivers/STM32N6xx_HAL_Driver/Src/stm32n6xx_hal.c **** 
 345:../Drivers/STM32N6xx_HAL_Driver/Src/stm32n6xx_hal.c ****     /* Apply the new tick Freq  */
 346:../Drivers/STM32N6xx_HAL_Driver/Src/stm32n6xx_hal.c ****     status = HAL_InitTick(uwTickPrio);
 347:../Drivers/STM32N6xx_HAL_Driver/Src/stm32n6xx_hal.c ****     if (status != HAL_OK)
 348:../Drivers/STM32N6xx_HAL_Driver/Src/stm32n6xx_hal.c ****     {
 349:../Drivers/STM32N6xx_HAL_Driver/Src/stm32n6xx_hal.c ****       /* Restore previous tick frequency */
 350:../Drivers/STM32N6xx_HAL_Driver/Src/stm32n6xx_hal.c ****       uwTickFreq = prevTickFreq;
 351:../Drivers/STM32N6xx_HAL_Driver/Src/stm32n6xx_hal.c ****     }
 352:../Drivers/STM32N6xx_HAL_Driver/Src/stm32n6xx_hal.c ****   }
 353:../Drivers/STM32N6xx_HAL_Driver/Src/stm32n6xx_hal.c **** 
 354:../Drivers/STM32N6xx_HAL_Driver/Src/stm32n6xx_hal.c ****   return status;
 423              		.loc 1 354 3 is_stmt 1 view .LVU94
 355:../Drivers/STM32N6xx_HAL_Driver/Src/stm32n6xx_hal.c **** }
 424              		.loc 1 355 1 is_stmt 0 view .LVU95
 425 000c 10BD     		pop	{r4, pc}
 426              	.LVL15:
 427              	.L37:
 340:../Drivers/STM32N6xx_HAL_Driver/Src/stm32n6xx_hal.c **** 
 428              		.loc 1 340 5 is_stmt 1 view .LVU96
 343:../Drivers/STM32N6xx_HAL_Driver/Src/stm32n6xx_hal.c **** 
 429              		.loc 1 343 5 view .LVU97
 343:../Drivers/STM32N6xx_HAL_Driver/Src/stm32n6xx_hal.c **** 
 430              		.loc 1 343 16 is_stmt 0 view .LVU98
 431 000e 1870     		strb	r0, [r3]
 346:../Drivers/STM32N6xx_HAL_Driver/Src/stm32n6xx_hal.c ****     if (status != HAL_OK)
 432              		.loc 1 346 5 is_stmt 1 view .LVU99
 346:../Drivers/STM32N6xx_HAL_Driver/Src/stm32n6xx_hal.c ****     if (status != HAL_OK)
 433              		.loc 1 346 14 is_stmt 0 view .LVU100
 434 0010 054B     		ldr	r3, .L38+4
 435 0012 1868     		ldr	r0, [r3]
 436              	.LVL16:
 346:../Drivers/STM32N6xx_HAL_Driver/Src/stm32n6xx_hal.c ****     if (status != HAL_OK)
 437              		.loc 1 346 14 view .LVU101
 438 0014 FFF7FEFF 		bl	HAL_InitTick
 439              	.LVL17:
 347:../Drivers/STM32N6xx_HAL_Driver/Src/stm32n6xx_hal.c ****     {
 440              		.loc 1 347 5 is_stmt 1 view .LVU102
 347:../Drivers/STM32N6xx_HAL_Driver/Src/stm32n6xx_hal.c ****     {
 441              		.loc 1 347 8 is_stmt 0 view .LVU103
 442 0018 0028     		cmp	r0, #0
 443 001a F7D0     		beq	.L32
 350:../Drivers/STM32N6xx_HAL_Driver/Src/stm32n6xx_hal.c ****     }
 444              		.loc 1 350 7 is_stmt 1 view .LVU104
ARM GAS  /tmp/ccvdUNht.s 			page 16


 350:../Drivers/STM32N6xx_HAL_Driver/Src/stm32n6xx_hal.c ****     }
 445              		.loc 1 350 18 is_stmt 0 view .LVU105
 446 001c 014B     		ldr	r3, .L38
 447 001e 1C70     		strb	r4, [r3]
 448 0020 F4E7     		b	.L32
 449              	.L39:
 450 0022 00BF     		.align	2
 451              	.L38:
 452 0024 00000000 		.word	uwTickFreq
 453 0028 00000000 		.word	uwTickPrio
 454              		.cfi_endproc
 455              	.LFE889:
 457              		.section	.text.HAL_GetTickFreq,"ax",%progbits
 458              		.align	1
 459              		.global	HAL_GetTickFreq
 460              		.syntax unified
 461              		.thumb
 462              		.thumb_func
 464              	HAL_GetTickFreq:
 465              	.LFB890:
 356:../Drivers/STM32N6xx_HAL_Driver/Src/stm32n6xx_hal.c **** 
 357:../Drivers/STM32N6xx_HAL_Driver/Src/stm32n6xx_hal.c **** /**
 358:../Drivers/STM32N6xx_HAL_Driver/Src/stm32n6xx_hal.c ****   * @brief Return tick frequency.
 359:../Drivers/STM32N6xx_HAL_Driver/Src/stm32n6xx_hal.c ****   * @retval Tick frequency.
 360:../Drivers/STM32N6xx_HAL_Driver/Src/stm32n6xx_hal.c ****   *         Value of @ref HAL_TickFreqTypeDef.
 361:../Drivers/STM32N6xx_HAL_Driver/Src/stm32n6xx_hal.c ****   */
 362:../Drivers/STM32N6xx_HAL_Driver/Src/stm32n6xx_hal.c **** HAL_TickFreqTypeDef HAL_GetTickFreq(void)
 363:../Drivers/STM32N6xx_HAL_Driver/Src/stm32n6xx_hal.c **** {
 466              		.loc 1 363 1 is_stmt 1 view -0
 467              		.cfi_startproc
 468              		@ args = 0, pretend = 0, frame = 0
 469              		@ frame_needed = 0, uses_anonymous_args = 0
 470              		@ link register save eliminated.
 364:../Drivers/STM32N6xx_HAL_Driver/Src/stm32n6xx_hal.c ****   return uwTickFreq;
 471              		.loc 1 364 3 view .LVU107
 365:../Drivers/STM32N6xx_HAL_Driver/Src/stm32n6xx_hal.c **** }
 472              		.loc 1 365 1 is_stmt 0 view .LVU108
 473 0000 014B     		ldr	r3, .L41
 474 0002 1878     		ldrb	r0, [r3]	@ zero_extendqisi2
 475 0004 7047     		bx	lr
 476              	.L42:
 477 0006 00BF     		.align	2
 478              	.L41:
 479 0008 00000000 		.word	uwTickFreq
 480              		.cfi_endproc
 481              	.LFE890:
 483              		.section	.text.HAL_Delay,"ax",%progbits
 484              		.align	1
 485              		.weak	HAL_Delay
 486              		.syntax unified
 487              		.thumb
 488              		.thumb_func
 490              	HAL_Delay:
 491              	.LVL18:
 492              	.LFB891:
 366:../Drivers/STM32N6xx_HAL_Driver/Src/stm32n6xx_hal.c **** 
 367:../Drivers/STM32N6xx_HAL_Driver/Src/stm32n6xx_hal.c **** /**
ARM GAS  /tmp/ccvdUNht.s 			page 17


 368:../Drivers/STM32N6xx_HAL_Driver/Src/stm32n6xx_hal.c ****   * @brief This function provides minimum delay (in milliseconds) based
 369:../Drivers/STM32N6xx_HAL_Driver/Src/stm32n6xx_hal.c ****   *        on variable incremented.
 370:../Drivers/STM32N6xx_HAL_Driver/Src/stm32n6xx_hal.c ****   * @note In the default implementation , SysTick timer is the source of time base.
 371:../Drivers/STM32N6xx_HAL_Driver/Src/stm32n6xx_hal.c ****   *       It is used to generate interrupts at regular time intervals where uwTick
 372:../Drivers/STM32N6xx_HAL_Driver/Src/stm32n6xx_hal.c ****   *       is incremented.
 373:../Drivers/STM32N6xx_HAL_Driver/Src/stm32n6xx_hal.c ****   * @note This function is declared as __weak to be overwritten in case of other
 374:../Drivers/STM32N6xx_HAL_Driver/Src/stm32n6xx_hal.c ****   *       implementations in user file.
 375:../Drivers/STM32N6xx_HAL_Driver/Src/stm32n6xx_hal.c ****   * @param Delay Specifies the delay time length, in milliseconds.
 376:../Drivers/STM32N6xx_HAL_Driver/Src/stm32n6xx_hal.c ****   * @retval None
 377:../Drivers/STM32N6xx_HAL_Driver/Src/stm32n6xx_hal.c ****   */
 378:../Drivers/STM32N6xx_HAL_Driver/Src/stm32n6xx_hal.c **** __weak void HAL_Delay(uint32_t Delay)
 379:../Drivers/STM32N6xx_HAL_Driver/Src/stm32n6xx_hal.c **** {
 493              		.loc 1 379 1 is_stmt 1 view -0
 494              		.cfi_startproc
 495              		@ args = 0, pretend = 0, frame = 0
 496              		@ frame_needed = 0, uses_anonymous_args = 0
 497              		.loc 1 379 1 is_stmt 0 view .LVU110
 498 0000 38B5     		push	{r3, r4, r5, lr}
 499              	.LCFI4:
 500              		.cfi_def_cfa_offset 16
 501              		.cfi_offset 3, -16
 502              		.cfi_offset 4, -12
 503              		.cfi_offset 5, -8
 504              		.cfi_offset 14, -4
 505 0002 0446     		mov	r4, r0
 380:../Drivers/STM32N6xx_HAL_Driver/Src/stm32n6xx_hal.c ****   uint32_t tickstart = HAL_GetTick();
 506              		.loc 1 380 3 is_stmt 1 view .LVU111
 507              		.loc 1 380 24 is_stmt 0 view .LVU112
 508 0004 FFF7FEFF 		bl	HAL_GetTick
 509              	.LVL19:
 510              		.loc 1 380 24 view .LVU113
 511 0008 0546     		mov	r5, r0
 512              	.LVL20:
 381:../Drivers/STM32N6xx_HAL_Driver/Src/stm32n6xx_hal.c ****   uint32_t wait = Delay;
 513              		.loc 1 381 3 is_stmt 1 view .LVU114
 382:../Drivers/STM32N6xx_HAL_Driver/Src/stm32n6xx_hal.c **** 
 383:../Drivers/STM32N6xx_HAL_Driver/Src/stm32n6xx_hal.c ****   /* Add a freq to guarantee minimum wait */
 384:../Drivers/STM32N6xx_HAL_Driver/Src/stm32n6xx_hal.c ****   if (wait < HAL_MAX_DELAY)
 514              		.loc 1 384 3 view .LVU115
 515              		.loc 1 384 6 is_stmt 0 view .LVU116
 516 000a B4F1FF3F 		cmp	r4, #-1
 517 000e 02D0     		beq	.L45
 385:../Drivers/STM32N6xx_HAL_Driver/Src/stm32n6xx_hal.c ****   {
 386:../Drivers/STM32N6xx_HAL_Driver/Src/stm32n6xx_hal.c ****     wait += (uint32_t)(uwTickFreq);
 518              		.loc 1 386 5 is_stmt 1 view .LVU117
 519              		.loc 1 386 13 is_stmt 0 view .LVU118
 520 0010 044B     		ldr	r3, .L47
 521 0012 1B78     		ldrb	r3, [r3]	@ zero_extendqisi2
 522              		.loc 1 386 10 view .LVU119
 523 0014 1C44     		add	r4, r4, r3
 524              	.LVL21:
 525              	.L45:
 387:../Drivers/STM32N6xx_HAL_Driver/Src/stm32n6xx_hal.c ****   }
 388:../Drivers/STM32N6xx_HAL_Driver/Src/stm32n6xx_hal.c **** 
 389:../Drivers/STM32N6xx_HAL_Driver/Src/stm32n6xx_hal.c ****   while ((HAL_GetTick() - tickstart) < wait)
 390:../Drivers/STM32N6xx_HAL_Driver/Src/stm32n6xx_hal.c ****   {
 391:../Drivers/STM32N6xx_HAL_Driver/Src/stm32n6xx_hal.c ****   }
ARM GAS  /tmp/ccvdUNht.s 			page 18


 526              		.loc 1 391 3 is_stmt 1 view .LVU120
 389:../Drivers/STM32N6xx_HAL_Driver/Src/stm32n6xx_hal.c ****   {
 527              		.loc 1 389 38 discriminator 1 view .LVU121
 389:../Drivers/STM32N6xx_HAL_Driver/Src/stm32n6xx_hal.c ****   {
 528              		.loc 1 389 11 is_stmt 0 discriminator 1 view .LVU122
 529 0016 FFF7FEFF 		bl	HAL_GetTick
 530              	.LVL22:
 389:../Drivers/STM32N6xx_HAL_Driver/Src/stm32n6xx_hal.c ****   {
 531              		.loc 1 389 25 discriminator 2 view .LVU123
 532 001a 401B     		subs	r0, r0, r5
 389:../Drivers/STM32N6xx_HAL_Driver/Src/stm32n6xx_hal.c ****   {
 533              		.loc 1 389 38 discriminator 2 view .LVU124
 534 001c A042     		cmp	r0, r4
 535 001e FAD3     		bcc	.L45
 392:../Drivers/STM32N6xx_HAL_Driver/Src/stm32n6xx_hal.c **** }
 536              		.loc 1 392 1 view .LVU125
 537 0020 38BD     		pop	{r3, r4, r5, pc}
 538              	.LVL23:
 539              	.L48:
 540              		.loc 1 392 1 view .LVU126
 541 0022 00BF     		.align	2
 542              	.L47:
 543 0024 00000000 		.word	uwTickFreq
 544              		.cfi_endproc
 545              	.LFE891:
 547              		.section	.text.HAL_SuspendTick,"ax",%progbits
 548              		.align	1
 549              		.weak	HAL_SuspendTick
 550              		.syntax unified
 551              		.thumb
 552              		.thumb_func
 554              	HAL_SuspendTick:
 555              	.LFB892:
 393:../Drivers/STM32N6xx_HAL_Driver/Src/stm32n6xx_hal.c **** 
 394:../Drivers/STM32N6xx_HAL_Driver/Src/stm32n6xx_hal.c **** /**
 395:../Drivers/STM32N6xx_HAL_Driver/Src/stm32n6xx_hal.c ****   * @brief Suspend Tick increment.
 396:../Drivers/STM32N6xx_HAL_Driver/Src/stm32n6xx_hal.c ****   * @note In the default implementation , SysTick timer is the source of time base. It is
 397:../Drivers/STM32N6xx_HAL_Driver/Src/stm32n6xx_hal.c ****   *       used to generate interrupts at regular time intervals. Once HAL_SuspendTick()
 398:../Drivers/STM32N6xx_HAL_Driver/Src/stm32n6xx_hal.c ****   *       is called, the SysTick interrupt will be disabled and so Tick increment
 399:../Drivers/STM32N6xx_HAL_Driver/Src/stm32n6xx_hal.c ****   *       is suspended.
 400:../Drivers/STM32N6xx_HAL_Driver/Src/stm32n6xx_hal.c ****   * @note This function is declared as __weak to be overwritten in case of other
 401:../Drivers/STM32N6xx_HAL_Driver/Src/stm32n6xx_hal.c ****   *       implementations in user file.
 402:../Drivers/STM32N6xx_HAL_Driver/Src/stm32n6xx_hal.c ****   * @retval None
 403:../Drivers/STM32N6xx_HAL_Driver/Src/stm32n6xx_hal.c ****   */
 404:../Drivers/STM32N6xx_HAL_Driver/Src/stm32n6xx_hal.c **** __weak void HAL_SuspendTick(void)
 405:../Drivers/STM32N6xx_HAL_Driver/Src/stm32n6xx_hal.c **** {
 556              		.loc 1 405 1 is_stmt 1 view -0
 557              		.cfi_startproc
 558              		@ args = 0, pretend = 0, frame = 0
 559              		@ frame_needed = 0, uses_anonymous_args = 0
 560              		@ link register save eliminated.
 406:../Drivers/STM32N6xx_HAL_Driver/Src/stm32n6xx_hal.c ****   /* Disable SysTick Interrupt */
 407:../Drivers/STM32N6xx_HAL_Driver/Src/stm32n6xx_hal.c ****   SysTick->CTRL &= ~SysTick_CTRL_TICKINT_Msk;
 561              		.loc 1 407 3 view .LVU128
 562              		.loc 1 407 10 is_stmt 0 view .LVU129
 563 0000 4FF0E022 		mov	r2, #-536813568
 564 0004 1369     		ldr	r3, [r2, #16]
ARM GAS  /tmp/ccvdUNht.s 			page 19


 565              		.loc 1 407 17 view .LVU130
 566 0006 23F00203 		bic	r3, r3, #2
 567 000a 1361     		str	r3, [r2, #16]
 408:../Drivers/STM32N6xx_HAL_Driver/Src/stm32n6xx_hal.c **** }
 568              		.loc 1 408 1 view .LVU131
 569 000c 7047     		bx	lr
 570              		.cfi_endproc
 571              	.LFE892:
 573              		.section	.text.HAL_ResumeTick,"ax",%progbits
 574              		.align	1
 575              		.weak	HAL_ResumeTick
 576              		.syntax unified
 577              		.thumb
 578              		.thumb_func
 580              	HAL_ResumeTick:
 581              	.LFB893:
 409:../Drivers/STM32N6xx_HAL_Driver/Src/stm32n6xx_hal.c **** 
 410:../Drivers/STM32N6xx_HAL_Driver/Src/stm32n6xx_hal.c **** /**
 411:../Drivers/STM32N6xx_HAL_Driver/Src/stm32n6xx_hal.c ****   * @brief Resume Tick increment.
 412:../Drivers/STM32N6xx_HAL_Driver/Src/stm32n6xx_hal.c ****   * @note In the default implementation , SysTick timer is the source of time base. It is
 413:../Drivers/STM32N6xx_HAL_Driver/Src/stm32n6xx_hal.c ****   *       used to generate interrupts at regular time intervals. Once HAL_ResumeTick()
 414:../Drivers/STM32N6xx_HAL_Driver/Src/stm32n6xx_hal.c ****   *       is called, the SysTick interrupt will be enabled and so Tick increment
 415:../Drivers/STM32N6xx_HAL_Driver/Src/stm32n6xx_hal.c ****   *       is resumed.
 416:../Drivers/STM32N6xx_HAL_Driver/Src/stm32n6xx_hal.c ****   * @note This function is declared as __weak to be overwritten in case of other
 417:../Drivers/STM32N6xx_HAL_Driver/Src/stm32n6xx_hal.c ****   *       implementations in user file.
 418:../Drivers/STM32N6xx_HAL_Driver/Src/stm32n6xx_hal.c ****   * @retval None
 419:../Drivers/STM32N6xx_HAL_Driver/Src/stm32n6xx_hal.c ****   */
 420:../Drivers/STM32N6xx_HAL_Driver/Src/stm32n6xx_hal.c **** __weak void HAL_ResumeTick(void)
 421:../Drivers/STM32N6xx_HAL_Driver/Src/stm32n6xx_hal.c **** {
 582              		.loc 1 421 1 is_stmt 1 view -0
 583              		.cfi_startproc
 584              		@ args = 0, pretend = 0, frame = 0
 585              		@ frame_needed = 0, uses_anonymous_args = 0
 586              		@ link register save eliminated.
 422:../Drivers/STM32N6xx_HAL_Driver/Src/stm32n6xx_hal.c ****   /* Enable SysTick Interrupt */
 423:../Drivers/STM32N6xx_HAL_Driver/Src/stm32n6xx_hal.c ****   SysTick->CTRL  |= SysTick_CTRL_TICKINT_Msk;
 587              		.loc 1 423 3 view .LVU133
 588              		.loc 1 423 10 is_stmt 0 view .LVU134
 589 0000 4FF0E022 		mov	r2, #-536813568
 590 0004 1369     		ldr	r3, [r2, #16]
 591              		.loc 1 423 18 view .LVU135
 592 0006 43F00203 		orr	r3, r3, #2
 593 000a 1361     		str	r3, [r2, #16]
 424:../Drivers/STM32N6xx_HAL_Driver/Src/stm32n6xx_hal.c **** }
 594              		.loc 1 424 1 view .LVU136
 595 000c 7047     		bx	lr
 596              		.cfi_endproc
 597              	.LFE893:
 599              		.section	.text.HAL_GetHalVersion,"ax",%progbits
 600              		.align	1
 601              		.global	HAL_GetHalVersion
 602              		.syntax unified
 603              		.thumb
 604              		.thumb_func
 606              	HAL_GetHalVersion:
 607              	.LFB894:
 425:../Drivers/STM32N6xx_HAL_Driver/Src/stm32n6xx_hal.c **** 
ARM GAS  /tmp/ccvdUNht.s 			page 20


 426:../Drivers/STM32N6xx_HAL_Driver/Src/stm32n6xx_hal.c **** /**
 427:../Drivers/STM32N6xx_HAL_Driver/Src/stm32n6xx_hal.c ****   * @brief  Returns the HAL revision
 428:../Drivers/STM32N6xx_HAL_Driver/Src/stm32n6xx_hal.c ****   * @retval version : 0xXYZR (8bits for each decimal, R for RC)
 429:../Drivers/STM32N6xx_HAL_Driver/Src/stm32n6xx_hal.c ****   */
 430:../Drivers/STM32N6xx_HAL_Driver/Src/stm32n6xx_hal.c **** uint32_t HAL_GetHalVersion(void)
 431:../Drivers/STM32N6xx_HAL_Driver/Src/stm32n6xx_hal.c **** {
 608              		.loc 1 431 1 is_stmt 1 view -0
 609              		.cfi_startproc
 610              		@ args = 0, pretend = 0, frame = 0
 611              		@ frame_needed = 0, uses_anonymous_args = 0
 612              		@ link register save eliminated.
 432:../Drivers/STM32N6xx_HAL_Driver/Src/stm32n6xx_hal.c ****   return __STM32N6xx_HAL_VERSION;
 613              		.loc 1 432 3 view .LVU138
 433:../Drivers/STM32N6xx_HAL_Driver/Src/stm32n6xx_hal.c **** }
 614              		.loc 1 433 1 is_stmt 0 view .LVU139
 615 0000 0048     		ldr	r0, .L52
 616 0002 7047     		bx	lr
 617              	.L53:
 618              		.align	2
 619              	.L52:
 620 0004 00000301 		.word	16973824
 621              		.cfi_endproc
 622              	.LFE894:
 624              		.section	.text.HAL_GetREVID,"ax",%progbits
 625              		.align	1
 626              		.global	HAL_GetREVID
 627              		.syntax unified
 628              		.thumb
 629              		.thumb_func
 631              	HAL_GetREVID:
 632              	.LFB895:
 434:../Drivers/STM32N6xx_HAL_Driver/Src/stm32n6xx_hal.c **** 
 435:../Drivers/STM32N6xx_HAL_Driver/Src/stm32n6xx_hal.c **** /**
 436:../Drivers/STM32N6xx_HAL_Driver/Src/stm32n6xx_hal.c ****   * @brief  Returns the device revision identifier
 437:../Drivers/STM32N6xx_HAL_Driver/Src/stm32n6xx_hal.c ****   * @note Returned Revision ID can be
 438:../Drivers/STM32N6xx_HAL_Driver/Src/stm32n6xx_hal.c ****   *       0x00000100 for Cut1.0
 439:../Drivers/STM32N6xx_HAL_Driver/Src/stm32n6xx_hal.c ****   *       0x00000101 for Cut1.1
 440:../Drivers/STM32N6xx_HAL_Driver/Src/stm32n6xx_hal.c ****   *       0x00000200 for Cut2.0
 441:../Drivers/STM32N6xx_HAL_Driver/Src/stm32n6xx_hal.c ****   * @retval Device revision identifier
 442:../Drivers/STM32N6xx_HAL_Driver/Src/stm32n6xx_hal.c ****   */
 443:../Drivers/STM32N6xx_HAL_Driver/Src/stm32n6xx_hal.c **** uint32_t HAL_GetREVID(void)
 444:../Drivers/STM32N6xx_HAL_Driver/Src/stm32n6xx_hal.c **** {
 633              		.loc 1 444 1 is_stmt 1 view -0
 634              		.cfi_startproc
 635              		@ args = 0, pretend = 0, frame = 0
 636              		@ frame_needed = 0, uses_anonymous_args = 0
 637              		@ link register save eliminated.
 445:../Drivers/STM32N6xx_HAL_Driver/Src/stm32n6xx_hal.c ****   return *(uint32_t *)(REVID_BASE);
 638              		.loc 1 445 3 view .LVU141
 446:../Drivers/STM32N6xx_HAL_Driver/Src/stm32n6xx_hal.c **** }
 639              		.loc 1 446 1 is_stmt 0 view .LVU142
 640 0000 014B     		ldr	r3, .L55
 641 0002 5868     		ldr	r0, [r3, #4]
 642 0004 7047     		bx	lr
 643              	.L56:
 644 0006 00BF     		.align	2
 645              	.L55:
ARM GAS  /tmp/ccvdUNht.s 			page 21


 646 0008 00100018 		.word	402657280
 647              		.cfi_endproc
 648              	.LFE895:
 650              		.section	.text.HAL_GetDEVID,"ax",%progbits
 651              		.align	1
 652              		.global	HAL_GetDEVID
 653              		.syntax unified
 654              		.thumb
 655              		.thumb_func
 657              	HAL_GetDEVID:
 658              	.LFB896:
 447:../Drivers/STM32N6xx_HAL_Driver/Src/stm32n6xx_hal.c **** 
 448:../Drivers/STM32N6xx_HAL_Driver/Src/stm32n6xx_hal.c **** #if defined(CPU_IN_SECURE_STATE)
 449:../Drivers/STM32N6xx_HAL_Driver/Src/stm32n6xx_hal.c **** /**
 450:../Drivers/STM32N6xx_HAL_Driver/Src/stm32n6xx_hal.c ****   * @brief  Returns the device identifier
 451:../Drivers/STM32N6xx_HAL_Driver/Src/stm32n6xx_hal.c ****   * @note This function can only be used if the HAL BSEC module is enabled in the hal configuration
 452:../Drivers/STM32N6xx_HAL_Driver/Src/stm32n6xx_hal.c ****   *       The BSEC clock must be enabled before calling this function
 453:../Drivers/STM32N6xx_HAL_Driver/Src/stm32n6xx_hal.c ****   *       Returned Device ID can be
 454:../Drivers/STM32N6xx_HAL_Driver/Src/stm32n6xx_hal.c ****   *       0x00006200 for STM32N645xx
 455:../Drivers/STM32N6xx_HAL_Driver/Src/stm32n6xx_hal.c ****   *       0x00006000 for STM32N655xx
 456:../Drivers/STM32N6xx_HAL_Driver/Src/stm32n6xx_hal.c ****   *       0x00002200 for STM32N647xx
 457:../Drivers/STM32N6xx_HAL_Driver/Src/stm32n6xx_hal.c ****   *       0x00002000 for STM32N657xx
 458:../Drivers/STM32N6xx_HAL_Driver/Src/stm32n6xx_hal.c ****   *       0xFFFFFFFF if an error occurs
 459:../Drivers/STM32N6xx_HAL_Driver/Src/stm32n6xx_hal.c ****   * @retval Device identifier
 460:../Drivers/STM32N6xx_HAL_Driver/Src/stm32n6xx_hal.c ****   */
 461:../Drivers/STM32N6xx_HAL_Driver/Src/stm32n6xx_hal.c **** uint32_t HAL_GetDEVID(void)
 462:../Drivers/STM32N6xx_HAL_Driver/Src/stm32n6xx_hal.c **** {
 659              		.loc 1 462 1 is_stmt 1 view -0
 660              		.cfi_startproc
 661              		@ args = 0, pretend = 0, frame = 0
 662              		@ frame_needed = 0, uses_anonymous_args = 0
 663              		@ link register save eliminated.
 463:../Drivers/STM32N6xx_HAL_Driver/Src/stm32n6xx_hal.c **** #if defined(HAL_BSEC_MODULE_ENABLED)
 464:../Drivers/STM32N6xx_HAL_Driver/Src/stm32n6xx_hal.c **** #define BSEC_FUSE_ADDRESS               9U
 465:../Drivers/STM32N6xx_HAL_Driver/Src/stm32n6xx_hal.c ****   uint32_t data;
 466:../Drivers/STM32N6xx_HAL_Driver/Src/stm32n6xx_hal.c ****   if(__HAL_RCC_BSEC_IS_CLK_ENABLED() == 0UL){
 467:../Drivers/STM32N6xx_HAL_Driver/Src/stm32n6xx_hal.c ****     data = 0xFFFFFFFFU;
 468:../Drivers/STM32N6xx_HAL_Driver/Src/stm32n6xx_hal.c ****   }
 469:../Drivers/STM32N6xx_HAL_Driver/Src/stm32n6xx_hal.c ****   else
 470:../Drivers/STM32N6xx_HAL_Driver/Src/stm32n6xx_hal.c ****   {
 471:../Drivers/STM32N6xx_HAL_Driver/Src/stm32n6xx_hal.c ****     BSEC_HandleTypeDef sBsecHandler = {0};
 472:../Drivers/STM32N6xx_HAL_Driver/Src/stm32n6xx_hal.c ****     sBsecHandler.Instance = BSEC;
 473:../Drivers/STM32N6xx_HAL_Driver/Src/stm32n6xx_hal.c **** 
 474:../Drivers/STM32N6xx_HAL_Driver/Src/stm32n6xx_hal.c ****     if(HAL_BSEC_OTP_Read(&sBsecHandler, BSEC_FUSE_ADDRESS, &data) != HAL_OK){
 475:../Drivers/STM32N6xx_HAL_Driver/Src/stm32n6xx_hal.c ****       data = 0xFFFFFFFFU;
 476:../Drivers/STM32N6xx_HAL_Driver/Src/stm32n6xx_hal.c ****     }
 477:../Drivers/STM32N6xx_HAL_Driver/Src/stm32n6xx_hal.c ****   }
 478:../Drivers/STM32N6xx_HAL_Driver/Src/stm32n6xx_hal.c ****   return data;
 479:../Drivers/STM32N6xx_HAL_Driver/Src/stm32n6xx_hal.c **** #else
 480:../Drivers/STM32N6xx_HAL_Driver/Src/stm32n6xx_hal.c ****   return 0xFFFFFFFFU;
 664              		.loc 1 480 3 view .LVU144
 481:../Drivers/STM32N6xx_HAL_Driver/Src/stm32n6xx_hal.c **** #endif /* HAL_BSEC_MODULE_ENABLED */
 482:../Drivers/STM32N6xx_HAL_Driver/Src/stm32n6xx_hal.c **** }
 665              		.loc 1 482 1 is_stmt 0 view .LVU145
 666 0000 4FF0FF30 		mov	r0, #-1
 667 0004 7047     		bx	lr
 668              		.cfi_endproc
ARM GAS  /tmp/ccvdUNht.s 			page 22


 669              	.LFE896:
 671              		.section	.text.HAL_GetUIDw0,"ax",%progbits
 672              		.align	1
 673              		.global	HAL_GetUIDw0
 674              		.syntax unified
 675              		.thumb
 676              		.thumb_func
 678              	HAL_GetUIDw0:
 679              	.LFB897:
 483:../Drivers/STM32N6xx_HAL_Driver/Src/stm32n6xx_hal.c **** #endif /* CPU_IN_SECURE_STATE */
 484:../Drivers/STM32N6xx_HAL_Driver/Src/stm32n6xx_hal.c **** 
 485:../Drivers/STM32N6xx_HAL_Driver/Src/stm32n6xx_hal.c **** /**
 486:../Drivers/STM32N6xx_HAL_Driver/Src/stm32n6xx_hal.c ****   * @brief  Return the first word of the unique device identifier (UID based on 96 bits)
 487:../Drivers/STM32N6xx_HAL_Driver/Src/stm32n6xx_hal.c ****   * @note   The application must ensures that SYSCFG clock is enabled.
 488:../Drivers/STM32N6xx_HAL_Driver/Src/stm32n6xx_hal.c ****   * @retval Device identifier
 489:../Drivers/STM32N6xx_HAL_Driver/Src/stm32n6xx_hal.c ****   */
 490:../Drivers/STM32N6xx_HAL_Driver/Src/stm32n6xx_hal.c **** uint32_t HAL_GetUIDw0(void)
 491:../Drivers/STM32N6xx_HAL_Driver/Src/stm32n6xx_hal.c **** {
 680              		.loc 1 491 1 is_stmt 1 view -0
 681              		.cfi_startproc
 682              		@ args = 0, pretend = 0, frame = 0
 683              		@ frame_needed = 0, uses_anonymous_args = 0
 684              		@ link register save eliminated.
 492:../Drivers/STM32N6xx_HAL_Driver/Src/stm32n6xx_hal.c ****   return (READ_REG(*((uint32_t *)UID_BASE)));
 685              		.loc 1 492 3 view .LVU147
 493:../Drivers/STM32N6xx_HAL_Driver/Src/stm32n6xx_hal.c **** }
 686              		.loc 1 493 1 is_stmt 0 view .LVU148
 687 0000 014B     		ldr	r3, .L59
 688 0002 5869     		ldr	r0, [r3, #20]
 689 0004 7047     		bx	lr
 690              	.L60:
 691 0006 00BF     		.align	2
 692              	.L59:
 693 0008 00900056 		.word	1442877440
 694              		.cfi_endproc
 695              	.LFE897:
 697              		.section	.text.HAL_GetUIDw1,"ax",%progbits
 698              		.align	1
 699              		.global	HAL_GetUIDw1
 700              		.syntax unified
 701              		.thumb
 702              		.thumb_func
 704              	HAL_GetUIDw1:
 705              	.LFB898:
 494:../Drivers/STM32N6xx_HAL_Driver/Src/stm32n6xx_hal.c **** 
 495:../Drivers/STM32N6xx_HAL_Driver/Src/stm32n6xx_hal.c **** /**
 496:../Drivers/STM32N6xx_HAL_Driver/Src/stm32n6xx_hal.c ****   * @brief  Return the second word of the unique device identifier (UID based on 96 bits)
 497:../Drivers/STM32N6xx_HAL_Driver/Src/stm32n6xx_hal.c ****   * @note   The application must ensures that SYSCFG clock is enabled.
 498:../Drivers/STM32N6xx_HAL_Driver/Src/stm32n6xx_hal.c ****   * @retval Device identifier
 499:../Drivers/STM32N6xx_HAL_Driver/Src/stm32n6xx_hal.c ****   */
 500:../Drivers/STM32N6xx_HAL_Driver/Src/stm32n6xx_hal.c **** uint32_t HAL_GetUIDw1(void)
 501:../Drivers/STM32N6xx_HAL_Driver/Src/stm32n6xx_hal.c **** {
 706              		.loc 1 501 1 is_stmt 1 view -0
 707              		.cfi_startproc
 708              		@ args = 0, pretend = 0, frame = 0
 709              		@ frame_needed = 0, uses_anonymous_args = 0
 710              		@ link register save eliminated.
ARM GAS  /tmp/ccvdUNht.s 			page 23


 502:../Drivers/STM32N6xx_HAL_Driver/Src/stm32n6xx_hal.c ****   return (READ_REG(*((uint32_t *)(UID_BASE + 4U))));
 711              		.loc 1 502 3 view .LVU150
 503:../Drivers/STM32N6xx_HAL_Driver/Src/stm32n6xx_hal.c **** }
 712              		.loc 1 503 1 is_stmt 0 view .LVU151
 713 0000 014B     		ldr	r3, .L62
 714 0002 9869     		ldr	r0, [r3, #24]
 715 0004 7047     		bx	lr
 716              	.L63:
 717 0006 00BF     		.align	2
 718              	.L62:
 719 0008 00900056 		.word	1442877440
 720              		.cfi_endproc
 721              	.LFE898:
 723              		.section	.text.HAL_GetUIDw2,"ax",%progbits
 724              		.align	1
 725              		.global	HAL_GetUIDw2
 726              		.syntax unified
 727              		.thumb
 728              		.thumb_func
 730              	HAL_GetUIDw2:
 731              	.LFB899:
 504:../Drivers/STM32N6xx_HAL_Driver/Src/stm32n6xx_hal.c **** 
 505:../Drivers/STM32N6xx_HAL_Driver/Src/stm32n6xx_hal.c **** /**
 506:../Drivers/STM32N6xx_HAL_Driver/Src/stm32n6xx_hal.c ****   * @brief  Return the third word of the unique device identifier (UID based on 96 bits)
 507:../Drivers/STM32N6xx_HAL_Driver/Src/stm32n6xx_hal.c ****   * @note   The application must ensures that SYSCFG clock is enabled.
 508:../Drivers/STM32N6xx_HAL_Driver/Src/stm32n6xx_hal.c ****   * @retval Device identifier
 509:../Drivers/STM32N6xx_HAL_Driver/Src/stm32n6xx_hal.c ****   */
 510:../Drivers/STM32N6xx_HAL_Driver/Src/stm32n6xx_hal.c **** uint32_t HAL_GetUIDw2(void)
 511:../Drivers/STM32N6xx_HAL_Driver/Src/stm32n6xx_hal.c **** {
 732              		.loc 1 511 1 is_stmt 1 view -0
 733              		.cfi_startproc
 734              		@ args = 0, pretend = 0, frame = 0
 735              		@ frame_needed = 0, uses_anonymous_args = 0
 736              		@ link register save eliminated.
 512:../Drivers/STM32N6xx_HAL_Driver/Src/stm32n6xx_hal.c ****   return (READ_REG(*((uint32_t *)(UID_BASE + 8U))));
 737              		.loc 1 512 3 view .LVU153
 513:../Drivers/STM32N6xx_HAL_Driver/Src/stm32n6xx_hal.c **** }
 738              		.loc 1 513 1 is_stmt 0 view .LVU154
 739 0000 014B     		ldr	r3, .L65
 740 0002 D869     		ldr	r0, [r3, #28]
 741 0004 7047     		bx	lr
 742              	.L66:
 743 0006 00BF     		.align	2
 744              	.L65:
 745 0008 00900056 		.word	1442877440
 746              		.cfi_endproc
 747              	.LFE899:
 749              		.section	.text.HAL_DBGMCU_EnableDBGSleepMode,"ax",%progbits
 750              		.align	1
 751              		.global	HAL_DBGMCU_EnableDBGSleepMode
 752              		.syntax unified
 753              		.thumb
 754              		.thumb_func
 756              	HAL_DBGMCU_EnableDBGSleepMode:
 757              	.LFB900:
 514:../Drivers/STM32N6xx_HAL_Driver/Src/stm32n6xx_hal.c **** 
 515:../Drivers/STM32N6xx_HAL_Driver/Src/stm32n6xx_hal.c **** /**
ARM GAS  /tmp/ccvdUNht.s 			page 24


 516:../Drivers/STM32N6xx_HAL_Driver/Src/stm32n6xx_hal.c ****   * @}
 517:../Drivers/STM32N6xx_HAL_Driver/Src/stm32n6xx_hal.c ****   */
 518:../Drivers/STM32N6xx_HAL_Driver/Src/stm32n6xx_hal.c **** 
 519:../Drivers/STM32N6xx_HAL_Driver/Src/stm32n6xx_hal.c **** /** @defgroup HAL_Exported_Functions_Group3 HAL Debug functions
 520:../Drivers/STM32N6xx_HAL_Driver/Src/stm32n6xx_hal.c ****   *  @brief    HAL Debug functions
 521:../Drivers/STM32N6xx_HAL_Driver/Src/stm32n6xx_hal.c ****   *
 522:../Drivers/STM32N6xx_HAL_Driver/Src/stm32n6xx_hal.c **** @verbatim
 523:../Drivers/STM32N6xx_HAL_Driver/Src/stm32n6xx_hal.c ****  ===============================================================================
 524:../Drivers/STM32N6xx_HAL_Driver/Src/stm32n6xx_hal.c ****                       ##### HAL Debug functions #####
 525:../Drivers/STM32N6xx_HAL_Driver/Src/stm32n6xx_hal.c ****  ===============================================================================
 526:../Drivers/STM32N6xx_HAL_Driver/Src/stm32n6xx_hal.c ****     [..]  This section provides functions allowing to:
 527:../Drivers/STM32N6xx_HAL_Driver/Src/stm32n6xx_hal.c ****       (+) Enable/Disable Debug module during Sleep mode
 528:../Drivers/STM32N6xx_HAL_Driver/Src/stm32n6xx_hal.c ****       (+) Enable/Disable Debug module during Stop modes
 529:../Drivers/STM32N6xx_HAL_Driver/Src/stm32n6xx_hal.c ****       (+) Enable/Disable Debug module during Stanby mode
 530:../Drivers/STM32N6xx_HAL_Driver/Src/stm32n6xx_hal.c **** 
 531:../Drivers/STM32N6xx_HAL_Driver/Src/stm32n6xx_hal.c **** @endverbatim
 532:../Drivers/STM32N6xx_HAL_Driver/Src/stm32n6xx_hal.c ****   * @{
 533:../Drivers/STM32N6xx_HAL_Driver/Src/stm32n6xx_hal.c ****   */
 534:../Drivers/STM32N6xx_HAL_Driver/Src/stm32n6xx_hal.c **** 
 535:../Drivers/STM32N6xx_HAL_Driver/Src/stm32n6xx_hal.c **** /**
 536:../Drivers/STM32N6xx_HAL_Driver/Src/stm32n6xx_hal.c ****   * @brief  Enable the Debug Module during Sleep mode.
 537:../Drivers/STM32N6xx_HAL_Driver/Src/stm32n6xx_hal.c ****   * @retval None
 538:../Drivers/STM32N6xx_HAL_Driver/Src/stm32n6xx_hal.c ****   */
 539:../Drivers/STM32N6xx_HAL_Driver/Src/stm32n6xx_hal.c **** void HAL_DBGMCU_EnableDBGSleepMode(void)
 540:../Drivers/STM32N6xx_HAL_Driver/Src/stm32n6xx_hal.c **** {
 758              		.loc 1 540 1 is_stmt 1 view -0
 759              		.cfi_startproc
 760              		@ args = 0, pretend = 0, frame = 0
 761              		@ frame_needed = 0, uses_anonymous_args = 0
 762              		@ link register save eliminated.
 541:../Drivers/STM32N6xx_HAL_Driver/Src/stm32n6xx_hal.c ****   SET_BIT(DBGMCU->CR, DBGMCU_CR_DBG_SLEEP);
 763              		.loc 1 541 3 view .LVU156
 764 0000 024A     		ldr	r2, .L68
 765 0002 5368     		ldr	r3, [r2, #4]
 766 0004 43F00103 		orr	r3, r3, #1
 767 0008 5360     		str	r3, [r2, #4]
 542:../Drivers/STM32N6xx_HAL_Driver/Src/stm32n6xx_hal.c **** }
 768              		.loc 1 542 1 is_stmt 0 view .LVU157
 769 000a 7047     		bx	lr
 770              	.L69:
 771              		.align	2
 772              	.L68:
 773 000c 00100054 		.word	1409290240
 774              		.cfi_endproc
 775              	.LFE900:
 777              		.section	.text.HAL_DBGMCU_DisableDBGSleepMode,"ax",%progbits
 778              		.align	1
 779              		.global	HAL_DBGMCU_DisableDBGSleepMode
 780              		.syntax unified
 781              		.thumb
 782              		.thumb_func
 784              	HAL_DBGMCU_DisableDBGSleepMode:
 785              	.LFB901:
 543:../Drivers/STM32N6xx_HAL_Driver/Src/stm32n6xx_hal.c **** 
 544:../Drivers/STM32N6xx_HAL_Driver/Src/stm32n6xx_hal.c **** /**
 545:../Drivers/STM32N6xx_HAL_Driver/Src/stm32n6xx_hal.c ****   * @brief  Disable the Debug Module during Sleep mode.
 546:../Drivers/STM32N6xx_HAL_Driver/Src/stm32n6xx_hal.c ****   * @retval None
ARM GAS  /tmp/ccvdUNht.s 			page 25


 547:../Drivers/STM32N6xx_HAL_Driver/Src/stm32n6xx_hal.c ****   */
 548:../Drivers/STM32N6xx_HAL_Driver/Src/stm32n6xx_hal.c **** void HAL_DBGMCU_DisableDBGSleepMode(void)
 549:../Drivers/STM32N6xx_HAL_Driver/Src/stm32n6xx_hal.c **** {
 786              		.loc 1 549 1 is_stmt 1 view -0
 787              		.cfi_startproc
 788              		@ args = 0, pretend = 0, frame = 0
 789              		@ frame_needed = 0, uses_anonymous_args = 0
 790              		@ link register save eliminated.
 550:../Drivers/STM32N6xx_HAL_Driver/Src/stm32n6xx_hal.c ****   CLEAR_BIT(DBGMCU->CR, DBGMCU_CR_DBG_SLEEP);
 791              		.loc 1 550 3 view .LVU159
 792 0000 024A     		ldr	r2, .L71
 793 0002 5368     		ldr	r3, [r2, #4]
 794 0004 23F00103 		bic	r3, r3, #1
 795 0008 5360     		str	r3, [r2, #4]
 551:../Drivers/STM32N6xx_HAL_Driver/Src/stm32n6xx_hal.c **** }
 796              		.loc 1 551 1 is_stmt 0 view .LVU160
 797 000a 7047     		bx	lr
 798              	.L72:
 799              		.align	2
 800              	.L71:
 801 000c 00100054 		.word	1409290240
 802              		.cfi_endproc
 803              	.LFE901:
 805              		.section	.text.HAL_DBGMCU_EnableDBGStopMode,"ax",%progbits
 806              		.align	1
 807              		.global	HAL_DBGMCU_EnableDBGStopMode
 808              		.syntax unified
 809              		.thumb
 810              		.thumb_func
 812              	HAL_DBGMCU_EnableDBGStopMode:
 813              	.LFB902:
 552:../Drivers/STM32N6xx_HAL_Driver/Src/stm32n6xx_hal.c **** 
 553:../Drivers/STM32N6xx_HAL_Driver/Src/stm32n6xx_hal.c **** /**
 554:../Drivers/STM32N6xx_HAL_Driver/Src/stm32n6xx_hal.c ****   * @brief  Enable the Debug Module during Stop mode.
 555:../Drivers/STM32N6xx_HAL_Driver/Src/stm32n6xx_hal.c ****   * @retval None
 556:../Drivers/STM32N6xx_HAL_Driver/Src/stm32n6xx_hal.c ****   */
 557:../Drivers/STM32N6xx_HAL_Driver/Src/stm32n6xx_hal.c **** void HAL_DBGMCU_EnableDBGStopMode(void)
 558:../Drivers/STM32N6xx_HAL_Driver/Src/stm32n6xx_hal.c **** {
 814              		.loc 1 558 1 is_stmt 1 view -0
 815              		.cfi_startproc
 816              		@ args = 0, pretend = 0, frame = 0
 817              		@ frame_needed = 0, uses_anonymous_args = 0
 818              		@ link register save eliminated.
 559:../Drivers/STM32N6xx_HAL_Driver/Src/stm32n6xx_hal.c ****   SET_BIT(DBGMCU->CR, DBGMCU_CR_DBG_STOP);
 819              		.loc 1 559 3 view .LVU162
 820 0000 024A     		ldr	r2, .L74
 821 0002 5368     		ldr	r3, [r2, #4]
 822 0004 43F00203 		orr	r3, r3, #2
 823 0008 5360     		str	r3, [r2, #4]
 560:../Drivers/STM32N6xx_HAL_Driver/Src/stm32n6xx_hal.c **** }
 824              		.loc 1 560 1 is_stmt 0 view .LVU163
 825 000a 7047     		bx	lr
 826              	.L75:
 827              		.align	2
 828              	.L74:
 829 000c 00100054 		.word	1409290240
 830              		.cfi_endproc
ARM GAS  /tmp/ccvdUNht.s 			page 26


 831              	.LFE902:
 833              		.section	.text.HAL_DBGMCU_DisableDBGStopMode,"ax",%progbits
 834              		.align	1
 835              		.global	HAL_DBGMCU_DisableDBGStopMode
 836              		.syntax unified
 837              		.thumb
 838              		.thumb_func
 840              	HAL_DBGMCU_DisableDBGStopMode:
 841              	.LFB903:
 561:../Drivers/STM32N6xx_HAL_Driver/Src/stm32n6xx_hal.c **** 
 562:../Drivers/STM32N6xx_HAL_Driver/Src/stm32n6xx_hal.c **** /**
 563:../Drivers/STM32N6xx_HAL_Driver/Src/stm32n6xx_hal.c ****   * @brief  Disable the Debug Module during Stop mode.
 564:../Drivers/STM32N6xx_HAL_Driver/Src/stm32n6xx_hal.c ****   * @retval None
 565:../Drivers/STM32N6xx_HAL_Driver/Src/stm32n6xx_hal.c ****   */
 566:../Drivers/STM32N6xx_HAL_Driver/Src/stm32n6xx_hal.c **** void HAL_DBGMCU_DisableDBGStopMode(void)
 567:../Drivers/STM32N6xx_HAL_Driver/Src/stm32n6xx_hal.c **** {
 842              		.loc 1 567 1 is_stmt 1 view -0
 843              		.cfi_startproc
 844              		@ args = 0, pretend = 0, frame = 0
 845              		@ frame_needed = 0, uses_anonymous_args = 0
 846              		@ link register save eliminated.
 568:../Drivers/STM32N6xx_HAL_Driver/Src/stm32n6xx_hal.c ****   CLEAR_BIT(DBGMCU->CR, DBGMCU_CR_DBG_STOP);
 847              		.loc 1 568 3 view .LVU165
 848 0000 024A     		ldr	r2, .L77
 849 0002 5368     		ldr	r3, [r2, #4]
 850 0004 23F00203 		bic	r3, r3, #2
 851 0008 5360     		str	r3, [r2, #4]
 569:../Drivers/STM32N6xx_HAL_Driver/Src/stm32n6xx_hal.c **** }
 852              		.loc 1 569 1 is_stmt 0 view .LVU166
 853 000a 7047     		bx	lr
 854              	.L78:
 855              		.align	2
 856              	.L77:
 857 000c 00100054 		.word	1409290240
 858              		.cfi_endproc
 859              	.LFE903:
 861              		.section	.text.HAL_DBGMCU_EnableDBGStandbyMode,"ax",%progbits
 862              		.align	1
 863              		.global	HAL_DBGMCU_EnableDBGStandbyMode
 864              		.syntax unified
 865              		.thumb
 866              		.thumb_func
 868              	HAL_DBGMCU_EnableDBGStandbyMode:
 869              	.LFB904:
 570:../Drivers/STM32N6xx_HAL_Driver/Src/stm32n6xx_hal.c **** 
 571:../Drivers/STM32N6xx_HAL_Driver/Src/stm32n6xx_hal.c **** /**
 572:../Drivers/STM32N6xx_HAL_Driver/Src/stm32n6xx_hal.c ****   * @brief  Enable the Debug Module during Stanby mode.
 573:../Drivers/STM32N6xx_HAL_Driver/Src/stm32n6xx_hal.c ****   * @retval None
 574:../Drivers/STM32N6xx_HAL_Driver/Src/stm32n6xx_hal.c ****   */
 575:../Drivers/STM32N6xx_HAL_Driver/Src/stm32n6xx_hal.c **** void HAL_DBGMCU_EnableDBGStandbyMode(void)
 576:../Drivers/STM32N6xx_HAL_Driver/Src/stm32n6xx_hal.c **** {
 870              		.loc 1 576 1 is_stmt 1 view -0
 871              		.cfi_startproc
 872              		@ args = 0, pretend = 0, frame = 0
 873              		@ frame_needed = 0, uses_anonymous_args = 0
 874              		@ link register save eliminated.
 577:../Drivers/STM32N6xx_HAL_Driver/Src/stm32n6xx_hal.c ****   SET_BIT(DBGMCU->CR, DBGMCU_CR_DBG_STANDBY);
ARM GAS  /tmp/ccvdUNht.s 			page 27


 875              		.loc 1 577 3 view .LVU168
 876 0000 024A     		ldr	r2, .L80
 877 0002 5368     		ldr	r3, [r2, #4]
 878 0004 43F00403 		orr	r3, r3, #4
 879 0008 5360     		str	r3, [r2, #4]
 578:../Drivers/STM32N6xx_HAL_Driver/Src/stm32n6xx_hal.c **** }
 880              		.loc 1 578 1 is_stmt 0 view .LVU169
 881 000a 7047     		bx	lr
 882              	.L81:
 883              		.align	2
 884              	.L80:
 885 000c 00100054 		.word	1409290240
 886              		.cfi_endproc
 887              	.LFE904:
 889              		.section	.text.HAL_DBGMCU_DisableDBGStandbyMode,"ax",%progbits
 890              		.align	1
 891              		.global	HAL_DBGMCU_DisableDBGStandbyMode
 892              		.syntax unified
 893              		.thumb
 894              		.thumb_func
 896              	HAL_DBGMCU_DisableDBGStandbyMode:
 897              	.LFB905:
 579:../Drivers/STM32N6xx_HAL_Driver/Src/stm32n6xx_hal.c **** 
 580:../Drivers/STM32N6xx_HAL_Driver/Src/stm32n6xx_hal.c **** /**
 581:../Drivers/STM32N6xx_HAL_Driver/Src/stm32n6xx_hal.c ****   * @brief  Disable the Debug Module during Stanby mode.
 582:../Drivers/STM32N6xx_HAL_Driver/Src/stm32n6xx_hal.c ****   * @retval None
 583:../Drivers/STM32N6xx_HAL_Driver/Src/stm32n6xx_hal.c ****   */
 584:../Drivers/STM32N6xx_HAL_Driver/Src/stm32n6xx_hal.c **** void HAL_DBGMCU_DisableDBGStandbyMode(void)
 585:../Drivers/STM32N6xx_HAL_Driver/Src/stm32n6xx_hal.c **** {
 898              		.loc 1 585 1 is_stmt 1 view -0
 899              		.cfi_startproc
 900              		@ args = 0, pretend = 0, frame = 0
 901              		@ frame_needed = 0, uses_anonymous_args = 0
 902              		@ link register save eliminated.
 586:../Drivers/STM32N6xx_HAL_Driver/Src/stm32n6xx_hal.c ****   CLEAR_BIT(DBGMCU->CR, DBGMCU_CR_DBG_STANDBY);
 903              		.loc 1 586 3 view .LVU171
 904 0000 024A     		ldr	r2, .L83
 905 0002 5368     		ldr	r3, [r2, #4]
 906 0004 23F00403 		bic	r3, r3, #4
 907 0008 5360     		str	r3, [r2, #4]
 587:../Drivers/STM32N6xx_HAL_Driver/Src/stm32n6xx_hal.c **** }
 908              		.loc 1 587 1 is_stmt 0 view .LVU172
 909 000a 7047     		bx	lr
 910              	.L84:
 911              		.align	2
 912              	.L83:
 913 000c 00100054 		.word	1409290240
 914              		.cfi_endproc
 915              	.LFE905:
 917              		.section	.text.HAL_SYSCFG_EnablePullDown,"ax",%progbits
 918              		.align	1
 919              		.global	HAL_SYSCFG_EnablePullDown
 920              		.syntax unified
 921              		.thumb
 922              		.thumb_func
 924              	HAL_SYSCFG_EnablePullDown:
 925              	.LVL24:
ARM GAS  /tmp/ccvdUNht.s 			page 28


 926              	.LFB906:
 588:../Drivers/STM32N6xx_HAL_Driver/Src/stm32n6xx_hal.c **** 
 589:../Drivers/STM32N6xx_HAL_Driver/Src/stm32n6xx_hal.c **** /**
 590:../Drivers/STM32N6xx_HAL_Driver/Src/stm32n6xx_hal.c ****   * @}
 591:../Drivers/STM32N6xx_HAL_Driver/Src/stm32n6xx_hal.c ****   */
 592:../Drivers/STM32N6xx_HAL_Driver/Src/stm32n6xx_hal.c **** 
 593:../Drivers/STM32N6xx_HAL_Driver/Src/stm32n6xx_hal.c **** /** @defgroup HAL_Exported_Functions_Group4 HAL SYSCFG configuration functions
 594:../Drivers/STM32N6xx_HAL_Driver/Src/stm32n6xx_hal.c ****   *  @brief    HAL SYSCFG configuration functions
 595:../Drivers/STM32N6xx_HAL_Driver/Src/stm32n6xx_hal.c ****   *
 596:../Drivers/STM32N6xx_HAL_Driver/Src/stm32n6xx_hal.c **** @verbatim
 597:../Drivers/STM32N6xx_HAL_Driver/Src/stm32n6xx_hal.c ****  ===============================================================================
 598:../Drivers/STM32N6xx_HAL_Driver/Src/stm32n6xx_hal.c ****                       ##### HAL SYSCFG configuration functions #####
 599:../Drivers/STM32N6xx_HAL_Driver/Src/stm32n6xx_hal.c ****  ===============================================================================
 600:../Drivers/STM32N6xx_HAL_Driver/Src/stm32n6xx_hal.c ****     [..]  This section provides functions allowing to:
 601:../Drivers/STM32N6xx_HAL_Driver/Src/stm32n6xx_hal.c ****       (+) Enable or disable BOOT pins pull-down.
 602:../Drivers/STM32N6xx_HAL_Driver/Src/stm32n6xx_hal.c ****       (+) Lock and get locks status of system items.
 603:../Drivers/STM32N6xx_HAL_Driver/Src/stm32n6xx_hal.c ****       (+) Set (and get) TCM size and DTCM size.
 604:../Drivers/STM32N6xx_HAL_Driver/Src/stm32n6xx_hal.c ****       (+) Lock (and get) write accesses.
 605:../Drivers/STM32N6xx_HAL_Driver/Src/stm32n6xx_hal.c ****       (+) Enable or disable wait state on extended ITCM and DTCM.
 606:../Drivers/STM32N6xx_HAL_Driver/Src/stm32n6xx_hal.c ****       (+) Enable or disable external RW margin input for TCM memories.
 607:../Drivers/STM32N6xx_HAL_Driver/Src/stm32n6xx_hal.c ****       (+) Set and get the TCM biasing level.
 608:../Drivers/STM32N6xx_HAL_Driver/Src/stm32n6xx_hal.c ****       (+) Enable or disable the external RW for caches memories.
 609:../Drivers/STM32N6xx_HAL_Driver/Src/stm32n6xx_hal.c ****       (+) Set and get the cache biasing level.
 610:../Drivers/STM32N6xx_HAL_Driver/Src/stm32n6xx_hal.c ****       (+) Enable or disable the Power-on reset upon SW system request.
 611:../Drivers/STM32N6xx_HAL_Driver/Src/stm32n6xx_hal.c ****       (+) Enable or disable that Lockup requests a warm reset to the RCC
 612:../Drivers/STM32N6xx_HAL_Driver/Src/stm32n6xx_hal.c ****       (+) Enable or disable that Lockup generates a NMI on the core
 613:../Drivers/STM32N6xx_HAL_Driver/Src/stm32n6xx_hal.c ****       (+) Clear Error capture in write posting buffer
 614:../Drivers/STM32N6xx_HAL_Driver/Src/stm32n6xx_hal.c ****       (+) Reserve VENCRAM for VENC or release it (any use allowed)
 615:../Drivers/STM32N6xx_HAL_Driver/Src/stm32n6xx_hal.c ****       (+) Enable or disable PKA, SAES, CRYP1/2 and HASH reset in case of potential tamper
 616:../Drivers/STM32N6xx_HAL_Driver/Src/stm32n6xx_hal.c ****       (+) Set/Get write/read Qos for NP1, NP2 or CPU.
 617:../Drivers/STM32N6xx_HAL_Driver/Src/stm32n6xx_hal.c ****       (+) Enable or disable SDMMC early-write response.
 618:../Drivers/STM32N6xx_HAL_Driver/Src/stm32n6xx_hal.c ****       (+) Enable or disable USB early-write response.
 619:../Drivers/STM32N6xx_HAL_Driver/Src/stm32n6xx_hal.c ****       (+) Enable or disable the NPU NIC, NPU NOC or CPU NOC clock gating.
 620:../Drivers/STM32N6xx_HAL_Driver/Src/stm32n6xx_hal.c ****       (+) Enable or disable the VDDIOx compensation cell.
 621:../Drivers/STM32N6xx_HAL_Driver/Src/stm32n6xx_hal.c ****       (+) Configure or get VDDIOx compensation cells.
 622:../Drivers/STM32N6xx_HAL_Driver/Src/stm32n6xx_hal.c ****       (+) Get VDDIOx compensation ready status.
 623:../Drivers/STM32N6xx_HAL_Driver/Src/stm32n6xx_hal.c ****       (+) Enable or disable the VDD compensation cell.
 624:../Drivers/STM32N6xx_HAL_Driver/Src/stm32n6xx_hal.c ****       (+) Configure or get VDD compensation cells.
 625:../Drivers/STM32N6xx_HAL_Driver/Src/stm32n6xx_hal.c ****       (+) Configure or get the Timer Break input for error flag
 626:../Drivers/STM32N6xx_HAL_Driver/Src/stm32n6xx_hal.c ****       (+) Set and get secure OS allocation of specific CID to the DMA channel
 627:../Drivers/STM32N6xx_HAL_Driver/Src/stm32n6xx_hal.c ****       (+) Set and get non-secure OS allocation of specific CID to the DMA channel
 628:../Drivers/STM32N6xx_HAL_Driver/Src/stm32n6xx_hal.c ****       (+) Enable or disable Retiming on RX path.
 629:../Drivers/STM32N6xx_HAL_Driver/Src/stm32n6xx_hal.c ****       (+) Enable or disable Retiming on TX path.
 630:../Drivers/STM32N6xx_HAL_Driver/Src/stm32n6xx_hal.c ****       (+) Set and get Delay on feedback clock.
 631:../Drivers/STM32N6xx_HAL_Driver/Src/stm32n6xx_hal.c ****       (+) Enable or disable the interleaving on NPU RAM.
 632:../Drivers/STM32N6xx_HAL_Driver/Src/stm32n6xx_hal.c ****       (+) Get BOOT pin connection status
 633:../Drivers/STM32N6xx_HAL_Driver/Src/stm32n6xx_hal.c ****       (+) Get the address of first error in P-AHB write-posting buffer
 634:../Drivers/STM32N6xx_HAL_Driver/Src/stm32n6xx_hal.c **** 
 635:../Drivers/STM32N6xx_HAL_Driver/Src/stm32n6xx_hal.c **** @endverbatim
 636:../Drivers/STM32N6xx_HAL_Driver/Src/stm32n6xx_hal.c ****   * @{
 637:../Drivers/STM32N6xx_HAL_Driver/Src/stm32n6xx_hal.c ****   */
 638:../Drivers/STM32N6xx_HAL_Driver/Src/stm32n6xx_hal.c **** 
 639:../Drivers/STM32N6xx_HAL_Driver/Src/stm32n6xx_hal.c **** /**
 640:../Drivers/STM32N6xx_HAL_Driver/Src/stm32n6xx_hal.c ****   * @brief  Enable the Pull Down on BOOT pin.
 641:../Drivers/STM32N6xx_HAL_Driver/Src/stm32n6xx_hal.c ****   * @param  BootId Specifies the boot pins.
 642:../Drivers/STM32N6xx_HAL_Driver/Src/stm32n6xx_hal.c ****   *         This parameter can one of the following values:
 643:../Drivers/STM32N6xx_HAL_Driver/Src/stm32n6xx_hal.c ****   *            @arg SYSCFG_BOOT_0 boot 0 pin
ARM GAS  /tmp/ccvdUNht.s 			page 29


 644:../Drivers/STM32N6xx_HAL_Driver/Src/stm32n6xx_hal.c ****   *            @arg SYSCFG_BOOT_1 boot 1 pin
 645:../Drivers/STM32N6xx_HAL_Driver/Src/stm32n6xx_hal.c ****   * @retval None
 646:../Drivers/STM32N6xx_HAL_Driver/Src/stm32n6xx_hal.c ****   */
 647:../Drivers/STM32N6xx_HAL_Driver/Src/stm32n6xx_hal.c **** void HAL_SYSCFG_EnablePullDown(uint32_t BootId)
 648:../Drivers/STM32N6xx_HAL_Driver/Src/stm32n6xx_hal.c **** {
 927              		.loc 1 648 1 is_stmt 1 view -0
 928              		.cfi_startproc
 929              		@ args = 0, pretend = 0, frame = 0
 930              		@ frame_needed = 0, uses_anonymous_args = 0
 931              		@ link register save eliminated.
 649:../Drivers/STM32N6xx_HAL_Driver/Src/stm32n6xx_hal.c ****   /* Check the parameters */
 650:../Drivers/STM32N6xx_HAL_Driver/Src/stm32n6xx_hal.c ****   assert_param(IS_SYSCFG_BOOT_ID(BootId));
 932              		.loc 1 650 3 view .LVU174
 651:../Drivers/STM32N6xx_HAL_Driver/Src/stm32n6xx_hal.c **** 
 652:../Drivers/STM32N6xx_HAL_Driver/Src/stm32n6xx_hal.c ****   SET_BIT(SYSCFG->BOOTCR, BootId);
 933              		.loc 1 652 3 view .LVU175
 934 0000 024A     		ldr	r2, .L86
 935 0002 1368     		ldr	r3, [r2]
 936 0004 0343     		orrs	r3, r3, r0
 937 0006 1360     		str	r3, [r2]
 653:../Drivers/STM32N6xx_HAL_Driver/Src/stm32n6xx_hal.c **** }
 938              		.loc 1 653 1 is_stmt 0 view .LVU176
 939 0008 7047     		bx	lr
 940              	.L87:
 941 000a 00BF     		.align	2
 942              	.L86:
 943 000c 00800056 		.word	1442873344
 944              		.cfi_endproc
 945              	.LFE906:
 947              		.section	.text.HAL_SYSCFG_DisablePullDown,"ax",%progbits
 948              		.align	1
 949              		.global	HAL_SYSCFG_DisablePullDown
 950              		.syntax unified
 951              		.thumb
 952              		.thumb_func
 954              	HAL_SYSCFG_DisablePullDown:
 955              	.LVL25:
 956              	.LFB907:
 654:../Drivers/STM32N6xx_HAL_Driver/Src/stm32n6xx_hal.c **** 
 655:../Drivers/STM32N6xx_HAL_Driver/Src/stm32n6xx_hal.c **** /**
 656:../Drivers/STM32N6xx_HAL_Driver/Src/stm32n6xx_hal.c ****   * @brief  Disable the Pull Down on BOOT pin.
 657:../Drivers/STM32N6xx_HAL_Driver/Src/stm32n6xx_hal.c ****   * @param  BootId Specifies the boot pins.
 658:../Drivers/STM32N6xx_HAL_Driver/Src/stm32n6xx_hal.c ****   *         This parameter can one of the following values:
 659:../Drivers/STM32N6xx_HAL_Driver/Src/stm32n6xx_hal.c ****   *            @arg SYSCFG_BOOT_0 boot 0 pin
 660:../Drivers/STM32N6xx_HAL_Driver/Src/stm32n6xx_hal.c ****   *            @arg SYSCFG_BOOT_1 boot 1 pin
 661:../Drivers/STM32N6xx_HAL_Driver/Src/stm32n6xx_hal.c ****   * @retval None
 662:../Drivers/STM32N6xx_HAL_Driver/Src/stm32n6xx_hal.c ****   */
 663:../Drivers/STM32N6xx_HAL_Driver/Src/stm32n6xx_hal.c **** void HAL_SYSCFG_DisablePullDown(uint32_t BootId)
 664:../Drivers/STM32N6xx_HAL_Driver/Src/stm32n6xx_hal.c **** {
 957              		.loc 1 664 1 is_stmt 1 view -0
 958              		.cfi_startproc
 959              		@ args = 0, pretend = 0, frame = 0
 960              		@ frame_needed = 0, uses_anonymous_args = 0
 961              		@ link register save eliminated.
 665:../Drivers/STM32N6xx_HAL_Driver/Src/stm32n6xx_hal.c ****   /* Check the parameters */
 666:../Drivers/STM32N6xx_HAL_Driver/Src/stm32n6xx_hal.c ****   assert_param(IS_SYSCFG_BOOT_ID(BootId));
 962              		.loc 1 666 3 view .LVU178
ARM GAS  /tmp/ccvdUNht.s 			page 30


 667:../Drivers/STM32N6xx_HAL_Driver/Src/stm32n6xx_hal.c **** 
 668:../Drivers/STM32N6xx_HAL_Driver/Src/stm32n6xx_hal.c ****   CLEAR_BIT(SYSCFG->BOOTCR, BootId);
 963              		.loc 1 668 3 view .LVU179
 964 0000 024A     		ldr	r2, .L89
 965 0002 1368     		ldr	r3, [r2]
 966 0004 23EA0003 		bic	r3, r3, r0
 967 0008 1360     		str	r3, [r2]
 669:../Drivers/STM32N6xx_HAL_Driver/Src/stm32n6xx_hal.c **** }
 968              		.loc 1 669 1 is_stmt 0 view .LVU180
 969 000a 7047     		bx	lr
 970              	.L90:
 971              		.align	2
 972              	.L89:
 973 000c 00800056 		.word	1442873344
 974              		.cfi_endproc
 975              	.LFE907:
 977              		.section	.text.HAL_SYSCFG_Lock,"ax",%progbits
 978              		.align	1
 979              		.global	HAL_SYSCFG_Lock
 980              		.syntax unified
 981              		.thumb
 982              		.thumb_func
 984              	HAL_SYSCFG_Lock:
 985              	.LVL26:
 986              	.LFB908:
 670:../Drivers/STM32N6xx_HAL_Driver/Src/stm32n6xx_hal.c **** 
 671:../Drivers/STM32N6xx_HAL_Driver/Src/stm32n6xx_hal.c **** /**
 672:../Drivers/STM32N6xx_HAL_Driver/Src/stm32n6xx_hal.c ****   * @brief  Lock the SYSCFG item(s).
 673:../Drivers/STM32N6xx_HAL_Driver/Src/stm32n6xx_hal.c ****   * @note   Lock(s) cleared only at system reset
 674:../Drivers/STM32N6xx_HAL_Driver/Src/stm32n6xx_hal.c ****   * @param  Item Item(s) to set lock on.
 675:../Drivers/STM32N6xx_HAL_Driver/Src/stm32n6xx_hal.c ****   *         This parameter can be a combination of @ref SYSCFG_Lock_items
 676:../Drivers/STM32N6xx_HAL_Driver/Src/stm32n6xx_hal.c ****   * @retval None
 677:../Drivers/STM32N6xx_HAL_Driver/Src/stm32n6xx_hal.c ****   */
 678:../Drivers/STM32N6xx_HAL_Driver/Src/stm32n6xx_hal.c **** void HAL_SYSCFG_Lock(uint32_t Item)
 679:../Drivers/STM32N6xx_HAL_Driver/Src/stm32n6xx_hal.c **** {
 987              		.loc 1 679 1 is_stmt 1 view -0
 988              		.cfi_startproc
 989              		@ args = 0, pretend = 0, frame = 0
 990              		@ frame_needed = 0, uses_anonymous_args = 0
 991              		@ link register save eliminated.
 680:../Drivers/STM32N6xx_HAL_Driver/Src/stm32n6xx_hal.c ****   /* Check the parameters */
 681:../Drivers/STM32N6xx_HAL_Driver/Src/stm32n6xx_hal.c ****   assert_param(IS_SYSCFG_LOCK_ITEMS(Item));
 992              		.loc 1 681 3 view .LVU182
 682:../Drivers/STM32N6xx_HAL_Driver/Src/stm32n6xx_hal.c **** 
 683:../Drivers/STM32N6xx_HAL_Driver/Src/stm32n6xx_hal.c ****   MODIFY_REG(SYSCFG->CM55CR, SYSCFG_LOCK_ALL, Item);
 993              		.loc 1 683 3 view .LVU183
 994 0000 034A     		ldr	r2, .L92
 995 0002 5368     		ldr	r3, [r2, #4]
 996 0004 23F47C13 		bic	r3, r3, #4128768
 997 0008 0343     		orrs	r3, r3, r0
 998 000a 5360     		str	r3, [r2, #4]
 684:../Drivers/STM32N6xx_HAL_Driver/Src/stm32n6xx_hal.c **** }
 999              		.loc 1 684 1 is_stmt 0 view .LVU184
 1000 000c 7047     		bx	lr
 1001              	.L93:
 1002 000e 00BF     		.align	2
 1003              	.L92:
ARM GAS  /tmp/ccvdUNht.s 			page 31


 1004 0010 00800056 		.word	1442873344
 1005              		.cfi_endproc
 1006              	.LFE908:
 1008              		.section	.text.HAL_SYSCFG_GetLock,"ax",%progbits
 1009              		.align	1
 1010              		.global	HAL_SYSCFG_GetLock
 1011              		.syntax unified
 1012              		.thumb
 1013              		.thumb_func
 1015              	HAL_SYSCFG_GetLock:
 1016              	.LVL27:
 1017              	.LFB909:
 685:../Drivers/STM32N6xx_HAL_Driver/Src/stm32n6xx_hal.c **** 
 686:../Drivers/STM32N6xx_HAL_Driver/Src/stm32n6xx_hal.c **** /**
 687:../Drivers/STM32N6xx_HAL_Driver/Src/stm32n6xx_hal.c ****   * @brief  Get the lock state of SYSCFG item.
 688:../Drivers/STM32N6xx_HAL_Driver/Src/stm32n6xx_hal.c ****   * @param  pItem Pointer to return locked items
 689:../Drivers/STM32N6xx_HAL_Driver/Src/stm32n6xx_hal.c ****   *         the return value can be a combination of @ref SYSCFG_Lock_items
 690:../Drivers/STM32N6xx_HAL_Driver/Src/stm32n6xx_hal.c ****   * @retval HAL status
 691:../Drivers/STM32N6xx_HAL_Driver/Src/stm32n6xx_hal.c ****   */
 692:../Drivers/STM32N6xx_HAL_Driver/Src/stm32n6xx_hal.c **** HAL_StatusTypeDef HAL_SYSCFG_GetLock(uint32_t *pItem)
 693:../Drivers/STM32N6xx_HAL_Driver/Src/stm32n6xx_hal.c **** {
 1018              		.loc 1 693 1 is_stmt 1 view -0
 1019              		.cfi_startproc
 1020              		@ args = 0, pretend = 0, frame = 0
 1021              		@ frame_needed = 0, uses_anonymous_args = 0
 1022              		@ link register save eliminated.
 694:../Drivers/STM32N6xx_HAL_Driver/Src/stm32n6xx_hal.c ****   /* Check null pointer */
 695:../Drivers/STM32N6xx_HAL_Driver/Src/stm32n6xx_hal.c ****   if (pItem == NULL)
 1023              		.loc 1 695 3 view .LVU186
 1024              		.loc 1 695 6 is_stmt 0 view .LVU187
 1025 0000 30B1     		cbz	r0, .L96
 696:../Drivers/STM32N6xx_HAL_Driver/Src/stm32n6xx_hal.c ****   {
 697:../Drivers/STM32N6xx_HAL_Driver/Src/stm32n6xx_hal.c ****     return HAL_ERROR;
 698:../Drivers/STM32N6xx_HAL_Driver/Src/stm32n6xx_hal.c ****   }
 699:../Drivers/STM32N6xx_HAL_Driver/Src/stm32n6xx_hal.c **** 
 700:../Drivers/STM32N6xx_HAL_Driver/Src/stm32n6xx_hal.c ****   /* Get the non-secure lock state */
 701:../Drivers/STM32N6xx_HAL_Driver/Src/stm32n6xx_hal.c ****   *pItem = READ_BIT(SYSCFG->CM55CR, SYSCFG_LOCK_ALL);
 1026              		.loc 1 701 3 is_stmt 1 view .LVU188
 1027              		.loc 1 701 12 is_stmt 0 view .LVU189
 1028 0002 044B     		ldr	r3, .L97
 1029 0004 5B68     		ldr	r3, [r3, #4]
 1030 0006 03F47C13 		and	r3, r3, #4128768
 1031              		.loc 1 701 10 view .LVU190
 1032 000a 0360     		str	r3, [r0]
 702:../Drivers/STM32N6xx_HAL_Driver/Src/stm32n6xx_hal.c **** 
 703:../Drivers/STM32N6xx_HAL_Driver/Src/stm32n6xx_hal.c ****   return HAL_OK;
 1033              		.loc 1 703 3 is_stmt 1 view .LVU191
 1034              		.loc 1 703 10 is_stmt 0 view .LVU192
 1035 000c 0020     		movs	r0, #0
 1036              	.LVL28:
 1037              		.loc 1 703 10 view .LVU193
 1038 000e 7047     		bx	lr
 1039              	.LVL29:
 1040              	.L96:
 697:../Drivers/STM32N6xx_HAL_Driver/Src/stm32n6xx_hal.c ****   }
 1041              		.loc 1 697 12 view .LVU194
 1042 0010 0120     		movs	r0, #1
ARM GAS  /tmp/ccvdUNht.s 			page 32


 1043              	.LVL30:
 704:../Drivers/STM32N6xx_HAL_Driver/Src/stm32n6xx_hal.c **** }
 1044              		.loc 1 704 1 view .LVU195
 1045 0012 7047     		bx	lr
 1046              	.L98:
 1047              		.align	2
 1048              	.L97:
 1049 0014 00800056 		.word	1442873344
 1050              		.cfi_endproc
 1051              	.LFE909:
 1053              		.section	.text.HAL_SYSCFG_SetTCMSize,"ax",%progbits
 1054              		.align	1
 1055              		.global	HAL_SYSCFG_SetTCMSize
 1056              		.syntax unified
 1057              		.thumb
 1058              		.thumb_func
 1060              	HAL_SYSCFG_SetTCMSize:
 1061              	.LVL31:
 1062              	.LFB910:
 705:../Drivers/STM32N6xx_HAL_Driver/Src/stm32n6xx_hal.c **** 
 706:../Drivers/STM32N6xx_HAL_Driver/Src/stm32n6xx_hal.c **** /**
 707:../Drivers/STM32N6xx_HAL_Driver/Src/stm32n6xx_hal.c ****   * @brief  Set the DTCM and ITCM memory sizes.
 708:../Drivers/STM32N6xx_HAL_Driver/Src/stm32n6xx_hal.c ****   * @note   Write-once TCM configuration change.
 709:../Drivers/STM32N6xx_HAL_Driver/Src/stm32n6xx_hal.c ****   * @note   Effective change applied upon new power-on reset by calling
 710:../Drivers/STM32N6xx_HAL_Driver/Src/stm32n6xx_hal.c ****   *         HAL_SYSCFG_EnablePowerOnReset() and NVIC_SystemReset()
 711:../Drivers/STM32N6xx_HAL_Driver/Src/stm32n6xx_hal.c ****   * @param  DtcmSize DTCM memory size
 712:../Drivers/STM32N6xx_HAL_Driver/Src/stm32n6xx_hal.c ****   *         This parameter can one of the following values:
 713:../Drivers/STM32N6xx_HAL_Driver/Src/stm32n6xx_hal.c ****   *            @arg SYSCFG_DTCM_128K 128K
 714:../Drivers/STM32N6xx_HAL_Driver/Src/stm32n6xx_hal.c ****   *            @arg SYSCFG_DTCM_256K 256K
 715:../Drivers/STM32N6xx_HAL_Driver/Src/stm32n6xx_hal.c ****   * @param  ItcmSize ITCM memory size
 716:../Drivers/STM32N6xx_HAL_Driver/Src/stm32n6xx_hal.c ****   *         This parameter can one of the following values:
 717:../Drivers/STM32N6xx_HAL_Driver/Src/stm32n6xx_hal.c ****   *            @arg SYSCFG_ITCM_64K  64K
 718:../Drivers/STM32N6xx_HAL_Driver/Src/stm32n6xx_hal.c ****   *            @arg SYSCFG_ITCM_128K 128K
 719:../Drivers/STM32N6xx_HAL_Driver/Src/stm32n6xx_hal.c ****   *            @arg SYSCFG_ITCM_256K 256K
 720:../Drivers/STM32N6xx_HAL_Driver/Src/stm32n6xx_hal.c ****   * @retval None
 721:../Drivers/STM32N6xx_HAL_Driver/Src/stm32n6xx_hal.c ****   */
 722:../Drivers/STM32N6xx_HAL_Driver/Src/stm32n6xx_hal.c **** void HAL_SYSCFG_SetTCMSize(uint32_t DtcmSize, uint32_t ItcmSize)
 723:../Drivers/STM32N6xx_HAL_Driver/Src/stm32n6xx_hal.c **** {
 1063              		.loc 1 723 1 is_stmt 1 view -0
 1064              		.cfi_startproc
 1065              		@ args = 0, pretend = 0, frame = 0
 1066              		@ frame_needed = 0, uses_anonymous_args = 0
 1067              		@ link register save eliminated.
 724:../Drivers/STM32N6xx_HAL_Driver/Src/stm32n6xx_hal.c ****   /* Check the parameters */
 725:../Drivers/STM32N6xx_HAL_Driver/Src/stm32n6xx_hal.c ****   assert_param(IS_SYSCFG_DTCM_SIZE(DtcmSize));
 1068              		.loc 1 725 3 view .LVU197
 726:../Drivers/STM32N6xx_HAL_Driver/Src/stm32n6xx_hal.c ****   assert_param(IS_SYSCFG_ITCM_SIZE(ItcmSize));
 1069              		.loc 1 726 3 view .LVU198
 727:../Drivers/STM32N6xx_HAL_Driver/Src/stm32n6xx_hal.c **** 
 728:../Drivers/STM32N6xx_HAL_Driver/Src/stm32n6xx_hal.c ****   MODIFY_REG(SYSCFG->CM55TCMCR, SYSCFG_CM55TCMCR_CFGDTCMSZ | SYSCFG_CM55TCMCR_CFGITCMSZ, DtcmSize |
 1070              		.loc 1 728 3 view .LVU199
 1071 0000 034A     		ldr	r2, .L100
 1072 0002 9368     		ldr	r3, [r2, #8]
 1073 0004 23F0FF03 		bic	r3, r3, #255
 1074 0008 0843     		orrs	r0, r0, r1
 1075              	.LVL32:
 1076              		.loc 1 728 3 is_stmt 0 view .LVU200
ARM GAS  /tmp/ccvdUNht.s 			page 33


 1077 000a 0343     		orrs	r3, r3, r0
 1078 000c 9360     		str	r3, [r2, #8]
 729:../Drivers/STM32N6xx_HAL_Driver/Src/stm32n6xx_hal.c **** }
 1079              		.loc 1 729 1 view .LVU201
 1080 000e 7047     		bx	lr
 1081              	.L101:
 1082              		.align	2
 1083              	.L100:
 1084 0010 00800056 		.word	1442873344
 1085              		.cfi_endproc
 1086              	.LFE910:
 1088              		.section	.text.HAL_SYSCFG_GetTCMSize,"ax",%progbits
 1089              		.align	1
 1090              		.global	HAL_SYSCFG_GetTCMSize
 1091              		.syntax unified
 1092              		.thumb
 1093              		.thumb_func
 1095              	HAL_SYSCFG_GetTCMSize:
 1096              	.LVL33:
 1097              	.LFB911:
 730:../Drivers/STM32N6xx_HAL_Driver/Src/stm32n6xx_hal.c **** 
 731:../Drivers/STM32N6xx_HAL_Driver/Src/stm32n6xx_hal.c **** /**
 732:../Drivers/STM32N6xx_HAL_Driver/Src/stm32n6xx_hal.c ****   * @brief  Get the DTCM and ITCM memory sizes.
 733:../Drivers/STM32N6xx_HAL_Driver/Src/stm32n6xx_hal.c ****   * @param  pDtcmSize Pointer to return DTCM memory size
 734:../Drivers/STM32N6xx_HAL_Driver/Src/stm32n6xx_hal.c ****   *         This return value can be one of
 735:../Drivers/STM32N6xx_HAL_Driver/Src/stm32n6xx_hal.c ****   *            @arg SYSCFG_DTCM_128K 128K
 736:../Drivers/STM32N6xx_HAL_Driver/Src/stm32n6xx_hal.c ****   *            @arg SYSCFG_DTCM_256K 256K
 737:../Drivers/STM32N6xx_HAL_Driver/Src/stm32n6xx_hal.c ****   * @param  pItcmSize Pointer to return ITCM memory size
 738:../Drivers/STM32N6xx_HAL_Driver/Src/stm32n6xx_hal.c ****   *         This return value can be one of
 739:../Drivers/STM32N6xx_HAL_Driver/Src/stm32n6xx_hal.c ****   *            @arg SYSCFG_ITCM_64K  64K
 740:../Drivers/STM32N6xx_HAL_Driver/Src/stm32n6xx_hal.c ****   *            @arg SYSCFG_ITCM_128K 128K
 741:../Drivers/STM32N6xx_HAL_Driver/Src/stm32n6xx_hal.c ****   *            @arg SYSCFG_ITCM_256K 256K
 742:../Drivers/STM32N6xx_HAL_Driver/Src/stm32n6xx_hal.c ****   * @retval HAL status
 743:../Drivers/STM32N6xx_HAL_Driver/Src/stm32n6xx_hal.c ****    */
 744:../Drivers/STM32N6xx_HAL_Driver/Src/stm32n6xx_hal.c **** HAL_StatusTypeDef HAL_SYSCFG_GetTCMSize(uint32_t *pDtcmSize, uint32_t *pItcmSize)
 745:../Drivers/STM32N6xx_HAL_Driver/Src/stm32n6xx_hal.c **** {
 1098              		.loc 1 745 1 is_stmt 1 view -0
 1099              		.cfi_startproc
 1100              		@ args = 0, pretend = 0, frame = 0
 1101              		@ frame_needed = 0, uses_anonymous_args = 0
 1102              		@ link register save eliminated.
 746:../Drivers/STM32N6xx_HAL_Driver/Src/stm32n6xx_hal.c ****   uint32_t values;
 1103              		.loc 1 746 3 view .LVU203
 747:../Drivers/STM32N6xx_HAL_Driver/Src/stm32n6xx_hal.c **** 
 748:../Drivers/STM32N6xx_HAL_Driver/Src/stm32n6xx_hal.c ****   /* Check null pointer */
 749:../Drivers/STM32N6xx_HAL_Driver/Src/stm32n6xx_hal.c ****   if ((pDtcmSize == NULL) || (pItcmSize == NULL))
 1104              		.loc 1 749 3 view .LVU204
 1105              		.loc 1 749 6 is_stmt 0 view .LVU205
 1106 0000 0246     		mov	r2, r0
 1107 0002 50B1     		cbz	r0, .L103
 1108              		.loc 1 749 27 discriminator 1 view .LVU206
 1109 0004 49B1     		cbz	r1, .L103
 750:../Drivers/STM32N6xx_HAL_Driver/Src/stm32n6xx_hal.c ****   {
 751:../Drivers/STM32N6xx_HAL_Driver/Src/stm32n6xx_hal.c ****     return HAL_ERROR;
 752:../Drivers/STM32N6xx_HAL_Driver/Src/stm32n6xx_hal.c ****   }
 753:../Drivers/STM32N6xx_HAL_Driver/Src/stm32n6xx_hal.c **** 
 754:../Drivers/STM32N6xx_HAL_Driver/Src/stm32n6xx_hal.c ****   values = READ_REG(SYSCFG->CM55TCMCR);
ARM GAS  /tmp/ccvdUNht.s 			page 34


 1110              		.loc 1 754 3 is_stmt 1 view .LVU207
 1111              		.loc 1 754 10 is_stmt 0 view .LVU208
 1112 0006 064B     		ldr	r3, .L106
 1113 0008 9B68     		ldr	r3, [r3, #8]
 1114              	.LVL34:
 755:../Drivers/STM32N6xx_HAL_Driver/Src/stm32n6xx_hal.c ****   *pDtcmSize = (values & 0xF0U);
 1115              		.loc 1 755 3 is_stmt 1 view .LVU209
 1116              		.loc 1 755 24 is_stmt 0 view .LVU210
 1117 000a 03F0F000 		and	r0, r3, #240
 1118              	.LVL35:
 1119              		.loc 1 755 14 view .LVU211
 1120 000e 1060     		str	r0, [r2]
 756:../Drivers/STM32N6xx_HAL_Driver/Src/stm32n6xx_hal.c ****   *pItcmSize = (values & 0xFU);
 1121              		.loc 1 756 3 is_stmt 1 view .LVU212
 1122              		.loc 1 756 24 is_stmt 0 view .LVU213
 1123 0010 03F00F03 		and	r3, r3, #15
 1124              	.LVL36:
 1125              		.loc 1 756 14 view .LVU214
 1126 0014 0B60     		str	r3, [r1]
 757:../Drivers/STM32N6xx_HAL_Driver/Src/stm32n6xx_hal.c **** 
 758:../Drivers/STM32N6xx_HAL_Driver/Src/stm32n6xx_hal.c ****   return HAL_OK;
 1127              		.loc 1 758 3 is_stmt 1 view .LVU215
 1128              		.loc 1 758 10 is_stmt 0 view .LVU216
 1129 0016 0020     		movs	r0, #0
 759:../Drivers/STM32N6xx_HAL_Driver/Src/stm32n6xx_hal.c **** }
 1130              		.loc 1 759 1 view .LVU217
 1131 0018 7047     		bx	lr
 1132              	.LVL37:
 1133              	.L103:
 751:../Drivers/STM32N6xx_HAL_Driver/Src/stm32n6xx_hal.c ****   }
 1134              		.loc 1 751 12 view .LVU218
 1135 001a 0120     		movs	r0, #1
 1136              	.LVL38:
 751:../Drivers/STM32N6xx_HAL_Driver/Src/stm32n6xx_hal.c ****   }
 1137              		.loc 1 751 12 view .LVU219
 1138 001c 7047     		bx	lr
 1139              	.L107:
 1140 001e 00BF     		.align	2
 1141              	.L106:
 1142 0020 00800056 		.word	1442873344
 1143              		.cfi_endproc
 1144              	.LFE911:
 1146              		.section	.text.HAL_SYSCFG_LockWriteAccess,"ax",%progbits
 1147              		.align	1
 1148              		.global	HAL_SYSCFG_LockWriteAccess
 1149              		.syntax unified
 1150              		.thumb
 1151              		.thumb_func
 1153              	HAL_SYSCFG_LockWriteAccess:
 1154              	.LVL39:
 1155              	.LFB912:
 760:../Drivers/STM32N6xx_HAL_Driver/Src/stm32n6xx_hal.c **** 
 761:../Drivers/STM32N6xx_HAL_Driver/Src/stm32n6xx_hal.c **** /**
 762:../Drivers/STM32N6xx_HAL_Driver/Src/stm32n6xx_hal.c ****   * @brief  Lock the SYSCFG write access item(s).
 763:../Drivers/STM32N6xx_HAL_Driver/Src/stm32n6xx_hal.c ****   * @note   Lock(s) cleared only at system reset
 764:../Drivers/STM32N6xx_HAL_Driver/Src/stm32n6xx_hal.c ****   * @param  Item Item(s) to set lock on.
 765:../Drivers/STM32N6xx_HAL_Driver/Src/stm32n6xx_hal.c ****   *         This parameter can be a combination of @ref SYSCFG_WRITE_access
ARM GAS  /tmp/ccvdUNht.s 			page 35


 766:../Drivers/STM32N6xx_HAL_Driver/Src/stm32n6xx_hal.c ****   * @retval None
 767:../Drivers/STM32N6xx_HAL_Driver/Src/stm32n6xx_hal.c ****   */
 768:../Drivers/STM32N6xx_HAL_Driver/Src/stm32n6xx_hal.c **** void HAL_SYSCFG_LockWriteAccess(uint32_t Item)
 769:../Drivers/STM32N6xx_HAL_Driver/Src/stm32n6xx_hal.c **** {
 1156              		.loc 1 769 1 is_stmt 1 view -0
 1157              		.cfi_startproc
 1158              		@ args = 0, pretend = 0, frame = 0
 1159              		@ frame_needed = 0, uses_anonymous_args = 0
 1160              		@ link register save eliminated.
 770:../Drivers/STM32N6xx_HAL_Driver/Src/stm32n6xx_hal.c ****   /* Check the parameters */
 771:../Drivers/STM32N6xx_HAL_Driver/Src/stm32n6xx_hal.c ****   assert_param(IS_SYSCFG_LOCK_WRACCESS(Item));
 1161              		.loc 1 771 3 view .LVU221
 772:../Drivers/STM32N6xx_HAL_Driver/Src/stm32n6xx_hal.c **** 
 773:../Drivers/STM32N6xx_HAL_Driver/Src/stm32n6xx_hal.c ****   MODIFY_REG(SYSCFG->CM55TCMCR, SYSCFG_LOCK_WR_ALL, Item);
 1162              		.loc 1 773 3 view .LVU222
 1163 0000 034A     		ldr	r2, .L109
 1164 0002 9368     		ldr	r3, [r2, #8]
 1165 0004 23F4E023 		bic	r3, r3, #458752
 1166 0008 0343     		orrs	r3, r3, r0
 1167 000a 9360     		str	r3, [r2, #8]
 774:../Drivers/STM32N6xx_HAL_Driver/Src/stm32n6xx_hal.c **** }
 1168              		.loc 1 774 1 is_stmt 0 view .LVU223
 1169 000c 7047     		bx	lr
 1170              	.L110:
 1171 000e 00BF     		.align	2
 1172              	.L109:
 1173 0010 00800056 		.word	1442873344
 1174              		.cfi_endproc
 1175              	.LFE912:
 1177              		.section	.text.HAL_SYSCFG_GetLockWriteAccess,"ax",%progbits
 1178              		.align	1
 1179              		.global	HAL_SYSCFG_GetLockWriteAccess
 1180              		.syntax unified
 1181              		.thumb
 1182              		.thumb_func
 1184              	HAL_SYSCFG_GetLockWriteAccess:
 1185              	.LVL40:
 1186              	.LFB913:
 775:../Drivers/STM32N6xx_HAL_Driver/Src/stm32n6xx_hal.c **** 
 776:../Drivers/STM32N6xx_HAL_Driver/Src/stm32n6xx_hal.c **** /**
 777:../Drivers/STM32N6xx_HAL_Driver/Src/stm32n6xx_hal.c ****   * @brief  Get the lock state of SYSCFG  write access item.
 778:../Drivers/STM32N6xx_HAL_Driver/Src/stm32n6xx_hal.c ****   * @param  pItem pointer to return locked items
 779:../Drivers/STM32N6xx_HAL_Driver/Src/stm32n6xx_hal.c ****   *         the return value can be a combination of @ref SYSCFG_WRITE_access
 780:../Drivers/STM32N6xx_HAL_Driver/Src/stm32n6xx_hal.c ****   * @retval HAL status
 781:../Drivers/STM32N6xx_HAL_Driver/Src/stm32n6xx_hal.c ****   */
 782:../Drivers/STM32N6xx_HAL_Driver/Src/stm32n6xx_hal.c **** HAL_StatusTypeDef HAL_SYSCFG_GetLockWriteAccess(uint32_t *pItem)
 783:../Drivers/STM32N6xx_HAL_Driver/Src/stm32n6xx_hal.c **** {
 1187              		.loc 1 783 1 is_stmt 1 view -0
 1188              		.cfi_startproc
 1189              		@ args = 0, pretend = 0, frame = 0
 1190              		@ frame_needed = 0, uses_anonymous_args = 0
 1191              		@ link register save eliminated.
 784:../Drivers/STM32N6xx_HAL_Driver/Src/stm32n6xx_hal.c ****   /* Check null pointer */
 785:../Drivers/STM32N6xx_HAL_Driver/Src/stm32n6xx_hal.c ****   if (pItem == NULL)
 1192              		.loc 1 785 3 view .LVU225
 1193              		.loc 1 785 6 is_stmt 0 view .LVU226
 1194 0000 30B1     		cbz	r0, .L113
ARM GAS  /tmp/ccvdUNht.s 			page 36


 786:../Drivers/STM32N6xx_HAL_Driver/Src/stm32n6xx_hal.c ****   {
 787:../Drivers/STM32N6xx_HAL_Driver/Src/stm32n6xx_hal.c ****     return HAL_ERROR;
 788:../Drivers/STM32N6xx_HAL_Driver/Src/stm32n6xx_hal.c ****   }
 789:../Drivers/STM32N6xx_HAL_Driver/Src/stm32n6xx_hal.c **** 
 790:../Drivers/STM32N6xx_HAL_Driver/Src/stm32n6xx_hal.c ****   /* Get the non-secure lock state */
 791:../Drivers/STM32N6xx_HAL_Driver/Src/stm32n6xx_hal.c ****   *pItem = READ_BIT(SYSCFG->CM55TCMCR, SYSCFG_LOCK_WR_ALL);
 1195              		.loc 1 791 3 is_stmt 1 view .LVU227
 1196              		.loc 1 791 12 is_stmt 0 view .LVU228
 1197 0002 044B     		ldr	r3, .L114
 1198 0004 9B68     		ldr	r3, [r3, #8]
 1199 0006 03F4E023 		and	r3, r3, #458752
 1200              		.loc 1 791 10 view .LVU229
 1201 000a 0360     		str	r3, [r0]
 792:../Drivers/STM32N6xx_HAL_Driver/Src/stm32n6xx_hal.c **** 
 793:../Drivers/STM32N6xx_HAL_Driver/Src/stm32n6xx_hal.c ****   return HAL_OK;
 1202              		.loc 1 793 3 is_stmt 1 view .LVU230
 1203              		.loc 1 793 10 is_stmt 0 view .LVU231
 1204 000c 0020     		movs	r0, #0
 1205              	.LVL41:
 1206              		.loc 1 793 10 view .LVU232
 1207 000e 7047     		bx	lr
 1208              	.LVL42:
 1209              	.L113:
 787:../Drivers/STM32N6xx_HAL_Driver/Src/stm32n6xx_hal.c ****   }
 1210              		.loc 1 787 12 view .LVU233
 1211 0010 0120     		movs	r0, #1
 1212              	.LVL43:
 794:../Drivers/STM32N6xx_HAL_Driver/Src/stm32n6xx_hal.c **** }
 1213              		.loc 1 794 1 view .LVU234
 1214 0012 7047     		bx	lr
 1215              	.L115:
 1216              		.align	2
 1217              	.L114:
 1218 0014 00800056 		.word	1442873344
 1219              		.cfi_endproc
 1220              	.LFE913:
 1222              		.section	.text.HAL_SYSCFG_EnableITCMWaiteState,"ax",%progbits
 1223              		.align	1
 1224              		.global	HAL_SYSCFG_EnableITCMWaiteState
 1225              		.syntax unified
 1226              		.thumb
 1227              		.thumb_func
 1229              	HAL_SYSCFG_EnableITCMWaiteState:
 1230              	.LFB914:
 795:../Drivers/STM32N6xx_HAL_Driver/Src/stm32n6xx_hal.c **** 
 796:../Drivers/STM32N6xx_HAL_Driver/Src/stm32n6xx_hal.c **** /**
 797:../Drivers/STM32N6xx_HAL_Driver/Src/stm32n6xx_hal.c ****   * @brief  Enable the ITCM Wait State.
 798:../Drivers/STM32N6xx_HAL_Driver/Src/stm32n6xx_hal.c ****   * @retval None
 799:../Drivers/STM32N6xx_HAL_Driver/Src/stm32n6xx_hal.c ****   */
 800:../Drivers/STM32N6xx_HAL_Driver/Src/stm32n6xx_hal.c **** void HAL_SYSCFG_EnableITCMWaiteState(void)
 801:../Drivers/STM32N6xx_HAL_Driver/Src/stm32n6xx_hal.c **** {
 1231              		.loc 1 801 1 is_stmt 1 view -0
 1232              		.cfi_startproc
 1233              		@ args = 0, pretend = 0, frame = 0
 1234              		@ frame_needed = 0, uses_anonymous_args = 0
 1235              		@ link register save eliminated.
 802:../Drivers/STM32N6xx_HAL_Driver/Src/stm32n6xx_hal.c ****   SET_BIT(SYSCFG->CM55TCMCR, SYSCFG_CM55TCMCR_ITCMWSDISABLE);
ARM GAS  /tmp/ccvdUNht.s 			page 37


 1236              		.loc 1 802 3 view .LVU236
 1237 0000 024A     		ldr	r2, .L117
 1238 0002 9368     		ldr	r3, [r2, #8]
 1239 0004 43F40003 		orr	r3, r3, #8388608
 1240 0008 9360     		str	r3, [r2, #8]
 803:../Drivers/STM32N6xx_HAL_Driver/Src/stm32n6xx_hal.c **** }
 1241              		.loc 1 803 1 is_stmt 0 view .LVU237
 1242 000a 7047     		bx	lr
 1243              	.L118:
 1244              		.align	2
 1245              	.L117:
 1246 000c 00800056 		.word	1442873344
 1247              		.cfi_endproc
 1248              	.LFE914:
 1250              		.section	.text.HAL_SYSCFG_DisableITCMWaiteState,"ax",%progbits
 1251              		.align	1
 1252              		.global	HAL_SYSCFG_DisableITCMWaiteState
 1253              		.syntax unified
 1254              		.thumb
 1255              		.thumb_func
 1257              	HAL_SYSCFG_DisableITCMWaiteState:
 1258              	.LFB915:
 804:../Drivers/STM32N6xx_HAL_Driver/Src/stm32n6xx_hal.c **** 
 805:../Drivers/STM32N6xx_HAL_Driver/Src/stm32n6xx_hal.c **** /**
 806:../Drivers/STM32N6xx_HAL_Driver/Src/stm32n6xx_hal.c ****   * @brief  Disable the ITCM Wait State.
 807:../Drivers/STM32N6xx_HAL_Driver/Src/stm32n6xx_hal.c ****   * @retval None
 808:../Drivers/STM32N6xx_HAL_Driver/Src/stm32n6xx_hal.c ****   */
 809:../Drivers/STM32N6xx_HAL_Driver/Src/stm32n6xx_hal.c **** void HAL_SYSCFG_DisableITCMWaiteState(void)
 810:../Drivers/STM32N6xx_HAL_Driver/Src/stm32n6xx_hal.c **** {
 1259              		.loc 1 810 1 is_stmt 1 view -0
 1260              		.cfi_startproc
 1261              		@ args = 0, pretend = 0, frame = 0
 1262              		@ frame_needed = 0, uses_anonymous_args = 0
 1263              		@ link register save eliminated.
 811:../Drivers/STM32N6xx_HAL_Driver/Src/stm32n6xx_hal.c ****   CLEAR_BIT(SYSCFG->CM55TCMCR, SYSCFG_CM55TCMCR_ITCMWSDISABLE);
 1264              		.loc 1 811 3 view .LVU239
 1265 0000 024A     		ldr	r2, .L120
 1266 0002 9368     		ldr	r3, [r2, #8]
 1267 0004 23F40003 		bic	r3, r3, #8388608
 1268 0008 9360     		str	r3, [r2, #8]
 812:../Drivers/STM32N6xx_HAL_Driver/Src/stm32n6xx_hal.c **** }
 1269              		.loc 1 812 1 is_stmt 0 view .LVU240
 1270 000a 7047     		bx	lr
 1271              	.L121:
 1272              		.align	2
 1273              	.L120:
 1274 000c 00800056 		.word	1442873344
 1275              		.cfi_endproc
 1276              	.LFE915:
 1278              		.section	.text.HAL_SYSCFG_EnableDTCMWaiteState,"ax",%progbits
 1279              		.align	1
 1280              		.global	HAL_SYSCFG_EnableDTCMWaiteState
 1281              		.syntax unified
 1282              		.thumb
 1283              		.thumb_func
 1285              	HAL_SYSCFG_EnableDTCMWaiteState:
 1286              	.LFB916:
ARM GAS  /tmp/ccvdUNht.s 			page 38


 813:../Drivers/STM32N6xx_HAL_Driver/Src/stm32n6xx_hal.c **** 
 814:../Drivers/STM32N6xx_HAL_Driver/Src/stm32n6xx_hal.c **** /**
 815:../Drivers/STM32N6xx_HAL_Driver/Src/stm32n6xx_hal.c ****   * @brief  Enable the DTCM Wait State.
 816:../Drivers/STM32N6xx_HAL_Driver/Src/stm32n6xx_hal.c ****   * @retval None
 817:../Drivers/STM32N6xx_HAL_Driver/Src/stm32n6xx_hal.c ****   */
 818:../Drivers/STM32N6xx_HAL_Driver/Src/stm32n6xx_hal.c **** void HAL_SYSCFG_EnableDTCMWaiteState(void)
 819:../Drivers/STM32N6xx_HAL_Driver/Src/stm32n6xx_hal.c **** {
 1287              		.loc 1 819 1 is_stmt 1 view -0
 1288              		.cfi_startproc
 1289              		@ args = 0, pretend = 0, frame = 0
 1290              		@ frame_needed = 0, uses_anonymous_args = 0
 1291              		@ link register save eliminated.
 820:../Drivers/STM32N6xx_HAL_Driver/Src/stm32n6xx_hal.c ****   SET_BIT(SYSCFG->CM55TCMCR, SYSCFG_CM55TCMCR_DTCMWSDISABLE);
 1292              		.loc 1 820 3 view .LVU242
 1293 0000 024A     		ldr	r2, .L123
 1294 0002 9368     		ldr	r3, [r2, #8]
 1295 0004 43F08073 		orr	r3, r3, #16777216
 1296 0008 9360     		str	r3, [r2, #8]
 821:../Drivers/STM32N6xx_HAL_Driver/Src/stm32n6xx_hal.c **** }
 1297              		.loc 1 821 1 is_stmt 0 view .LVU243
 1298 000a 7047     		bx	lr
 1299              	.L124:
 1300              		.align	2
 1301              	.L123:
 1302 000c 00800056 		.word	1442873344
 1303              		.cfi_endproc
 1304              	.LFE916:
 1306              		.section	.text.HAL_SYSCFG_DisableDTCMWaiteState,"ax",%progbits
 1307              		.align	1
 1308              		.global	HAL_SYSCFG_DisableDTCMWaiteState
 1309              		.syntax unified
 1310              		.thumb
 1311              		.thumb_func
 1313              	HAL_SYSCFG_DisableDTCMWaiteState:
 1314              	.LFB917:
 822:../Drivers/STM32N6xx_HAL_Driver/Src/stm32n6xx_hal.c **** 
 823:../Drivers/STM32N6xx_HAL_Driver/Src/stm32n6xx_hal.c **** /**
 824:../Drivers/STM32N6xx_HAL_Driver/Src/stm32n6xx_hal.c ****   * @brief  Disable the DTCM Wait State.
 825:../Drivers/STM32N6xx_HAL_Driver/Src/stm32n6xx_hal.c ****   * @retval None
 826:../Drivers/STM32N6xx_HAL_Driver/Src/stm32n6xx_hal.c ****   */
 827:../Drivers/STM32N6xx_HAL_Driver/Src/stm32n6xx_hal.c **** void HAL_SYSCFG_DisableDTCMWaiteState(void)
 828:../Drivers/STM32N6xx_HAL_Driver/Src/stm32n6xx_hal.c **** {
 1315              		.loc 1 828 1 is_stmt 1 view -0
 1316              		.cfi_startproc
 1317              		@ args = 0, pretend = 0, frame = 0
 1318              		@ frame_needed = 0, uses_anonymous_args = 0
 1319              		@ link register save eliminated.
 829:../Drivers/STM32N6xx_HAL_Driver/Src/stm32n6xx_hal.c ****   CLEAR_BIT(SYSCFG->CM55TCMCR, SYSCFG_CM55TCMCR_DTCMWSDISABLE);
 1320              		.loc 1 829 3 view .LVU245
 1321 0000 024A     		ldr	r2, .L126
 1322 0002 9368     		ldr	r3, [r2, #8]
 1323 0004 23F08073 		bic	r3, r3, #16777216
 1324 0008 9360     		str	r3, [r2, #8]
 830:../Drivers/STM32N6xx_HAL_Driver/Src/stm32n6xx_hal.c **** }
 1325              		.loc 1 830 1 is_stmt 0 view .LVU246
 1326 000a 7047     		bx	lr
 1327              	.L127:
ARM GAS  /tmp/ccvdUNht.s 			page 39


 1328              		.align	2
 1329              	.L126:
 1330 000c 00800056 		.word	1442873344
 1331              		.cfi_endproc
 1332              	.LFE917:
 1334              		.section	.text.HAL_SYSCFG_EnableTCMExternalMargin,"ax",%progbits
 1335              		.align	1
 1336              		.global	HAL_SYSCFG_EnableTCMExternalMargin
 1337              		.syntax unified
 1338              		.thumb
 1339              		.thumb_func
 1341              	HAL_SYSCFG_EnableTCMExternalMargin:
 1342              	.LFB918:
 831:../Drivers/STM32N6xx_HAL_Driver/Src/stm32n6xx_hal.c **** 
 832:../Drivers/STM32N6xx_HAL_Driver/Src/stm32n6xx_hal.c **** /**
 833:../Drivers/STM32N6xx_HAL_Driver/Src/stm32n6xx_hal.c ****   * @brief  Enable external RW margin inputs for TCM memories
 834:../Drivers/STM32N6xx_HAL_Driver/Src/stm32n6xx_hal.c ****   * @retval None
 835:../Drivers/STM32N6xx_HAL_Driver/Src/stm32n6xx_hal.c ****   */
 836:../Drivers/STM32N6xx_HAL_Driver/Src/stm32n6xx_hal.c **** void HAL_SYSCFG_EnableTCMExternalMargin(void)
 837:../Drivers/STM32N6xx_HAL_Driver/Src/stm32n6xx_hal.c **** {
 1343              		.loc 1 837 1 is_stmt 1 view -0
 1344              		.cfi_startproc
 1345              		@ args = 0, pretend = 0, frame = 0
 1346              		@ frame_needed = 0, uses_anonymous_args = 0
 1347              		@ link register save eliminated.
 838:../Drivers/STM32N6xx_HAL_Driver/Src/stm32n6xx_hal.c ****   SET_BIT(SYSCFG->CM55RWMCR, SYSCFG_CM55RWMCR_RME_TCM);
 1348              		.loc 1 838 3 view .LVU248
 1349 0000 024A     		ldr	r2, .L129
 1350 0002 D368     		ldr	r3, [r2, #12]
 1351 0004 43F00103 		orr	r3, r3, #1
 1352 0008 D360     		str	r3, [r2, #12]
 839:../Drivers/STM32N6xx_HAL_Driver/Src/stm32n6xx_hal.c **** }
 1353              		.loc 1 839 1 is_stmt 0 view .LVU249
 1354 000a 7047     		bx	lr
 1355              	.L130:
 1356              		.align	2
 1357              	.L129:
 1358 000c 00800056 		.word	1442873344
 1359              		.cfi_endproc
 1360              	.LFE918:
 1362              		.section	.text.HAL_SYSCFG_DisableTCMExternalMargin,"ax",%progbits
 1363              		.align	1
 1364              		.global	HAL_SYSCFG_DisableTCMExternalMargin
 1365              		.syntax unified
 1366              		.thumb
 1367              		.thumb_func
 1369              	HAL_SYSCFG_DisableTCMExternalMargin:
 1370              	.LFB919:
 840:../Drivers/STM32N6xx_HAL_Driver/Src/stm32n6xx_hal.c **** 
 841:../Drivers/STM32N6xx_HAL_Driver/Src/stm32n6xx_hal.c **** /**
 842:../Drivers/STM32N6xx_HAL_Driver/Src/stm32n6xx_hal.c ****   * @brief  Disable external RW margin inputs for TCM memories
 843:../Drivers/STM32N6xx_HAL_Driver/Src/stm32n6xx_hal.c ****   * @retval None
 844:../Drivers/STM32N6xx_HAL_Driver/Src/stm32n6xx_hal.c ****   */
 845:../Drivers/STM32N6xx_HAL_Driver/Src/stm32n6xx_hal.c **** void HAL_SYSCFG_DisableTCMExternalMargin(void)
 846:../Drivers/STM32N6xx_HAL_Driver/Src/stm32n6xx_hal.c **** {
 1371              		.loc 1 846 1 is_stmt 1 view -0
 1372              		.cfi_startproc
ARM GAS  /tmp/ccvdUNht.s 			page 40


 1373              		@ args = 0, pretend = 0, frame = 0
 1374              		@ frame_needed = 0, uses_anonymous_args = 0
 1375              		@ link register save eliminated.
 847:../Drivers/STM32N6xx_HAL_Driver/Src/stm32n6xx_hal.c ****   CLEAR_BIT(SYSCFG->CM55RWMCR, SYSCFG_CM55RWMCR_RME_TCM);
 1376              		.loc 1 847 3 view .LVU251
 1377 0000 024A     		ldr	r2, .L132
 1378 0002 D368     		ldr	r3, [r2, #12]
 1379 0004 23F00103 		bic	r3, r3, #1
 1380 0008 D360     		str	r3, [r2, #12]
 848:../Drivers/STM32N6xx_HAL_Driver/Src/stm32n6xx_hal.c **** }
 1381              		.loc 1 848 1 is_stmt 0 view .LVU252
 1382 000a 7047     		bx	lr
 1383              	.L133:
 1384              		.align	2
 1385              	.L132:
 1386 000c 00800056 		.word	1442873344
 1387              		.cfi_endproc
 1388              	.LFE919:
 1390              		.section	.text.HAL_SYSCFG_SetTCMRWMarginInput,"ax",%progbits
 1391              		.align	1
 1392              		.global	HAL_SYSCFG_SetTCMRWMarginInput
 1393              		.syntax unified
 1394              		.thumb
 1395              		.thumb_func
 1397              	HAL_SYSCFG_SetTCMRWMarginInput:
 1398              	.LVL44:
 1399              	.LFB920:
 849:../Drivers/STM32N6xx_HAL_Driver/Src/stm32n6xx_hal.c **** 
 850:../Drivers/STM32N6xx_HAL_Driver/Src/stm32n6xx_hal.c **** /**
 851:../Drivers/STM32N6xx_HAL_Driver/Src/stm32n6xx_hal.c ****   * @brief  Set external RW margin inputs for TCM memories.
 852:../Drivers/STM32N6xx_HAL_Driver/Src/stm32n6xx_hal.c ****   * @param  TcmRwMarginInput Input Margin.
 853:../Drivers/STM32N6xx_HAL_Driver/Src/stm32n6xx_hal.c ****   * @retval None
 854:../Drivers/STM32N6xx_HAL_Driver/Src/stm32n6xx_hal.c ****   */
 855:../Drivers/STM32N6xx_HAL_Driver/Src/stm32n6xx_hal.c **** void HAL_SYSCFG_SetTCMRWMarginInput(uint32_t TcmRwMarginInput)
 856:../Drivers/STM32N6xx_HAL_Driver/Src/stm32n6xx_hal.c **** {
 1400              		.loc 1 856 1 is_stmt 1 view -0
 1401              		.cfi_startproc
 1402              		@ args = 0, pretend = 0, frame = 0
 1403              		@ frame_needed = 0, uses_anonymous_args = 0
 1404              		@ link register save eliminated.
 857:../Drivers/STM32N6xx_HAL_Driver/Src/stm32n6xx_hal.c ****   assert_param(IS_TCM_MARGIN_INPUT(TcmRwMarginInput));
 1405              		.loc 1 857 3 view .LVU254
 858:../Drivers/STM32N6xx_HAL_Driver/Src/stm32n6xx_hal.c **** 
 859:../Drivers/STM32N6xx_HAL_Driver/Src/stm32n6xx_hal.c ****   MODIFY_REG(SYSCFG->CM55RWMCR, SYSCFG_CM55RWMCR_RM_TCM, (TcmRwMarginInput << 1U));
 1406              		.loc 1 859 3 view .LVU255
 1407 0000 034A     		ldr	r2, .L135
 1408 0002 D368     		ldr	r3, [r2, #12]
 1409 0004 23F01E03 		bic	r3, r3, #30
 1410 0008 43EA4003 		orr	r3, r3, r0, lsl #1
 1411 000c D360     		str	r3, [r2, #12]
 860:../Drivers/STM32N6xx_HAL_Driver/Src/stm32n6xx_hal.c **** }
 1412              		.loc 1 860 1 is_stmt 0 view .LVU256
 1413 000e 7047     		bx	lr
 1414              	.L136:
 1415              		.align	2
 1416              	.L135:
 1417 0010 00800056 		.word	1442873344
ARM GAS  /tmp/ccvdUNht.s 			page 41


 1418              		.cfi_endproc
 1419              	.LFE920:
 1421              		.section	.text.HAL_SYSCFG_GetTCMRWMarginInput,"ax",%progbits
 1422              		.align	1
 1423              		.global	HAL_SYSCFG_GetTCMRWMarginInput
 1424              		.syntax unified
 1425              		.thumb
 1426              		.thumb_func
 1428              	HAL_SYSCFG_GetTCMRWMarginInput:
 1429              	.LVL45:
 1430              	.LFB921:
 861:../Drivers/STM32N6xx_HAL_Driver/Src/stm32n6xx_hal.c **** 
 862:../Drivers/STM32N6xx_HAL_Driver/Src/stm32n6xx_hal.c **** /**
 863:../Drivers/STM32N6xx_HAL_Driver/Src/stm32n6xx_hal.c ****   * @brief  Get the External RW margin inputs for TCM memories.
 864:../Drivers/STM32N6xx_HAL_Driver/Src/stm32n6xx_hal.c ****   * @param  pTcmRwMarginInput pointer to return Input Margin.
 865:../Drivers/STM32N6xx_HAL_Driver/Src/stm32n6xx_hal.c ****   * @retval HAL status.
 866:../Drivers/STM32N6xx_HAL_Driver/Src/stm32n6xx_hal.c ****   */
 867:../Drivers/STM32N6xx_HAL_Driver/Src/stm32n6xx_hal.c **** HAL_StatusTypeDef HAL_SYSCFG_GetTCMRWMarginInput(uint32_t *pTcmRwMarginInput)
 868:../Drivers/STM32N6xx_HAL_Driver/Src/stm32n6xx_hal.c **** {
 1431              		.loc 1 868 1 is_stmt 1 view -0
 1432              		.cfi_startproc
 1433              		@ args = 0, pretend = 0, frame = 0
 1434              		@ frame_needed = 0, uses_anonymous_args = 0
 1435              		@ link register save eliminated.
 869:../Drivers/STM32N6xx_HAL_Driver/Src/stm32n6xx_hal.c ****   /* Check null pointer */
 870:../Drivers/STM32N6xx_HAL_Driver/Src/stm32n6xx_hal.c ****   if (pTcmRwMarginInput == NULL)
 1436              		.loc 1 870 3 view .LVU258
 1437              		.loc 1 870 6 is_stmt 0 view .LVU259
 1438 0000 30B1     		cbz	r0, .L139
 871:../Drivers/STM32N6xx_HAL_Driver/Src/stm32n6xx_hal.c ****   {
 872:../Drivers/STM32N6xx_HAL_Driver/Src/stm32n6xx_hal.c ****     return HAL_ERROR;
 873:../Drivers/STM32N6xx_HAL_Driver/Src/stm32n6xx_hal.c ****   }
 874:../Drivers/STM32N6xx_HAL_Driver/Src/stm32n6xx_hal.c **** 
 875:../Drivers/STM32N6xx_HAL_Driver/Src/stm32n6xx_hal.c ****   /* Get the non-secure lock state */
 876:../Drivers/STM32N6xx_HAL_Driver/Src/stm32n6xx_hal.c ****   *pTcmRwMarginInput = (READ_BIT(SYSCFG->CM55RWMCR, SYSCFG_CM55RWMCR_RM_TCM) >> 1U);
 1439              		.loc 1 876 3 is_stmt 1 view .LVU260
 1440              		.loc 1 876 25 is_stmt 0 view .LVU261
 1441 0002 044B     		ldr	r3, .L140
 1442 0004 DB68     		ldr	r3, [r3, #12]
 1443              		.loc 1 876 78 view .LVU262
 1444 0006 C3F34303 		ubfx	r3, r3, #1, #4
 1445              		.loc 1 876 22 view .LVU263
 1446 000a 0360     		str	r3, [r0]
 877:../Drivers/STM32N6xx_HAL_Driver/Src/stm32n6xx_hal.c **** 
 878:../Drivers/STM32N6xx_HAL_Driver/Src/stm32n6xx_hal.c ****   return HAL_OK;
 1447              		.loc 1 878 3 is_stmt 1 view .LVU264
 1448              		.loc 1 878 10 is_stmt 0 view .LVU265
 1449 000c 0020     		movs	r0, #0
 1450              	.LVL46:
 1451              		.loc 1 878 10 view .LVU266
 1452 000e 7047     		bx	lr
 1453              	.LVL47:
 1454              	.L139:
 872:../Drivers/STM32N6xx_HAL_Driver/Src/stm32n6xx_hal.c ****   }
 1455              		.loc 1 872 12 view .LVU267
 1456 0010 0120     		movs	r0, #1
 1457              	.LVL48:
ARM GAS  /tmp/ccvdUNht.s 			page 42


 879:../Drivers/STM32N6xx_HAL_Driver/Src/stm32n6xx_hal.c **** }
 1458              		.loc 1 879 1 view .LVU268
 1459 0012 7047     		bx	lr
 1460              	.L141:
 1461              		.align	2
 1462              	.L140:
 1463 0014 00800056 		.word	1442873344
 1464              		.cfi_endproc
 1465              	.LFE921:
 1467              		.section	.text.HAL_SYSCFG_SetTCMBiasingLevel,"ax",%progbits
 1468              		.align	1
 1469              		.global	HAL_SYSCFG_SetTCMBiasingLevel
 1470              		.syntax unified
 1471              		.thumb
 1472              		.thumb_func
 1474              	HAL_SYSCFG_SetTCMBiasingLevel:
 1475              	.LVL49:
 1476              	.LFB922:
 880:../Drivers/STM32N6xx_HAL_Driver/Src/stm32n6xx_hal.c **** 
 881:../Drivers/STM32N6xx_HAL_Driver/Src/stm32n6xx_hal.c **** /**
 882:../Drivers/STM32N6xx_HAL_Driver/Src/stm32n6xx_hal.c ****   * @brief  Set the TCM biasing level adjust input.
 883:../Drivers/STM32N6xx_HAL_Driver/Src/stm32n6xx_hal.c ****   * @param  Level Biaising level adjust input
 884:../Drivers/STM32N6xx_HAL_Driver/Src/stm32n6xx_hal.c ****   *         This parameter can one of the following values:
 885:../Drivers/STM32N6xx_HAL_Driver/Src/stm32n6xx_hal.c ****   *            @arg SYSCFG_TCM_BIAS_VNOM : Biasing level adjust input recommended for Vnom
 886:../Drivers/STM32N6xx_HAL_Driver/Src/stm32n6xx_hal.c ****   *            @arg SYSCFG_TCM_BIAS_VNOM_10_PERCENT : Biasing level adjust input recommended for Vn
 887:../Drivers/STM32N6xx_HAL_Driver/Src/stm32n6xx_hal.c ****   * @retval None
 888:../Drivers/STM32N6xx_HAL_Driver/Src/stm32n6xx_hal.c ****   */
 889:../Drivers/STM32N6xx_HAL_Driver/Src/stm32n6xx_hal.c **** void HAL_SYSCFG_SetTCMBiasingLevel(uint32_t Level)
 890:../Drivers/STM32N6xx_HAL_Driver/Src/stm32n6xx_hal.c **** {
 1477              		.loc 1 890 1 is_stmt 1 view -0
 1478              		.cfi_startproc
 1479              		@ args = 0, pretend = 0, frame = 0
 1480              		@ frame_needed = 0, uses_anonymous_args = 0
 1481              		@ link register save eliminated.
 891:../Drivers/STM32N6xx_HAL_Driver/Src/stm32n6xx_hal.c ****   /* Check the parameters */
 892:../Drivers/STM32N6xx_HAL_Driver/Src/stm32n6xx_hal.c ****   assert_param(IS_SYSCFG_TCM_BIASING_LEVEL(Level));
 1482              		.loc 1 892 3 view .LVU270
 893:../Drivers/STM32N6xx_HAL_Driver/Src/stm32n6xx_hal.c **** 
 894:../Drivers/STM32N6xx_HAL_Driver/Src/stm32n6xx_hal.c ****   MODIFY_REG(SYSCFG->CM55RWMCR, SYSCFG_CM55RWMCR_BC2_TCM | SYSCFG_CM55RWMCR_BC1_TCM, Level);
 1483              		.loc 1 894 3 view .LVU271
 1484 0000 034A     		ldr	r2, .L143
 1485 0002 D368     		ldr	r3, [r2, #12]
 1486 0004 23F06003 		bic	r3, r3, #96
 1487 0008 0343     		orrs	r3, r3, r0
 1488 000a D360     		str	r3, [r2, #12]
 895:../Drivers/STM32N6xx_HAL_Driver/Src/stm32n6xx_hal.c **** }
 1489              		.loc 1 895 1 is_stmt 0 view .LVU272
 1490 000c 7047     		bx	lr
 1491              	.L144:
 1492 000e 00BF     		.align	2
 1493              	.L143:
 1494 0010 00800056 		.word	1442873344
 1495              		.cfi_endproc
 1496              	.LFE922:
 1498              		.section	.text.HAL_SYSCFG_GetTCMBiasingLevel,"ax",%progbits
 1499              		.align	1
 1500              		.global	HAL_SYSCFG_GetTCMBiasingLevel
ARM GAS  /tmp/ccvdUNht.s 			page 43


 1501              		.syntax unified
 1502              		.thumb
 1503              		.thumb_func
 1505              	HAL_SYSCFG_GetTCMBiasingLevel:
 1506              	.LVL50:
 1507              	.LFB923:
 896:../Drivers/STM32N6xx_HAL_Driver/Src/stm32n6xx_hal.c **** 
 897:../Drivers/STM32N6xx_HAL_Driver/Src/stm32n6xx_hal.c **** /**
 898:../Drivers/STM32N6xx_HAL_Driver/Src/stm32n6xx_hal.c ****   * @brief  Get the TCM biasing level adjust input.
 899:../Drivers/STM32N6xx_HAL_Driver/Src/stm32n6xx_hal.c ****   * @param  pLevel Pointer to return biasing level adjust input.
 900:../Drivers/STM32N6xx_HAL_Driver/Src/stm32n6xx_hal.c ****   *         The return value can be one of the following values:
 901:../Drivers/STM32N6xx_HAL_Driver/Src/stm32n6xx_hal.c ****   *            @arg SYSCFG_CACHE_BIAS_VNOM boot 0 pin: Biasing level adjust input recommended for V
 902:../Drivers/STM32N6xx_HAL_Driver/Src/stm32n6xx_hal.c ****   *            @arg SYSCFG_CACHE_BIAS_VNOM_10_PERCENT: Biasing level adjust input recommended for V
 903:../Drivers/STM32N6xx_HAL_Driver/Src/stm32n6xx_hal.c ****   * @retval HAL status
 904:../Drivers/STM32N6xx_HAL_Driver/Src/stm32n6xx_hal.c ****   */
 905:../Drivers/STM32N6xx_HAL_Driver/Src/stm32n6xx_hal.c **** HAL_StatusTypeDef HAL_SYSCFG_GetTCMBiasingLevel(uint32_t *pLevel)
 906:../Drivers/STM32N6xx_HAL_Driver/Src/stm32n6xx_hal.c **** {
 1508              		.loc 1 906 1 is_stmt 1 view -0
 1509              		.cfi_startproc
 1510              		@ args = 0, pretend = 0, frame = 0
 1511              		@ frame_needed = 0, uses_anonymous_args = 0
 1512              		@ link register save eliminated.
 907:../Drivers/STM32N6xx_HAL_Driver/Src/stm32n6xx_hal.c ****   /* Check null pointer */
 908:../Drivers/STM32N6xx_HAL_Driver/Src/stm32n6xx_hal.c ****   if (pLevel == NULL)
 1513              		.loc 1 908 3 view .LVU274
 1514              		.loc 1 908 6 is_stmt 0 view .LVU275
 1515 0000 30B1     		cbz	r0, .L147
 909:../Drivers/STM32N6xx_HAL_Driver/Src/stm32n6xx_hal.c ****   {
 910:../Drivers/STM32N6xx_HAL_Driver/Src/stm32n6xx_hal.c ****     return HAL_ERROR;
 911:../Drivers/STM32N6xx_HAL_Driver/Src/stm32n6xx_hal.c ****   }
 912:../Drivers/STM32N6xx_HAL_Driver/Src/stm32n6xx_hal.c **** 
 913:../Drivers/STM32N6xx_HAL_Driver/Src/stm32n6xx_hal.c ****   /* Get the non-secure lock state */
 914:../Drivers/STM32N6xx_HAL_Driver/Src/stm32n6xx_hal.c ****   *pLevel = READ_BIT(SYSCFG->CM55RWMCR, SYSCFG_CM55RWMCR_BC2_TCM | SYSCFG_CM55RWMCR_BC1_TCM);
 1516              		.loc 1 914 3 is_stmt 1 view .LVU276
 1517              		.loc 1 914 13 is_stmt 0 view .LVU277
 1518 0002 044B     		ldr	r3, .L148
 1519 0004 DB68     		ldr	r3, [r3, #12]
 1520 0006 03F06003 		and	r3, r3, #96
 1521              		.loc 1 914 11 view .LVU278
 1522 000a 0360     		str	r3, [r0]
 915:../Drivers/STM32N6xx_HAL_Driver/Src/stm32n6xx_hal.c **** 
 916:../Drivers/STM32N6xx_HAL_Driver/Src/stm32n6xx_hal.c ****   return HAL_OK;
 1523              		.loc 1 916 3 is_stmt 1 view .LVU279
 1524              		.loc 1 916 10 is_stmt 0 view .LVU280
 1525 000c 0020     		movs	r0, #0
 1526              	.LVL51:
 1527              		.loc 1 916 10 view .LVU281
 1528 000e 7047     		bx	lr
 1529              	.LVL52:
 1530              	.L147:
 910:../Drivers/STM32N6xx_HAL_Driver/Src/stm32n6xx_hal.c ****   }
 1531              		.loc 1 910 12 view .LVU282
 1532 0010 0120     		movs	r0, #1
 1533              	.LVL53:
 917:../Drivers/STM32N6xx_HAL_Driver/Src/stm32n6xx_hal.c **** }
 1534              		.loc 1 917 1 view .LVU283
 1535 0012 7047     		bx	lr
ARM GAS  /tmp/ccvdUNht.s 			page 44


 1536              	.L149:
 1537              		.align	2
 1538              	.L148:
 1539 0014 00800056 		.word	1442873344
 1540              		.cfi_endproc
 1541              	.LFE923:
 1543              		.section	.text.HAL_SYSCFG_EnableCacheExternalMargin,"ax",%progbits
 1544              		.align	1
 1545              		.global	HAL_SYSCFG_EnableCacheExternalMargin
 1546              		.syntax unified
 1547              		.thumb
 1548              		.thumb_func
 1550              	HAL_SYSCFG_EnableCacheExternalMargin:
 1551              	.LFB924:
 918:../Drivers/STM32N6xx_HAL_Driver/Src/stm32n6xx_hal.c **** 
 919:../Drivers/STM32N6xx_HAL_Driver/Src/stm32n6xx_hal.c **** /**
 920:../Drivers/STM32N6xx_HAL_Driver/Src/stm32n6xx_hal.c ****   * @brief  Enable external RW margin inputs for Cache memories
 921:../Drivers/STM32N6xx_HAL_Driver/Src/stm32n6xx_hal.c ****   * @retval None
 922:../Drivers/STM32N6xx_HAL_Driver/Src/stm32n6xx_hal.c ****   */
 923:../Drivers/STM32N6xx_HAL_Driver/Src/stm32n6xx_hal.c **** void HAL_SYSCFG_EnableCacheExternalMargin(void)
 924:../Drivers/STM32N6xx_HAL_Driver/Src/stm32n6xx_hal.c **** {
 1552              		.loc 1 924 1 is_stmt 1 view -0
 1553              		.cfi_startproc
 1554              		@ args = 0, pretend = 0, frame = 0
 1555              		@ frame_needed = 0, uses_anonymous_args = 0
 1556              		@ link register save eliminated.
 925:../Drivers/STM32N6xx_HAL_Driver/Src/stm32n6xx_hal.c ****   SET_BIT(SYSCFG->CM55RWMCR, SYSCFG_CM55RWMCR_RME_CACHE);
 1557              		.loc 1 925 3 view .LVU285
 1558 0000 024A     		ldr	r2, .L151
 1559 0002 D368     		ldr	r3, [r2, #12]
 1560 0004 43F08003 		orr	r3, r3, #128
 1561 0008 D360     		str	r3, [r2, #12]
 926:../Drivers/STM32N6xx_HAL_Driver/Src/stm32n6xx_hal.c **** }
 1562              		.loc 1 926 1 is_stmt 0 view .LVU286
 1563 000a 7047     		bx	lr
 1564              	.L152:
 1565              		.align	2
 1566              	.L151:
 1567 000c 00800056 		.word	1442873344
 1568              		.cfi_endproc
 1569              	.LFE924:
 1571              		.section	.text.HAL_SYSCFG_DisableCacheExternalMargin,"ax",%progbits
 1572              		.align	1
 1573              		.global	HAL_SYSCFG_DisableCacheExternalMargin
 1574              		.syntax unified
 1575              		.thumb
 1576              		.thumb_func
 1578              	HAL_SYSCFG_DisableCacheExternalMargin:
 1579              	.LFB925:
 927:../Drivers/STM32N6xx_HAL_Driver/Src/stm32n6xx_hal.c **** 
 928:../Drivers/STM32N6xx_HAL_Driver/Src/stm32n6xx_hal.c **** /**
 929:../Drivers/STM32N6xx_HAL_Driver/Src/stm32n6xx_hal.c ****   * @brief  Disable external RW margin inputs for Cache memories
 930:../Drivers/STM32N6xx_HAL_Driver/Src/stm32n6xx_hal.c ****   * @retval None
 931:../Drivers/STM32N6xx_HAL_Driver/Src/stm32n6xx_hal.c ****   */
 932:../Drivers/STM32N6xx_HAL_Driver/Src/stm32n6xx_hal.c **** void HAL_SYSCFG_DisableCacheExternalMargin(void)
 933:../Drivers/STM32N6xx_HAL_Driver/Src/stm32n6xx_hal.c **** {
 1580              		.loc 1 933 1 is_stmt 1 view -0
ARM GAS  /tmp/ccvdUNht.s 			page 45


 1581              		.cfi_startproc
 1582              		@ args = 0, pretend = 0, frame = 0
 1583              		@ frame_needed = 0, uses_anonymous_args = 0
 1584              		@ link register save eliminated.
 934:../Drivers/STM32N6xx_HAL_Driver/Src/stm32n6xx_hal.c ****   CLEAR_BIT(SYSCFG->CM55RWMCR, SYSCFG_CM55RWMCR_RME_CACHE);
 1585              		.loc 1 934 3 view .LVU288
 1586 0000 024A     		ldr	r2, .L154
 1587 0002 D368     		ldr	r3, [r2, #12]
 1588 0004 23F08003 		bic	r3, r3, #128
 1589 0008 D360     		str	r3, [r2, #12]
 935:../Drivers/STM32N6xx_HAL_Driver/Src/stm32n6xx_hal.c **** }
 1590              		.loc 1 935 1 is_stmt 0 view .LVU289
 1591 000a 7047     		bx	lr
 1592              	.L155:
 1593              		.align	2
 1594              	.L154:
 1595 000c 00800056 		.word	1442873344
 1596              		.cfi_endproc
 1597              	.LFE925:
 1599              		.section	.text.HAL_SYSCFG_SetCacheRWMarginInput,"ax",%progbits
 1600              		.align	1
 1601              		.global	HAL_SYSCFG_SetCacheRWMarginInput
 1602              		.syntax unified
 1603              		.thumb
 1604              		.thumb_func
 1606              	HAL_SYSCFG_SetCacheRWMarginInput:
 1607              	.LVL54:
 1608              	.LFB926:
 936:../Drivers/STM32N6xx_HAL_Driver/Src/stm32n6xx_hal.c **** 
 937:../Drivers/STM32N6xx_HAL_Driver/Src/stm32n6xx_hal.c **** /**
 938:../Drivers/STM32N6xx_HAL_Driver/Src/stm32n6xx_hal.c ****   * @brief  Set External RW margin inputs for Cache memories.
 939:../Drivers/STM32N6xx_HAL_Driver/Src/stm32n6xx_hal.c ****   * @param  CacheRWMarginInput Input Margin.
 940:../Drivers/STM32N6xx_HAL_Driver/Src/stm32n6xx_hal.c ****   * @retval None
 941:../Drivers/STM32N6xx_HAL_Driver/Src/stm32n6xx_hal.c ****   */
 942:../Drivers/STM32N6xx_HAL_Driver/Src/stm32n6xx_hal.c **** void HAL_SYSCFG_SetCacheRWMarginInput(uint32_t CacheRWMarginInput)
 943:../Drivers/STM32N6xx_HAL_Driver/Src/stm32n6xx_hal.c **** {
 1609              		.loc 1 943 1 is_stmt 1 view -0
 1610              		.cfi_startproc
 1611              		@ args = 0, pretend = 0, frame = 0
 1612              		@ frame_needed = 0, uses_anonymous_args = 0
 1613              		@ link register save eliminated.
 944:../Drivers/STM32N6xx_HAL_Driver/Src/stm32n6xx_hal.c ****   assert_param(IS_TCM_MARGIN_INPUT(CacheRWMarginInput));
 1614              		.loc 1 944 3 view .LVU291
 945:../Drivers/STM32N6xx_HAL_Driver/Src/stm32n6xx_hal.c **** 
 946:../Drivers/STM32N6xx_HAL_Driver/Src/stm32n6xx_hal.c ****   MODIFY_REG(SYSCFG->CM55RWMCR, SYSCFG_CM55RWMCR_RM_CACHE, (CacheRWMarginInput << 8U));
 1615              		.loc 1 946 3 view .LVU292
 1616 0000 034A     		ldr	r2, .L157
 1617 0002 D368     		ldr	r3, [r2, #12]
 1618 0004 23F47063 		bic	r3, r3, #3840
 1619 0008 43EA0023 		orr	r3, r3, r0, lsl #8
 1620 000c D360     		str	r3, [r2, #12]
 947:../Drivers/STM32N6xx_HAL_Driver/Src/stm32n6xx_hal.c **** }
 1621              		.loc 1 947 1 is_stmt 0 view .LVU293
 1622 000e 7047     		bx	lr
 1623              	.L158:
 1624              		.align	2
 1625              	.L157:
ARM GAS  /tmp/ccvdUNht.s 			page 46


 1626 0010 00800056 		.word	1442873344
 1627              		.cfi_endproc
 1628              	.LFE926:
 1630              		.section	.text.HAL_SYSCFG_GetCacheRWMarginInput,"ax",%progbits
 1631              		.align	1
 1632              		.global	HAL_SYSCFG_GetCacheRWMarginInput
 1633              		.syntax unified
 1634              		.thumb
 1635              		.thumb_func
 1637              	HAL_SYSCFG_GetCacheRWMarginInput:
 1638              	.LVL55:
 1639              	.LFB927:
 948:../Drivers/STM32N6xx_HAL_Driver/Src/stm32n6xx_hal.c **** 
 949:../Drivers/STM32N6xx_HAL_Driver/Src/stm32n6xx_hal.c **** /**
 950:../Drivers/STM32N6xx_HAL_Driver/Src/stm32n6xx_hal.c ****   * @brief  Get the External RW margin inputs for Cache memories.
 951:../Drivers/STM32N6xx_HAL_Driver/Src/stm32n6xx_hal.c ****   * @param  pCacheRWMarginInput Pointer to return Input Margin.
 952:../Drivers/STM32N6xx_HAL_Driver/Src/stm32n6xx_hal.c ****   * @retval HAL status
 953:../Drivers/STM32N6xx_HAL_Driver/Src/stm32n6xx_hal.c ****   */
 954:../Drivers/STM32N6xx_HAL_Driver/Src/stm32n6xx_hal.c **** HAL_StatusTypeDef HAL_SYSCFG_GetCacheRWMarginInput(uint32_t *pCacheRWMarginInput)
 955:../Drivers/STM32N6xx_HAL_Driver/Src/stm32n6xx_hal.c **** {
 1640              		.loc 1 955 1 is_stmt 1 view -0
 1641              		.cfi_startproc
 1642              		@ args = 0, pretend = 0, frame = 0
 1643              		@ frame_needed = 0, uses_anonymous_args = 0
 1644              		@ link register save eliminated.
 956:../Drivers/STM32N6xx_HAL_Driver/Src/stm32n6xx_hal.c ****   /* Check null pointer */
 957:../Drivers/STM32N6xx_HAL_Driver/Src/stm32n6xx_hal.c ****   if (pCacheRWMarginInput == NULL)
 1645              		.loc 1 957 3 view .LVU295
 1646              		.loc 1 957 6 is_stmt 0 view .LVU296
 1647 0000 30B1     		cbz	r0, .L161
 958:../Drivers/STM32N6xx_HAL_Driver/Src/stm32n6xx_hal.c ****   {
 959:../Drivers/STM32N6xx_HAL_Driver/Src/stm32n6xx_hal.c ****     return HAL_ERROR;
 960:../Drivers/STM32N6xx_HAL_Driver/Src/stm32n6xx_hal.c ****   }
 961:../Drivers/STM32N6xx_HAL_Driver/Src/stm32n6xx_hal.c **** 
 962:../Drivers/STM32N6xx_HAL_Driver/Src/stm32n6xx_hal.c ****   /* Get the non-secure lock state */
 963:../Drivers/STM32N6xx_HAL_Driver/Src/stm32n6xx_hal.c ****   *pCacheRWMarginInput = (READ_BIT(SYSCFG->CM55RWMCR, SYSCFG_CM55RWMCR_RM_CACHE) >> 8U);
 1648              		.loc 1 963 3 is_stmt 1 view .LVU297
 1649              		.loc 1 963 27 is_stmt 0 view .LVU298
 1650 0002 044B     		ldr	r3, .L162
 1651 0004 DB68     		ldr	r3, [r3, #12]
 1652              		.loc 1 963 82 view .LVU299
 1653 0006 C3F30323 		ubfx	r3, r3, #8, #4
 1654              		.loc 1 963 24 view .LVU300
 1655 000a 0360     		str	r3, [r0]
 964:../Drivers/STM32N6xx_HAL_Driver/Src/stm32n6xx_hal.c **** 
 965:../Drivers/STM32N6xx_HAL_Driver/Src/stm32n6xx_hal.c ****   return HAL_OK;
 1656              		.loc 1 965 3 is_stmt 1 view .LVU301
 1657              		.loc 1 965 10 is_stmt 0 view .LVU302
 1658 000c 0020     		movs	r0, #0
 1659              	.LVL56:
 1660              		.loc 1 965 10 view .LVU303
 1661 000e 7047     		bx	lr
 1662              	.LVL57:
 1663              	.L161:
 959:../Drivers/STM32N6xx_HAL_Driver/Src/stm32n6xx_hal.c ****   }
 1664              		.loc 1 959 12 view .LVU304
 1665 0010 0120     		movs	r0, #1
ARM GAS  /tmp/ccvdUNht.s 			page 47


 1666              	.LVL58:
 966:../Drivers/STM32N6xx_HAL_Driver/Src/stm32n6xx_hal.c **** }
 1667              		.loc 1 966 1 view .LVU305
 1668 0012 7047     		bx	lr
 1669              	.L163:
 1670              		.align	2
 1671              	.L162:
 1672 0014 00800056 		.word	1442873344
 1673              		.cfi_endproc
 1674              	.LFE927:
 1676              		.section	.text.HAL_SYSCFG_SetCacheBiasingLevel,"ax",%progbits
 1677              		.align	1
 1678              		.global	HAL_SYSCFG_SetCacheBiasingLevel
 1679              		.syntax unified
 1680              		.thumb
 1681              		.thumb_func
 1683              	HAL_SYSCFG_SetCacheBiasingLevel:
 1684              	.LVL59:
 1685              	.LFB928:
 967:../Drivers/STM32N6xx_HAL_Driver/Src/stm32n6xx_hal.c **** 
 968:../Drivers/STM32N6xx_HAL_Driver/Src/stm32n6xx_hal.c **** /**
 969:../Drivers/STM32N6xx_HAL_Driver/Src/stm32n6xx_hal.c ****   * @brief  Set the Cache biasing level adjust input.
 970:../Drivers/STM32N6xx_HAL_Driver/Src/stm32n6xx_hal.c ****   * @param  Level the biaising level adjust input
 971:../Drivers/STM32N6xx_HAL_Driver/Src/stm32n6xx_hal.c ****   *         This parameter can one of the following values:
 972:../Drivers/STM32N6xx_HAL_Driver/Src/stm32n6xx_hal.c ****   *            @arg SYSCFG_CACHE_BIAS_VNOM: Biasing level adjust input recommended for Vnom
 973:../Drivers/STM32N6xx_HAL_Driver/Src/stm32n6xx_hal.c ****   *            @arg SYSCFG_CACHE_BIAS_VNOM_10_PERCENT: Biasing level adjust input recommended for V
 974:../Drivers/STM32N6xx_HAL_Driver/Src/stm32n6xx_hal.c ****   * @retval None
 975:../Drivers/STM32N6xx_HAL_Driver/Src/stm32n6xx_hal.c ****   */
 976:../Drivers/STM32N6xx_HAL_Driver/Src/stm32n6xx_hal.c **** void HAL_SYSCFG_SetCacheBiasingLevel(uint32_t Level)
 977:../Drivers/STM32N6xx_HAL_Driver/Src/stm32n6xx_hal.c **** {
 1686              		.loc 1 977 1 is_stmt 1 view -0
 1687              		.cfi_startproc
 1688              		@ args = 0, pretend = 0, frame = 0
 1689              		@ frame_needed = 0, uses_anonymous_args = 0
 1690              		@ link register save eliminated.
 978:../Drivers/STM32N6xx_HAL_Driver/Src/stm32n6xx_hal.c ****   /* Check the parameters */
 979:../Drivers/STM32N6xx_HAL_Driver/Src/stm32n6xx_hal.c ****   assert_param(IS_SYSCFG_CACHE_BIASING_LEVEL(Level));
 1691              		.loc 1 979 3 view .LVU307
 980:../Drivers/STM32N6xx_HAL_Driver/Src/stm32n6xx_hal.c **** 
 981:../Drivers/STM32N6xx_HAL_Driver/Src/stm32n6xx_hal.c ****   MODIFY_REG(SYSCFG->CM55RWMCR, SYSCFG_CM55RWMCR_BC2_CACHE | SYSCFG_CM55RWMCR_BC1_CACHE, Level);
 1692              		.loc 1 981 3 view .LVU308
 1693 0000 034A     		ldr	r2, .L165
 1694 0002 D368     		ldr	r3, [r2, #12]
 1695 0004 23F44053 		bic	r3, r3, #12288
 1696 0008 0343     		orrs	r3, r3, r0
 1697 000a D360     		str	r3, [r2, #12]
 982:../Drivers/STM32N6xx_HAL_Driver/Src/stm32n6xx_hal.c **** }
 1698              		.loc 1 982 1 is_stmt 0 view .LVU309
 1699 000c 7047     		bx	lr
 1700              	.L166:
 1701 000e 00BF     		.align	2
 1702              	.L165:
 1703 0010 00800056 		.word	1442873344
 1704              		.cfi_endproc
 1705              	.LFE928:
 1707              		.section	.text.HAL_SYSCFG_GetCacheBiasingLevel,"ax",%progbits
 1708              		.align	1
ARM GAS  /tmp/ccvdUNht.s 			page 48


 1709              		.global	HAL_SYSCFG_GetCacheBiasingLevel
 1710              		.syntax unified
 1711              		.thumb
 1712              		.thumb_func
 1714              	HAL_SYSCFG_GetCacheBiasingLevel:
 1715              	.LVL60:
 1716              	.LFB929:
 983:../Drivers/STM32N6xx_HAL_Driver/Src/stm32n6xx_hal.c **** 
 984:../Drivers/STM32N6xx_HAL_Driver/Src/stm32n6xx_hal.c **** /**
 985:../Drivers/STM32N6xx_HAL_Driver/Src/stm32n6xx_hal.c ****   * @brief  Get the Cache biasing level adjust input.
 986:../Drivers/STM32N6xx_HAL_Driver/Src/stm32n6xx_hal.c ****   * @param  pLevel Pointer to return Cache biasing level adjust input.
 987:../Drivers/STM32N6xx_HAL_Driver/Src/stm32n6xx_hal.c ****   *         The return value can be onr of the following values:
 988:../Drivers/STM32N6xx_HAL_Driver/Src/stm32n6xx_hal.c ****   *            @arg SYSCFG_CACHE_BIAS_VNOM boot: Biasing level adjust input recommended for Vnom
 989:../Drivers/STM32N6xx_HAL_Driver/Src/stm32n6xx_hal.c ****   *            @arg SYSCFG_CACHE_BIAS_VNOM_10_PERCENT: Biasing level adjust input recommended for V
 990:../Drivers/STM32N6xx_HAL_Driver/Src/stm32n6xx_hal.c ****   * @retval HAL status
 991:../Drivers/STM32N6xx_HAL_Driver/Src/stm32n6xx_hal.c ****   */
 992:../Drivers/STM32N6xx_HAL_Driver/Src/stm32n6xx_hal.c **** HAL_StatusTypeDef HAL_SYSCFG_GetCacheBiasingLevel(uint32_t *pLevel)
 993:../Drivers/STM32N6xx_HAL_Driver/Src/stm32n6xx_hal.c **** {
 1717              		.loc 1 993 1 is_stmt 1 view -0
 1718              		.cfi_startproc
 1719              		@ args = 0, pretend = 0, frame = 0
 1720              		@ frame_needed = 0, uses_anonymous_args = 0
 1721              		@ link register save eliminated.
 994:../Drivers/STM32N6xx_HAL_Driver/Src/stm32n6xx_hal.c ****   /* Check null pointer */
 995:../Drivers/STM32N6xx_HAL_Driver/Src/stm32n6xx_hal.c ****   if (pLevel == NULL)
 1722              		.loc 1 995 3 view .LVU311
 1723              		.loc 1 995 6 is_stmt 0 view .LVU312
 1724 0000 30B1     		cbz	r0, .L169
 996:../Drivers/STM32N6xx_HAL_Driver/Src/stm32n6xx_hal.c ****   {
 997:../Drivers/STM32N6xx_HAL_Driver/Src/stm32n6xx_hal.c ****     return HAL_ERROR;
 998:../Drivers/STM32N6xx_HAL_Driver/Src/stm32n6xx_hal.c ****   }
 999:../Drivers/STM32N6xx_HAL_Driver/Src/stm32n6xx_hal.c **** 
1000:../Drivers/STM32N6xx_HAL_Driver/Src/stm32n6xx_hal.c ****   /* Get the cache biaising */
1001:../Drivers/STM32N6xx_HAL_Driver/Src/stm32n6xx_hal.c ****   *pLevel = READ_BIT(SYSCFG->CM55RWMCR, SYSCFG_CM55RWMCR_BC2_CACHE | SYSCFG_CM55RWMCR_BC1_CACHE);
 1725              		.loc 1 1001 3 is_stmt 1 view .LVU313
 1726              		.loc 1 1001 13 is_stmt 0 view .LVU314
 1727 0002 044B     		ldr	r3, .L170
 1728 0004 DB68     		ldr	r3, [r3, #12]
 1729 0006 03F44053 		and	r3, r3, #12288
 1730              		.loc 1 1001 11 view .LVU315
 1731 000a 0360     		str	r3, [r0]
1002:../Drivers/STM32N6xx_HAL_Driver/Src/stm32n6xx_hal.c **** 
1003:../Drivers/STM32N6xx_HAL_Driver/Src/stm32n6xx_hal.c ****   return HAL_OK;
 1732              		.loc 1 1003 3 is_stmt 1 view .LVU316
 1733              		.loc 1 1003 10 is_stmt 0 view .LVU317
 1734 000c 0020     		movs	r0, #0
 1735              	.LVL61:
 1736              		.loc 1 1003 10 view .LVU318
 1737 000e 7047     		bx	lr
 1738              	.LVL62:
 1739              	.L169:
 997:../Drivers/STM32N6xx_HAL_Driver/Src/stm32n6xx_hal.c ****   }
 1740              		.loc 1 997 12 view .LVU319
 1741 0010 0120     		movs	r0, #1
 1742              	.LVL63:
1004:../Drivers/STM32N6xx_HAL_Driver/Src/stm32n6xx_hal.c **** }
 1743              		.loc 1 1004 1 view .LVU320
ARM GAS  /tmp/ccvdUNht.s 			page 49


 1744 0012 7047     		bx	lr
 1745              	.L171:
 1746              		.align	2
 1747              	.L170:
 1748 0014 00800056 		.word	1442873344
 1749              		.cfi_endproc
 1750              	.LFE929:
 1752              		.section	.text.HAL_SYSCFG_SetSVTORAddress,"ax",%progbits
 1753              		.align	1
 1754              		.global	HAL_SYSCFG_SetSVTORAddress
 1755              		.syntax unified
 1756              		.thumb
 1757              		.thumb_func
 1759              	HAL_SYSCFG_SetSVTORAddress:
 1760              	.LVL64:
 1761              	.LFB930:
1005:../Drivers/STM32N6xx_HAL_Driver/Src/stm32n6xx_hal.c **** 
1006:../Drivers/STM32N6xx_HAL_Driver/Src/stm32n6xx_hal.c **** /**
1007:../Drivers/STM32N6xx_HAL_Driver/Src/stm32n6xx_hal.c ****   * @brief  Set the secure vector table (VTOR) address.
1008:../Drivers/STM32N6xx_HAL_Driver/Src/stm32n6xx_hal.c ****   * @note   Secure vector table address must be set to ensure return from STANDBY state.
1009:../Drivers/STM32N6xx_HAL_Driver/Src/stm32n6xx_hal.c ****   * @param  Address Secure VTOR address
1010:../Drivers/STM32N6xx_HAL_Driver/Src/stm32n6xx_hal.c ****   * @retval None
1011:../Drivers/STM32N6xx_HAL_Driver/Src/stm32n6xx_hal.c ****   */
1012:../Drivers/STM32N6xx_HAL_Driver/Src/stm32n6xx_hal.c **** void HAL_SYSCFG_SetSVTORAddress(uint32_t Address)
1013:../Drivers/STM32N6xx_HAL_Driver/Src/stm32n6xx_hal.c **** {
 1762              		.loc 1 1013 1 is_stmt 1 view -0
 1763              		.cfi_startproc
 1764              		@ args = 0, pretend = 0, frame = 0
 1765              		@ frame_needed = 0, uses_anonymous_args = 0
 1766              		@ link register save eliminated.
1014:../Drivers/STM32N6xx_HAL_Driver/Src/stm32n6xx_hal.c ****   /* Check the parameters */
1015:../Drivers/STM32N6xx_HAL_Driver/Src/stm32n6xx_hal.c ****   assert_param(IS_VTOR_ADDRESS(Address));
 1767              		.loc 1 1015 3 view .LVU322
1016:../Drivers/STM32N6xx_HAL_Driver/Src/stm32n6xx_hal.c **** 
1017:../Drivers/STM32N6xx_HAL_Driver/Src/stm32n6xx_hal.c ****   WRITE_REG(SYSCFG->INITSVTORCR, Address);
 1768              		.loc 1 1017 3 view .LVU323
 1769 0000 014B     		ldr	r3, .L173
 1770 0002 1861     		str	r0, [r3, #16]
1018:../Drivers/STM32N6xx_HAL_Driver/Src/stm32n6xx_hal.c **** }
 1771              		.loc 1 1018 1 is_stmt 0 view .LVU324
 1772 0004 7047     		bx	lr
 1773              	.L174:
 1774 0006 00BF     		.align	2
 1775              	.L173:
 1776 0008 00800056 		.word	1442873344
 1777              		.cfi_endproc
 1778              	.LFE930:
 1780              		.section	.text.HAL_SYSCFG_GetSVTORAddress,"ax",%progbits
 1781              		.align	1
 1782              		.global	HAL_SYSCFG_GetSVTORAddress
 1783              		.syntax unified
 1784              		.thumb
 1785              		.thumb_func
 1787              	HAL_SYSCFG_GetSVTORAddress:
 1788              	.LVL65:
 1789              	.LFB931:
1019:../Drivers/STM32N6xx_HAL_Driver/Src/stm32n6xx_hal.c **** 
ARM GAS  /tmp/ccvdUNht.s 			page 50


1020:../Drivers/STM32N6xx_HAL_Driver/Src/stm32n6xx_hal.c **** /**
1021:../Drivers/STM32N6xx_HAL_Driver/Src/stm32n6xx_hal.c ****   * @brief  Get the secure vector table (VTOR) address.
1022:../Drivers/STM32N6xx_HAL_Driver/Src/stm32n6xx_hal.c ****   * @param  pAddress  Pointer to return the secure vector table address
1023:../Drivers/STM32N6xx_HAL_Driver/Src/stm32n6xx_hal.c ****   * @retval HAL status
1024:../Drivers/STM32N6xx_HAL_Driver/Src/stm32n6xx_hal.c ****   */
1025:../Drivers/STM32N6xx_HAL_Driver/Src/stm32n6xx_hal.c **** HAL_StatusTypeDef HAL_SYSCFG_GetSVTORAddress(uint32_t *pAddress)
1026:../Drivers/STM32N6xx_HAL_Driver/Src/stm32n6xx_hal.c **** {
 1790              		.loc 1 1026 1 is_stmt 1 view -0
 1791              		.cfi_startproc
 1792              		@ args = 0, pretend = 0, frame = 0
 1793              		@ frame_needed = 0, uses_anonymous_args = 0
 1794              		@ link register save eliminated.
1027:../Drivers/STM32N6xx_HAL_Driver/Src/stm32n6xx_hal.c ****   /* Check null pointer */
1028:../Drivers/STM32N6xx_HAL_Driver/Src/stm32n6xx_hal.c ****   if (pAddress == NULL)
 1795              		.loc 1 1028 3 view .LVU326
 1796              		.loc 1 1028 6 is_stmt 0 view .LVU327
 1797 0000 20B1     		cbz	r0, .L177
1029:../Drivers/STM32N6xx_HAL_Driver/Src/stm32n6xx_hal.c ****   {
1030:../Drivers/STM32N6xx_HAL_Driver/Src/stm32n6xx_hal.c ****     return HAL_ERROR;
1031:../Drivers/STM32N6xx_HAL_Driver/Src/stm32n6xx_hal.c ****   }
1032:../Drivers/STM32N6xx_HAL_Driver/Src/stm32n6xx_hal.c **** 
1033:../Drivers/STM32N6xx_HAL_Driver/Src/stm32n6xx_hal.c ****   /* Get the secure VTOR address */
1034:../Drivers/STM32N6xx_HAL_Driver/Src/stm32n6xx_hal.c ****   *pAddress = READ_REG(SYSCFG->INITSVTORCR);
 1798              		.loc 1 1034 3 is_stmt 1 view .LVU328
 1799              		.loc 1 1034 15 is_stmt 0 view .LVU329
 1800 0002 034A     		ldr	r2, .L178
 1801 0004 1269     		ldr	r2, [r2, #16]
 1802              		.loc 1 1034 13 view .LVU330
 1803 0006 0260     		str	r2, [r0]
1035:../Drivers/STM32N6xx_HAL_Driver/Src/stm32n6xx_hal.c **** 
1036:../Drivers/STM32N6xx_HAL_Driver/Src/stm32n6xx_hal.c ****   return HAL_OK;
 1804              		.loc 1 1036 3 is_stmt 1 view .LVU331
 1805              		.loc 1 1036 10 is_stmt 0 view .LVU332
 1806 0008 0020     		movs	r0, #0
 1807              	.LVL66:
 1808              		.loc 1 1036 10 view .LVU333
 1809 000a 7047     		bx	lr
 1810              	.LVL67:
 1811              	.L177:
1030:../Drivers/STM32N6xx_HAL_Driver/Src/stm32n6xx_hal.c ****   }
 1812              		.loc 1 1030 12 view .LVU334
 1813 000c 0120     		movs	r0, #1
 1814              	.LVL68:
1037:../Drivers/STM32N6xx_HAL_Driver/Src/stm32n6xx_hal.c **** }
 1815              		.loc 1 1037 1 view .LVU335
 1816 000e 7047     		bx	lr
 1817              	.L179:
 1818              		.align	2
 1819              	.L178:
 1820 0010 00800056 		.word	1442873344
 1821              		.cfi_endproc
 1822              	.LFE931:
 1824              		.section	.text.HAL_SYSCFG_SetNSVTORAddress,"ax",%progbits
 1825              		.align	1
 1826              		.global	HAL_SYSCFG_SetNSVTORAddress
 1827              		.syntax unified
 1828              		.thumb
ARM GAS  /tmp/ccvdUNht.s 			page 51


 1829              		.thumb_func
 1831              	HAL_SYSCFG_SetNSVTORAddress:
 1832              	.LVL69:
 1833              	.LFB932:
1038:../Drivers/STM32N6xx_HAL_Driver/Src/stm32n6xx_hal.c **** 
1039:../Drivers/STM32N6xx_HAL_Driver/Src/stm32n6xx_hal.c **** /**
1040:../Drivers/STM32N6xx_HAL_Driver/Src/stm32n6xx_hal.c ****   * @brief  Set the non secure vector table (VTOR) address.
1041:../Drivers/STM32N6xx_HAL_Driver/Src/stm32n6xx_hal.c ****   * @param  Address Non-secure VTOR address
1042:../Drivers/STM32N6xx_HAL_Driver/Src/stm32n6xx_hal.c ****   * @retval None
1043:../Drivers/STM32N6xx_HAL_Driver/Src/stm32n6xx_hal.c ****   */
1044:../Drivers/STM32N6xx_HAL_Driver/Src/stm32n6xx_hal.c **** void HAL_SYSCFG_SetNSVTORAddress(uint32_t Address)
1045:../Drivers/STM32N6xx_HAL_Driver/Src/stm32n6xx_hal.c **** {
 1834              		.loc 1 1045 1 is_stmt 1 view -0
 1835              		.cfi_startproc
 1836              		@ args = 0, pretend = 0, frame = 0
 1837              		@ frame_needed = 0, uses_anonymous_args = 0
 1838              		@ link register save eliminated.
1046:../Drivers/STM32N6xx_HAL_Driver/Src/stm32n6xx_hal.c ****   /* Check the parameters */
1047:../Drivers/STM32N6xx_HAL_Driver/Src/stm32n6xx_hal.c ****   assert_param(IS_VTOR_ADDRESS(Address));
 1839              		.loc 1 1047 3 view .LVU337
1048:../Drivers/STM32N6xx_HAL_Driver/Src/stm32n6xx_hal.c **** 
1049:../Drivers/STM32N6xx_HAL_Driver/Src/stm32n6xx_hal.c ****   WRITE_REG(SYSCFG->INITNSVTORCR, Address);
 1840              		.loc 1 1049 3 view .LVU338
 1841 0000 014B     		ldr	r3, .L181
 1842 0002 5861     		str	r0, [r3, #20]
1050:../Drivers/STM32N6xx_HAL_Driver/Src/stm32n6xx_hal.c **** }
 1843              		.loc 1 1050 1 is_stmt 0 view .LVU339
 1844 0004 7047     		bx	lr
 1845              	.L182:
 1846 0006 00BF     		.align	2
 1847              	.L181:
 1848 0008 00800056 		.word	1442873344
 1849              		.cfi_endproc
 1850              	.LFE932:
 1852              		.section	.text.HAL_SYSCFG_GetNSVTORAddress,"ax",%progbits
 1853              		.align	1
 1854              		.global	HAL_SYSCFG_GetNSVTORAddress
 1855              		.syntax unified
 1856              		.thumb
 1857              		.thumb_func
 1859              	HAL_SYSCFG_GetNSVTORAddress:
 1860              	.LVL70:
 1861              	.LFB933:
1051:../Drivers/STM32N6xx_HAL_Driver/Src/stm32n6xx_hal.c **** 
1052:../Drivers/STM32N6xx_HAL_Driver/Src/stm32n6xx_hal.c **** /**
1053:../Drivers/STM32N6xx_HAL_Driver/Src/stm32n6xx_hal.c ****   * @brief  Get the non secure VTOR address.
1054:../Drivers/STM32N6xx_HAL_Driver/Src/stm32n6xx_hal.c ****   * @param  pAddress  Pointer to return the non-secure vector table address
1055:../Drivers/STM32N6xx_HAL_Driver/Src/stm32n6xx_hal.c ****   * @retval HAL status
1056:../Drivers/STM32N6xx_HAL_Driver/Src/stm32n6xx_hal.c ****   */
1057:../Drivers/STM32N6xx_HAL_Driver/Src/stm32n6xx_hal.c **** HAL_StatusTypeDef HAL_SYSCFG_GetNSVTORAddress(uint32_t *pAddress)
1058:../Drivers/STM32N6xx_HAL_Driver/Src/stm32n6xx_hal.c **** {
 1862              		.loc 1 1058 1 is_stmt 1 view -0
 1863              		.cfi_startproc
 1864              		@ args = 0, pretend = 0, frame = 0
 1865              		@ frame_needed = 0, uses_anonymous_args = 0
 1866              		@ link register save eliminated.
1059:../Drivers/STM32N6xx_HAL_Driver/Src/stm32n6xx_hal.c ****   /* Check null pointer */
ARM GAS  /tmp/ccvdUNht.s 			page 52


1060:../Drivers/STM32N6xx_HAL_Driver/Src/stm32n6xx_hal.c ****   if (pAddress == NULL)
 1867              		.loc 1 1060 3 view .LVU341
 1868              		.loc 1 1060 6 is_stmt 0 view .LVU342
 1869 0000 20B1     		cbz	r0, .L185
1061:../Drivers/STM32N6xx_HAL_Driver/Src/stm32n6xx_hal.c ****   {
1062:../Drivers/STM32N6xx_HAL_Driver/Src/stm32n6xx_hal.c ****     return HAL_ERROR;
1063:../Drivers/STM32N6xx_HAL_Driver/Src/stm32n6xx_hal.c ****   }
1064:../Drivers/STM32N6xx_HAL_Driver/Src/stm32n6xx_hal.c **** 
1065:../Drivers/STM32N6xx_HAL_Driver/Src/stm32n6xx_hal.c ****   /* Get the non-secure VTOR address */
1066:../Drivers/STM32N6xx_HAL_Driver/Src/stm32n6xx_hal.c ****   *pAddress = READ_REG(SYSCFG->INITNSVTORCR);
 1870              		.loc 1 1066 3 is_stmt 1 view .LVU343
 1871              		.loc 1 1066 15 is_stmt 0 view .LVU344
 1872 0002 034A     		ldr	r2, .L186
 1873 0004 5269     		ldr	r2, [r2, #20]
 1874              		.loc 1 1066 13 view .LVU345
 1875 0006 0260     		str	r2, [r0]
1067:../Drivers/STM32N6xx_HAL_Driver/Src/stm32n6xx_hal.c **** 
1068:../Drivers/STM32N6xx_HAL_Driver/Src/stm32n6xx_hal.c ****   return HAL_OK;
 1876              		.loc 1 1068 3 is_stmt 1 view .LVU346
 1877              		.loc 1 1068 10 is_stmt 0 view .LVU347
 1878 0008 0020     		movs	r0, #0
 1879              	.LVL71:
 1880              		.loc 1 1068 10 view .LVU348
 1881 000a 7047     		bx	lr
 1882              	.LVL72:
 1883              	.L185:
1062:../Drivers/STM32N6xx_HAL_Driver/Src/stm32n6xx_hal.c ****   }
 1884              		.loc 1 1062 12 view .LVU349
 1885 000c 0120     		movs	r0, #1
 1886              	.LVL73:
1069:../Drivers/STM32N6xx_HAL_Driver/Src/stm32n6xx_hal.c **** }
 1887              		.loc 1 1069 1 view .LVU350
 1888 000e 7047     		bx	lr
 1889              	.L187:
 1890              		.align	2
 1891              	.L186:
 1892 0010 00800056 		.word	1442873344
 1893              		.cfi_endproc
 1894              	.LFE933:
 1896              		.section	.text.HAL_SYSCFG_EnablePowerOnReset,"ax",%progbits
 1897              		.align	1
 1898              		.global	HAL_SYSCFG_EnablePowerOnReset
 1899              		.syntax unified
 1900              		.thumb
 1901              		.thumb_func
 1903              	HAL_SYSCFG_EnablePowerOnReset:
 1904              	.LFB934:
1070:../Drivers/STM32N6xx_HAL_Driver/Src/stm32n6xx_hal.c **** 
1071:../Drivers/STM32N6xx_HAL_Driver/Src/stm32n6xx_hal.c **** /**
1072:../Drivers/STM32N6xx_HAL_Driver/Src/stm32n6xx_hal.c ****   * @brief  Enable the Power-on reset.
1073:../Drivers/STM32N6xx_HAL_Driver/Src/stm32n6xx_hal.c ****   * @note   Select power-on reset to apply on core upon SYSRESETREQ (NVIC_SystemReset())
1074:../Drivers/STM32N6xx_HAL_Driver/Src/stm32n6xx_hal.c ****   * @retval None
1075:../Drivers/STM32N6xx_HAL_Driver/Src/stm32n6xx_hal.c ****   */
1076:../Drivers/STM32N6xx_HAL_Driver/Src/stm32n6xx_hal.c **** void HAL_SYSCFG_EnablePowerOnReset(void)
1077:../Drivers/STM32N6xx_HAL_Driver/Src/stm32n6xx_hal.c **** {
 1905              		.loc 1 1077 1 is_stmt 1 view -0
 1906              		.cfi_startproc
ARM GAS  /tmp/ccvdUNht.s 			page 53


 1907              		@ args = 0, pretend = 0, frame = 0
 1908              		@ frame_needed = 0, uses_anonymous_args = 0
 1909              		@ link register save eliminated.
1078:../Drivers/STM32N6xx_HAL_Driver/Src/stm32n6xx_hal.c ****   SET_BIT(SYSCFG->CM55RSTCR, SYSCFG_CM55RSTCR_CORE_RESET_TYPE);
 1910              		.loc 1 1078 3 view .LVU352
 1911 0000 024A     		ldr	r2, .L189
 1912 0002 9369     		ldr	r3, [r2, #24]
 1913 0004 43F00103 		orr	r3, r3, #1
 1914 0008 9361     		str	r3, [r2, #24]
1079:../Drivers/STM32N6xx_HAL_Driver/Src/stm32n6xx_hal.c **** }
 1915              		.loc 1 1079 1 is_stmt 0 view .LVU353
 1916 000a 7047     		bx	lr
 1917              	.L190:
 1918              		.align	2
 1919              	.L189:
 1920 000c 00800056 		.word	1442873344
 1921              		.cfi_endproc
 1922              	.LFE934:
 1924              		.section	.text.HAL_SYSCFG_DisablePowerOnReset,"ax",%progbits
 1925              		.align	1
 1926              		.global	HAL_SYSCFG_DisablePowerOnReset
 1927              		.syntax unified
 1928              		.thumb
 1929              		.thumb_func
 1931              	HAL_SYSCFG_DisablePowerOnReset:
 1932              	.LFB935:
1080:../Drivers/STM32N6xx_HAL_Driver/Src/stm32n6xx_hal.c **** 
1081:../Drivers/STM32N6xx_HAL_Driver/Src/stm32n6xx_hal.c **** /**
1082:../Drivers/STM32N6xx_HAL_Driver/Src/stm32n6xx_hal.c ****   * @brief  Disable the Power-on reset.
1083:../Drivers/STM32N6xx_HAL_Driver/Src/stm32n6xx_hal.c ****   * @note   Select warm reset to apply on core upon SYSRESETREQ (NVIC_SystemReset())
1084:../Drivers/STM32N6xx_HAL_Driver/Src/stm32n6xx_hal.c ****   * @retval None
1085:../Drivers/STM32N6xx_HAL_Driver/Src/stm32n6xx_hal.c ****   */
1086:../Drivers/STM32N6xx_HAL_Driver/Src/stm32n6xx_hal.c **** void HAL_SYSCFG_DisablePowerOnReset(void)
1087:../Drivers/STM32N6xx_HAL_Driver/Src/stm32n6xx_hal.c **** {
 1933              		.loc 1 1087 1 is_stmt 1 view -0
 1934              		.cfi_startproc
 1935              		@ args = 0, pretend = 0, frame = 0
 1936              		@ frame_needed = 0, uses_anonymous_args = 0
 1937              		@ link register save eliminated.
1088:../Drivers/STM32N6xx_HAL_Driver/Src/stm32n6xx_hal.c ****   CLEAR_BIT(SYSCFG->CM55RSTCR, SYSCFG_CM55RSTCR_CORE_RESET_TYPE);
 1938              		.loc 1 1088 3 view .LVU355
 1939 0000 024A     		ldr	r2, .L192
 1940 0002 9369     		ldr	r3, [r2, #24]
 1941 0004 23F00103 		bic	r3, r3, #1
 1942 0008 9361     		str	r3, [r2, #24]
1089:../Drivers/STM32N6xx_HAL_Driver/Src/stm32n6xx_hal.c **** }
 1943              		.loc 1 1089 1 is_stmt 0 view .LVU356
 1944 000a 7047     		bx	lr
 1945              	.L193:
 1946              		.align	2
 1947              	.L192:
 1948 000c 00800056 		.word	1442873344
 1949              		.cfi_endproc
 1950              	.LFE935:
 1952              		.section	.text.HAL_SYSCFG_EnableLockupWarmResetonRCC,"ax",%progbits
 1953              		.align	1
 1954              		.global	HAL_SYSCFG_EnableLockupWarmResetonRCC
ARM GAS  /tmp/ccvdUNht.s 			page 54


 1955              		.syntax unified
 1956              		.thumb
 1957              		.thumb_func
 1959              	HAL_SYSCFG_EnableLockupWarmResetonRCC:
 1960              	.LFB936:
1090:../Drivers/STM32N6xx_HAL_Driver/Src/stm32n6xx_hal.c **** 
1091:../Drivers/STM32N6xx_HAL_Driver/Src/stm32n6xx_hal.c **** /**
1092:../Drivers/STM32N6xx_HAL_Driver/Src/stm32n6xx_hal.c ****   * @brief  Enable Lockup requests a warm reset to the RCC.
1093:../Drivers/STM32N6xx_HAL_Driver/Src/stm32n6xx_hal.c ****   * @note   Select action to perform on a lockup state on the core
1094:../Drivers/STM32N6xx_HAL_Driver/Src/stm32n6xx_hal.c ****   * @retval None
1095:../Drivers/STM32N6xx_HAL_Driver/Src/stm32n6xx_hal.c ****   */
1096:../Drivers/STM32N6xx_HAL_Driver/Src/stm32n6xx_hal.c **** void HAL_SYSCFG_EnableLockupWarmResetonRCC(void)
1097:../Drivers/STM32N6xx_HAL_Driver/Src/stm32n6xx_hal.c **** {
 1961              		.loc 1 1097 1 is_stmt 1 view -0
 1962              		.cfi_startproc
 1963              		@ args = 0, pretend = 0, frame = 0
 1964              		@ frame_needed = 0, uses_anonymous_args = 0
 1965              		@ link register save eliminated.
1098:../Drivers/STM32N6xx_HAL_Driver/Src/stm32n6xx_hal.c ****   SET_BIT(SYSCFG->CM55RSTCR, SYSCFG_CM55RSTCR_LOCKUP_RST_EN);
 1966              		.loc 1 1098 3 view .LVU358
 1967 0000 024A     		ldr	r2, .L195
 1968 0002 9369     		ldr	r3, [r2, #24]
 1969 0004 43F00203 		orr	r3, r3, #2
 1970 0008 9361     		str	r3, [r2, #24]
1099:../Drivers/STM32N6xx_HAL_Driver/Src/stm32n6xx_hal.c **** }
 1971              		.loc 1 1099 1 is_stmt 0 view .LVU359
 1972 000a 7047     		bx	lr
 1973              	.L196:
 1974              		.align	2
 1975              	.L195:
 1976 000c 00800056 		.word	1442873344
 1977              		.cfi_endproc
 1978              	.LFE936:
 1980              		.section	.text.HAL_SYSCFG_DisableLockupWarmResetonRCC,"ax",%progbits
 1981              		.align	1
 1982              		.global	HAL_SYSCFG_DisableLockupWarmResetonRCC
 1983              		.syntax unified
 1984              		.thumb
 1985              		.thumb_func
 1987              	HAL_SYSCFG_DisableLockupWarmResetonRCC:
 1988              	.LFB937:
1100:../Drivers/STM32N6xx_HAL_Driver/Src/stm32n6xx_hal.c **** 
1101:../Drivers/STM32N6xx_HAL_Driver/Src/stm32n6xx_hal.c **** /**
1102:../Drivers/STM32N6xx_HAL_Driver/Src/stm32n6xx_hal.c ****   * @brief  Disable Lockup requests a warm reset to the RCC.
1103:../Drivers/STM32N6xx_HAL_Driver/Src/stm32n6xx_hal.c ****   * @note   Select action to perform on a lockup state on the core
1104:../Drivers/STM32N6xx_HAL_Driver/Src/stm32n6xx_hal.c ****   * @retval None
1105:../Drivers/STM32N6xx_HAL_Driver/Src/stm32n6xx_hal.c ****   */
1106:../Drivers/STM32N6xx_HAL_Driver/Src/stm32n6xx_hal.c **** void HAL_SYSCFG_DisableLockupWarmResetonRCC(void)
1107:../Drivers/STM32N6xx_HAL_Driver/Src/stm32n6xx_hal.c **** {
 1989              		.loc 1 1107 1 is_stmt 1 view -0
 1990              		.cfi_startproc
 1991              		@ args = 0, pretend = 0, frame = 0
 1992              		@ frame_needed = 0, uses_anonymous_args = 0
 1993              		@ link register save eliminated.
1108:../Drivers/STM32N6xx_HAL_Driver/Src/stm32n6xx_hal.c ****   CLEAR_BIT(SYSCFG->CM55RSTCR, SYSCFG_CM55RSTCR_LOCKUP_RST_EN);
 1994              		.loc 1 1108 3 view .LVU361
 1995 0000 024A     		ldr	r2, .L198
ARM GAS  /tmp/ccvdUNht.s 			page 55


 1996 0002 9369     		ldr	r3, [r2, #24]
 1997 0004 23F00203 		bic	r3, r3, #2
 1998 0008 9361     		str	r3, [r2, #24]
1109:../Drivers/STM32N6xx_HAL_Driver/Src/stm32n6xx_hal.c **** }
 1999              		.loc 1 1109 1 is_stmt 0 view .LVU362
 2000 000a 7047     		bx	lr
 2001              	.L199:
 2002              		.align	2
 2003              	.L198:
 2004 000c 00800056 		.word	1442873344
 2005              		.cfi_endproc
 2006              	.LFE937:
 2008              		.section	.text.HAL_SYSCFG_EnableLockupGenerateNMI,"ax",%progbits
 2009              		.align	1
 2010              		.global	HAL_SYSCFG_EnableLockupGenerateNMI
 2011              		.syntax unified
 2012              		.thumb
 2013              		.thumb_func
 2015              	HAL_SYSCFG_EnableLockupGenerateNMI:
 2016              	.LFB938:
1110:../Drivers/STM32N6xx_HAL_Driver/Src/stm32n6xx_hal.c **** 
1111:../Drivers/STM32N6xx_HAL_Driver/Src/stm32n6xx_hal.c **** /**
1112:../Drivers/STM32N6xx_HAL_Driver/Src/stm32n6xx_hal.c ****   * @brief  Enable Lockup generates a NMI on the core.
1113:../Drivers/STM32N6xx_HAL_Driver/Src/stm32n6xx_hal.c ****   * @note   Select action to perform on a lockup state on the core
1114:../Drivers/STM32N6xx_HAL_Driver/Src/stm32n6xx_hal.c ****   * @retval None
1115:../Drivers/STM32N6xx_HAL_Driver/Src/stm32n6xx_hal.c ****   */
1116:../Drivers/STM32N6xx_HAL_Driver/Src/stm32n6xx_hal.c **** void HAL_SYSCFG_EnableLockupGenerateNMI(void)
1117:../Drivers/STM32N6xx_HAL_Driver/Src/stm32n6xx_hal.c **** {
 2017              		.loc 1 1117 1 is_stmt 1 view -0
 2018              		.cfi_startproc
 2019              		@ args = 0, pretend = 0, frame = 0
 2020              		@ frame_needed = 0, uses_anonymous_args = 0
 2021              		@ link register save eliminated.
1118:../Drivers/STM32N6xx_HAL_Driver/Src/stm32n6xx_hal.c ****   SET_BIT(SYSCFG->CM55RSTCR, SYSCFG_CM55RSTCR_LOCKUP_NMI_EN);
 2022              		.loc 1 1118 3 view .LVU364
 2023 0000 024A     		ldr	r2, .L201
 2024 0002 9369     		ldr	r3, [r2, #24]
 2025 0004 43F00403 		orr	r3, r3, #4
 2026 0008 9361     		str	r3, [r2, #24]
1119:../Drivers/STM32N6xx_HAL_Driver/Src/stm32n6xx_hal.c **** }
 2027              		.loc 1 1119 1 is_stmt 0 view .LVU365
 2028 000a 7047     		bx	lr
 2029              	.L202:
 2030              		.align	2
 2031              	.L201:
 2032 000c 00800056 		.word	1442873344
 2033              		.cfi_endproc
 2034              	.LFE938:
 2036              		.section	.text.HAL_SYSCFG_DisableLockupGenerateNMI,"ax",%progbits
 2037              		.align	1
 2038              		.global	HAL_SYSCFG_DisableLockupGenerateNMI
 2039              		.syntax unified
 2040              		.thumb
 2041              		.thumb_func
 2043              	HAL_SYSCFG_DisableLockupGenerateNMI:
 2044              	.LFB939:
1120:../Drivers/STM32N6xx_HAL_Driver/Src/stm32n6xx_hal.c **** 
ARM GAS  /tmp/ccvdUNht.s 			page 56


1121:../Drivers/STM32N6xx_HAL_Driver/Src/stm32n6xx_hal.c **** /**
1122:../Drivers/STM32N6xx_HAL_Driver/Src/stm32n6xx_hal.c ****   * @brief  Disable Lockup generates a NMI on the core.
1123:../Drivers/STM32N6xx_HAL_Driver/Src/stm32n6xx_hal.c ****   * @note   Select action to perform on a lockup state on the core
1124:../Drivers/STM32N6xx_HAL_Driver/Src/stm32n6xx_hal.c ****   * @retval None
1125:../Drivers/STM32N6xx_HAL_Driver/Src/stm32n6xx_hal.c ****   */
1126:../Drivers/STM32N6xx_HAL_Driver/Src/stm32n6xx_hal.c **** void HAL_SYSCFG_DisableLockupGenerateNMI(void)
1127:../Drivers/STM32N6xx_HAL_Driver/Src/stm32n6xx_hal.c **** {
 2045              		.loc 1 1127 1 is_stmt 1 view -0
 2046              		.cfi_startproc
 2047              		@ args = 0, pretend = 0, frame = 0
 2048              		@ frame_needed = 0, uses_anonymous_args = 0
 2049              		@ link register save eliminated.
1128:../Drivers/STM32N6xx_HAL_Driver/Src/stm32n6xx_hal.c ****   CLEAR_BIT(SYSCFG->CM55RSTCR, SYSCFG_CM55RSTCR_LOCKUP_NMI_EN);
 2050              		.loc 1 1128 3 view .LVU367
 2051 0000 024A     		ldr	r2, .L204
 2052 0002 9369     		ldr	r3, [r2, #24]
 2053 0004 23F00403 		bic	r3, r3, #4
 2054 0008 9361     		str	r3, [r2, #24]
1129:../Drivers/STM32N6xx_HAL_Driver/Src/stm32n6xx_hal.c **** }
 2055              		.loc 1 1129 1 is_stmt 0 view .LVU368
 2056 000a 7047     		bx	lr
 2057              	.L205:
 2058              		.align	2
 2059              	.L204:
 2060 000c 00800056 		.word	1442873344
 2061              		.cfi_endproc
 2062              	.LFE939:
 2064              		.section	.text.HAL_SYSCFG_ReEnableWritePostingErrorCapture,"ax",%progbits
 2065              		.align	1
 2066              		.global	HAL_SYSCFG_ReEnableWritePostingErrorCapture
 2067              		.syntax unified
 2068              		.thumb
 2069              		.thumb_func
 2071              	HAL_SYSCFG_ReEnableWritePostingErrorCapture:
 2072              	.LFB940:
1130:../Drivers/STM32N6xx_HAL_Driver/Src/stm32n6xx_hal.c **** 
1131:../Drivers/STM32N6xx_HAL_Driver/Src/stm32n6xx_hal.c **** /**
1132:../Drivers/STM32N6xx_HAL_Driver/Src/stm32n6xx_hal.c ****   * @brief   Enable the capture mechanism upon write posting buffer error.
1133:../Drivers/STM32N6xx_HAL_Driver/Src/stm32n6xx_hal.c ****   * @note    Upon error detection, the erroneous address is logged on and
1134:../Drivers/STM32N6xx_HAL_Driver/Src/stm32n6xx_hal.c ****   *          the capture mechanism is on hold.
1135:../Drivers/STM32N6xx_HAL_Driver/Src/stm32n6xx_hal.c ****   *          The address error can be read thanks to
1136:../Drivers/STM32N6xx_HAL_Driver/Src/stm32n6xx_hal.c ****   *          HAL_SYSCFG_GetAddressWritePostingBuffer.
1137:../Drivers/STM32N6xx_HAL_Driver/Src/stm32n6xx_hal.c ****   *  @note   This function enables the error capture mechanism again.
1138:../Drivers/STM32N6xx_HAL_Driver/Src/stm32n6xx_hal.c ****   *  @retval HAL status.
1139:../Drivers/STM32N6xx_HAL_Driver/Src/stm32n6xx_hal.c ****   */
1140:../Drivers/STM32N6xx_HAL_Driver/Src/stm32n6xx_hal.c **** HAL_StatusTypeDef HAL_SYSCFG_ReEnableWritePostingErrorCapture(void)
1141:../Drivers/STM32N6xx_HAL_Driver/Src/stm32n6xx_hal.c **** {
 2073              		.loc 1 1141 1 is_stmt 1 view -0
 2074              		.cfi_startproc
 2075              		@ args = 0, pretend = 0, frame = 0
 2076              		@ frame_needed = 0, uses_anonymous_args = 0
 2077              		@ link register save eliminated.
1142:../Drivers/STM32N6xx_HAL_Driver/Src/stm32n6xx_hal.c ****   /* Re-enable HW write posting detection mechanism */
1143:../Drivers/STM32N6xx_HAL_Driver/Src/stm32n6xx_hal.c ****   SET_BIT(SYSCFG->CM55PAHBWPR, SYSCFG_CM55PAHBWPR_PAHB_ERROR_ACK);
 2078              		.loc 1 1143 3 view .LVU370
 2079 0000 054B     		ldr	r3, .L207
 2080 0002 DA69     		ldr	r2, [r3, #28]
ARM GAS  /tmp/ccvdUNht.s 			page 57


 2081 0004 42F00102 		orr	r2, r2, #1
 2082 0008 DA61     		str	r2, [r3, #28]
1144:../Drivers/STM32N6xx_HAL_Driver/Src/stm32n6xx_hal.c **** 
1145:../Drivers/STM32N6xx_HAL_Driver/Src/stm32n6xx_hal.c ****   CLEAR_BIT(SYSCFG->CM55PAHBWPR, SYSCFG_CM55PAHBWPR_PAHB_ERROR_ACK);
 2083              		.loc 1 1145 3 view .LVU371
 2084 000a DA69     		ldr	r2, [r3, #28]
 2085 000c 22F00102 		bic	r2, r2, #1
 2086 0010 DA61     		str	r2, [r3, #28]
1146:../Drivers/STM32N6xx_HAL_Driver/Src/stm32n6xx_hal.c **** 
1147:../Drivers/STM32N6xx_HAL_Driver/Src/stm32n6xx_hal.c ****   return HAL_OK;
 2087              		.loc 1 1147 3 view .LVU372
1148:../Drivers/STM32N6xx_HAL_Driver/Src/stm32n6xx_hal.c **** }
 2088              		.loc 1 1148 1 is_stmt 0 view .LVU373
 2089 0012 0020     		movs	r0, #0
 2090 0014 7047     		bx	lr
 2091              	.L208:
 2092 0016 00BF     		.align	2
 2093              	.L207:
 2094 0018 00800056 		.word	1442873344
 2095              		.cfi_endproc
 2096              	.LFE940:
 2098              		.section	.text.HAL_SYSCFG_EnableVENCRAMReserved,"ax",%progbits
 2099              		.align	1
 2100              		.global	HAL_SYSCFG_EnableVENCRAMReserved
 2101              		.syntax unified
 2102              		.thumb
 2103              		.thumb_func
 2105              	HAL_SYSCFG_EnableVENCRAMReserved:
 2106              	.LFB941:
1149:../Drivers/STM32N6xx_HAL_Driver/Src/stm32n6xx_hal.c **** 
1150:../Drivers/STM32N6xx_HAL_Driver/Src/stm32n6xx_hal.c **** #if defined(VENC)
1151:../Drivers/STM32N6xx_HAL_Driver/Src/stm32n6xx_hal.c **** /**
1152:../Drivers/STM32N6xx_HAL_Driver/Src/stm32n6xx_hal.c ****   * @brief  Reserve the VENCRAM allocation to VENC.
1153:../Drivers/STM32N6xx_HAL_Driver/Src/stm32n6xx_hal.c ****   * @retval None
1154:../Drivers/STM32N6xx_HAL_Driver/Src/stm32n6xx_hal.c ****   */
1155:../Drivers/STM32N6xx_HAL_Driver/Src/stm32n6xx_hal.c **** void HAL_SYSCFG_EnableVENCRAMReserved(void)
1156:../Drivers/STM32N6xx_HAL_Driver/Src/stm32n6xx_hal.c **** {
 2107              		.loc 1 1156 1 is_stmt 1 view -0
 2108              		.cfi_startproc
 2109              		@ args = 0, pretend = 0, frame = 0
 2110              		@ frame_needed = 0, uses_anonymous_args = 0
 2111              		@ link register save eliminated.
1157:../Drivers/STM32N6xx_HAL_Driver/Src/stm32n6xx_hal.c ****   CLEAR_BIT(SYSCFG->VENCRAMCR, SYSCFG_VENCRAMCR_VENCRAM_EN);
 2112              		.loc 1 1157 3 view .LVU375
 2113 0000 024A     		ldr	r2, .L210
 2114 0002 136A     		ldr	r3, [r2, #32]
 2115 0004 23F00103 		bic	r3, r3, #1
 2116 0008 1362     		str	r3, [r2, #32]
1158:../Drivers/STM32N6xx_HAL_Driver/Src/stm32n6xx_hal.c **** }
 2117              		.loc 1 1158 1 is_stmt 0 view .LVU376
 2118 000a 7047     		bx	lr
 2119              	.L211:
 2120              		.align	2
 2121              	.L210:
 2122 000c 00800056 		.word	1442873344
 2123              		.cfi_endproc
 2124              	.LFE941:
ARM GAS  /tmp/ccvdUNht.s 			page 58


 2126              		.section	.text.HAL_SYSCFG_DisableVENCRAMReserved,"ax",%progbits
 2127              		.align	1
 2128              		.global	HAL_SYSCFG_DisableVENCRAMReserved
 2129              		.syntax unified
 2130              		.thumb
 2131              		.thumb_func
 2133              	HAL_SYSCFG_DisableVENCRAMReserved:
 2134              	.LFB942:
1159:../Drivers/STM32N6xx_HAL_Driver/Src/stm32n6xx_hal.c **** 
1160:../Drivers/STM32N6xx_HAL_Driver/Src/stm32n6xx_hal.c **** /**
1161:../Drivers/STM32N6xx_HAL_Driver/Src/stm32n6xx_hal.c ****   * @brief  Release the VENCRAM allocation to VENC (any use allowed).
1162:../Drivers/STM32N6xx_HAL_Driver/Src/stm32n6xx_hal.c ****   * @retval None
1163:../Drivers/STM32N6xx_HAL_Driver/Src/stm32n6xx_hal.c ****   */
1164:../Drivers/STM32N6xx_HAL_Driver/Src/stm32n6xx_hal.c **** void HAL_SYSCFG_DisableVENCRAMReserved(void)
1165:../Drivers/STM32N6xx_HAL_Driver/Src/stm32n6xx_hal.c **** {
 2135              		.loc 1 1165 1 is_stmt 1 view -0
 2136              		.cfi_startproc
 2137              		@ args = 0, pretend = 0, frame = 0
 2138              		@ frame_needed = 0, uses_anonymous_args = 0
 2139              		@ link register save eliminated.
1166:../Drivers/STM32N6xx_HAL_Driver/Src/stm32n6xx_hal.c ****   SET_BIT(SYSCFG->VENCRAMCR, SYSCFG_VENCRAMCR_VENCRAM_EN);
 2140              		.loc 1 1166 3 view .LVU378
 2141 0000 024A     		ldr	r2, .L213
 2142 0002 136A     		ldr	r3, [r2, #32]
 2143 0004 43F00103 		orr	r3, r3, #1
 2144 0008 1362     		str	r3, [r2, #32]
1167:../Drivers/STM32N6xx_HAL_Driver/Src/stm32n6xx_hal.c **** }
 2145              		.loc 1 1167 1 is_stmt 0 view .LVU379
 2146 000a 7047     		bx	lr
 2147              	.L214:
 2148              		.align	2
 2149              	.L213:
 2150 000c 00800056 		.word	1442873344
 2151              		.cfi_endproc
 2152              	.LFE942:
 2154              		.section	.text.HAL_SYSCFG_EnableCRYPPotentialTamper,"ax",%progbits
 2155              		.align	1
 2156              		.global	HAL_SYSCFG_EnableCRYPPotentialTamper
 2157              		.syntax unified
 2158              		.thumb
 2159              		.thumb_func
 2161              	HAL_SYSCFG_EnableCRYPPotentialTamper:
 2162              	.LFB943:
1168:../Drivers/STM32N6xx_HAL_Driver/Src/stm32n6xx_hal.c **** 
1169:../Drivers/STM32N6xx_HAL_Driver/Src/stm32n6xx_hal.c **** #endif /* VENC */
1170:../Drivers/STM32N6xx_HAL_Driver/Src/stm32n6xx_hal.c **** 
1171:../Drivers/STM32N6xx_HAL_Driver/Src/stm32n6xx_hal.c **** /**
1172:../Drivers/STM32N6xx_HAL_Driver/Src/stm32n6xx_hal.c ****   * @brief  Enable PKA, SAES, CRYP1/2, and HASH reset, in case of potential tamper
1173:../Drivers/STM32N6xx_HAL_Driver/Src/stm32n6xx_hal.c ****   * @retval None
1174:../Drivers/STM32N6xx_HAL_Driver/Src/stm32n6xx_hal.c ****   */
1175:../Drivers/STM32N6xx_HAL_Driver/Src/stm32n6xx_hal.c **** void HAL_SYSCFG_EnableCRYPPotentialTamper(void)
1176:../Drivers/STM32N6xx_HAL_Driver/Src/stm32n6xx_hal.c **** {
 2163              		.loc 1 1176 1 is_stmt 1 view -0
 2164              		.cfi_startproc
 2165              		@ args = 0, pretend = 0, frame = 0
 2166              		@ frame_needed = 0, uses_anonymous_args = 0
 2167              		@ link register save eliminated.
ARM GAS  /tmp/ccvdUNht.s 			page 59


1177:../Drivers/STM32N6xx_HAL_Driver/Src/stm32n6xx_hal.c ****   CLEAR_BIT(SYSCFG->POTTAMPRSTCR, SYSCFG_POTTAMPRSTCR_POTTAMPERSETMASK);
 2168              		.loc 1 1177 3 view .LVU381
 2169 0000 024A     		ldr	r2, .L216
 2170 0002 536A     		ldr	r3, [r2, #36]
 2171 0004 23F00103 		bic	r3, r3, #1
 2172 0008 5362     		str	r3, [r2, #36]
1178:../Drivers/STM32N6xx_HAL_Driver/Src/stm32n6xx_hal.c **** }
 2173              		.loc 1 1178 1 is_stmt 0 view .LVU382
 2174 000a 7047     		bx	lr
 2175              	.L217:
 2176              		.align	2
 2177              	.L216:
 2178 000c 00800056 		.word	1442873344
 2179              		.cfi_endproc
 2180              	.LFE943:
 2182              		.section	.text.HAL_SYSCFG_DisableCRYPPotentialTamper,"ax",%progbits
 2183              		.align	1
 2184              		.global	HAL_SYSCFG_DisableCRYPPotentialTamper
 2185              		.syntax unified
 2186              		.thumb
 2187              		.thumb_func
 2189              	HAL_SYSCFG_DisableCRYPPotentialTamper:
 2190              	.LFB944:
1179:../Drivers/STM32N6xx_HAL_Driver/Src/stm32n6xx_hal.c **** 
1180:../Drivers/STM32N6xx_HAL_Driver/Src/stm32n6xx_hal.c **** /**
1181:../Drivers/STM32N6xx_HAL_Driver/Src/stm32n6xx_hal.c ****   * @brief  Disable PKA, SAES, CRYP1/2, and HASH reset, in case of potential tamper
1182:../Drivers/STM32N6xx_HAL_Driver/Src/stm32n6xx_hal.c ****   * @retval None
1183:../Drivers/STM32N6xx_HAL_Driver/Src/stm32n6xx_hal.c ****   */
1184:../Drivers/STM32N6xx_HAL_Driver/Src/stm32n6xx_hal.c **** void HAL_SYSCFG_DisableCRYPPotentialTamper(void)
1185:../Drivers/STM32N6xx_HAL_Driver/Src/stm32n6xx_hal.c **** {
 2191              		.loc 1 1185 1 is_stmt 1 view -0
 2192              		.cfi_startproc
 2193              		@ args = 0, pretend = 0, frame = 0
 2194              		@ frame_needed = 0, uses_anonymous_args = 0
 2195              		@ link register save eliminated.
1186:../Drivers/STM32N6xx_HAL_Driver/Src/stm32n6xx_hal.c ****   SET_BIT(SYSCFG->POTTAMPRSTCR, SYSCFG_POTTAMPRSTCR_POTTAMPERSETMASK);
 2196              		.loc 1 1186 3 view .LVU384
 2197 0000 024A     		ldr	r2, .L219
 2198 0002 536A     		ldr	r3, [r2, #36]
 2199 0004 43F00103 		orr	r3, r3, #1
 2200 0008 5362     		str	r3, [r2, #36]
1187:../Drivers/STM32N6xx_HAL_Driver/Src/stm32n6xx_hal.c **** }
 2201              		.loc 1 1187 1 is_stmt 0 view .LVU385
 2202 000a 7047     		bx	lr
 2203              	.L220:
 2204              		.align	2
 2205              	.L219:
 2206 000c 00800056 		.word	1442873344
 2207              		.cfi_endproc
 2208              	.LFE944:
 2210              		.section	.text.HAL_SYSCFG_SetWriteQosNP1,"ax",%progbits
 2211              		.align	1
 2212              		.global	HAL_SYSCFG_SetWriteQosNP1
 2213              		.syntax unified
 2214              		.thumb
 2215              		.thumb_func
 2217              	HAL_SYSCFG_SetWriteQosNP1:
ARM GAS  /tmp/ccvdUNht.s 			page 60


 2218              	.LVL74:
 2219              	.LFB945:
1188:../Drivers/STM32N6xx_HAL_Driver/Src/stm32n6xx_hal.c **** 
1189:../Drivers/STM32N6xx_HAL_Driver/Src/stm32n6xx_hal.c **** #if defined(SYSCFG_NPUNICQOSCR_NPU1_ARQOSR)
1190:../Drivers/STM32N6xx_HAL_Driver/Src/stm32n6xx_hal.c **** /**
1191:../Drivers/STM32N6xx_HAL_Driver/Src/stm32n6xx_hal.c ****   * @brief  Set write QoS information for master port from NP1 NPUNIC
1192:../Drivers/STM32N6xx_HAL_Driver/Src/stm32n6xx_hal.c ****   * @param  QosValue Write QoS value (0 to 15).
1193:../Drivers/STM32N6xx_HAL_Driver/Src/stm32n6xx_hal.c ****   * @retval None
1194:../Drivers/STM32N6xx_HAL_Driver/Src/stm32n6xx_hal.c ****   */
1195:../Drivers/STM32N6xx_HAL_Driver/Src/stm32n6xx_hal.c **** void HAL_SYSCFG_SetWriteQosNP1(uint32_t QosValue)
1196:../Drivers/STM32N6xx_HAL_Driver/Src/stm32n6xx_hal.c **** {
 2220              		.loc 1 1196 1 is_stmt 1 view -0
 2221              		.cfi_startproc
 2222              		@ args = 0, pretend = 0, frame = 0
 2223              		@ frame_needed = 0, uses_anonymous_args = 0
 2224              		@ link register save eliminated.
1197:../Drivers/STM32N6xx_HAL_Driver/Src/stm32n6xx_hal.c ****   /* Check the parameters */
1198:../Drivers/STM32N6xx_HAL_Driver/Src/stm32n6xx_hal.c ****   assert_param(IS_SYSCFG_QOS_CPU(QosValue));
 2225              		.loc 1 1198 3 view .LVU387
1199:../Drivers/STM32N6xx_HAL_Driver/Src/stm32n6xx_hal.c **** 
1200:../Drivers/STM32N6xx_HAL_Driver/Src/stm32n6xx_hal.c ****   MODIFY_REG(SYSCFG->NPUNICQOSCR, SYSCFG_NPUNICQOSCR_NPU1_ARQOSW, QosValue << 4U);
 2226              		.loc 1 1200 3 view .LVU388
 2227 0000 034A     		ldr	r2, .L222
 2228 0002 936A     		ldr	r3, [r2, #40]
 2229 0004 23F0F003 		bic	r3, r3, #240
 2230 0008 43EA0013 		orr	r3, r3, r0, lsl #4
 2231 000c 9362     		str	r3, [r2, #40]
1201:../Drivers/STM32N6xx_HAL_Driver/Src/stm32n6xx_hal.c **** }
 2232              		.loc 1 1201 1 is_stmt 0 view .LVU389
 2233 000e 7047     		bx	lr
 2234              	.L223:
 2235              		.align	2
 2236              	.L222:
 2237 0010 00800056 		.word	1442873344
 2238              		.cfi_endproc
 2239              	.LFE945:
 2241              		.section	.text.HAL_SYSCFG_GetWriteQosNP1,"ax",%progbits
 2242              		.align	1
 2243              		.global	HAL_SYSCFG_GetWriteQosNP1
 2244              		.syntax unified
 2245              		.thumb
 2246              		.thumb_func
 2248              	HAL_SYSCFG_GetWriteQosNP1:
 2249              	.LVL75:
 2250              	.LFB946:
1202:../Drivers/STM32N6xx_HAL_Driver/Src/stm32n6xx_hal.c **** 
1203:../Drivers/STM32N6xx_HAL_Driver/Src/stm32n6xx_hal.c **** /**
1204:../Drivers/STM32N6xx_HAL_Driver/Src/stm32n6xx_hal.c ****   * @brief  Get write QoS information for master port from NP1 NPUNIC
1205:../Drivers/STM32N6xx_HAL_Driver/Src/stm32n6xx_hal.c ****   * @param  pQosValue Pointer to return write QOS value (0 to 15)
1206:../Drivers/STM32N6xx_HAL_Driver/Src/stm32n6xx_hal.c ****   * @retval HAL status
1207:../Drivers/STM32N6xx_HAL_Driver/Src/stm32n6xx_hal.c ****   */
1208:../Drivers/STM32N6xx_HAL_Driver/Src/stm32n6xx_hal.c **** 
1209:../Drivers/STM32N6xx_HAL_Driver/Src/stm32n6xx_hal.c **** HAL_StatusTypeDef HAL_SYSCFG_GetWriteQosNP1(uint32_t *pQosValue)
1210:../Drivers/STM32N6xx_HAL_Driver/Src/stm32n6xx_hal.c **** {
 2251              		.loc 1 1210 1 is_stmt 1 view -0
 2252              		.cfi_startproc
 2253              		@ args = 0, pretend = 0, frame = 0
ARM GAS  /tmp/ccvdUNht.s 			page 61


 2254              		@ frame_needed = 0, uses_anonymous_args = 0
 2255              		@ link register save eliminated.
1211:../Drivers/STM32N6xx_HAL_Driver/Src/stm32n6xx_hal.c ****   /* Check null pointer */
1212:../Drivers/STM32N6xx_HAL_Driver/Src/stm32n6xx_hal.c ****   if (pQosValue == NULL)
 2256              		.loc 1 1212 3 view .LVU391
 2257              		.loc 1 1212 6 is_stmt 0 view .LVU392
 2258 0000 30B1     		cbz	r0, .L226
1213:../Drivers/STM32N6xx_HAL_Driver/Src/stm32n6xx_hal.c ****   {
1214:../Drivers/STM32N6xx_HAL_Driver/Src/stm32n6xx_hal.c ****     return HAL_ERROR;
1215:../Drivers/STM32N6xx_HAL_Driver/Src/stm32n6xx_hal.c ****   }
1216:../Drivers/STM32N6xx_HAL_Driver/Src/stm32n6xx_hal.c **** 
1217:../Drivers/STM32N6xx_HAL_Driver/Src/stm32n6xx_hal.c ****   /* Get the QOS */
1218:../Drivers/STM32N6xx_HAL_Driver/Src/stm32n6xx_hal.c ****   *pQosValue = (READ_BIT(SYSCFG->NPUNICQOSCR, SYSCFG_NPUNICQOSCR_NPU1_ARQOSW) >> 4U);
 2259              		.loc 1 1218 3 is_stmt 1 view .LVU393
 2260              		.loc 1 1218 17 is_stmt 0 view .LVU394
 2261 0002 044B     		ldr	r3, .L227
 2262 0004 9B6A     		ldr	r3, [r3, #40]
 2263              		.loc 1 1218 79 view .LVU395
 2264 0006 C3F30313 		ubfx	r3, r3, #4, #4
 2265              		.loc 1 1218 14 view .LVU396
 2266 000a 0360     		str	r3, [r0]
1219:../Drivers/STM32N6xx_HAL_Driver/Src/stm32n6xx_hal.c **** 
1220:../Drivers/STM32N6xx_HAL_Driver/Src/stm32n6xx_hal.c ****   return HAL_OK;
 2267              		.loc 1 1220 3 is_stmt 1 view .LVU397
 2268              		.loc 1 1220 10 is_stmt 0 view .LVU398
 2269 000c 0020     		movs	r0, #0
 2270              	.LVL76:
 2271              		.loc 1 1220 10 view .LVU399
 2272 000e 7047     		bx	lr
 2273              	.LVL77:
 2274              	.L226:
1214:../Drivers/STM32N6xx_HAL_Driver/Src/stm32n6xx_hal.c ****   }
 2275              		.loc 1 1214 12 view .LVU400
 2276 0010 0120     		movs	r0, #1
 2277              	.LVL78:
1221:../Drivers/STM32N6xx_HAL_Driver/Src/stm32n6xx_hal.c **** }
 2278              		.loc 1 1221 1 view .LVU401
 2279 0012 7047     		bx	lr
 2280              	.L228:
 2281              		.align	2
 2282              	.L227:
 2283 0014 00800056 		.word	1442873344
 2284              		.cfi_endproc
 2285              	.LFE946:
 2287              		.section	.text.HAL_SYSCFG_SetReadQosNP1,"ax",%progbits
 2288              		.align	1
 2289              		.global	HAL_SYSCFG_SetReadQosNP1
 2290              		.syntax unified
 2291              		.thumb
 2292              		.thumb_func
 2294              	HAL_SYSCFG_SetReadQosNP1:
 2295              	.LVL79:
 2296              	.LFB947:
1222:../Drivers/STM32N6xx_HAL_Driver/Src/stm32n6xx_hal.c **** 
1223:../Drivers/STM32N6xx_HAL_Driver/Src/stm32n6xx_hal.c **** /**
1224:../Drivers/STM32N6xx_HAL_Driver/Src/stm32n6xx_hal.c ****   * @brief  Set read QoS information for master port from NP1 NPUNIC
1225:../Drivers/STM32N6xx_HAL_Driver/Src/stm32n6xx_hal.c ****   * @param  QosValue Read QoS value (0 to 15)
ARM GAS  /tmp/ccvdUNht.s 			page 62


1226:../Drivers/STM32N6xx_HAL_Driver/Src/stm32n6xx_hal.c ****   * @retval None
1227:../Drivers/STM32N6xx_HAL_Driver/Src/stm32n6xx_hal.c ****   */
1228:../Drivers/STM32N6xx_HAL_Driver/Src/stm32n6xx_hal.c **** void HAL_SYSCFG_SetReadQosNP1(uint32_t QosValue)
1229:../Drivers/STM32N6xx_HAL_Driver/Src/stm32n6xx_hal.c **** {
 2297              		.loc 1 1229 1 is_stmt 1 view -0
 2298              		.cfi_startproc
 2299              		@ args = 0, pretend = 0, frame = 0
 2300              		@ frame_needed = 0, uses_anonymous_args = 0
 2301              		@ link register save eliminated.
1230:../Drivers/STM32N6xx_HAL_Driver/Src/stm32n6xx_hal.c ****   /* Check the parameters */
1231:../Drivers/STM32N6xx_HAL_Driver/Src/stm32n6xx_hal.c ****   assert_param(IS_SYSCFG_QOS_CPU(QosValue));
 2302              		.loc 1 1231 3 view .LVU403
1232:../Drivers/STM32N6xx_HAL_Driver/Src/stm32n6xx_hal.c **** 
1233:../Drivers/STM32N6xx_HAL_Driver/Src/stm32n6xx_hal.c ****   MODIFY_REG(SYSCFG->NPUNICQOSCR, SYSCFG_NPUNICQOSCR_NPU1_ARQOSR, QosValue);
 2303              		.loc 1 1233 3 view .LVU404
 2304 0000 034A     		ldr	r2, .L230
 2305 0002 936A     		ldr	r3, [r2, #40]
 2306 0004 23F00F03 		bic	r3, r3, #15
 2307 0008 0343     		orrs	r3, r3, r0
 2308 000a 9362     		str	r3, [r2, #40]
1234:../Drivers/STM32N6xx_HAL_Driver/Src/stm32n6xx_hal.c **** }
 2309              		.loc 1 1234 1 is_stmt 0 view .LVU405
 2310 000c 7047     		bx	lr
 2311              	.L231:
 2312 000e 00BF     		.align	2
 2313              	.L230:
 2314 0010 00800056 		.word	1442873344
 2315              		.cfi_endproc
 2316              	.LFE947:
 2318              		.section	.text.HAL_SYSCFG_GetReadQosNP1,"ax",%progbits
 2319              		.align	1
 2320              		.global	HAL_SYSCFG_GetReadQosNP1
 2321              		.syntax unified
 2322              		.thumb
 2323              		.thumb_func
 2325              	HAL_SYSCFG_GetReadQosNP1:
 2326              	.LVL80:
 2327              	.LFB948:
1235:../Drivers/STM32N6xx_HAL_Driver/Src/stm32n6xx_hal.c **** 
1236:../Drivers/STM32N6xx_HAL_Driver/Src/stm32n6xx_hal.c **** /**
1237:../Drivers/STM32N6xx_HAL_Driver/Src/stm32n6xx_hal.c ****   * @brief  Get read QoS information for master port from NP1 NPUNIC
1238:../Drivers/STM32N6xx_HAL_Driver/Src/stm32n6xx_hal.c ****   * @param  pQosValue Pointer to return read QOS value (0 to 15)
1239:../Drivers/STM32N6xx_HAL_Driver/Src/stm32n6xx_hal.c ****   * @retval HAL status
1240:../Drivers/STM32N6xx_HAL_Driver/Src/stm32n6xx_hal.c ****   */
1241:../Drivers/STM32N6xx_HAL_Driver/Src/stm32n6xx_hal.c **** HAL_StatusTypeDef HAL_SYSCFG_GetReadQosNP1(uint32_t *pQosValue)
1242:../Drivers/STM32N6xx_HAL_Driver/Src/stm32n6xx_hal.c **** {
 2328              		.loc 1 1242 1 is_stmt 1 view -0
 2329              		.cfi_startproc
 2330              		@ args = 0, pretend = 0, frame = 0
 2331              		@ frame_needed = 0, uses_anonymous_args = 0
 2332              		@ link register save eliminated.
1243:../Drivers/STM32N6xx_HAL_Driver/Src/stm32n6xx_hal.c ****   /* Check null pointer */
1244:../Drivers/STM32N6xx_HAL_Driver/Src/stm32n6xx_hal.c ****   if (pQosValue == NULL)
 2333              		.loc 1 1244 3 view .LVU407
 2334              		.loc 1 1244 6 is_stmt 0 view .LVU408
 2335 0000 30B1     		cbz	r0, .L234
1245:../Drivers/STM32N6xx_HAL_Driver/Src/stm32n6xx_hal.c ****   {
ARM GAS  /tmp/ccvdUNht.s 			page 63


1246:../Drivers/STM32N6xx_HAL_Driver/Src/stm32n6xx_hal.c ****     return HAL_ERROR;
1247:../Drivers/STM32N6xx_HAL_Driver/Src/stm32n6xx_hal.c ****   }
1248:../Drivers/STM32N6xx_HAL_Driver/Src/stm32n6xx_hal.c **** 
1249:../Drivers/STM32N6xx_HAL_Driver/Src/stm32n6xx_hal.c ****   /* Get the QOS */
1250:../Drivers/STM32N6xx_HAL_Driver/Src/stm32n6xx_hal.c ****   *pQosValue = READ_BIT(SYSCFG->NPUNICQOSCR, SYSCFG_NPUNICQOSCR_NPU1_ARQOSR);
 2336              		.loc 1 1250 3 is_stmt 1 view .LVU409
 2337              		.loc 1 1250 16 is_stmt 0 view .LVU410
 2338 0002 044B     		ldr	r3, .L235
 2339 0004 9B6A     		ldr	r3, [r3, #40]
 2340 0006 03F00F03 		and	r3, r3, #15
 2341              		.loc 1 1250 14 view .LVU411
 2342 000a 0360     		str	r3, [r0]
1251:../Drivers/STM32N6xx_HAL_Driver/Src/stm32n6xx_hal.c **** 
1252:../Drivers/STM32N6xx_HAL_Driver/Src/stm32n6xx_hal.c ****   return HAL_OK;
 2343              		.loc 1 1252 3 is_stmt 1 view .LVU412
 2344              		.loc 1 1252 10 is_stmt 0 view .LVU413
 2345 000c 0020     		movs	r0, #0
 2346              	.LVL81:
 2347              		.loc 1 1252 10 view .LVU414
 2348 000e 7047     		bx	lr
 2349              	.LVL82:
 2350              	.L234:
1246:../Drivers/STM32N6xx_HAL_Driver/Src/stm32n6xx_hal.c ****   }
 2351              		.loc 1 1246 12 view .LVU415
 2352 0010 0120     		movs	r0, #1
 2353              	.LVL83:
1253:../Drivers/STM32N6xx_HAL_Driver/Src/stm32n6xx_hal.c **** }
 2354              		.loc 1 1253 1 view .LVU416
 2355 0012 7047     		bx	lr
 2356              	.L236:
 2357              		.align	2
 2358              	.L235:
 2359 0014 00800056 		.word	1442873344
 2360              		.cfi_endproc
 2361              	.LFE948:
 2363              		.section	.text.HAL_SYSCFG_SetWriteQosNP2,"ax",%progbits
 2364              		.align	1
 2365              		.global	HAL_SYSCFG_SetWriteQosNP2
 2366              		.syntax unified
 2367              		.thumb
 2368              		.thumb_func
 2370              	HAL_SYSCFG_SetWriteQosNP2:
 2371              	.LVL84:
 2372              	.LFB949:
1254:../Drivers/STM32N6xx_HAL_Driver/Src/stm32n6xx_hal.c **** 
1255:../Drivers/STM32N6xx_HAL_Driver/Src/stm32n6xx_hal.c **** /**
1256:../Drivers/STM32N6xx_HAL_Driver/Src/stm32n6xx_hal.c ****   * @brief  Set write QoS information for master port from NP2 NPUNIC
1257:../Drivers/STM32N6xx_HAL_Driver/Src/stm32n6xx_hal.c ****   * @param  QosValue Write Qos value (0 to 15)
1258:../Drivers/STM32N6xx_HAL_Driver/Src/stm32n6xx_hal.c ****   * @retval None
1259:../Drivers/STM32N6xx_HAL_Driver/Src/stm32n6xx_hal.c ****   */
1260:../Drivers/STM32N6xx_HAL_Driver/Src/stm32n6xx_hal.c **** void HAL_SYSCFG_SetWriteQosNP2(uint32_t QosValue)
1261:../Drivers/STM32N6xx_HAL_Driver/Src/stm32n6xx_hal.c **** {
 2373              		.loc 1 1261 1 is_stmt 1 view -0
 2374              		.cfi_startproc
 2375              		@ args = 0, pretend = 0, frame = 0
 2376              		@ frame_needed = 0, uses_anonymous_args = 0
 2377              		@ link register save eliminated.
ARM GAS  /tmp/ccvdUNht.s 			page 64


1262:../Drivers/STM32N6xx_HAL_Driver/Src/stm32n6xx_hal.c ****   /* Check the parameters */
1263:../Drivers/STM32N6xx_HAL_Driver/Src/stm32n6xx_hal.c ****   assert_param(IS_SYSCFG_QOS_CPU(QosValue));
 2378              		.loc 1 1263 3 view .LVU418
1264:../Drivers/STM32N6xx_HAL_Driver/Src/stm32n6xx_hal.c **** 
1265:../Drivers/STM32N6xx_HAL_Driver/Src/stm32n6xx_hal.c ****   MODIFY_REG(SYSCFG->NPUNICQOSCR, SYSCFG_NPUNICQOSCR_NPU2_ARQOSW, QosValue << 12U);
 2379              		.loc 1 1265 3 view .LVU419
 2380 0000 034A     		ldr	r2, .L238
 2381 0002 936A     		ldr	r3, [r2, #40]
 2382 0004 23F47043 		bic	r3, r3, #61440
 2383 0008 43EA0033 		orr	r3, r3, r0, lsl #12
 2384 000c 9362     		str	r3, [r2, #40]
1266:../Drivers/STM32N6xx_HAL_Driver/Src/stm32n6xx_hal.c **** }
 2385              		.loc 1 1266 1 is_stmt 0 view .LVU420
 2386 000e 7047     		bx	lr
 2387              	.L239:
 2388              		.align	2
 2389              	.L238:
 2390 0010 00800056 		.word	1442873344
 2391              		.cfi_endproc
 2392              	.LFE949:
 2394              		.section	.text.HAL_SYSCFG_GetWriteQosNP2,"ax",%progbits
 2395              		.align	1
 2396              		.global	HAL_SYSCFG_GetWriteQosNP2
 2397              		.syntax unified
 2398              		.thumb
 2399              		.thumb_func
 2401              	HAL_SYSCFG_GetWriteQosNP2:
 2402              	.LVL85:
 2403              	.LFB950:
1267:../Drivers/STM32N6xx_HAL_Driver/Src/stm32n6xx_hal.c **** 
1268:../Drivers/STM32N6xx_HAL_Driver/Src/stm32n6xx_hal.c **** /**
1269:../Drivers/STM32N6xx_HAL_Driver/Src/stm32n6xx_hal.c ****   * @brief  Get write QoS information for master port from NP2 NPUNIC
1270:../Drivers/STM32N6xx_HAL_Driver/Src/stm32n6xx_hal.c ****   * @param  pQosValue Pointer to return write QOS value (0 to 15)
1271:../Drivers/STM32N6xx_HAL_Driver/Src/stm32n6xx_hal.c ****   * @retval HAL status
1272:../Drivers/STM32N6xx_HAL_Driver/Src/stm32n6xx_hal.c ****   */
1273:../Drivers/STM32N6xx_HAL_Driver/Src/stm32n6xx_hal.c **** HAL_StatusTypeDef HAL_SYSCFG_GetWriteQosNP2(uint32_t *pQosValue)
1274:../Drivers/STM32N6xx_HAL_Driver/Src/stm32n6xx_hal.c **** {
 2404              		.loc 1 1274 1 is_stmt 1 view -0
 2405              		.cfi_startproc
 2406              		@ args = 0, pretend = 0, frame = 0
 2407              		@ frame_needed = 0, uses_anonymous_args = 0
 2408              		@ link register save eliminated.
1275:../Drivers/STM32N6xx_HAL_Driver/Src/stm32n6xx_hal.c ****   /* Check null pointer */
1276:../Drivers/STM32N6xx_HAL_Driver/Src/stm32n6xx_hal.c ****   if (pQosValue == NULL)
 2409              		.loc 1 1276 3 view .LVU422
 2410              		.loc 1 1276 6 is_stmt 0 view .LVU423
 2411 0000 30B1     		cbz	r0, .L242
1277:../Drivers/STM32N6xx_HAL_Driver/Src/stm32n6xx_hal.c ****   {
1278:../Drivers/STM32N6xx_HAL_Driver/Src/stm32n6xx_hal.c ****     return HAL_ERROR;
1279:../Drivers/STM32N6xx_HAL_Driver/Src/stm32n6xx_hal.c ****   }
1280:../Drivers/STM32N6xx_HAL_Driver/Src/stm32n6xx_hal.c **** 
1281:../Drivers/STM32N6xx_HAL_Driver/Src/stm32n6xx_hal.c ****   /* Get the QOS */
1282:../Drivers/STM32N6xx_HAL_Driver/Src/stm32n6xx_hal.c ****   *pQosValue = (READ_BIT(SYSCFG->NPUNICQOSCR, SYSCFG_NPUNICQOSCR_NPU2_ARQOSW) >> 12U);
 2412              		.loc 1 1282 3 is_stmt 1 view .LVU424
 2413              		.loc 1 1282 17 is_stmt 0 view .LVU425
 2414 0002 044B     		ldr	r3, .L243
 2415 0004 9B6A     		ldr	r3, [r3, #40]
ARM GAS  /tmp/ccvdUNht.s 			page 65


 2416              		.loc 1 1282 79 view .LVU426
 2417 0006 C3F30333 		ubfx	r3, r3, #12, #4
 2418              		.loc 1 1282 14 view .LVU427
 2419 000a 0360     		str	r3, [r0]
1283:../Drivers/STM32N6xx_HAL_Driver/Src/stm32n6xx_hal.c **** 
1284:../Drivers/STM32N6xx_HAL_Driver/Src/stm32n6xx_hal.c ****   return HAL_OK;
 2420              		.loc 1 1284 3 is_stmt 1 view .LVU428
 2421              		.loc 1 1284 10 is_stmt 0 view .LVU429
 2422 000c 0020     		movs	r0, #0
 2423              	.LVL86:
 2424              		.loc 1 1284 10 view .LVU430
 2425 000e 7047     		bx	lr
 2426              	.LVL87:
 2427              	.L242:
1278:../Drivers/STM32N6xx_HAL_Driver/Src/stm32n6xx_hal.c ****   }
 2428              		.loc 1 1278 12 view .LVU431
 2429 0010 0120     		movs	r0, #1
 2430              	.LVL88:
1285:../Drivers/STM32N6xx_HAL_Driver/Src/stm32n6xx_hal.c **** }
 2431              		.loc 1 1285 1 view .LVU432
 2432 0012 7047     		bx	lr
 2433              	.L244:
 2434              		.align	2
 2435              	.L243:
 2436 0014 00800056 		.word	1442873344
 2437              		.cfi_endproc
 2438              	.LFE950:
 2440              		.section	.text.HAL_SYSCFG_SetReadQosNP2,"ax",%progbits
 2441              		.align	1
 2442              		.global	HAL_SYSCFG_SetReadQosNP2
 2443              		.syntax unified
 2444              		.thumb
 2445              		.thumb_func
 2447              	HAL_SYSCFG_SetReadQosNP2:
 2448              	.LVL89:
 2449              	.LFB951:
1286:../Drivers/STM32N6xx_HAL_Driver/Src/stm32n6xx_hal.c **** 
1287:../Drivers/STM32N6xx_HAL_Driver/Src/stm32n6xx_hal.c **** /**
1288:../Drivers/STM32N6xx_HAL_Driver/Src/stm32n6xx_hal.c ****   * @brief  Set read QoS information for master port from NP2 NPUNIC
1289:../Drivers/STM32N6xx_HAL_Driver/Src/stm32n6xx_hal.c ****   * @param  QosValue Read Qos value (0 to 15)
1290:../Drivers/STM32N6xx_HAL_Driver/Src/stm32n6xx_hal.c ****   * @retval None
1291:../Drivers/STM32N6xx_HAL_Driver/Src/stm32n6xx_hal.c ****   */
1292:../Drivers/STM32N6xx_HAL_Driver/Src/stm32n6xx_hal.c **** void HAL_SYSCFG_SetReadQosNP2(uint32_t QosValue)
1293:../Drivers/STM32N6xx_HAL_Driver/Src/stm32n6xx_hal.c **** {
 2450              		.loc 1 1293 1 is_stmt 1 view -0
 2451              		.cfi_startproc
 2452              		@ args = 0, pretend = 0, frame = 0
 2453              		@ frame_needed = 0, uses_anonymous_args = 0
 2454              		@ link register save eliminated.
1294:../Drivers/STM32N6xx_HAL_Driver/Src/stm32n6xx_hal.c ****   /* Check the parameters */
1295:../Drivers/STM32N6xx_HAL_Driver/Src/stm32n6xx_hal.c ****   assert_param(IS_SYSCFG_QOS_CPU(QosValue));
 2455              		.loc 1 1295 3 view .LVU434
1296:../Drivers/STM32N6xx_HAL_Driver/Src/stm32n6xx_hal.c **** 
1297:../Drivers/STM32N6xx_HAL_Driver/Src/stm32n6xx_hal.c ****   MODIFY_REG(SYSCFG->NPUNICQOSCR, SYSCFG_NPUNICQOSCR_NPU2_ARQOSR, QosValue << 8U);
 2456              		.loc 1 1297 3 view .LVU435
 2457 0000 034A     		ldr	r2, .L246
 2458 0002 936A     		ldr	r3, [r2, #40]
ARM GAS  /tmp/ccvdUNht.s 			page 66


 2459 0004 23F47063 		bic	r3, r3, #3840
 2460 0008 43EA0023 		orr	r3, r3, r0, lsl #8
 2461 000c 9362     		str	r3, [r2, #40]
1298:../Drivers/STM32N6xx_HAL_Driver/Src/stm32n6xx_hal.c **** }
 2462              		.loc 1 1298 1 is_stmt 0 view .LVU436
 2463 000e 7047     		bx	lr
 2464              	.L247:
 2465              		.align	2
 2466              	.L246:
 2467 0010 00800056 		.word	1442873344
 2468              		.cfi_endproc
 2469              	.LFE951:
 2471              		.section	.text.HAL_SYSCFG_GetReadQosNP2,"ax",%progbits
 2472              		.align	1
 2473              		.global	HAL_SYSCFG_GetReadQosNP2
 2474              		.syntax unified
 2475              		.thumb
 2476              		.thumb_func
 2478              	HAL_SYSCFG_GetReadQosNP2:
 2479              	.LVL90:
 2480              	.LFB952:
1299:../Drivers/STM32N6xx_HAL_Driver/Src/stm32n6xx_hal.c **** 
1300:../Drivers/STM32N6xx_HAL_Driver/Src/stm32n6xx_hal.c **** /**
1301:../Drivers/STM32N6xx_HAL_Driver/Src/stm32n6xx_hal.c ****   * @brief  Get read QoS information for master port from NP2 NPUNIC
1302:../Drivers/STM32N6xx_HAL_Driver/Src/stm32n6xx_hal.c ****   * @param  pQosValue Pointer to return read QOS value (0 to 15)
1303:../Drivers/STM32N6xx_HAL_Driver/Src/stm32n6xx_hal.c ****   * @retval HAL status
1304:../Drivers/STM32N6xx_HAL_Driver/Src/stm32n6xx_hal.c ****   */
1305:../Drivers/STM32N6xx_HAL_Driver/Src/stm32n6xx_hal.c **** HAL_StatusTypeDef HAL_SYSCFG_GetReadQosNP2(uint32_t *pQosValue)
1306:../Drivers/STM32N6xx_HAL_Driver/Src/stm32n6xx_hal.c **** {
 2481              		.loc 1 1306 1 is_stmt 1 view -0
 2482              		.cfi_startproc
 2483              		@ args = 0, pretend = 0, frame = 0
 2484              		@ frame_needed = 0, uses_anonymous_args = 0
 2485              		@ link register save eliminated.
1307:../Drivers/STM32N6xx_HAL_Driver/Src/stm32n6xx_hal.c ****   /* Check null pointer */
1308:../Drivers/STM32N6xx_HAL_Driver/Src/stm32n6xx_hal.c ****   if (pQosValue == NULL)
 2486              		.loc 1 1308 3 view .LVU438
 2487              		.loc 1 1308 6 is_stmt 0 view .LVU439
 2488 0000 30B1     		cbz	r0, .L250
1309:../Drivers/STM32N6xx_HAL_Driver/Src/stm32n6xx_hal.c ****   {
1310:../Drivers/STM32N6xx_HAL_Driver/Src/stm32n6xx_hal.c ****     return HAL_ERROR;
1311:../Drivers/STM32N6xx_HAL_Driver/Src/stm32n6xx_hal.c ****   }
1312:../Drivers/STM32N6xx_HAL_Driver/Src/stm32n6xx_hal.c **** 
1313:../Drivers/STM32N6xx_HAL_Driver/Src/stm32n6xx_hal.c ****   /* Get the QOS */
1314:../Drivers/STM32N6xx_HAL_Driver/Src/stm32n6xx_hal.c ****   *pQosValue = (READ_BIT(SYSCFG->NPUNICQOSCR, SYSCFG_NPUNICQOSCR_NPU2_ARQOSR) >> 8U);
 2489              		.loc 1 1314 3 is_stmt 1 view .LVU440
 2490              		.loc 1 1314 17 is_stmt 0 view .LVU441
 2491 0002 044B     		ldr	r3, .L251
 2492 0004 9B6A     		ldr	r3, [r3, #40]
 2493              		.loc 1 1314 79 view .LVU442
 2494 0006 C3F30323 		ubfx	r3, r3, #8, #4
 2495              		.loc 1 1314 14 view .LVU443
 2496 000a 0360     		str	r3, [r0]
1315:../Drivers/STM32N6xx_HAL_Driver/Src/stm32n6xx_hal.c **** 
1316:../Drivers/STM32N6xx_HAL_Driver/Src/stm32n6xx_hal.c ****   return HAL_OK;
 2497              		.loc 1 1316 3 is_stmt 1 view .LVU444
 2498              		.loc 1 1316 10 is_stmt 0 view .LVU445
ARM GAS  /tmp/ccvdUNht.s 			page 67


 2499 000c 0020     		movs	r0, #0
 2500              	.LVL91:
 2501              		.loc 1 1316 10 view .LVU446
 2502 000e 7047     		bx	lr
 2503              	.LVL92:
 2504              	.L250:
1310:../Drivers/STM32N6xx_HAL_Driver/Src/stm32n6xx_hal.c ****   }
 2505              		.loc 1 1310 12 view .LVU447
 2506 0010 0120     		movs	r0, #1
 2507              	.LVL93:
1317:../Drivers/STM32N6xx_HAL_Driver/Src/stm32n6xx_hal.c **** }
 2508              		.loc 1 1317 1 view .LVU448
 2509 0012 7047     		bx	lr
 2510              	.L252:
 2511              		.align	2
 2512              	.L251:
 2513 0014 00800056 		.word	1442873344
 2514              		.cfi_endproc
 2515              	.LFE952:
 2517              		.section	.text.HAL_SYSCFG_SetWriteQosCPUSS,"ax",%progbits
 2518              		.align	1
 2519              		.global	HAL_SYSCFG_SetWriteQosCPUSS
 2520              		.syntax unified
 2521              		.thumb
 2522              		.thumb_func
 2524              	HAL_SYSCFG_SetWriteQosCPUSS:
 2525              	.LVL94:
 2526              	.LFB953:
1318:../Drivers/STM32N6xx_HAL_Driver/Src/stm32n6xx_hal.c **** 
1319:../Drivers/STM32N6xx_HAL_Driver/Src/stm32n6xx_hal.c **** /**
1320:../Drivers/STM32N6xx_HAL_Driver/Src/stm32n6xx_hal.c ****   * @brief  Set write QoS information for master port from CPUSS NPUNIC
1321:../Drivers/STM32N6xx_HAL_Driver/Src/stm32n6xx_hal.c ****   * @param  QosValue Write QoS value (0 to 15)
1322:../Drivers/STM32N6xx_HAL_Driver/Src/stm32n6xx_hal.c ****   * @retval None
1323:../Drivers/STM32N6xx_HAL_Driver/Src/stm32n6xx_hal.c ****   */
1324:../Drivers/STM32N6xx_HAL_Driver/Src/stm32n6xx_hal.c **** void HAL_SYSCFG_SetWriteQosCPUSS(uint32_t QosValue)
1325:../Drivers/STM32N6xx_HAL_Driver/Src/stm32n6xx_hal.c **** {
 2527              		.loc 1 1325 1 is_stmt 1 view -0
 2528              		.cfi_startproc
 2529              		@ args = 0, pretend = 0, frame = 0
 2530              		@ frame_needed = 0, uses_anonymous_args = 0
 2531              		@ link register save eliminated.
1326:../Drivers/STM32N6xx_HAL_Driver/Src/stm32n6xx_hal.c ****   /* Check the parameters */
1327:../Drivers/STM32N6xx_HAL_Driver/Src/stm32n6xx_hal.c ****   assert_param(IS_SYSCFG_QOS_CPU(QosValue));
 2532              		.loc 1 1327 3 view .LVU450
1328:../Drivers/STM32N6xx_HAL_Driver/Src/stm32n6xx_hal.c **** 
1329:../Drivers/STM32N6xx_HAL_Driver/Src/stm32n6xx_hal.c ****   MODIFY_REG(SYSCFG->NPUNICQOSCR, SYSCFG_NPUNICQOSCR_CPUSS_ARQOSW, QosValue << 20U);
 2533              		.loc 1 1329 3 view .LVU451
 2534 0000 034A     		ldr	r2, .L254
 2535 0002 936A     		ldr	r3, [r2, #40]
 2536 0004 23F47003 		bic	r3, r3, #15728640
 2537 0008 43EA0053 		orr	r3, r3, r0, lsl #20
 2538 000c 9362     		str	r3, [r2, #40]
1330:../Drivers/STM32N6xx_HAL_Driver/Src/stm32n6xx_hal.c **** }
 2539              		.loc 1 1330 1 is_stmt 0 view .LVU452
 2540 000e 7047     		bx	lr
 2541              	.L255:
 2542              		.align	2
ARM GAS  /tmp/ccvdUNht.s 			page 68


 2543              	.L254:
 2544 0010 00800056 		.word	1442873344
 2545              		.cfi_endproc
 2546              	.LFE953:
 2548              		.section	.text.HAL_SYSCFG_GetwriteQosCPUSS,"ax",%progbits
 2549              		.align	1
 2550              		.global	HAL_SYSCFG_GetwriteQosCPUSS
 2551              		.syntax unified
 2552              		.thumb
 2553              		.thumb_func
 2555              	HAL_SYSCFG_GetwriteQosCPUSS:
 2556              	.LVL95:
 2557              	.LFB954:
1331:../Drivers/STM32N6xx_HAL_Driver/Src/stm32n6xx_hal.c **** 
1332:../Drivers/STM32N6xx_HAL_Driver/Src/stm32n6xx_hal.c **** /**
1333:../Drivers/STM32N6xx_HAL_Driver/Src/stm32n6xx_hal.c ****   * @brief  Get write QoS information for master port from CPUSS NPUNIC
1334:../Drivers/STM32N6xx_HAL_Driver/Src/stm32n6xx_hal.c ****   * @param  pQosValue Pointer to return write QOS value (0 to 15)
1335:../Drivers/STM32N6xx_HAL_Driver/Src/stm32n6xx_hal.c ****   * @retval HAL status
1336:../Drivers/STM32N6xx_HAL_Driver/Src/stm32n6xx_hal.c ****   */
1337:../Drivers/STM32N6xx_HAL_Driver/Src/stm32n6xx_hal.c **** HAL_StatusTypeDef HAL_SYSCFG_GetwriteQosCPUSS(uint32_t *pQosValue)
1338:../Drivers/STM32N6xx_HAL_Driver/Src/stm32n6xx_hal.c **** {
 2558              		.loc 1 1338 1 is_stmt 1 view -0
 2559              		.cfi_startproc
 2560              		@ args = 0, pretend = 0, frame = 0
 2561              		@ frame_needed = 0, uses_anonymous_args = 0
 2562              		@ link register save eliminated.
1339:../Drivers/STM32N6xx_HAL_Driver/Src/stm32n6xx_hal.c ****   /* Check null pointer */
1340:../Drivers/STM32N6xx_HAL_Driver/Src/stm32n6xx_hal.c ****   if (pQosValue == NULL)
 2563              		.loc 1 1340 3 view .LVU454
 2564              		.loc 1 1340 6 is_stmt 0 view .LVU455
 2565 0000 30B1     		cbz	r0, .L258
1341:../Drivers/STM32N6xx_HAL_Driver/Src/stm32n6xx_hal.c ****   {
1342:../Drivers/STM32N6xx_HAL_Driver/Src/stm32n6xx_hal.c ****     return HAL_ERROR;
1343:../Drivers/STM32N6xx_HAL_Driver/Src/stm32n6xx_hal.c ****   }
1344:../Drivers/STM32N6xx_HAL_Driver/Src/stm32n6xx_hal.c **** 
1345:../Drivers/STM32N6xx_HAL_Driver/Src/stm32n6xx_hal.c ****   /* Get the QOS */
1346:../Drivers/STM32N6xx_HAL_Driver/Src/stm32n6xx_hal.c ****   *pQosValue = (READ_BIT(SYSCFG->NPUNICQOSCR, SYSCFG_NPUNICQOSCR_CPUSS_ARQOSW) >> 20U);
 2566              		.loc 1 1346 3 is_stmt 1 view .LVU456
 2567              		.loc 1 1346 17 is_stmt 0 view .LVU457
 2568 0002 044B     		ldr	r3, .L259
 2569 0004 9B6A     		ldr	r3, [r3, #40]
 2570              		.loc 1 1346 80 view .LVU458
 2571 0006 C3F30353 		ubfx	r3, r3, #20, #4
 2572              		.loc 1 1346 14 view .LVU459
 2573 000a 0360     		str	r3, [r0]
1347:../Drivers/STM32N6xx_HAL_Driver/Src/stm32n6xx_hal.c **** 
1348:../Drivers/STM32N6xx_HAL_Driver/Src/stm32n6xx_hal.c ****   return HAL_OK;
 2574              		.loc 1 1348 3 is_stmt 1 view .LVU460
 2575              		.loc 1 1348 10 is_stmt 0 view .LVU461
 2576 000c 0020     		movs	r0, #0
 2577              	.LVL96:
 2578              		.loc 1 1348 10 view .LVU462
 2579 000e 7047     		bx	lr
 2580              	.LVL97:
 2581              	.L258:
1342:../Drivers/STM32N6xx_HAL_Driver/Src/stm32n6xx_hal.c ****   }
 2582              		.loc 1 1342 12 view .LVU463
ARM GAS  /tmp/ccvdUNht.s 			page 69


 2583 0010 0120     		movs	r0, #1
 2584              	.LVL98:
1349:../Drivers/STM32N6xx_HAL_Driver/Src/stm32n6xx_hal.c **** }
 2585              		.loc 1 1349 1 view .LVU464
 2586 0012 7047     		bx	lr
 2587              	.L260:
 2588              		.align	2
 2589              	.L259:
 2590 0014 00800056 		.word	1442873344
 2591              		.cfi_endproc
 2592              	.LFE954:
 2594              		.section	.text.HAL_SYSCFG_SetReadQosCPUSS,"ax",%progbits
 2595              		.align	1
 2596              		.global	HAL_SYSCFG_SetReadQosCPUSS
 2597              		.syntax unified
 2598              		.thumb
 2599              		.thumb_func
 2601              	HAL_SYSCFG_SetReadQosCPUSS:
 2602              	.LVL99:
 2603              	.LFB955:
1350:../Drivers/STM32N6xx_HAL_Driver/Src/stm32n6xx_hal.c **** 
1351:../Drivers/STM32N6xx_HAL_Driver/Src/stm32n6xx_hal.c **** /**
1352:../Drivers/STM32N6xx_HAL_Driver/Src/stm32n6xx_hal.c ****   * @brief  Set read QoS information for master port from CPUSS NPUNIC
1353:../Drivers/STM32N6xx_HAL_Driver/Src/stm32n6xx_hal.c ****   * @param  QosValue Read QoS value (0 to 15)
1354:../Drivers/STM32N6xx_HAL_Driver/Src/stm32n6xx_hal.c ****   * @retval None
1355:../Drivers/STM32N6xx_HAL_Driver/Src/stm32n6xx_hal.c ****   */
1356:../Drivers/STM32N6xx_HAL_Driver/Src/stm32n6xx_hal.c **** void HAL_SYSCFG_SetReadQosCPUSS(uint32_t QosValue)
1357:../Drivers/STM32N6xx_HAL_Driver/Src/stm32n6xx_hal.c **** {
 2604              		.loc 1 1357 1 is_stmt 1 view -0
 2605              		.cfi_startproc
 2606              		@ args = 0, pretend = 0, frame = 0
 2607              		@ frame_needed = 0, uses_anonymous_args = 0
 2608              		@ link register save eliminated.
1358:../Drivers/STM32N6xx_HAL_Driver/Src/stm32n6xx_hal.c ****   /* Check the parameters */
1359:../Drivers/STM32N6xx_HAL_Driver/Src/stm32n6xx_hal.c ****   assert_param(IS_SYSCFG_QOS_CPU(QosValue));
 2609              		.loc 1 1359 3 view .LVU466
1360:../Drivers/STM32N6xx_HAL_Driver/Src/stm32n6xx_hal.c **** 
1361:../Drivers/STM32N6xx_HAL_Driver/Src/stm32n6xx_hal.c ****   MODIFY_REG(SYSCFG->NPUNICQOSCR, SYSCFG_NPUNICQOSCR_CPUSS_ARQOSR, QosValue << 16U);
 2610              		.loc 1 1361 3 view .LVU467
 2611 0000 034A     		ldr	r2, .L262
 2612 0002 936A     		ldr	r3, [r2, #40]
 2613 0004 23F47023 		bic	r3, r3, #983040
 2614 0008 43EA0043 		orr	r3, r3, r0, lsl #16
 2615 000c 9362     		str	r3, [r2, #40]
1362:../Drivers/STM32N6xx_HAL_Driver/Src/stm32n6xx_hal.c **** }
 2616              		.loc 1 1362 1 is_stmt 0 view .LVU468
 2617 000e 7047     		bx	lr
 2618              	.L263:
 2619              		.align	2
 2620              	.L262:
 2621 0010 00800056 		.word	1442873344
 2622              		.cfi_endproc
 2623              	.LFE955:
 2625              		.section	.text.HAL_SYSCFG_GetReadQosCPUSS,"ax",%progbits
 2626              		.align	1
 2627              		.global	HAL_SYSCFG_GetReadQosCPUSS
 2628              		.syntax unified
ARM GAS  /tmp/ccvdUNht.s 			page 70


 2629              		.thumb
 2630              		.thumb_func
 2632              	HAL_SYSCFG_GetReadQosCPUSS:
 2633              	.LVL100:
 2634              	.LFB956:
1363:../Drivers/STM32N6xx_HAL_Driver/Src/stm32n6xx_hal.c **** 
1364:../Drivers/STM32N6xx_HAL_Driver/Src/stm32n6xx_hal.c **** /**
1365:../Drivers/STM32N6xx_HAL_Driver/Src/stm32n6xx_hal.c ****   * @brief  Get read QoS information for master port from CPUSS NPUNIC
1366:../Drivers/STM32N6xx_HAL_Driver/Src/stm32n6xx_hal.c ****   * @param  pQosValue Pointer to return read QOS value (0 to 15)
1367:../Drivers/STM32N6xx_HAL_Driver/Src/stm32n6xx_hal.c ****   * @retval HAL status
1368:../Drivers/STM32N6xx_HAL_Driver/Src/stm32n6xx_hal.c ****   */
1369:../Drivers/STM32N6xx_HAL_Driver/Src/stm32n6xx_hal.c **** HAL_StatusTypeDef HAL_SYSCFG_GetReadQosCPUSS(uint32_t *pQosValue)
1370:../Drivers/STM32N6xx_HAL_Driver/Src/stm32n6xx_hal.c **** {
 2635              		.loc 1 1370 1 is_stmt 1 view -0
 2636              		.cfi_startproc
 2637              		@ args = 0, pretend = 0, frame = 0
 2638              		@ frame_needed = 0, uses_anonymous_args = 0
 2639              		@ link register save eliminated.
1371:../Drivers/STM32N6xx_HAL_Driver/Src/stm32n6xx_hal.c ****   /* Check null pointer */
1372:../Drivers/STM32N6xx_HAL_Driver/Src/stm32n6xx_hal.c ****   if (pQosValue == NULL)
 2640              		.loc 1 1372 3 view .LVU470
 2641              		.loc 1 1372 6 is_stmt 0 view .LVU471
 2642 0000 30B1     		cbz	r0, .L266
1373:../Drivers/STM32N6xx_HAL_Driver/Src/stm32n6xx_hal.c ****   {
1374:../Drivers/STM32N6xx_HAL_Driver/Src/stm32n6xx_hal.c ****     return HAL_ERROR;
1375:../Drivers/STM32N6xx_HAL_Driver/Src/stm32n6xx_hal.c ****   }
1376:../Drivers/STM32N6xx_HAL_Driver/Src/stm32n6xx_hal.c **** 
1377:../Drivers/STM32N6xx_HAL_Driver/Src/stm32n6xx_hal.c ****   /* Get the QOS */
1378:../Drivers/STM32N6xx_HAL_Driver/Src/stm32n6xx_hal.c ****   *pQosValue = (READ_BIT(SYSCFG->NPUNICQOSCR, SYSCFG_NPUNICQOSCR_CPUSS_ARQOSR) >> 16U);
 2643              		.loc 1 1378 3 is_stmt 1 view .LVU472
 2644              		.loc 1 1378 17 is_stmt 0 view .LVU473
 2645 0002 044B     		ldr	r3, .L267
 2646 0004 9B6A     		ldr	r3, [r3, #40]
 2647              		.loc 1 1378 80 view .LVU474
 2648 0006 C3F30343 		ubfx	r3, r3, #16, #4
 2649              		.loc 1 1378 14 view .LVU475
 2650 000a 0360     		str	r3, [r0]
1379:../Drivers/STM32N6xx_HAL_Driver/Src/stm32n6xx_hal.c **** 
1380:../Drivers/STM32N6xx_HAL_Driver/Src/stm32n6xx_hal.c ****   return HAL_OK;
 2651              		.loc 1 1380 3 is_stmt 1 view .LVU476
 2652              		.loc 1 1380 10 is_stmt 0 view .LVU477
 2653 000c 0020     		movs	r0, #0
 2654              	.LVL101:
 2655              		.loc 1 1380 10 view .LVU478
 2656 000e 7047     		bx	lr
 2657              	.LVL102:
 2658              	.L266:
1374:../Drivers/STM32N6xx_HAL_Driver/Src/stm32n6xx_hal.c ****   }
 2659              		.loc 1 1374 12 view .LVU479
 2660 0010 0120     		movs	r0, #1
 2661              	.LVL103:
1381:../Drivers/STM32N6xx_HAL_Driver/Src/stm32n6xx_hal.c **** }
 2662              		.loc 1 1381 1 view .LVU480
 2663 0012 7047     		bx	lr
 2664              	.L268:
 2665              		.align	2
 2666              	.L267:
ARM GAS  /tmp/ccvdUNht.s 			page 71


 2667 0014 00800056 		.word	1442873344
 2668              		.cfi_endproc
 2669              	.LFE956:
 2671              		.section	.text.HAL_SYSCFG_EnableSDMMCEarlyWRRESP,"ax",%progbits
 2672              		.align	1
 2673              		.global	HAL_SYSCFG_EnableSDMMCEarlyWRRESP
 2674              		.syntax unified
 2675              		.thumb
 2676              		.thumb_func
 2678              	HAL_SYSCFG_EnableSDMMCEarlyWRRESP:
 2679              	.LVL104:
 2680              	.LFB957:
1382:../Drivers/STM32N6xx_HAL_Driver/Src/stm32n6xx_hal.c **** #endif /* defined(SYSCFG_NPUNICQOSCR_NPU1_ARQOSR) */
1383:../Drivers/STM32N6xx_HAL_Driver/Src/stm32n6xx_hal.c **** 
1384:../Drivers/STM32N6xx_HAL_Driver/Src/stm32n6xx_hal.c **** /**
1385:../Drivers/STM32N6xx_HAL_Driver/Src/stm32n6xx_hal.c ****   * @brief  Enable SDMMC early-write response.
1386:../Drivers/STM32N6xx_HAL_Driver/Src/stm32n6xx_hal.c ****   * @param  Sdmmc Selected SDMMC instance(s).
1387:../Drivers/STM32N6xx_HAL_Driver/Src/stm32n6xx_hal.c ****   *               This parameter can be a one of @ref SYSCFG_SDMMCId
1388:../Drivers/STM32N6xx_HAL_Driver/Src/stm32n6xx_hal.c ****   * @retval None
1389:../Drivers/STM32N6xx_HAL_Driver/Src/stm32n6xx_hal.c ****   */
1390:../Drivers/STM32N6xx_HAL_Driver/Src/stm32n6xx_hal.c **** void HAL_SYSCFG_EnableSDMMCEarlyWRRESP(uint32_t Sdmmc)
1391:../Drivers/STM32N6xx_HAL_Driver/Src/stm32n6xx_hal.c **** {
 2681              		.loc 1 1391 1 is_stmt 1 view -0
 2682              		.cfi_startproc
 2683              		@ args = 0, pretend = 0, frame = 0
 2684              		@ frame_needed = 0, uses_anonymous_args = 0
 2685              		@ link register save eliminated.
1392:../Drivers/STM32N6xx_HAL_Driver/Src/stm32n6xx_hal.c ****   /* Check the parameters */
1393:../Drivers/STM32N6xx_HAL_Driver/Src/stm32n6xx_hal.c ****   assert_param(IS_SYSCFG_SDMMC(Sdmmc));
 2686              		.loc 1 1393 3 view .LVU482
1394:../Drivers/STM32N6xx_HAL_Driver/Src/stm32n6xx_hal.c **** 
1395:../Drivers/STM32N6xx_HAL_Driver/Src/stm32n6xx_hal.c ****   SET_BIT(SYSCFG->ICNEWRCR, Sdmmc);
 2687              		.loc 1 1395 3 view .LVU483
 2688 0000 024A     		ldr	r2, .L270
 2689 0002 536B     		ldr	r3, [r2, #52]
 2690 0004 0343     		orrs	r3, r3, r0
 2691 0006 5363     		str	r3, [r2, #52]
1396:../Drivers/STM32N6xx_HAL_Driver/Src/stm32n6xx_hal.c **** }
 2692              		.loc 1 1396 1 is_stmt 0 view .LVU484
 2693 0008 7047     		bx	lr
 2694              	.L271:
 2695 000a 00BF     		.align	2
 2696              	.L270:
 2697 000c 00800056 		.word	1442873344
 2698              		.cfi_endproc
 2699              	.LFE957:
 2701              		.section	.text.HAL_SYSCFG_DisableSDMMCEarlyWRRSP,"ax",%progbits
 2702              		.align	1
 2703              		.global	HAL_SYSCFG_DisableSDMMCEarlyWRRSP
 2704              		.syntax unified
 2705              		.thumb
 2706              		.thumb_func
 2708              	HAL_SYSCFG_DisableSDMMCEarlyWRRSP:
 2709              	.LVL105:
 2710              	.LFB958:
1397:../Drivers/STM32N6xx_HAL_Driver/Src/stm32n6xx_hal.c **** 
1398:../Drivers/STM32N6xx_HAL_Driver/Src/stm32n6xx_hal.c **** /**
ARM GAS  /tmp/ccvdUNht.s 			page 72


1399:../Drivers/STM32N6xx_HAL_Driver/Src/stm32n6xx_hal.c ****   * @brief  Disable SDMMC early-write response.
1400:../Drivers/STM32N6xx_HAL_Driver/Src/stm32n6xx_hal.c ****   * @param  Sdmmc Selected SDMMC instance(s).
1401:../Drivers/STM32N6xx_HAL_Driver/Src/stm32n6xx_hal.c ****   *               This parameter can be a one of @ref SYSCFG_SDMMCId
1402:../Drivers/STM32N6xx_HAL_Driver/Src/stm32n6xx_hal.c ****   * @retval None
1403:../Drivers/STM32N6xx_HAL_Driver/Src/stm32n6xx_hal.c ****   */
1404:../Drivers/STM32N6xx_HAL_Driver/Src/stm32n6xx_hal.c **** void HAL_SYSCFG_DisableSDMMCEarlyWRRSP(uint32_t Sdmmc)
1405:../Drivers/STM32N6xx_HAL_Driver/Src/stm32n6xx_hal.c **** {
 2711              		.loc 1 1405 1 is_stmt 1 view -0
 2712              		.cfi_startproc
 2713              		@ args = 0, pretend = 0, frame = 0
 2714              		@ frame_needed = 0, uses_anonymous_args = 0
 2715              		@ link register save eliminated.
1406:../Drivers/STM32N6xx_HAL_Driver/Src/stm32n6xx_hal.c ****   /* Check the parameters */
1407:../Drivers/STM32N6xx_HAL_Driver/Src/stm32n6xx_hal.c ****   assert_param(IS_SYSCFG_SDMMC(Sdmmc));
 2716              		.loc 1 1407 3 view .LVU486
1408:../Drivers/STM32N6xx_HAL_Driver/Src/stm32n6xx_hal.c **** 
1409:../Drivers/STM32N6xx_HAL_Driver/Src/stm32n6xx_hal.c ****   CLEAR_BIT(SYSCFG->ICNEWRCR, Sdmmc);
 2717              		.loc 1 1409 3 view .LVU487
 2718 0000 024A     		ldr	r2, .L273
 2719 0002 536B     		ldr	r3, [r2, #52]
 2720 0004 23EA0003 		bic	r3, r3, r0
 2721 0008 5363     		str	r3, [r2, #52]
1410:../Drivers/STM32N6xx_HAL_Driver/Src/stm32n6xx_hal.c **** }
 2722              		.loc 1 1410 1 is_stmt 0 view .LVU488
 2723 000a 7047     		bx	lr
 2724              	.L274:
 2725              		.align	2
 2726              	.L273:
 2727 000c 00800056 		.word	1442873344
 2728              		.cfi_endproc
 2729              	.LFE958:
 2731              		.section	.text.HAL_SYSCFG_EnableUSBEarlyEarlyWRRESP,"ax",%progbits
 2732              		.align	1
 2733              		.global	HAL_SYSCFG_EnableUSBEarlyEarlyWRRESP
 2734              		.syntax unified
 2735              		.thumb
 2736              		.thumb_func
 2738              	HAL_SYSCFG_EnableUSBEarlyEarlyWRRESP:
 2739              	.LVL106:
 2740              	.LFB959:
1411:../Drivers/STM32N6xx_HAL_Driver/Src/stm32n6xx_hal.c **** 
1412:../Drivers/STM32N6xx_HAL_Driver/Src/stm32n6xx_hal.c **** /**
1413:../Drivers/STM32N6xx_HAL_Driver/Src/stm32n6xx_hal.c ****   * @brief  Enable USB early-write response.
1414:../Drivers/STM32N6xx_HAL_Driver/Src/stm32n6xx_hal.c ****   * @param  Usb Selected USB instance(s).
1415:../Drivers/STM32N6xx_HAL_Driver/Src/stm32n6xx_hal.c ****   *             This parameter can be a one of @ref SYSCFG_USBId
1416:../Drivers/STM32N6xx_HAL_Driver/Src/stm32n6xx_hal.c ****   * @retval None
1417:../Drivers/STM32N6xx_HAL_Driver/Src/stm32n6xx_hal.c ****   */
1418:../Drivers/STM32N6xx_HAL_Driver/Src/stm32n6xx_hal.c **** void HAL_SYSCFG_EnableUSBEarlyEarlyWRRESP(uint32_t Usb)
1419:../Drivers/STM32N6xx_HAL_Driver/Src/stm32n6xx_hal.c **** {
 2741              		.loc 1 1419 1 is_stmt 1 view -0
 2742              		.cfi_startproc
 2743              		@ args = 0, pretend = 0, frame = 0
 2744              		@ frame_needed = 0, uses_anonymous_args = 0
 2745              		@ link register save eliminated.
1420:../Drivers/STM32N6xx_HAL_Driver/Src/stm32n6xx_hal.c ****   /* Check the parameters */
1421:../Drivers/STM32N6xx_HAL_Driver/Src/stm32n6xx_hal.c ****   assert_param(IS_SYSCFG_USB(Usb));
 2746              		.loc 1 1421 3 view .LVU490
ARM GAS  /tmp/ccvdUNht.s 			page 73


1422:../Drivers/STM32N6xx_HAL_Driver/Src/stm32n6xx_hal.c **** 
1423:../Drivers/STM32N6xx_HAL_Driver/Src/stm32n6xx_hal.c ****   SET_BIT(SYSCFG->ICNEWRCR, Usb);
 2747              		.loc 1 1423 3 view .LVU491
 2748 0000 024A     		ldr	r2, .L276
 2749 0002 536B     		ldr	r3, [r2, #52]
 2750 0004 0343     		orrs	r3, r3, r0
 2751 0006 5363     		str	r3, [r2, #52]
1424:../Drivers/STM32N6xx_HAL_Driver/Src/stm32n6xx_hal.c **** }
 2752              		.loc 1 1424 1 is_stmt 0 view .LVU492
 2753 0008 7047     		bx	lr
 2754              	.L277:
 2755 000a 00BF     		.align	2
 2756              	.L276:
 2757 000c 00800056 		.word	1442873344
 2758              		.cfi_endproc
 2759              	.LFE959:
 2761              		.section	.text.HAL_SYSCFG_DisableUSBEarlyEarlyWRRESP,"ax",%progbits
 2762              		.align	1
 2763              		.global	HAL_SYSCFG_DisableUSBEarlyEarlyWRRESP
 2764              		.syntax unified
 2765              		.thumb
 2766              		.thumb_func
 2768              	HAL_SYSCFG_DisableUSBEarlyEarlyWRRESP:
 2769              	.LVL107:
 2770              	.LFB960:
1425:../Drivers/STM32N6xx_HAL_Driver/Src/stm32n6xx_hal.c **** 
1426:../Drivers/STM32N6xx_HAL_Driver/Src/stm32n6xx_hal.c **** /**
1427:../Drivers/STM32N6xx_HAL_Driver/Src/stm32n6xx_hal.c ****   * @brief  Disable USB early-write response.
1428:../Drivers/STM32N6xx_HAL_Driver/Src/stm32n6xx_hal.c ****   * @param  Usb Selected USB instance(s).
1429:../Drivers/STM32N6xx_HAL_Driver/Src/stm32n6xx_hal.c ****   *             This parameter can be a one of @ref SYSCFG_USBId
1430:../Drivers/STM32N6xx_HAL_Driver/Src/stm32n6xx_hal.c ****   * @retval None
1431:../Drivers/STM32N6xx_HAL_Driver/Src/stm32n6xx_hal.c ****   */
1432:../Drivers/STM32N6xx_HAL_Driver/Src/stm32n6xx_hal.c **** void HAL_SYSCFG_DisableUSBEarlyEarlyWRRESP(uint32_t Usb)
1433:../Drivers/STM32N6xx_HAL_Driver/Src/stm32n6xx_hal.c **** {
 2771              		.loc 1 1433 1 is_stmt 1 view -0
 2772              		.cfi_startproc
 2773              		@ args = 0, pretend = 0, frame = 0
 2774              		@ frame_needed = 0, uses_anonymous_args = 0
 2775              		@ link register save eliminated.
1434:../Drivers/STM32N6xx_HAL_Driver/Src/stm32n6xx_hal.c ****   /* Check the parameters */
1435:../Drivers/STM32N6xx_HAL_Driver/Src/stm32n6xx_hal.c ****   assert_param(IS_SYSCFG_USB(Usb));
 2776              		.loc 1 1435 3 view .LVU494
1436:../Drivers/STM32N6xx_HAL_Driver/Src/stm32n6xx_hal.c **** 
1437:../Drivers/STM32N6xx_HAL_Driver/Src/stm32n6xx_hal.c ****   CLEAR_BIT(SYSCFG->ICNEWRCR, Usb);
 2777              		.loc 1 1437 3 view .LVU495
 2778 0000 024A     		ldr	r2, .L279
 2779 0002 536B     		ldr	r3, [r2, #52]
 2780 0004 23EA0003 		bic	r3, r3, r0
 2781 0008 5363     		str	r3, [r2, #52]
1438:../Drivers/STM32N6xx_HAL_Driver/Src/stm32n6xx_hal.c **** }
 2782              		.loc 1 1438 1 is_stmt 0 view .LVU496
 2783 000a 7047     		bx	lr
 2784              	.L280:
 2785              		.align	2
 2786              	.L279:
 2787 000c 00800056 		.word	1442873344
 2788              		.cfi_endproc
ARM GAS  /tmp/ccvdUNht.s 			page 74


 2789              	.LFE960:
 2791              		.section	.text.HAL_SYSCFG_EnablexPUClockGating,"ax",%progbits
 2792              		.align	1
 2793              		.global	HAL_SYSCFG_EnablexPUClockGating
 2794              		.syntax unified
 2795              		.thumb
 2796              		.thumb_func
 2798              	HAL_SYSCFG_EnablexPUClockGating:
 2799              	.LVL108:
 2800              	.LFB961:
1439:../Drivers/STM32N6xx_HAL_Driver/Src/stm32n6xx_hal.c **** 
1440:../Drivers/STM32N6xx_HAL_Driver/Src/stm32n6xx_hal.c **** /**
1441:../Drivers/STM32N6xx_HAL_Driver/Src/stm32n6xx_hal.c ****   * @brief  Enable xPU clock gating.
1442:../Drivers/STM32N6xx_HAL_Driver/Src/stm32n6xx_hal.c ****   * @param  Xpu Selected CPU(s).
1443:../Drivers/STM32N6xx_HAL_Driver/Src/stm32n6xx_hal.c ****   *             This parameter can be a one of @ref SYSCFG_XPUId
1444:../Drivers/STM32N6xx_HAL_Driver/Src/stm32n6xx_hal.c ****   * @retval None
1445:../Drivers/STM32N6xx_HAL_Driver/Src/stm32n6xx_hal.c ****   */
1446:../Drivers/STM32N6xx_HAL_Driver/Src/stm32n6xx_hal.c **** void HAL_SYSCFG_EnablexPUClockGating(uint32_t Xpu)
1447:../Drivers/STM32N6xx_HAL_Driver/Src/stm32n6xx_hal.c **** {
 2801              		.loc 1 1447 1 is_stmt 1 view -0
 2802              		.cfi_startproc
 2803              		@ args = 0, pretend = 0, frame = 0
 2804              		@ frame_needed = 0, uses_anonymous_args = 0
 2805              		@ link register save eliminated.
1448:../Drivers/STM32N6xx_HAL_Driver/Src/stm32n6xx_hal.c ****   /* Check the parameters */
1449:../Drivers/STM32N6xx_HAL_Driver/Src/stm32n6xx_hal.c ****   assert_param(IS_SYSCFG_CPU_CLK_GATING(Xpu));
 2806              		.loc 1 1449 3 view .LVU498
1450:../Drivers/STM32N6xx_HAL_Driver/Src/stm32n6xx_hal.c **** 
1451:../Drivers/STM32N6xx_HAL_Driver/Src/stm32n6xx_hal.c ****   SET_BIT(SYSCFG->ICNCGCR, Xpu);
 2807              		.loc 1 1451 3 view .LVU499
 2808 0000 024A     		ldr	r2, .L282
 2809 0002 936B     		ldr	r3, [r2, #56]
 2810 0004 0343     		orrs	r3, r3, r0
 2811 0006 9363     		str	r3, [r2, #56]
1452:../Drivers/STM32N6xx_HAL_Driver/Src/stm32n6xx_hal.c **** }
 2812              		.loc 1 1452 1 is_stmt 0 view .LVU500
 2813 0008 7047     		bx	lr
 2814              	.L283:
 2815 000a 00BF     		.align	2
 2816              	.L282:
 2817 000c 00800056 		.word	1442873344
 2818              		.cfi_endproc
 2819              	.LFE961:
 2821              		.section	.text.HAL_SYSCFG_DisablexPUClockGating,"ax",%progbits
 2822              		.align	1
 2823              		.global	HAL_SYSCFG_DisablexPUClockGating
 2824              		.syntax unified
 2825              		.thumb
 2826              		.thumb_func
 2828              	HAL_SYSCFG_DisablexPUClockGating:
 2829              	.LVL109:
 2830              	.LFB962:
1453:../Drivers/STM32N6xx_HAL_Driver/Src/stm32n6xx_hal.c **** 
1454:../Drivers/STM32N6xx_HAL_Driver/Src/stm32n6xx_hal.c **** /**
1455:../Drivers/STM32N6xx_HAL_Driver/Src/stm32n6xx_hal.c ****   * @brief  Disable xPU clock gating.
1456:../Drivers/STM32N6xx_HAL_Driver/Src/stm32n6xx_hal.c ****   * @param  Xpu Selected CPU(s).
1457:../Drivers/STM32N6xx_HAL_Driver/Src/stm32n6xx_hal.c ****   *             This parameter can be a one of @ref SYSCFG_XPUId
ARM GAS  /tmp/ccvdUNht.s 			page 75


1458:../Drivers/STM32N6xx_HAL_Driver/Src/stm32n6xx_hal.c ****   * @retval None
1459:../Drivers/STM32N6xx_HAL_Driver/Src/stm32n6xx_hal.c ****   */
1460:../Drivers/STM32N6xx_HAL_Driver/Src/stm32n6xx_hal.c **** void HAL_SYSCFG_DisablexPUClockGating(uint32_t Xpu)
1461:../Drivers/STM32N6xx_HAL_Driver/Src/stm32n6xx_hal.c **** {
 2831              		.loc 1 1461 1 is_stmt 1 view -0
 2832              		.cfi_startproc
 2833              		@ args = 0, pretend = 0, frame = 0
 2834              		@ frame_needed = 0, uses_anonymous_args = 0
 2835              		@ link register save eliminated.
1462:../Drivers/STM32N6xx_HAL_Driver/Src/stm32n6xx_hal.c ****   /* Check the parameters */
1463:../Drivers/STM32N6xx_HAL_Driver/Src/stm32n6xx_hal.c ****   assert_param(IS_SYSCFG_CPU_CLK_GATING(Xpu));
 2836              		.loc 1 1463 3 view .LVU502
1464:../Drivers/STM32N6xx_HAL_Driver/Src/stm32n6xx_hal.c **** 
1465:../Drivers/STM32N6xx_HAL_Driver/Src/stm32n6xx_hal.c ****   CLEAR_BIT(SYSCFG->ICNCGCR, Xpu);
 2837              		.loc 1 1465 3 view .LVU503
 2838 0000 024A     		ldr	r2, .L285
 2839 0002 936B     		ldr	r3, [r2, #56]
 2840 0004 23EA0003 		bic	r3, r3, r0
 2841 0008 9363     		str	r3, [r2, #56]
1466:../Drivers/STM32N6xx_HAL_Driver/Src/stm32n6xx_hal.c **** }
 2842              		.loc 1 1466 1 is_stmt 0 view .LVU504
 2843 000a 7047     		bx	lr
 2844              	.L286:
 2845              		.align	2
 2846              	.L285:
 2847 000c 00800056 		.word	1442873344
 2848              		.cfi_endproc
 2849              	.LFE962:
 2851              		.section	.text.HAL_SYSCFG_EnableVDDIO2CompensationCell,"ax",%progbits
 2852              		.align	1
 2853              		.global	HAL_SYSCFG_EnableVDDIO2CompensationCell
 2854              		.syntax unified
 2855              		.thumb
 2856              		.thumb_func
 2858              	HAL_SYSCFG_EnableVDDIO2CompensationCell:
 2859              	.LFB963:
1467:../Drivers/STM32N6xx_HAL_Driver/Src/stm32n6xx_hal.c **** 
1468:../Drivers/STM32N6xx_HAL_Driver/Src/stm32n6xx_hal.c **** /**
1469:../Drivers/STM32N6xx_HAL_Driver/Src/stm32n6xx_hal.c ****   * @brief  Enable the VDDIO2 compensation cell.
1470:../Drivers/STM32N6xx_HAL_Driver/Src/stm32n6xx_hal.c ****   * @note   This function is deprecated, please refer to Errata Sheet ES0620.
1471:../Drivers/STM32N6xx_HAL_Driver/Src/stm32n6xx_hal.c ****   *         I/O compensation cells must remain disabled.
1472:../Drivers/STM32N6xx_HAL_Driver/Src/stm32n6xx_hal.c ****   * @retval None
1473:../Drivers/STM32N6xx_HAL_Driver/Src/stm32n6xx_hal.c ****   */
1474:../Drivers/STM32N6xx_HAL_Driver/Src/stm32n6xx_hal.c **** void HAL_SYSCFG_EnableVDDIO2CompensationCell(void)
1475:../Drivers/STM32N6xx_HAL_Driver/Src/stm32n6xx_hal.c **** {
 2860              		.loc 1 1475 1 is_stmt 1 view -0
 2861              		.cfi_startproc
 2862              		@ args = 0, pretend = 0, frame = 0
 2863              		@ frame_needed = 0, uses_anonymous_args = 0
 2864              		@ link register save eliminated.
1476:../Drivers/STM32N6xx_HAL_Driver/Src/stm32n6xx_hal.c ****   SET_BIT(SYSCFG->VDDIO2CCCR, SYSCFG_VDDIO2CCCR_EN);
 2865              		.loc 1 1476 3 view .LVU506
 2866 0000 024A     		ldr	r2, .L288
 2867 0002 536D     		ldr	r3, [r2, #84]
 2868 0004 43F48073 		orr	r3, r3, #256
 2869 0008 5365     		str	r3, [r2, #84]
1477:../Drivers/STM32N6xx_HAL_Driver/Src/stm32n6xx_hal.c **** }
ARM GAS  /tmp/ccvdUNht.s 			page 76


 2870              		.loc 1 1477 1 is_stmt 0 view .LVU507
 2871 000a 7047     		bx	lr
 2872              	.L289:
 2873              		.align	2
 2874              	.L288:
 2875 000c 00800056 		.word	1442873344
 2876              		.cfi_endproc
 2877              	.LFE963:
 2879              		.section	.text.HAL_SYSCFG_DisableVDDIO2CompensationCell,"ax",%progbits
 2880              		.align	1
 2881              		.global	HAL_SYSCFG_DisableVDDIO2CompensationCell
 2882              		.syntax unified
 2883              		.thumb
 2884              		.thumb_func
 2886              	HAL_SYSCFG_DisableVDDIO2CompensationCell:
 2887              	.LFB964:
1478:../Drivers/STM32N6xx_HAL_Driver/Src/stm32n6xx_hal.c **** 
1479:../Drivers/STM32N6xx_HAL_Driver/Src/stm32n6xx_hal.c **** /**
1480:../Drivers/STM32N6xx_HAL_Driver/Src/stm32n6xx_hal.c ****   * @brief  Disable the VDDIO2 compensation cell.
1481:../Drivers/STM32N6xx_HAL_Driver/Src/stm32n6xx_hal.c ****   * @retval None
1482:../Drivers/STM32N6xx_HAL_Driver/Src/stm32n6xx_hal.c ****   */
1483:../Drivers/STM32N6xx_HAL_Driver/Src/stm32n6xx_hal.c **** void HAL_SYSCFG_DisableVDDIO2CompensationCell(void)
1484:../Drivers/STM32N6xx_HAL_Driver/Src/stm32n6xx_hal.c **** {
 2888              		.loc 1 1484 1 is_stmt 1 view -0
 2889              		.cfi_startproc
 2890              		@ args = 0, pretend = 0, frame = 0
 2891              		@ frame_needed = 0, uses_anonymous_args = 0
 2892              		@ link register save eliminated.
1485:../Drivers/STM32N6xx_HAL_Driver/Src/stm32n6xx_hal.c ****   CLEAR_BIT(SYSCFG->VDDIO2CCCR, SYSCFG_VDDIO2CCCR_EN);
 2893              		.loc 1 1485 3 view .LVU509
 2894 0000 024A     		ldr	r2, .L291
 2895 0002 536D     		ldr	r3, [r2, #84]
 2896 0004 23F48073 		bic	r3, r3, #256
 2897 0008 5365     		str	r3, [r2, #84]
1486:../Drivers/STM32N6xx_HAL_Driver/Src/stm32n6xx_hal.c **** }
 2898              		.loc 1 1486 1 is_stmt 0 view .LVU510
 2899 000a 7047     		bx	lr
 2900              	.L292:
 2901              		.align	2
 2902              	.L291:
 2903 000c 00800056 		.word	1442873344
 2904              		.cfi_endproc
 2905              	.LFE964:
 2907              		.section	.text.HAL_SYSCFG_EnableVDDIO3CompensationCell,"ax",%progbits
 2908              		.align	1
 2909              		.global	HAL_SYSCFG_EnableVDDIO3CompensationCell
 2910              		.syntax unified
 2911              		.thumb
 2912              		.thumb_func
 2914              	HAL_SYSCFG_EnableVDDIO3CompensationCell:
 2915              	.LFB965:
1487:../Drivers/STM32N6xx_HAL_Driver/Src/stm32n6xx_hal.c **** 
1488:../Drivers/STM32N6xx_HAL_Driver/Src/stm32n6xx_hal.c **** /**
1489:../Drivers/STM32N6xx_HAL_Driver/Src/stm32n6xx_hal.c ****   * @brief  Enable the VDDIO3 compensation cell.
1490:../Drivers/STM32N6xx_HAL_Driver/Src/stm32n6xx_hal.c ****   * @note   This function is deprecated, please refer to Errata Sheet ES0620.
1491:../Drivers/STM32N6xx_HAL_Driver/Src/stm32n6xx_hal.c ****   *         I/O compensation cells must remain disabled.
1492:../Drivers/STM32N6xx_HAL_Driver/Src/stm32n6xx_hal.c ****   * @retval None
ARM GAS  /tmp/ccvdUNht.s 			page 77


1493:../Drivers/STM32N6xx_HAL_Driver/Src/stm32n6xx_hal.c ****   */
1494:../Drivers/STM32N6xx_HAL_Driver/Src/stm32n6xx_hal.c **** void HAL_SYSCFG_EnableVDDIO3CompensationCell(void)
1495:../Drivers/STM32N6xx_HAL_Driver/Src/stm32n6xx_hal.c **** {
 2916              		.loc 1 1495 1 is_stmt 1 view -0
 2917              		.cfi_startproc
 2918              		@ args = 0, pretend = 0, frame = 0
 2919              		@ frame_needed = 0, uses_anonymous_args = 0
 2920              		@ link register save eliminated.
1496:../Drivers/STM32N6xx_HAL_Driver/Src/stm32n6xx_hal.c ****   SET_BIT(SYSCFG->VDDIO3CCCR, SYSCFG_VDDIO3CCCR_EN);
 2921              		.loc 1 1496 3 view .LVU512
 2922 0000 024A     		ldr	r2, .L294
 2923 0002 D36D     		ldr	r3, [r2, #92]
 2924 0004 43F48073 		orr	r3, r3, #256
 2925 0008 D365     		str	r3, [r2, #92]
1497:../Drivers/STM32N6xx_HAL_Driver/Src/stm32n6xx_hal.c **** }
 2926              		.loc 1 1497 1 is_stmt 0 view .LVU513
 2927 000a 7047     		bx	lr
 2928              	.L295:
 2929              		.align	2
 2930              	.L294:
 2931 000c 00800056 		.word	1442873344
 2932              		.cfi_endproc
 2933              	.LFE965:
 2935              		.section	.text.HAL_SYSCFG_DisableVDDIO3CompensationCell,"ax",%progbits
 2936              		.align	1
 2937              		.global	HAL_SYSCFG_DisableVDDIO3CompensationCell
 2938              		.syntax unified
 2939              		.thumb
 2940              		.thumb_func
 2942              	HAL_SYSCFG_DisableVDDIO3CompensationCell:
 2943              	.LFB966:
1498:../Drivers/STM32N6xx_HAL_Driver/Src/stm32n6xx_hal.c **** 
1499:../Drivers/STM32N6xx_HAL_Driver/Src/stm32n6xx_hal.c **** /**
1500:../Drivers/STM32N6xx_HAL_Driver/Src/stm32n6xx_hal.c ****   * @brief  Disable the VDDIO3 compensation cell.
1501:../Drivers/STM32N6xx_HAL_Driver/Src/stm32n6xx_hal.c ****   * @retval None
1502:../Drivers/STM32N6xx_HAL_Driver/Src/stm32n6xx_hal.c ****   */
1503:../Drivers/STM32N6xx_HAL_Driver/Src/stm32n6xx_hal.c **** void HAL_SYSCFG_DisableVDDIO3CompensationCell(void)
1504:../Drivers/STM32N6xx_HAL_Driver/Src/stm32n6xx_hal.c **** {
 2944              		.loc 1 1504 1 is_stmt 1 view -0
 2945              		.cfi_startproc
 2946              		@ args = 0, pretend = 0, frame = 0
 2947              		@ frame_needed = 0, uses_anonymous_args = 0
 2948              		@ link register save eliminated.
1505:../Drivers/STM32N6xx_HAL_Driver/Src/stm32n6xx_hal.c ****   CLEAR_BIT(SYSCFG->VDDIO3CCCR, SYSCFG_VDDIO3CCCR_EN);
 2949              		.loc 1 1505 3 view .LVU515
 2950 0000 024A     		ldr	r2, .L297
 2951 0002 D36D     		ldr	r3, [r2, #92]
 2952 0004 23F48073 		bic	r3, r3, #256
 2953 0008 D365     		str	r3, [r2, #92]
1506:../Drivers/STM32N6xx_HAL_Driver/Src/stm32n6xx_hal.c **** }
 2954              		.loc 1 1506 1 is_stmt 0 view .LVU516
 2955 000a 7047     		bx	lr
 2956              	.L298:
 2957              		.align	2
 2958              	.L297:
 2959 000c 00800056 		.word	1442873344
 2960              		.cfi_endproc
ARM GAS  /tmp/ccvdUNht.s 			page 78


 2961              	.LFE966:
 2963              		.section	.text.HAL_SYSCFG_EnableVDDIO4CompensationCell,"ax",%progbits
 2964              		.align	1
 2965              		.global	HAL_SYSCFG_EnableVDDIO4CompensationCell
 2966              		.syntax unified
 2967              		.thumb
 2968              		.thumb_func
 2970              	HAL_SYSCFG_EnableVDDIO4CompensationCell:
 2971              	.LFB967:
1507:../Drivers/STM32N6xx_HAL_Driver/Src/stm32n6xx_hal.c **** 
1508:../Drivers/STM32N6xx_HAL_Driver/Src/stm32n6xx_hal.c **** /**
1509:../Drivers/STM32N6xx_HAL_Driver/Src/stm32n6xx_hal.c ****   * @brief  Enable the VDDIO4 compensation cell.
1510:../Drivers/STM32N6xx_HAL_Driver/Src/stm32n6xx_hal.c ****   * @note   This function is deprecated, please refer to Errata Sheet ES0620.
1511:../Drivers/STM32N6xx_HAL_Driver/Src/stm32n6xx_hal.c ****   *         I/O compensation cells must remain disabled.
1512:../Drivers/STM32N6xx_HAL_Driver/Src/stm32n6xx_hal.c ****   * @retval None
1513:../Drivers/STM32N6xx_HAL_Driver/Src/stm32n6xx_hal.c ****   */
1514:../Drivers/STM32N6xx_HAL_Driver/Src/stm32n6xx_hal.c **** void HAL_SYSCFG_EnableVDDIO4CompensationCell(void)
1515:../Drivers/STM32N6xx_HAL_Driver/Src/stm32n6xx_hal.c **** {
 2972              		.loc 1 1515 1 is_stmt 1 view -0
 2973              		.cfi_startproc
 2974              		@ args = 0, pretend = 0, frame = 0
 2975              		@ frame_needed = 0, uses_anonymous_args = 0
 2976              		@ link register save eliminated.
1516:../Drivers/STM32N6xx_HAL_Driver/Src/stm32n6xx_hal.c ****   SET_BIT(SYSCFG->VDDIO4CCCR, SYSCFG_VDDIO4CCCR_EN);
 2977              		.loc 1 1516 3 view .LVU518
 2978 0000 024A     		ldr	r2, .L300
 2979 0002 536C     		ldr	r3, [r2, #68]
 2980 0004 43F48073 		orr	r3, r3, #256
 2981 0008 5364     		str	r3, [r2, #68]
1517:../Drivers/STM32N6xx_HAL_Driver/Src/stm32n6xx_hal.c **** }
 2982              		.loc 1 1517 1 is_stmt 0 view .LVU519
 2983 000a 7047     		bx	lr
 2984              	.L301:
 2985              		.align	2
 2986              	.L300:
 2987 000c 00800056 		.word	1442873344
 2988              		.cfi_endproc
 2989              	.LFE967:
 2991              		.section	.text.HAL_SYSCFG_DisableVDDIO4CompensationCell,"ax",%progbits
 2992              		.align	1
 2993              		.global	HAL_SYSCFG_DisableVDDIO4CompensationCell
 2994              		.syntax unified
 2995              		.thumb
 2996              		.thumb_func
 2998              	HAL_SYSCFG_DisableVDDIO4CompensationCell:
 2999              	.LFB968:
1518:../Drivers/STM32N6xx_HAL_Driver/Src/stm32n6xx_hal.c **** 
1519:../Drivers/STM32N6xx_HAL_Driver/Src/stm32n6xx_hal.c **** /**
1520:../Drivers/STM32N6xx_HAL_Driver/Src/stm32n6xx_hal.c ****   * @brief  Disable the VDDIO4 compensation cell.
1521:../Drivers/STM32N6xx_HAL_Driver/Src/stm32n6xx_hal.c ****   * @retval None
1522:../Drivers/STM32N6xx_HAL_Driver/Src/stm32n6xx_hal.c ****   */
1523:../Drivers/STM32N6xx_HAL_Driver/Src/stm32n6xx_hal.c **** void HAL_SYSCFG_DisableVDDIO4CompensationCell(void)
1524:../Drivers/STM32N6xx_HAL_Driver/Src/stm32n6xx_hal.c **** {
 3000              		.loc 1 1524 1 is_stmt 1 view -0
 3001              		.cfi_startproc
 3002              		@ args = 0, pretend = 0, frame = 0
 3003              		@ frame_needed = 0, uses_anonymous_args = 0
ARM GAS  /tmp/ccvdUNht.s 			page 79


 3004              		@ link register save eliminated.
1525:../Drivers/STM32N6xx_HAL_Driver/Src/stm32n6xx_hal.c ****   CLEAR_BIT(SYSCFG->VDDIO4CCCR, SYSCFG_VDDIO4CCCR_EN);
 3005              		.loc 1 1525 3 view .LVU521
 3006 0000 024A     		ldr	r2, .L303
 3007 0002 536C     		ldr	r3, [r2, #68]
 3008 0004 23F48073 		bic	r3, r3, #256
 3009 0008 5364     		str	r3, [r2, #68]
1526:../Drivers/STM32N6xx_HAL_Driver/Src/stm32n6xx_hal.c **** }
 3010              		.loc 1 1526 1 is_stmt 0 view .LVU522
 3011 000a 7047     		bx	lr
 3012              	.L304:
 3013              		.align	2
 3014              	.L303:
 3015 000c 00800056 		.word	1442873344
 3016              		.cfi_endproc
 3017              	.LFE968:
 3019              		.section	.text.HAL_SYSCFG_EnableVDDIO5CompensationCell,"ax",%progbits
 3020              		.align	1
 3021              		.global	HAL_SYSCFG_EnableVDDIO5CompensationCell
 3022              		.syntax unified
 3023              		.thumb
 3024              		.thumb_func
 3026              	HAL_SYSCFG_EnableVDDIO5CompensationCell:
 3027              	.LFB969:
1527:../Drivers/STM32N6xx_HAL_Driver/Src/stm32n6xx_hal.c **** 
1528:../Drivers/STM32N6xx_HAL_Driver/Src/stm32n6xx_hal.c **** /**
1529:../Drivers/STM32N6xx_HAL_Driver/Src/stm32n6xx_hal.c ****   * @brief  Enable the VDDIO5 compensation cell.
1530:../Drivers/STM32N6xx_HAL_Driver/Src/stm32n6xx_hal.c ****   * @note   This function is deprecated, please refer to Errata Sheet ES0620.
1531:../Drivers/STM32N6xx_HAL_Driver/Src/stm32n6xx_hal.c ****   *         I/O compensation cells must remain disabled.
1532:../Drivers/STM32N6xx_HAL_Driver/Src/stm32n6xx_hal.c ****   * @retval None
1533:../Drivers/STM32N6xx_HAL_Driver/Src/stm32n6xx_hal.c ****   */
1534:../Drivers/STM32N6xx_HAL_Driver/Src/stm32n6xx_hal.c **** void HAL_SYSCFG_EnableVDDIO5CompensationCell(void)
1535:../Drivers/STM32N6xx_HAL_Driver/Src/stm32n6xx_hal.c **** {
 3028              		.loc 1 1535 1 is_stmt 1 view -0
 3029              		.cfi_startproc
 3030              		@ args = 0, pretend = 0, frame = 0
 3031              		@ frame_needed = 0, uses_anonymous_args = 0
 3032              		@ link register save eliminated.
1536:../Drivers/STM32N6xx_HAL_Driver/Src/stm32n6xx_hal.c ****   SET_BIT(SYSCFG->VDDIO5CCCR, SYSCFG_VDDIO5CCCR_EN);
 3033              		.loc 1 1536 3 view .LVU524
 3034 0000 024A     		ldr	r2, .L306
 3035 0002 D36C     		ldr	r3, [r2, #76]
 3036 0004 43F48073 		orr	r3, r3, #256
 3037 0008 D364     		str	r3, [r2, #76]
1537:../Drivers/STM32N6xx_HAL_Driver/Src/stm32n6xx_hal.c **** }
 3038              		.loc 1 1537 1 is_stmt 0 view .LVU525
 3039 000a 7047     		bx	lr
 3040              	.L307:
 3041              		.align	2
 3042              	.L306:
 3043 000c 00800056 		.word	1442873344
 3044              		.cfi_endproc
 3045              	.LFE969:
 3047              		.section	.text.HAL_SYSCFG_DisableVDDIO5CompensationCell,"ax",%progbits
 3048              		.align	1
 3049              		.global	HAL_SYSCFG_DisableVDDIO5CompensationCell
 3050              		.syntax unified
ARM GAS  /tmp/ccvdUNht.s 			page 80


 3051              		.thumb
 3052              		.thumb_func
 3054              	HAL_SYSCFG_DisableVDDIO5CompensationCell:
 3055              	.LFB970:
1538:../Drivers/STM32N6xx_HAL_Driver/Src/stm32n6xx_hal.c **** 
1539:../Drivers/STM32N6xx_HAL_Driver/Src/stm32n6xx_hal.c **** /**
1540:../Drivers/STM32N6xx_HAL_Driver/Src/stm32n6xx_hal.c ****   * @brief  Disable the VDDIO5 compensation cell.
1541:../Drivers/STM32N6xx_HAL_Driver/Src/stm32n6xx_hal.c ****   * @retval None
1542:../Drivers/STM32N6xx_HAL_Driver/Src/stm32n6xx_hal.c ****   */
1543:../Drivers/STM32N6xx_HAL_Driver/Src/stm32n6xx_hal.c **** void HAL_SYSCFG_DisableVDDIO5CompensationCell(void)
1544:../Drivers/STM32N6xx_HAL_Driver/Src/stm32n6xx_hal.c **** {
 3056              		.loc 1 1544 1 is_stmt 1 view -0
 3057              		.cfi_startproc
 3058              		@ args = 0, pretend = 0, frame = 0
 3059              		@ frame_needed = 0, uses_anonymous_args = 0
 3060              		@ link register save eliminated.
1545:../Drivers/STM32N6xx_HAL_Driver/Src/stm32n6xx_hal.c ****   CLEAR_BIT(SYSCFG->VDDIO5CCCR, SYSCFG_VDDIO5CCCR_EN);
 3061              		.loc 1 1545 3 view .LVU527
 3062 0000 024A     		ldr	r2, .L309
 3063 0002 D36C     		ldr	r3, [r2, #76]
 3064 0004 23F48073 		bic	r3, r3, #256
 3065 0008 D364     		str	r3, [r2, #76]
1546:../Drivers/STM32N6xx_HAL_Driver/Src/stm32n6xx_hal.c **** }
 3066              		.loc 1 1546 1 is_stmt 0 view .LVU528
 3067 000a 7047     		bx	lr
 3068              	.L310:
 3069              		.align	2
 3070              	.L309:
 3071 000c 00800056 		.word	1442873344
 3072              		.cfi_endproc
 3073              	.LFE970:
 3075              		.section	.text.HAL_SYSCFG_ConfigVDDIOCompensationCell,"ax",%progbits
 3076              		.align	1
 3077              		.global	HAL_SYSCFG_ConfigVDDIOCompensationCell
 3078              		.syntax unified
 3079              		.thumb
 3080              		.thumb_func
 3082              	HAL_SYSCFG_ConfigVDDIOCompensationCell:
 3083              	.LVL110:
 3084              	.LFB971:
1547:../Drivers/STM32N6xx_HAL_Driver/Src/stm32n6xx_hal.c **** 
1548:../Drivers/STM32N6xx_HAL_Driver/Src/stm32n6xx_hal.c **** /**
1549:../Drivers/STM32N6xx_HAL_Driver/Src/stm32n6xx_hal.c ****   * @brief  Configure the code selection for the compensation cell
1550:../Drivers/STM32N6xx_HAL_Driver/Src/stm32n6xx_hal.c ****   * @param  Selection specifies the concerned compensation cell
1551:../Drivers/STM32N6xx_HAL_Driver/Src/stm32n6xx_hal.c ****   *         This parameter can one of the following values:
1552:../Drivers/STM32N6xx_HAL_Driver/Src/stm32n6xx_hal.c ****   *            @arg SYSCFG_IO_VDDIO2_CELL Compensation cell for the VDDIO2
1553:../Drivers/STM32N6xx_HAL_Driver/Src/stm32n6xx_hal.c ****   *            @arg SYSCFG_IO_VDDIO3_CELL Compensation cell for the VDDIO3
1554:../Drivers/STM32N6xx_HAL_Driver/Src/stm32n6xx_hal.c ****   *            @arg SYSCFG_IO_VDDIO4_CELL Compensation cell for the VDDIO4
1555:../Drivers/STM32N6xx_HAL_Driver/Src/stm32n6xx_hal.c ****   *            @arg SYSCFG_IO_VDDIO5_CELL Compensation cell for the VDDIO5
1556:../Drivers/STM32N6xx_HAL_Driver/Src/stm32n6xx_hal.c ****   * @param  Code code selection to be applied for the I/O compensation cell
1557:../Drivers/STM32N6xx_HAL_Driver/Src/stm32n6xx_hal.c ****   *         This parameter can be one of the following values:
1558:../Drivers/STM32N6xx_HAL_Driver/Src/stm32n6xx_hal.c ****   *            @arg SYSCFG_IO_CELL_CODE  Code from the cell (available in the SYSCFG_VDDIOxCCSR)
1559:../Drivers/STM32N6xx_HAL_Driver/Src/stm32n6xx_hal.c ****   *            @arg SYSCFG_IO_REGISTER_CODE Code from the compensation cell code register ((SYSCFG_
1560:../Drivers/STM32N6xx_HAL_Driver/Src/stm32n6xx_hal.c ****   * @param  NmosValue In case SYSCFG_IO_REGISTER_CODE is selected, it  provides the Nmos value
1561:../Drivers/STM32N6xx_HAL_Driver/Src/stm32n6xx_hal.c ****   *                   to apply in range 0 to 15 else this parameter is not used
1562:../Drivers/STM32N6xx_HAL_Driver/Src/stm32n6xx_hal.c ****   * @param  PmosValue In case SYSCFG_IO_REGISTER_CODE is selected, it  provides the Pmos value
1563:../Drivers/STM32N6xx_HAL_Driver/Src/stm32n6xx_hal.c ****   *                   to apply in range 0 to 15 else this parameter is not used
ARM GAS  /tmp/ccvdUNht.s 			page 81


1564:../Drivers/STM32N6xx_HAL_Driver/Src/stm32n6xx_hal.c ****   * @retval HAL status
1565:../Drivers/STM32N6xx_HAL_Driver/Src/stm32n6xx_hal.c ****   */
1566:../Drivers/STM32N6xx_HAL_Driver/Src/stm32n6xx_hal.c **** HAL_StatusTypeDef HAL_SYSCFG_ConfigVDDIOCompensationCell(uint32_t Selection, uint32_t Code, uint32_
1567:../Drivers/STM32N6xx_HAL_Driver/Src/stm32n6xx_hal.c ****                                                          uint32_t PmosValue)
1568:../Drivers/STM32N6xx_HAL_Driver/Src/stm32n6xx_hal.c **** {
 3085              		.loc 1 1568 1 is_stmt 1 view -0
 3086              		.cfi_startproc
 3087              		@ args = 0, pretend = 0, frame = 0
 3088              		@ frame_needed = 0, uses_anonymous_args = 0
 3089              		@ link register save eliminated.
1569:../Drivers/STM32N6xx_HAL_Driver/Src/stm32n6xx_hal.c ****   HAL_StatusTypeDef status = HAL_OK;
 3090              		.loc 1 1569 3 view .LVU530
1570:../Drivers/STM32N6xx_HAL_Driver/Src/stm32n6xx_hal.c **** 
1571:../Drivers/STM32N6xx_HAL_Driver/Src/stm32n6xx_hal.c ****   /* Check the parameters */
1572:../Drivers/STM32N6xx_HAL_Driver/Src/stm32n6xx_hal.c ****   assert_param(IS_SYSCFG_COMPENSATION_CELL(Selection));
 3091              		.loc 1 1572 3 view .LVU531
1573:../Drivers/STM32N6xx_HAL_Driver/Src/stm32n6xx_hal.c ****   assert_param(IS_SYSCFG_IO_COMPENSATION_CODE(Code));
 3092              		.loc 1 1573 3 view .LVU532
1574:../Drivers/STM32N6xx_HAL_Driver/Src/stm32n6xx_hal.c **** 
1575:../Drivers/STM32N6xx_HAL_Driver/Src/stm32n6xx_hal.c ****   if (Code == SYSCFG_IO_REGISTER_CODE)
 3093              		.loc 1 1575 3 view .LVU533
 3094              		.loc 1 1575 6 is_stmt 0 view .LVU534
 3095 0000 0129     		cmp	r1, #1
 3096 0002 05D0     		beq	.L328
1576:../Drivers/STM32N6xx_HAL_Driver/Src/stm32n6xx_hal.c ****   {
1577:../Drivers/STM32N6xx_HAL_Driver/Src/stm32n6xx_hal.c ****     /* Check the parameters */
1578:../Drivers/STM32N6xx_HAL_Driver/Src/stm32n6xx_hal.c ****     assert_param(IS_SYSCFG_IO_COMPENSATION_CELL_NMOS_VALUE(NmosValue));
1579:../Drivers/STM32N6xx_HAL_Driver/Src/stm32n6xx_hal.c ****     assert_param(IS_SYSCFG_IO_COMPENSATION_CELL_PMOS_VALUE(PmosValue));
1580:../Drivers/STM32N6xx_HAL_Driver/Src/stm32n6xx_hal.c **** 
1581:../Drivers/STM32N6xx_HAL_Driver/Src/stm32n6xx_hal.c ****     /* Reject forbidden Nmos = 0 and Pmos = 15 */
1582:../Drivers/STM32N6xx_HAL_Driver/Src/stm32n6xx_hal.c ****     if ((NmosValue == 0U) || (PmosValue == 0xFU))
1583:../Drivers/STM32N6xx_HAL_Driver/Src/stm32n6xx_hal.c ****     {
1584:../Drivers/STM32N6xx_HAL_Driver/Src/stm32n6xx_hal.c ****       status = HAL_ERROR;
1585:../Drivers/STM32N6xx_HAL_Driver/Src/stm32n6xx_hal.c ****     }
1586:../Drivers/STM32N6xx_HAL_Driver/Src/stm32n6xx_hal.c ****     else
1587:../Drivers/STM32N6xx_HAL_Driver/Src/stm32n6xx_hal.c ****     {
1588:../Drivers/STM32N6xx_HAL_Driver/Src/stm32n6xx_hal.c ****       switch (Selection)
1589:../Drivers/STM32N6xx_HAL_Driver/Src/stm32n6xx_hal.c ****       {
1590:../Drivers/STM32N6xx_HAL_Driver/Src/stm32n6xx_hal.c ****         case SYSCFG_IO_VDDIO2_CELL:
1591:../Drivers/STM32N6xx_HAL_Driver/Src/stm32n6xx_hal.c ****         {
1592:../Drivers/STM32N6xx_HAL_Driver/Src/stm32n6xx_hal.c ****           MODIFY_REG(SYSCFG->VDDIO2CCCR, 0x2FFU, ((NmosValue | (PmosValue << (4U))) | SYSCFG_VDDIO2
1593:../Drivers/STM32N6xx_HAL_Driver/Src/stm32n6xx_hal.c ****           break;
1594:../Drivers/STM32N6xx_HAL_Driver/Src/stm32n6xx_hal.c ****         }
1595:../Drivers/STM32N6xx_HAL_Driver/Src/stm32n6xx_hal.c ****         case SYSCFG_IO_VDDIO3_CELL:
1596:../Drivers/STM32N6xx_HAL_Driver/Src/stm32n6xx_hal.c ****         {
1597:../Drivers/STM32N6xx_HAL_Driver/Src/stm32n6xx_hal.c ****           MODIFY_REG(SYSCFG->VDDIO3CCCR, 0x2FFU, ((NmosValue | (PmosValue << (4U))) | SYSCFG_VDDIO3
1598:../Drivers/STM32N6xx_HAL_Driver/Src/stm32n6xx_hal.c ****           break;
1599:../Drivers/STM32N6xx_HAL_Driver/Src/stm32n6xx_hal.c ****         }
1600:../Drivers/STM32N6xx_HAL_Driver/Src/stm32n6xx_hal.c ****         case SYSCFG_IO_VDDIO4_CELL:
1601:../Drivers/STM32N6xx_HAL_Driver/Src/stm32n6xx_hal.c ****         {
1602:../Drivers/STM32N6xx_HAL_Driver/Src/stm32n6xx_hal.c ****           MODIFY_REG(SYSCFG->VDDIO4CCCR, 0x2FFU, ((NmosValue) | (PmosValue << (4U)) | SYSCFG_VDDIO4
1603:../Drivers/STM32N6xx_HAL_Driver/Src/stm32n6xx_hal.c ****           break;
1604:../Drivers/STM32N6xx_HAL_Driver/Src/stm32n6xx_hal.c ****         }
1605:../Drivers/STM32N6xx_HAL_Driver/Src/stm32n6xx_hal.c ****         case SYSCFG_IO_VDDIO5_CELL:
1606:../Drivers/STM32N6xx_HAL_Driver/Src/stm32n6xx_hal.c ****         {
1607:../Drivers/STM32N6xx_HAL_Driver/Src/stm32n6xx_hal.c ****           MODIFY_REG(SYSCFG->VDDIO5CCCR, 0x2FFU, ((NmosValue | (PmosValue << (4U))) | SYSCFG_VDDIO5
1608:../Drivers/STM32N6xx_HAL_Driver/Src/stm32n6xx_hal.c ****           break;
ARM GAS  /tmp/ccvdUNht.s 			page 82


1609:../Drivers/STM32N6xx_HAL_Driver/Src/stm32n6xx_hal.c ****         }
1610:../Drivers/STM32N6xx_HAL_Driver/Src/stm32n6xx_hal.c ****         default:
1611:../Drivers/STM32N6xx_HAL_Driver/Src/stm32n6xx_hal.c ****         {
1612:../Drivers/STM32N6xx_HAL_Driver/Src/stm32n6xx_hal.c ****           /* Update error status */
1613:../Drivers/STM32N6xx_HAL_Driver/Src/stm32n6xx_hal.c ****           status = HAL_ERROR;
1614:../Drivers/STM32N6xx_HAL_Driver/Src/stm32n6xx_hal.c ****           break;
1615:../Drivers/STM32N6xx_HAL_Driver/Src/stm32n6xx_hal.c ****         }
1616:../Drivers/STM32N6xx_HAL_Driver/Src/stm32n6xx_hal.c ****       }
1617:../Drivers/STM32N6xx_HAL_Driver/Src/stm32n6xx_hal.c ****     }
1618:../Drivers/STM32N6xx_HAL_Driver/Src/stm32n6xx_hal.c ****   }
1619:../Drivers/STM32N6xx_HAL_Driver/Src/stm32n6xx_hal.c ****   else
1620:../Drivers/STM32N6xx_HAL_Driver/Src/stm32n6xx_hal.c ****   {
1621:../Drivers/STM32N6xx_HAL_Driver/Src/stm32n6xx_hal.c ****     switch (Selection)
 3097              		.loc 1 1621 5 is_stmt 1 view .LVU535
 3098 0004 0328     		cmp	r0, #3
 3099 0006 5AD8     		bhi	.L313
 3100 0008 DFE800F0 		tbb	[pc, r0]
 3101              	.LVL111:
 3102              	.L322:
 3103 000c 40       		.byte	(.L325-.L322)/2
 3104 000d 47       		.byte	(.L324-.L322)/2
 3105 000e 4D       		.byte	(.L323-.L322)/2
 3106 000f 53       		.byte	(.L321-.L322)/2
 3107              		.p2align 1
 3108              	.L328:
1578:../Drivers/STM32N6xx_HAL_Driver/Src/stm32n6xx_hal.c ****     assert_param(IS_SYSCFG_IO_COMPENSATION_CELL_PMOS_VALUE(PmosValue));
 3109              		.loc 1 1578 5 view .LVU536
1579:../Drivers/STM32N6xx_HAL_Driver/Src/stm32n6xx_hal.c **** 
 3110              		.loc 1 1579 5 view .LVU537
1582:../Drivers/STM32N6xx_HAL_Driver/Src/stm32n6xx_hal.c ****     {
 3111              		.loc 1 1582 5 view .LVU538
1582:../Drivers/STM32N6xx_HAL_Driver/Src/stm32n6xx_hal.c ****     {
 3112              		.loc 1 1582 8 is_stmt 0 view .LVU539
 3113 0010 002A     		cmp	r2, #0
 3114 0012 54D0     		beq	.L313
1582:../Drivers/STM32N6xx_HAL_Driver/Src/stm32n6xx_hal.c ****     {
 3115              		.loc 1 1582 27 discriminator 1 view .LVU540
 3116 0014 0F2B     		cmp	r3, #15
 3117 0016 52D0     		beq	.L313
1588:../Drivers/STM32N6xx_HAL_Driver/Src/stm32n6xx_hal.c ****       {
 3118              		.loc 1 1588 7 is_stmt 1 view .LVU541
 3119 0018 0328     		cmp	r0, #3
 3120 001a 50D8     		bhi	.L313
 3121 001c DFE800F0 		tbb	[pc, r0]
 3122              	.LVL112:
 3123              	.L315:
 3124 0020 02       		.byte	(.L318-.L315)/2
 3125 0021 0F       		.byte	(.L317-.L315)/2
 3126 0022 1C       		.byte	(.L316-.L315)/2
 3127 0023 29       		.byte	(.L314-.L315)/2
 3128              		.p2align 1
 3129              	.L318:
1592:../Drivers/STM32N6xx_HAL_Driver/Src/stm32n6xx_hal.c ****           break;
 3130              		.loc 1 1592 11 view .LVU542
 3131 0024 2748     		ldr	r0, .L329
 3132              	.LVL113:
1592:../Drivers/STM32N6xx_HAL_Driver/Src/stm32n6xx_hal.c ****           break;
ARM GAS  /tmp/ccvdUNht.s 			page 83


 3133              		.loc 1 1592 11 is_stmt 0 view .LVU543
 3134 0026 416D     		ldr	r1, [r0, #84]
 3135 0028 21F43F71 		bic	r1, r1, #764
 3136 002c 21F00301 		bic	r1, r1, #3
 3137 0030 42EA0313 		orr	r3, r2, r3, lsl #4
 3138              	.LVL114:
1592:../Drivers/STM32N6xx_HAL_Driver/Src/stm32n6xx_hal.c ****           break;
 3139              		.loc 1 1592 11 view .LVU544
 3140 0034 1943     		orrs	r1, r1, r3
 3141 0036 41F40071 		orr	r1, r1, #512
 3142 003a 4165     		str	r1, [r0, #84]
1593:../Drivers/STM32N6xx_HAL_Driver/Src/stm32n6xx_hal.c ****         }
 3143              		.loc 1 1593 11 is_stmt 1 view .LVU545
 3144 003c 2BE0     		b	.L320
 3145              	.LVL115:
 3146              	.L317:
1597:../Drivers/STM32N6xx_HAL_Driver/Src/stm32n6xx_hal.c ****           break;
 3147              		.loc 1 1597 11 view .LVU546
 3148 003e 2148     		ldr	r0, .L329
 3149              	.LVL116:
1597:../Drivers/STM32N6xx_HAL_Driver/Src/stm32n6xx_hal.c ****           break;
 3150              		.loc 1 1597 11 is_stmt 0 view .LVU547
 3151 0040 C16D     		ldr	r1, [r0, #92]
 3152 0042 21F43F71 		bic	r1, r1, #764
 3153 0046 21F00301 		bic	r1, r1, #3
 3154 004a 42EA0313 		orr	r3, r2, r3, lsl #4
 3155              	.LVL117:
1597:../Drivers/STM32N6xx_HAL_Driver/Src/stm32n6xx_hal.c ****           break;
 3156              		.loc 1 1597 11 view .LVU548
 3157 004e 1943     		orrs	r1, r1, r3
 3158 0050 41F40071 		orr	r1, r1, #512
 3159 0054 C165     		str	r1, [r0, #92]
1598:../Drivers/STM32N6xx_HAL_Driver/Src/stm32n6xx_hal.c ****         }
 3160              		.loc 1 1598 11 is_stmt 1 view .LVU549
 3161 0056 1EE0     		b	.L320
 3162              	.LVL118:
 3163              	.L316:
1602:../Drivers/STM32N6xx_HAL_Driver/Src/stm32n6xx_hal.c ****           break;
 3164              		.loc 1 1602 11 view .LVU550
 3165 0058 1A48     		ldr	r0, .L329
 3166              	.LVL119:
1602:../Drivers/STM32N6xx_HAL_Driver/Src/stm32n6xx_hal.c ****           break;
 3167              		.loc 1 1602 11 is_stmt 0 view .LVU551
 3168 005a 416C     		ldr	r1, [r0, #68]
 3169 005c 21F43F71 		bic	r1, r1, #764
 3170 0060 21F00301 		bic	r1, r1, #3
 3171 0064 42EA0313 		orr	r3, r2, r3, lsl #4
 3172              	.LVL120:
1602:../Drivers/STM32N6xx_HAL_Driver/Src/stm32n6xx_hal.c ****           break;
 3173              		.loc 1 1602 11 view .LVU552
 3174 0068 1943     		orrs	r1, r1, r3
 3175 006a 41F40071 		orr	r1, r1, #512
 3176 006e 4164     		str	r1, [r0, #68]
1603:../Drivers/STM32N6xx_HAL_Driver/Src/stm32n6xx_hal.c ****         }
 3177              		.loc 1 1603 11 is_stmt 1 view .LVU553
 3178 0070 11E0     		b	.L320
 3179              	.LVL121:
ARM GAS  /tmp/ccvdUNht.s 			page 84


 3180              	.L314:
1607:../Drivers/STM32N6xx_HAL_Driver/Src/stm32n6xx_hal.c ****           break;
 3181              		.loc 1 1607 11 view .LVU554
 3182 0072 1448     		ldr	r0, .L329
 3183              	.LVL122:
1607:../Drivers/STM32N6xx_HAL_Driver/Src/stm32n6xx_hal.c ****           break;
 3184              		.loc 1 1607 11 is_stmt 0 view .LVU555
 3185 0074 C16C     		ldr	r1, [r0, #76]
 3186 0076 21F43F71 		bic	r1, r1, #764
 3187 007a 21F00301 		bic	r1, r1, #3
 3188 007e 42EA0312 		orr	r2, r2, r3, lsl #4
 3189              	.LVL123:
1607:../Drivers/STM32N6xx_HAL_Driver/Src/stm32n6xx_hal.c ****           break;
 3190              		.loc 1 1607 11 view .LVU556
 3191 0082 1143     		orrs	r1, r1, r2
 3192 0084 41F40071 		orr	r1, r1, #512
 3193 0088 C164     		str	r1, [r0, #76]
1608:../Drivers/STM32N6xx_HAL_Driver/Src/stm32n6xx_hal.c ****         }
 3194              		.loc 1 1608 11 is_stmt 1 view .LVU557
 3195 008a 04E0     		b	.L320
 3196              	.LVL124:
 3197              	.L325:
1622:../Drivers/STM32N6xx_HAL_Driver/Src/stm32n6xx_hal.c ****     {
1623:../Drivers/STM32N6xx_HAL_Driver/Src/stm32n6xx_hal.c **** 
1624:../Drivers/STM32N6xx_HAL_Driver/Src/stm32n6xx_hal.c ****       case SYSCFG_IO_VDDIO2_CELL:
1625:../Drivers/STM32N6xx_HAL_Driver/Src/stm32n6xx_hal.c ****       {
1626:../Drivers/STM32N6xx_HAL_Driver/Src/stm32n6xx_hal.c ****         MODIFY_REG(SYSCFG->VDDIO2CCCR, SYSCFG_VDDIO2CCCR_CS, 0U);
 3198              		.loc 1 1626 9 view .LVU558
 3199 008c 0D4A     		ldr	r2, .L329
 3200              	.LVL125:
 3201              		.loc 1 1626 9 is_stmt 0 view .LVU559
 3202 008e 536D     		ldr	r3, [r2, #84]
 3203 0090 23F40073 		bic	r3, r3, #512
 3204 0094 5365     		str	r3, [r2, #84]
1627:../Drivers/STM32N6xx_HAL_Driver/Src/stm32n6xx_hal.c ****         break;
 3205              		.loc 1 1627 9 is_stmt 1 view .LVU560
 3206              	.LVL126:
 3207              	.L320:
1569:../Drivers/STM32N6xx_HAL_Driver/Src/stm32n6xx_hal.c **** 
 3208              		.loc 1 1569 21 is_stmt 0 view .LVU561
 3209 0096 0020     		movs	r0, #0
 3210 0098 7047     		bx	lr
 3211              	.LVL127:
 3212              	.L324:
1628:../Drivers/STM32N6xx_HAL_Driver/Src/stm32n6xx_hal.c ****       }
1629:../Drivers/STM32N6xx_HAL_Driver/Src/stm32n6xx_hal.c ****       case SYSCFG_IO_VDDIO3_CELL:
1630:../Drivers/STM32N6xx_HAL_Driver/Src/stm32n6xx_hal.c ****       {
1631:../Drivers/STM32N6xx_HAL_Driver/Src/stm32n6xx_hal.c ****         MODIFY_REG(SYSCFG->VDDIO3CCCR, SYSCFG_VDDIO3CCCR_CS, 0U);
 3213              		.loc 1 1631 9 is_stmt 1 view .LVU562
 3214 009a 0A4A     		ldr	r2, .L329
 3215              	.LVL128:
 3216              		.loc 1 1631 9 is_stmt 0 view .LVU563
 3217 009c D36D     		ldr	r3, [r2, #92]
 3218 009e 23F40073 		bic	r3, r3, #512
 3219 00a2 D365     		str	r3, [r2, #92]
1632:../Drivers/STM32N6xx_HAL_Driver/Src/stm32n6xx_hal.c ****         break;
 3220              		.loc 1 1632 9 is_stmt 1 view .LVU564
ARM GAS  /tmp/ccvdUNht.s 			page 85


 3221 00a4 F7E7     		b	.L320
 3222              	.LVL129:
 3223              	.L323:
1633:../Drivers/STM32N6xx_HAL_Driver/Src/stm32n6xx_hal.c ****       }
1634:../Drivers/STM32N6xx_HAL_Driver/Src/stm32n6xx_hal.c ****       case SYSCFG_IO_VDDIO4_CELL:
1635:../Drivers/STM32N6xx_HAL_Driver/Src/stm32n6xx_hal.c ****       {
1636:../Drivers/STM32N6xx_HAL_Driver/Src/stm32n6xx_hal.c ****         MODIFY_REG(SYSCFG->VDDIO4CCCR, SYSCFG_VDDIO4CCCR_CS, 0U);
 3224              		.loc 1 1636 9 view .LVU565
 3225 00a6 074A     		ldr	r2, .L329
 3226              	.LVL130:
 3227              		.loc 1 1636 9 is_stmt 0 view .LVU566
 3228 00a8 536C     		ldr	r3, [r2, #68]
 3229 00aa 23F40073 		bic	r3, r3, #512
 3230 00ae 5364     		str	r3, [r2, #68]
1637:../Drivers/STM32N6xx_HAL_Driver/Src/stm32n6xx_hal.c ****         break;
 3231              		.loc 1 1637 9 is_stmt 1 view .LVU567
 3232 00b0 F1E7     		b	.L320
 3233              	.LVL131:
 3234              	.L321:
1638:../Drivers/STM32N6xx_HAL_Driver/Src/stm32n6xx_hal.c ****       }
1639:../Drivers/STM32N6xx_HAL_Driver/Src/stm32n6xx_hal.c ****       case SYSCFG_IO_VDDIO5_CELL:
1640:../Drivers/STM32N6xx_HAL_Driver/Src/stm32n6xx_hal.c ****       {
1641:../Drivers/STM32N6xx_HAL_Driver/Src/stm32n6xx_hal.c ****         MODIFY_REG(SYSCFG->VDDIO5CCCR, SYSCFG_VDDIO5CCCR_CS, 0U);
 3235              		.loc 1 1641 9 view .LVU568
 3236 00b2 044A     		ldr	r2, .L329
 3237              	.LVL132:
 3238              		.loc 1 1641 9 is_stmt 0 view .LVU569
 3239 00b4 D36C     		ldr	r3, [r2, #76]
 3240 00b6 23F40073 		bic	r3, r3, #512
 3241 00ba D364     		str	r3, [r2, #76]
1642:../Drivers/STM32N6xx_HAL_Driver/Src/stm32n6xx_hal.c ****         break;
 3242              		.loc 1 1642 9 is_stmt 1 view .LVU570
 3243 00bc EBE7     		b	.L320
 3244              	.LVL133:
 3245              	.L313:
1569:../Drivers/STM32N6xx_HAL_Driver/Src/stm32n6xx_hal.c **** 
 3246              		.loc 1 1569 21 is_stmt 0 view .LVU571
 3247 00be 0120     		movs	r0, #1
 3248              	.LVL134:
1643:../Drivers/STM32N6xx_HAL_Driver/Src/stm32n6xx_hal.c ****       }
1644:../Drivers/STM32N6xx_HAL_Driver/Src/stm32n6xx_hal.c ****       default:
1645:../Drivers/STM32N6xx_HAL_Driver/Src/stm32n6xx_hal.c ****       {
1646:../Drivers/STM32N6xx_HAL_Driver/Src/stm32n6xx_hal.c ****         /* Update error status */
1647:../Drivers/STM32N6xx_HAL_Driver/Src/stm32n6xx_hal.c ****         status = HAL_ERROR;
1648:../Drivers/STM32N6xx_HAL_Driver/Src/stm32n6xx_hal.c ****         break;
1649:../Drivers/STM32N6xx_HAL_Driver/Src/stm32n6xx_hal.c ****       }
1650:../Drivers/STM32N6xx_HAL_Driver/Src/stm32n6xx_hal.c ****     }
1651:../Drivers/STM32N6xx_HAL_Driver/Src/stm32n6xx_hal.c ****   }
1652:../Drivers/STM32N6xx_HAL_Driver/Src/stm32n6xx_hal.c ****   return status;
 3249              		.loc 1 1652 3 is_stmt 1 view .LVU572
1653:../Drivers/STM32N6xx_HAL_Driver/Src/stm32n6xx_hal.c **** }
 3250              		.loc 1 1653 1 is_stmt 0 view .LVU573
 3251 00c0 7047     		bx	lr
 3252              	.L330:
 3253 00c2 00BF     		.align	2
 3254              	.L329:
 3255 00c4 00800056 		.word	1442873344
ARM GAS  /tmp/ccvdUNht.s 			page 86


 3256              		.cfi_endproc
 3257              	.LFE971:
 3259              		.section	.text.HAL_SYSCFG_GetVDDIOCompensationCell,"ax",%progbits
 3260              		.align	1
 3261              		.global	HAL_SYSCFG_GetVDDIOCompensationCell
 3262              		.syntax unified
 3263              		.thumb
 3264              		.thumb_func
 3266              	HAL_SYSCFG_GetVDDIOCompensationCell:
 3267              	.LVL135:
 3268              	.LFB972:
1654:../Drivers/STM32N6xx_HAL_Driver/Src/stm32n6xx_hal.c **** 
1655:../Drivers/STM32N6xx_HAL_Driver/Src/stm32n6xx_hal.c **** /**
1656:../Drivers/STM32N6xx_HAL_Driver/Src/stm32n6xx_hal.c ****   * @brief  Get the code selection for the compensation cell
1657:../Drivers/STM32N6xx_HAL_Driver/Src/stm32n6xx_hal.c ****   * @param  Selection specifies the concerned compensation cell
1658:../Drivers/STM32N6xx_HAL_Driver/Src/stm32n6xx_hal.c ****   *         This parameter can one of the following values:
1659:../Drivers/STM32N6xx_HAL_Driver/Src/stm32n6xx_hal.c ****   *            @arg SYSCFG_IO_VDDIO2_CELL Compensation cell for the VDDIO2
1660:../Drivers/STM32N6xx_HAL_Driver/Src/stm32n6xx_hal.c ****   *            @arg SYSCFG_IO_VDDIO3_CELL Compensation cell for the VDDIO3
1661:../Drivers/STM32N6xx_HAL_Driver/Src/stm32n6xx_hal.c ****   *            @arg SYSCFG_IO_VDDIO4_CELL Compensation cell for the VDDIO4
1662:../Drivers/STM32N6xx_HAL_Driver/Src/stm32n6xx_hal.c ****   *            @arg SYSCFG_IO_VDDIO5_CELL Compensation cell for the VDDIO5
1663:../Drivers/STM32N6xx_HAL_Driver/Src/stm32n6xx_hal.c ****   * @param  pCode pointer to code selection
1664:../Drivers/STM32N6xx_HAL_Driver/Src/stm32n6xx_hal.c ****   *         This parameter can be one of the following values:
1665:../Drivers/STM32N6xx_HAL_Driver/Src/stm32n6xx_hal.c ****   *            @arg SYSCFG_IO_CELL_CODE  Code from the cell (available in the SYSCFG_VDDIOxCCSR)
1666:../Drivers/STM32N6xx_HAL_Driver/Src/stm32n6xx_hal.c ****   *            @arg SYSCFG_IO_REGISTER_CODE Code from the compensation cell code register ((SYSCFG_
1667:../Drivers/STM32N6xx_HAL_Driver/Src/stm32n6xx_hal.c ****   * @param  pNmosValue pointer to the Nmos value in range 0 to 15
1668:../Drivers/STM32N6xx_HAL_Driver/Src/stm32n6xx_hal.c ****   * @param  pPmosValue pointer to the Pmos value in range 0 to 15
1669:../Drivers/STM32N6xx_HAL_Driver/Src/stm32n6xx_hal.c ****   * @retval  HAL_OK (all values available) or HAL_ERROR (check parameters)
1670:../Drivers/STM32N6xx_HAL_Driver/Src/stm32n6xx_hal.c ****   */
1671:../Drivers/STM32N6xx_HAL_Driver/Src/stm32n6xx_hal.c **** HAL_StatusTypeDef HAL_SYSCFG_GetVDDIOCompensationCell(uint32_t Selection, const uint32_t *pCode, ui
1672:../Drivers/STM32N6xx_HAL_Driver/Src/stm32n6xx_hal.c ****                                                       uint32_t *pPmosValue)
1673:../Drivers/STM32N6xx_HAL_Driver/Src/stm32n6xx_hal.c **** {
 3269              		.loc 1 1673 1 is_stmt 1 view -0
 3270              		.cfi_startproc
 3271              		@ args = 0, pretend = 0, frame = 0
 3272              		@ frame_needed = 0, uses_anonymous_args = 0
 3273              		@ link register save eliminated.
1674:../Drivers/STM32N6xx_HAL_Driver/Src/stm32n6xx_hal.c ****   HAL_StatusTypeDef status = HAL_ERROR;
 3274              		.loc 1 1674 3 view .LVU575
1675:../Drivers/STM32N6xx_HAL_Driver/Src/stm32n6xx_hal.c ****   uint32_t values = 0;
 3275              		.loc 1 1675 3 view .LVU576
1676:../Drivers/STM32N6xx_HAL_Driver/Src/stm32n6xx_hal.c **** 
1677:../Drivers/STM32N6xx_HAL_Driver/Src/stm32n6xx_hal.c ****   /* Check the parameters */
1678:../Drivers/STM32N6xx_HAL_Driver/Src/stm32n6xx_hal.c ****   assert_param(IS_SYSCFG_COMPENSATION_CELL(Selection));
 3276              		.loc 1 1678 3 view .LVU577
1679:../Drivers/STM32N6xx_HAL_Driver/Src/stm32n6xx_hal.c ****   assert_param(IS_SYSCFG_IO_COMPENSATION_CODE(*pCode));
 3277              		.loc 1 1679 3 view .LVU578
1680:../Drivers/STM32N6xx_HAL_Driver/Src/stm32n6xx_hal.c **** 
1681:../Drivers/STM32N6xx_HAL_Driver/Src/stm32n6xx_hal.c ****   if ((pCode != NULL) && (pNmosValue != NULL) && (pPmosValue != NULL))
 3278              		.loc 1 1681 3 view .LVU579
 3279              		.loc 1 1681 6 is_stmt 0 view .LVU580
 3280 0000 51B1     		cbz	r1, .L334
 3281              		.loc 1 1681 23 discriminator 1 view .LVU581
 3282 0002 4AB1     		cbz	r2, .L334
 3283              		.loc 1 1681 47 discriminator 2 view .LVU582
 3284 0004 43B1     		cbz	r3, .L334
1682:../Drivers/STM32N6xx_HAL_Driver/Src/stm32n6xx_hal.c ****   {
1683:../Drivers/STM32N6xx_HAL_Driver/Src/stm32n6xx_hal.c ****     status = HAL_OK;
ARM GAS  /tmp/ccvdUNht.s 			page 87


 3285              		.loc 1 1683 5 is_stmt 1 view .LVU583
 3286              	.LVL136:
1684:../Drivers/STM32N6xx_HAL_Driver/Src/stm32n6xx_hal.c **** 
1685:../Drivers/STM32N6xx_HAL_Driver/Src/stm32n6xx_hal.c ****     if (*pCode == SYSCFG_IO_REGISTER_CODE)
 3287              		.loc 1 1685 5 view .LVU584
 3288              		.loc 1 1685 9 is_stmt 0 view .LVU585
 3289 0006 0968     		ldr	r1, [r1]
 3290              	.LVL137:
 3291              		.loc 1 1685 8 view .LVU586
 3292 0008 0129     		cmp	r1, #1
 3293 000a 07D0     		beq	.L350
1686:../Drivers/STM32N6xx_HAL_Driver/Src/stm32n6xx_hal.c ****     {
1687:../Drivers/STM32N6xx_HAL_Driver/Src/stm32n6xx_hal.c ****       switch (Selection)
1688:../Drivers/STM32N6xx_HAL_Driver/Src/stm32n6xx_hal.c ****       {
1689:../Drivers/STM32N6xx_HAL_Driver/Src/stm32n6xx_hal.c ****         case SYSCFG_IO_VDDIO2_CELL:
1690:../Drivers/STM32N6xx_HAL_Driver/Src/stm32n6xx_hal.c ****         {
1691:../Drivers/STM32N6xx_HAL_Driver/Src/stm32n6xx_hal.c ****           values = READ_REG(SYSCFG->VDDIO2CCCR) & 0xFFU;
1692:../Drivers/STM32N6xx_HAL_Driver/Src/stm32n6xx_hal.c ****           break;
1693:../Drivers/STM32N6xx_HAL_Driver/Src/stm32n6xx_hal.c ****         }
1694:../Drivers/STM32N6xx_HAL_Driver/Src/stm32n6xx_hal.c ****         case SYSCFG_IO_VDDIO3_CELL:
1695:../Drivers/STM32N6xx_HAL_Driver/Src/stm32n6xx_hal.c ****         {
1696:../Drivers/STM32N6xx_HAL_Driver/Src/stm32n6xx_hal.c ****           values = READ_REG(SYSCFG->VDDIO3CCCR) & 0xFFU;
1697:../Drivers/STM32N6xx_HAL_Driver/Src/stm32n6xx_hal.c ****           break;
1698:../Drivers/STM32N6xx_HAL_Driver/Src/stm32n6xx_hal.c ****         }
1699:../Drivers/STM32N6xx_HAL_Driver/Src/stm32n6xx_hal.c ****         case SYSCFG_IO_VDDIO4_CELL:
1700:../Drivers/STM32N6xx_HAL_Driver/Src/stm32n6xx_hal.c ****         {
1701:../Drivers/STM32N6xx_HAL_Driver/Src/stm32n6xx_hal.c ****           values = READ_REG(SYSCFG->VDDIO4CCCR) & 0xFFU;
1702:../Drivers/STM32N6xx_HAL_Driver/Src/stm32n6xx_hal.c ****           break;
1703:../Drivers/STM32N6xx_HAL_Driver/Src/stm32n6xx_hal.c ****         }
1704:../Drivers/STM32N6xx_HAL_Driver/Src/stm32n6xx_hal.c ****         case SYSCFG_IO_VDDIO5_CELL:
1705:../Drivers/STM32N6xx_HAL_Driver/Src/stm32n6xx_hal.c ****         {
1706:../Drivers/STM32N6xx_HAL_Driver/Src/stm32n6xx_hal.c ****           values = READ_REG(SYSCFG->VDDIO5CCCR) & 0xFFU;
1707:../Drivers/STM32N6xx_HAL_Driver/Src/stm32n6xx_hal.c ****           break;
1708:../Drivers/STM32N6xx_HAL_Driver/Src/stm32n6xx_hal.c ****         }
1709:../Drivers/STM32N6xx_HAL_Driver/Src/stm32n6xx_hal.c ****         default:
1710:../Drivers/STM32N6xx_HAL_Driver/Src/stm32n6xx_hal.c ****         {
1711:../Drivers/STM32N6xx_HAL_Driver/Src/stm32n6xx_hal.c ****           /* Update error status */
1712:../Drivers/STM32N6xx_HAL_Driver/Src/stm32n6xx_hal.c ****           status = HAL_ERROR;
1713:../Drivers/STM32N6xx_HAL_Driver/Src/stm32n6xx_hal.c ****           break;
1714:../Drivers/STM32N6xx_HAL_Driver/Src/stm32n6xx_hal.c ****         }
1715:../Drivers/STM32N6xx_HAL_Driver/Src/stm32n6xx_hal.c ****       }
1716:../Drivers/STM32N6xx_HAL_Driver/Src/stm32n6xx_hal.c ****     }
1717:../Drivers/STM32N6xx_HAL_Driver/Src/stm32n6xx_hal.c ****     else
1718:../Drivers/STM32N6xx_HAL_Driver/Src/stm32n6xx_hal.c ****     {
1719:../Drivers/STM32N6xx_HAL_Driver/Src/stm32n6xx_hal.c ****       switch (Selection)
 3294              		.loc 1 1719 7 is_stmt 1 view .LVU587
 3295 000c 0328     		cmp	r0, #3
 3296 000e 0BD8     		bhi	.L336
 3297 0010 DFE800F0 		tbb	[pc, r0]
 3298              	.L344:
 3299 0014 21       		.byte	(.L347-.L344)/2
 3300 0015 2C       		.byte	(.L346-.L344)/2
 3301 0016 31       		.byte	(.L345-.L344)/2
 3302 0017 36       		.byte	(.L343-.L344)/2
 3303              	.LVL138:
 3304              		.p2align 1
 3305              	.L334:
ARM GAS  /tmp/ccvdUNht.s 			page 88


1674:../Drivers/STM32N6xx_HAL_Driver/Src/stm32n6xx_hal.c ****   uint32_t values = 0;
 3306              		.loc 1 1674 21 is_stmt 0 view .LVU588
 3307 0018 0120     		movs	r0, #1
 3308              	.LVL139:
1674:../Drivers/STM32N6xx_HAL_Driver/Src/stm32n6xx_hal.c ****   uint32_t values = 0;
 3309              		.loc 1 1674 21 view .LVU589
 3310 001a 7047     		bx	lr
 3311              	.LVL140:
 3312              	.L350:
1687:../Drivers/STM32N6xx_HAL_Driver/Src/stm32n6xx_hal.c ****       {
 3313              		.loc 1 1687 7 is_stmt 1 view .LVU590
 3314 001c 0328     		cmp	r0, #3
 3315 001e 03D8     		bhi	.L336
 3316 0020 DFE800F0 		tbb	[pc, r0]
 3317              	.L338:
 3318 0024 05       		.byte	(.L341-.L338)/2
 3319 0025 0A       		.byte	(.L340-.L338)/2
 3320 0026 0F       		.byte	(.L339-.L338)/2
 3321 0027 14       		.byte	(.L337-.L338)/2
 3322              		.p2align 1
 3323              	.L336:
1683:../Drivers/STM32N6xx_HAL_Driver/Src/stm32n6xx_hal.c **** 
 3324              		.loc 1 1683 12 is_stmt 0 view .LVU591
 3325 0028 0021     		movs	r1, #0
 3326 002a 0120     		movs	r0, #1
 3327              	.LVL141:
1683:../Drivers/STM32N6xx_HAL_Driver/Src/stm32n6xx_hal.c **** 
 3328              		.loc 1 1683 12 view .LVU592
 3329 002c 17E0     		b	.L342
 3330              	.LVL142:
 3331              	.L341:
1691:../Drivers/STM32N6xx_HAL_Driver/Src/stm32n6xx_hal.c ****           break;
 3332              		.loc 1 1691 11 is_stmt 1 view .LVU593
1691:../Drivers/STM32N6xx_HAL_Driver/Src/stm32n6xx_hal.c ****           break;
 3333              		.loc 1 1691 20 is_stmt 0 view .LVU594
 3334 002e 1749     		ldr	r1, .L351
 3335 0030 496D     		ldr	r1, [r1, #84]
1691:../Drivers/STM32N6xx_HAL_Driver/Src/stm32n6xx_hal.c ****           break;
 3336              		.loc 1 1691 18 view .LVU595
 3337 0032 C9B2     		uxtb	r1, r1
 3338              	.LVL143:
1692:../Drivers/STM32N6xx_HAL_Driver/Src/stm32n6xx_hal.c ****         }
 3339              		.loc 1 1692 11 is_stmt 1 view .LVU596
1683:../Drivers/STM32N6xx_HAL_Driver/Src/stm32n6xx_hal.c **** 
 3340              		.loc 1 1683 12 is_stmt 0 view .LVU597
 3341 0034 0020     		movs	r0, #0
 3342              	.LVL144:
1692:../Drivers/STM32N6xx_HAL_Driver/Src/stm32n6xx_hal.c ****         }
 3343              		.loc 1 1692 11 view .LVU598
 3344 0036 12E0     		b	.L342
 3345              	.LVL145:
 3346              	.L340:
1696:../Drivers/STM32N6xx_HAL_Driver/Src/stm32n6xx_hal.c ****           break;
 3347              		.loc 1 1696 11 is_stmt 1 view .LVU599
1696:../Drivers/STM32N6xx_HAL_Driver/Src/stm32n6xx_hal.c ****           break;
 3348              		.loc 1 1696 20 is_stmt 0 view .LVU600
 3349 0038 1449     		ldr	r1, .L351
ARM GAS  /tmp/ccvdUNht.s 			page 89


 3350 003a C96D     		ldr	r1, [r1, #92]
1696:../Drivers/STM32N6xx_HAL_Driver/Src/stm32n6xx_hal.c ****           break;
 3351              		.loc 1 1696 18 view .LVU601
 3352 003c C9B2     		uxtb	r1, r1
 3353              	.LVL146:
1697:../Drivers/STM32N6xx_HAL_Driver/Src/stm32n6xx_hal.c ****         }
 3354              		.loc 1 1697 11 is_stmt 1 view .LVU602
1683:../Drivers/STM32N6xx_HAL_Driver/Src/stm32n6xx_hal.c **** 
 3355              		.loc 1 1683 12 is_stmt 0 view .LVU603
 3356 003e 0020     		movs	r0, #0
 3357              	.LVL147:
1697:../Drivers/STM32N6xx_HAL_Driver/Src/stm32n6xx_hal.c ****         }
 3358              		.loc 1 1697 11 view .LVU604
 3359 0040 0DE0     		b	.L342
 3360              	.LVL148:
 3361              	.L339:
1701:../Drivers/STM32N6xx_HAL_Driver/Src/stm32n6xx_hal.c ****           break;
 3362              		.loc 1 1701 11 is_stmt 1 view .LVU605
1701:../Drivers/STM32N6xx_HAL_Driver/Src/stm32n6xx_hal.c ****           break;
 3363              		.loc 1 1701 20 is_stmt 0 view .LVU606
 3364 0042 1249     		ldr	r1, .L351
 3365 0044 496C     		ldr	r1, [r1, #68]
1701:../Drivers/STM32N6xx_HAL_Driver/Src/stm32n6xx_hal.c ****           break;
 3366              		.loc 1 1701 18 view .LVU607
 3367 0046 C9B2     		uxtb	r1, r1
 3368              	.LVL149:
1702:../Drivers/STM32N6xx_HAL_Driver/Src/stm32n6xx_hal.c ****         }
 3369              		.loc 1 1702 11 is_stmt 1 view .LVU608
1683:../Drivers/STM32N6xx_HAL_Driver/Src/stm32n6xx_hal.c **** 
 3370              		.loc 1 1683 12 is_stmt 0 view .LVU609
 3371 0048 0020     		movs	r0, #0
 3372              	.LVL150:
1702:../Drivers/STM32N6xx_HAL_Driver/Src/stm32n6xx_hal.c ****         }
 3373              		.loc 1 1702 11 view .LVU610
 3374 004a 08E0     		b	.L342
 3375              	.LVL151:
 3376              	.L337:
1706:../Drivers/STM32N6xx_HAL_Driver/Src/stm32n6xx_hal.c ****           break;
 3377              		.loc 1 1706 11 is_stmt 1 view .LVU611
1706:../Drivers/STM32N6xx_HAL_Driver/Src/stm32n6xx_hal.c ****           break;
 3378              		.loc 1 1706 20 is_stmt 0 view .LVU612
 3379 004c 0F49     		ldr	r1, .L351
 3380 004e C96C     		ldr	r1, [r1, #76]
1706:../Drivers/STM32N6xx_HAL_Driver/Src/stm32n6xx_hal.c ****           break;
 3381              		.loc 1 1706 18 view .LVU613
 3382 0050 C9B2     		uxtb	r1, r1
 3383              	.LVL152:
1707:../Drivers/STM32N6xx_HAL_Driver/Src/stm32n6xx_hal.c ****         }
 3384              		.loc 1 1707 11 is_stmt 1 view .LVU614
1683:../Drivers/STM32N6xx_HAL_Driver/Src/stm32n6xx_hal.c **** 
 3385              		.loc 1 1683 12 is_stmt 0 view .LVU615
 3386 0052 0020     		movs	r0, #0
 3387              	.LVL153:
1707:../Drivers/STM32N6xx_HAL_Driver/Src/stm32n6xx_hal.c ****         }
 3388              		.loc 1 1707 11 view .LVU616
 3389 0054 03E0     		b	.L342
 3390              	.LVL154:
ARM GAS  /tmp/ccvdUNht.s 			page 90


 3391              	.L347:
1720:../Drivers/STM32N6xx_HAL_Driver/Src/stm32n6xx_hal.c ****       {
1721:../Drivers/STM32N6xx_HAL_Driver/Src/stm32n6xx_hal.c ****         case SYSCFG_IO_VDDIO2_CELL:
1722:../Drivers/STM32N6xx_HAL_Driver/Src/stm32n6xx_hal.c ****         {
1723:../Drivers/STM32N6xx_HAL_Driver/Src/stm32n6xx_hal.c ****           values = READ_REG(SYSCFG->VDDIO2CCSR) & 0xFFU;
 3392              		.loc 1 1723 11 is_stmt 1 view .LVU617
 3393              		.loc 1 1723 20 is_stmt 0 view .LVU618
 3394 0056 0D49     		ldr	r1, .L351
 3395 0058 896D     		ldr	r1, [r1, #88]
 3396              		.loc 1 1723 18 view .LVU619
 3397 005a C9B2     		uxtb	r1, r1
 3398              	.LVL155:
1724:../Drivers/STM32N6xx_HAL_Driver/Src/stm32n6xx_hal.c ****           break;
 3399              		.loc 1 1724 11 is_stmt 1 view .LVU620
1683:../Drivers/STM32N6xx_HAL_Driver/Src/stm32n6xx_hal.c **** 
 3400              		.loc 1 1683 12 is_stmt 0 view .LVU621
 3401 005c 0020     		movs	r0, #0
 3402              	.LVL156:
 3403              	.L342:
1725:../Drivers/STM32N6xx_HAL_Driver/Src/stm32n6xx_hal.c ****         }
1726:../Drivers/STM32N6xx_HAL_Driver/Src/stm32n6xx_hal.c ****         case SYSCFG_IO_VDDIO3_CELL:
1727:../Drivers/STM32N6xx_HAL_Driver/Src/stm32n6xx_hal.c ****         {
1728:../Drivers/STM32N6xx_HAL_Driver/Src/stm32n6xx_hal.c ****           values = READ_REG(SYSCFG->VDDIO3CCSR) & 0xFFU;
1729:../Drivers/STM32N6xx_HAL_Driver/Src/stm32n6xx_hal.c ****           break;
1730:../Drivers/STM32N6xx_HAL_Driver/Src/stm32n6xx_hal.c ****         }
1731:../Drivers/STM32N6xx_HAL_Driver/Src/stm32n6xx_hal.c ****         case SYSCFG_IO_VDDIO4_CELL:
1732:../Drivers/STM32N6xx_HAL_Driver/Src/stm32n6xx_hal.c ****         {
1733:../Drivers/STM32N6xx_HAL_Driver/Src/stm32n6xx_hal.c ****           values = READ_REG(SYSCFG->VDDIO4CCSR) & 0xFFU;
1734:../Drivers/STM32N6xx_HAL_Driver/Src/stm32n6xx_hal.c ****           break;
1735:../Drivers/STM32N6xx_HAL_Driver/Src/stm32n6xx_hal.c ****         }
1736:../Drivers/STM32N6xx_HAL_Driver/Src/stm32n6xx_hal.c ****         case SYSCFG_IO_VDDIO5_CELL:
1737:../Drivers/STM32N6xx_HAL_Driver/Src/stm32n6xx_hal.c ****         {
1738:../Drivers/STM32N6xx_HAL_Driver/Src/stm32n6xx_hal.c ****           values = READ_REG(SYSCFG->VDDIO5CCSR) & 0xFFU;
1739:../Drivers/STM32N6xx_HAL_Driver/Src/stm32n6xx_hal.c ****           break;
1740:../Drivers/STM32N6xx_HAL_Driver/Src/stm32n6xx_hal.c ****         }
1741:../Drivers/STM32N6xx_HAL_Driver/Src/stm32n6xx_hal.c ****         default:
1742:../Drivers/STM32N6xx_HAL_Driver/Src/stm32n6xx_hal.c ****         {
1743:../Drivers/STM32N6xx_HAL_Driver/Src/stm32n6xx_hal.c ****           /* Update error status */
1744:../Drivers/STM32N6xx_HAL_Driver/Src/stm32n6xx_hal.c ****           status = HAL_ERROR;
1745:../Drivers/STM32N6xx_HAL_Driver/Src/stm32n6xx_hal.c ****           break;
1746:../Drivers/STM32N6xx_HAL_Driver/Src/stm32n6xx_hal.c ****         }
1747:../Drivers/STM32N6xx_HAL_Driver/Src/stm32n6xx_hal.c ****       }
1748:../Drivers/STM32N6xx_HAL_Driver/Src/stm32n6xx_hal.c ****     }
1749:../Drivers/STM32N6xx_HAL_Driver/Src/stm32n6xx_hal.c ****     *pNmosValue = (values & 0xFU);
 3404              		.loc 1 1749 5 is_stmt 1 view .LVU622
 3405              		.loc 1 1749 27 is_stmt 0 view .LVU623
 3406 005e 01F00F0C 		and	ip, r1, #15
 3407              		.loc 1 1749 17 view .LVU624
 3408 0062 C2F800C0 		str	ip, [r2]
1750:../Drivers/STM32N6xx_HAL_Driver/Src/stm32n6xx_hal.c ****     *pPmosValue = ((values & 0xF0U) >> 4U);
 3409              		.loc 1 1750 5 is_stmt 1 view .LVU625
 3410              		.loc 1 1750 37 is_stmt 0 view .LVU626
 3411 0066 0909     		lsrs	r1, r1, #4
 3412              	.LVL157:
 3413              		.loc 1 1750 17 view .LVU627
 3414 0068 1960     		str	r1, [r3]
1751:../Drivers/STM32N6xx_HAL_Driver/Src/stm32n6xx_hal.c ****   }
ARM GAS  /tmp/ccvdUNht.s 			page 91


1752:../Drivers/STM32N6xx_HAL_Driver/Src/stm32n6xx_hal.c ****   return status;
 3415              		.loc 1 1752 3 is_stmt 1 view .LVU628
1753:../Drivers/STM32N6xx_HAL_Driver/Src/stm32n6xx_hal.c **** }
 3416              		.loc 1 1753 1 is_stmt 0 view .LVU629
 3417 006a 7047     		bx	lr
 3418              	.LVL158:
 3419              	.L346:
1728:../Drivers/STM32N6xx_HAL_Driver/Src/stm32n6xx_hal.c ****           break;
 3420              		.loc 1 1728 11 is_stmt 1 view .LVU630
1728:../Drivers/STM32N6xx_HAL_Driver/Src/stm32n6xx_hal.c ****           break;
 3421              		.loc 1 1728 20 is_stmt 0 view .LVU631
 3422 006c 0749     		ldr	r1, .L351
 3423 006e 096E     		ldr	r1, [r1, #96]
1728:../Drivers/STM32N6xx_HAL_Driver/Src/stm32n6xx_hal.c ****           break;
 3424              		.loc 1 1728 18 view .LVU632
 3425 0070 C9B2     		uxtb	r1, r1
 3426              	.LVL159:
1729:../Drivers/STM32N6xx_HAL_Driver/Src/stm32n6xx_hal.c ****         }
 3427              		.loc 1 1729 11 is_stmt 1 view .LVU633
1683:../Drivers/STM32N6xx_HAL_Driver/Src/stm32n6xx_hal.c **** 
 3428              		.loc 1 1683 12 is_stmt 0 view .LVU634
 3429 0072 0020     		movs	r0, #0
 3430              	.LVL160:
1729:../Drivers/STM32N6xx_HAL_Driver/Src/stm32n6xx_hal.c ****         }
 3431              		.loc 1 1729 11 view .LVU635
 3432 0074 F3E7     		b	.L342
 3433              	.LVL161:
 3434              	.L345:
1733:../Drivers/STM32N6xx_HAL_Driver/Src/stm32n6xx_hal.c ****           break;
 3435              		.loc 1 1733 11 is_stmt 1 view .LVU636
1733:../Drivers/STM32N6xx_HAL_Driver/Src/stm32n6xx_hal.c ****           break;
 3436              		.loc 1 1733 20 is_stmt 0 view .LVU637
 3437 0076 0549     		ldr	r1, .L351
 3438 0078 896C     		ldr	r1, [r1, #72]
1733:../Drivers/STM32N6xx_HAL_Driver/Src/stm32n6xx_hal.c ****           break;
 3439              		.loc 1 1733 18 view .LVU638
 3440 007a C9B2     		uxtb	r1, r1
 3441              	.LVL162:
1734:../Drivers/STM32N6xx_HAL_Driver/Src/stm32n6xx_hal.c ****         }
 3442              		.loc 1 1734 11 is_stmt 1 view .LVU639
1683:../Drivers/STM32N6xx_HAL_Driver/Src/stm32n6xx_hal.c **** 
 3443              		.loc 1 1683 12 is_stmt 0 view .LVU640
 3444 007c 0020     		movs	r0, #0
 3445              	.LVL163:
1734:../Drivers/STM32N6xx_HAL_Driver/Src/stm32n6xx_hal.c ****         }
 3446              		.loc 1 1734 11 view .LVU641
 3447 007e EEE7     		b	.L342
 3448              	.LVL164:
 3449              	.L343:
1738:../Drivers/STM32N6xx_HAL_Driver/Src/stm32n6xx_hal.c ****           break;
 3450              		.loc 1 1738 11 is_stmt 1 view .LVU642
1738:../Drivers/STM32N6xx_HAL_Driver/Src/stm32n6xx_hal.c ****           break;
 3451              		.loc 1 1738 20 is_stmt 0 view .LVU643
 3452 0080 0249     		ldr	r1, .L351
 3453 0082 096D     		ldr	r1, [r1, #80]
1738:../Drivers/STM32N6xx_HAL_Driver/Src/stm32n6xx_hal.c ****           break;
 3454              		.loc 1 1738 18 view .LVU644
ARM GAS  /tmp/ccvdUNht.s 			page 92


 3455 0084 C9B2     		uxtb	r1, r1
 3456              	.LVL165:
1739:../Drivers/STM32N6xx_HAL_Driver/Src/stm32n6xx_hal.c ****         }
 3457              		.loc 1 1739 11 is_stmt 1 view .LVU645
1683:../Drivers/STM32N6xx_HAL_Driver/Src/stm32n6xx_hal.c **** 
 3458              		.loc 1 1683 12 is_stmt 0 view .LVU646
 3459 0086 0020     		movs	r0, #0
 3460              	.LVL166:
1739:../Drivers/STM32N6xx_HAL_Driver/Src/stm32n6xx_hal.c ****         }
 3461              		.loc 1 1739 11 view .LVU647
 3462 0088 E9E7     		b	.L342
 3463              	.L352:
 3464 008a 00BF     		.align	2
 3465              	.L351:
 3466 008c 00800056 		.word	1442873344
 3467              		.cfi_endproc
 3468              	.LFE972:
 3470              		.section	.text.HAL_SYSCFG_GetCompVDDIO2CellReadyStatus,"ax",%progbits
 3471              		.align	1
 3472              		.global	HAL_SYSCFG_GetCompVDDIO2CellReadyStatus
 3473              		.syntax unified
 3474              		.thumb
 3475              		.thumb_func
 3477              	HAL_SYSCFG_GetCompVDDIO2CellReadyStatus:
 3478              	.LFB973:
1754:../Drivers/STM32N6xx_HAL_Driver/Src/stm32n6xx_hal.c **** 
1755:../Drivers/STM32N6xx_HAL_Driver/Src/stm32n6xx_hal.c **** /**
1756:../Drivers/STM32N6xx_HAL_Driver/Src/stm32n6xx_hal.c ****   * @brief  Get the compensation cell ready status of VDDIO2.
1757:../Drivers/STM32N6xx_HAL_Driver/Src/stm32n6xx_hal.c ****   * @retval Ready status (0 (not ready) or !=0 (ready))
1758:../Drivers/STM32N6xx_HAL_Driver/Src/stm32n6xx_hal.c ****   */
1759:../Drivers/STM32N6xx_HAL_Driver/Src/stm32n6xx_hal.c **** uint32_t HAL_SYSCFG_GetCompVDDIO2CellReadyStatus(void)
1760:../Drivers/STM32N6xx_HAL_Driver/Src/stm32n6xx_hal.c **** {
 3479              		.loc 1 1760 1 is_stmt 1 view -0
 3480              		.cfi_startproc
 3481              		@ args = 0, pretend = 0, frame = 0
 3482              		@ frame_needed = 0, uses_anonymous_args = 0
 3483              		@ link register save eliminated.
1761:../Drivers/STM32N6xx_HAL_Driver/Src/stm32n6xx_hal.c ****   return READ_BIT(SYSCFG->VDDIO2CCSR, SYSCFG_VDDIO2CCSR_READY);
 3484              		.loc 1 1761 3 view .LVU649
 3485              		.loc 1 1761 10 is_stmt 0 view .LVU650
 3486 0000 024B     		ldr	r3, .L354
 3487 0002 986D     		ldr	r0, [r3, #88]
1762:../Drivers/STM32N6xx_HAL_Driver/Src/stm32n6xx_hal.c **** }
 3488              		.loc 1 1762 1 view .LVU651
 3489 0004 00F48070 		and	r0, r0, #256
 3490 0008 7047     		bx	lr
 3491              	.L355:
 3492 000a 00BF     		.align	2
 3493              	.L354:
 3494 000c 00800056 		.word	1442873344
 3495              		.cfi_endproc
 3496              	.LFE973:
 3498              		.section	.text.HAL_SYSCFG_GetCompVDDIO3CellReadyStatus,"ax",%progbits
 3499              		.align	1
 3500              		.global	HAL_SYSCFG_GetCompVDDIO3CellReadyStatus
 3501              		.syntax unified
 3502              		.thumb
ARM GAS  /tmp/ccvdUNht.s 			page 93


 3503              		.thumb_func
 3505              	HAL_SYSCFG_GetCompVDDIO3CellReadyStatus:
 3506              	.LFB974:
1763:../Drivers/STM32N6xx_HAL_Driver/Src/stm32n6xx_hal.c **** 
1764:../Drivers/STM32N6xx_HAL_Driver/Src/stm32n6xx_hal.c **** /**
1765:../Drivers/STM32N6xx_HAL_Driver/Src/stm32n6xx_hal.c ****   * @brief  Get the compensation cell ready status of VDDIO3.
1766:../Drivers/STM32N6xx_HAL_Driver/Src/stm32n6xx_hal.c ****   * @retval Ready status (0 (not ready) or !=0 (ready))
1767:../Drivers/STM32N6xx_HAL_Driver/Src/stm32n6xx_hal.c ****   */
1768:../Drivers/STM32N6xx_HAL_Driver/Src/stm32n6xx_hal.c **** uint32_t HAL_SYSCFG_GetCompVDDIO3CellReadyStatus(void)
1769:../Drivers/STM32N6xx_HAL_Driver/Src/stm32n6xx_hal.c **** {
 3507              		.loc 1 1769 1 is_stmt 1 view -0
 3508              		.cfi_startproc
 3509              		@ args = 0, pretend = 0, frame = 0
 3510              		@ frame_needed = 0, uses_anonymous_args = 0
 3511              		@ link register save eliminated.
1770:../Drivers/STM32N6xx_HAL_Driver/Src/stm32n6xx_hal.c ****   return READ_BIT(SYSCFG->VDDIO3CCSR, SYSCFG_VDDIO3CCSR_READY);
 3512              		.loc 1 1770 3 view .LVU653
 3513              		.loc 1 1770 10 is_stmt 0 view .LVU654
 3514 0000 024B     		ldr	r3, .L357
 3515 0002 186E     		ldr	r0, [r3, #96]
1771:../Drivers/STM32N6xx_HAL_Driver/Src/stm32n6xx_hal.c **** }
 3516              		.loc 1 1771 1 view .LVU655
 3517 0004 00F48070 		and	r0, r0, #256
 3518 0008 7047     		bx	lr
 3519              	.L358:
 3520 000a 00BF     		.align	2
 3521              	.L357:
 3522 000c 00800056 		.word	1442873344
 3523              		.cfi_endproc
 3524              	.LFE974:
 3526              		.section	.text.HAL_SYSCFG_GetCompVDDIO4CellReadyStatus,"ax",%progbits
 3527              		.align	1
 3528              		.global	HAL_SYSCFG_GetCompVDDIO4CellReadyStatus
 3529              		.syntax unified
 3530              		.thumb
 3531              		.thumb_func
 3533              	HAL_SYSCFG_GetCompVDDIO4CellReadyStatus:
 3534              	.LFB975:
1772:../Drivers/STM32N6xx_HAL_Driver/Src/stm32n6xx_hal.c **** 
1773:../Drivers/STM32N6xx_HAL_Driver/Src/stm32n6xx_hal.c **** /**
1774:../Drivers/STM32N6xx_HAL_Driver/Src/stm32n6xx_hal.c ****   * @brief Get the compensation cell ready status of VDDIO4.
1775:../Drivers/STM32N6xx_HAL_Driver/Src/stm32n6xx_hal.c ****   * @retval Ready status (0 (not ready) or !=0 (ready))
1776:../Drivers/STM32N6xx_HAL_Driver/Src/stm32n6xx_hal.c ****   */
1777:../Drivers/STM32N6xx_HAL_Driver/Src/stm32n6xx_hal.c **** uint32_t HAL_SYSCFG_GetCompVDDIO4CellReadyStatus(void)
1778:../Drivers/STM32N6xx_HAL_Driver/Src/stm32n6xx_hal.c **** {
 3535              		.loc 1 1778 1 is_stmt 1 view -0
 3536              		.cfi_startproc
 3537              		@ args = 0, pretend = 0, frame = 0
 3538              		@ frame_needed = 0, uses_anonymous_args = 0
 3539              		@ link register save eliminated.
1779:../Drivers/STM32N6xx_HAL_Driver/Src/stm32n6xx_hal.c ****   return READ_BIT(SYSCFG->VDDIO4CCSR, SYSCFG_VDDIO4CCSR_READY);
 3540              		.loc 1 1779 3 view .LVU657
 3541              		.loc 1 1779 10 is_stmt 0 view .LVU658
 3542 0000 024B     		ldr	r3, .L360
 3543 0002 986C     		ldr	r0, [r3, #72]
1780:../Drivers/STM32N6xx_HAL_Driver/Src/stm32n6xx_hal.c **** }
 3544              		.loc 1 1780 1 view .LVU659
ARM GAS  /tmp/ccvdUNht.s 			page 94


 3545 0004 00F48070 		and	r0, r0, #256
 3546 0008 7047     		bx	lr
 3547              	.L361:
 3548 000a 00BF     		.align	2
 3549              	.L360:
 3550 000c 00800056 		.word	1442873344
 3551              		.cfi_endproc
 3552              	.LFE975:
 3554              		.section	.text.HAL_SYSCFG_GetCompVDDIO5CellReadyStatus,"ax",%progbits
 3555              		.align	1
 3556              		.global	HAL_SYSCFG_GetCompVDDIO5CellReadyStatus
 3557              		.syntax unified
 3558              		.thumb
 3559              		.thumb_func
 3561              	HAL_SYSCFG_GetCompVDDIO5CellReadyStatus:
 3562              	.LFB976:
1781:../Drivers/STM32N6xx_HAL_Driver/Src/stm32n6xx_hal.c **** 
1782:../Drivers/STM32N6xx_HAL_Driver/Src/stm32n6xx_hal.c **** /**
1783:../Drivers/STM32N6xx_HAL_Driver/Src/stm32n6xx_hal.c ****   * @brief Get the compensation cell ready status of VDDIO5.
1784:../Drivers/STM32N6xx_HAL_Driver/Src/stm32n6xx_hal.c ****   * @retval Ready status (0 (not ready) or !=0 (ready))
1785:../Drivers/STM32N6xx_HAL_Driver/Src/stm32n6xx_hal.c ****   */
1786:../Drivers/STM32N6xx_HAL_Driver/Src/stm32n6xx_hal.c **** uint32_t HAL_SYSCFG_GetCompVDDIO5CellReadyStatus(void)
1787:../Drivers/STM32N6xx_HAL_Driver/Src/stm32n6xx_hal.c **** {
 3563              		.loc 1 1787 1 is_stmt 1 view -0
 3564              		.cfi_startproc
 3565              		@ args = 0, pretend = 0, frame = 0
 3566              		@ frame_needed = 0, uses_anonymous_args = 0
 3567              		@ link register save eliminated.
1788:../Drivers/STM32N6xx_HAL_Driver/Src/stm32n6xx_hal.c ****   return READ_BIT(SYSCFG->VDDIO5CCSR, SYSCFG_VDDIO5CCSR_READY);
 3568              		.loc 1 1788 3 view .LVU661
 3569              		.loc 1 1788 10 is_stmt 0 view .LVU662
 3570 0000 024B     		ldr	r3, .L363
 3571 0002 186D     		ldr	r0, [r3, #80]
1789:../Drivers/STM32N6xx_HAL_Driver/Src/stm32n6xx_hal.c **** }
 3572              		.loc 1 1789 1 view .LVU663
 3573 0004 00F48070 		and	r0, r0, #256
 3574 0008 7047     		bx	lr
 3575              	.L364:
 3576 000a 00BF     		.align	2
 3577              	.L363:
 3578 000c 00800056 		.word	1442873344
 3579              		.cfi_endproc
 3580              	.LFE976:
 3582              		.section	.text.HAL_SYSCFG_ConfigVDDCompensationCell,"ax",%progbits
 3583              		.align	1
 3584              		.global	HAL_SYSCFG_ConfigVDDCompensationCell
 3585              		.syntax unified
 3586              		.thumb
 3587              		.thumb_func
 3589              	HAL_SYSCFG_ConfigVDDCompensationCell:
 3590              	.LVL167:
 3591              	.LFB977:
1790:../Drivers/STM32N6xx_HAL_Driver/Src/stm32n6xx_hal.c **** 
1791:../Drivers/STM32N6xx_HAL_Driver/Src/stm32n6xx_hal.c **** /**
1792:../Drivers/STM32N6xx_HAL_Driver/Src/stm32n6xx_hal.c ****   * @brief  Configure the code selection for the compensation cell of VDD
1793:../Drivers/STM32N6xx_HAL_Driver/Src/stm32n6xx_hal.c ****   * @param  Code code selection to be applied for the I/O compensation cell
1794:../Drivers/STM32N6xx_HAL_Driver/Src/stm32n6xx_hal.c ****   *         This parameter can be one of the following values:
ARM GAS  /tmp/ccvdUNht.s 			page 95


1795:../Drivers/STM32N6xx_HAL_Driver/Src/stm32n6xx_hal.c ****   *            @arg SYSCFG_IO_CELL_CODE  Code from the cell (available in the SYSCFG_VDDIOxCCSR)
1796:../Drivers/STM32N6xx_HAL_Driver/Src/stm32n6xx_hal.c ****   *            @arg SYSCFG_IO_REGISTER_CODE Code from the compensation cell code register ((SYSCFG_
1797:../Drivers/STM32N6xx_HAL_Driver/Src/stm32n6xx_hal.c ****   * @param  NmosValue In case SYSCFG_IO_REGISTER_CODE is selected, it  provides the Nmos value
1798:../Drivers/STM32N6xx_HAL_Driver/Src/stm32n6xx_hal.c ****   *                   to apply in range 0 to 15 else this parameter is not used
1799:../Drivers/STM32N6xx_HAL_Driver/Src/stm32n6xx_hal.c ****   * @param  PmosValue In case SYSCFG_IO_REGISTER_CODE is selected, it  provides the Pmos value
1800:../Drivers/STM32N6xx_HAL_Driver/Src/stm32n6xx_hal.c ****   *                   to apply in range 0 to 15 else this parameter is not used
1801:../Drivers/STM32N6xx_HAL_Driver/Src/stm32n6xx_hal.c ****   * @retval HAL status
1802:../Drivers/STM32N6xx_HAL_Driver/Src/stm32n6xx_hal.c ****   */
1803:../Drivers/STM32N6xx_HAL_Driver/Src/stm32n6xx_hal.c **** 
1804:../Drivers/STM32N6xx_HAL_Driver/Src/stm32n6xx_hal.c **** HAL_StatusTypeDef HAL_SYSCFG_ConfigVDDCompensationCell(uint32_t Code, uint32_t NmosValue, uint32_t 
1805:../Drivers/STM32N6xx_HAL_Driver/Src/stm32n6xx_hal.c **** {
 3592              		.loc 1 1805 1 is_stmt 1 view -0
 3593              		.cfi_startproc
 3594              		@ args = 0, pretend = 0, frame = 0
 3595              		@ frame_needed = 0, uses_anonymous_args = 0
 3596              		@ link register save eliminated.
1806:../Drivers/STM32N6xx_HAL_Driver/Src/stm32n6xx_hal.c ****   HAL_StatusTypeDef status;
 3597              		.loc 1 1806 3 view .LVU665
1807:../Drivers/STM32N6xx_HAL_Driver/Src/stm32n6xx_hal.c **** 
1808:../Drivers/STM32N6xx_HAL_Driver/Src/stm32n6xx_hal.c ****   /* Check the parameters */
1809:../Drivers/STM32N6xx_HAL_Driver/Src/stm32n6xx_hal.c ****   assert_param(IS_SYSCFG_IO_COMPENSATION_CODE(Code));
 3598              		.loc 1 1809 3 view .LVU666
1810:../Drivers/STM32N6xx_HAL_Driver/Src/stm32n6xx_hal.c **** 
1811:../Drivers/STM32N6xx_HAL_Driver/Src/stm32n6xx_hal.c ****   if (Code == SYSCFG_IO_REGISTER_CODE)
 3599              		.loc 1 1811 3 view .LVU667
 3600              		.loc 1 1811 6 is_stmt 0 view .LVU668
 3601 0000 0128     		cmp	r0, #1
 3602 0002 06D0     		beq	.L368
1812:../Drivers/STM32N6xx_HAL_Driver/Src/stm32n6xx_hal.c ****   {
1813:../Drivers/STM32N6xx_HAL_Driver/Src/stm32n6xx_hal.c ****     /* Check the parameters */
1814:../Drivers/STM32N6xx_HAL_Driver/Src/stm32n6xx_hal.c ****     assert_param(IS_SYSCFG_IO_COMPENSATION_CELL_NMOS_VALUE(NmosValue));
1815:../Drivers/STM32N6xx_HAL_Driver/Src/stm32n6xx_hal.c ****     assert_param(IS_SYSCFG_IO_COMPENSATION_CELL_PMOS_VALUE(PmosValue));
1816:../Drivers/STM32N6xx_HAL_Driver/Src/stm32n6xx_hal.c **** 
1817:../Drivers/STM32N6xx_HAL_Driver/Src/stm32n6xx_hal.c ****     MODIFY_REG(SYSCFG->VDDCCCR, 0xFFU, ((NmosValue | (PmosValue << (4U))) | SYSCFG_VDDCCCR_CS));
1818:../Drivers/STM32N6xx_HAL_Driver/Src/stm32n6xx_hal.c **** 
1819:../Drivers/STM32N6xx_HAL_Driver/Src/stm32n6xx_hal.c ****     status = HAL_OK;
1820:../Drivers/STM32N6xx_HAL_Driver/Src/stm32n6xx_hal.c ****   }
1821:../Drivers/STM32N6xx_HAL_Driver/Src/stm32n6xx_hal.c ****   else
1822:../Drivers/STM32N6xx_HAL_Driver/Src/stm32n6xx_hal.c ****   {
1823:../Drivers/STM32N6xx_HAL_Driver/Src/stm32n6xx_hal.c ****     MODIFY_REG(SYSCFG->VDDCCCR, 0x200U, 0U);
 3603              		.loc 1 1823 5 is_stmt 1 view .LVU669
 3604 0004 084A     		ldr	r2, .L369
 3605              	.LVL168:
 3606              		.loc 1 1823 5 is_stmt 0 view .LVU670
 3607 0006 536E     		ldr	r3, [r2, #100]
 3608 0008 23F40073 		bic	r3, r3, #512
 3609 000c 5366     		str	r3, [r2, #100]
1824:../Drivers/STM32N6xx_HAL_Driver/Src/stm32n6xx_hal.c ****     status = HAL_OK;
 3610              		.loc 1 1824 5 is_stmt 1 view .LVU671
 3611              	.LVL169:
 3612              	.L367:
1825:../Drivers/STM32N6xx_HAL_Driver/Src/stm32n6xx_hal.c ****   }
1826:../Drivers/STM32N6xx_HAL_Driver/Src/stm32n6xx_hal.c ****   return status;
 3613              		.loc 1 1826 3 view .LVU672
1827:../Drivers/STM32N6xx_HAL_Driver/Src/stm32n6xx_hal.c **** }
 3614              		.loc 1 1827 1 is_stmt 0 view .LVU673
 3615 000e 0020     		movs	r0, #0
ARM GAS  /tmp/ccvdUNht.s 			page 96


 3616 0010 7047     		bx	lr
 3617              	.LVL170:
 3618              	.L368:
1814:../Drivers/STM32N6xx_HAL_Driver/Src/stm32n6xx_hal.c ****     assert_param(IS_SYSCFG_IO_COMPENSATION_CELL_PMOS_VALUE(PmosValue));
 3619              		.loc 1 1814 5 is_stmt 1 view .LVU674
1815:../Drivers/STM32N6xx_HAL_Driver/Src/stm32n6xx_hal.c **** 
 3620              		.loc 1 1815 5 view .LVU675
1817:../Drivers/STM32N6xx_HAL_Driver/Src/stm32n6xx_hal.c **** 
 3621              		.loc 1 1817 5 view .LVU676
 3622 0012 0548     		ldr	r0, .L369
 3623              	.LVL171:
1817:../Drivers/STM32N6xx_HAL_Driver/Src/stm32n6xx_hal.c **** 
 3624              		.loc 1 1817 5 is_stmt 0 view .LVU677
 3625 0014 436E     		ldr	r3, [r0, #100]
 3626 0016 23F0FF03 		bic	r3, r3, #255
 3627 001a 41EA0211 		orr	r1, r1, r2, lsl #4
 3628              	.LVL172:
1817:../Drivers/STM32N6xx_HAL_Driver/Src/stm32n6xx_hal.c **** 
 3629              		.loc 1 1817 5 view .LVU678
 3630 001e 0B43     		orrs	r3, r3, r1
 3631 0020 43F40073 		orr	r3, r3, #512
 3632 0024 4366     		str	r3, [r0, #100]
1819:../Drivers/STM32N6xx_HAL_Driver/Src/stm32n6xx_hal.c ****   }
 3633              		.loc 1 1819 5 is_stmt 1 view .LVU679
 3634              	.LVL173:
1819:../Drivers/STM32N6xx_HAL_Driver/Src/stm32n6xx_hal.c ****   }
 3635              		.loc 1 1819 5 is_stmt 0 view .LVU680
 3636 0026 F2E7     		b	.L367
 3637              	.L370:
 3638              		.align	2
 3639              	.L369:
 3640 0028 00800056 		.word	1442873344
 3641              		.cfi_endproc
 3642              	.LFE977:
 3644              		.section	.text.HAL_SYSCFG_EnableVDDCompensationCell,"ax",%progbits
 3645              		.align	1
 3646              		.global	HAL_SYSCFG_EnableVDDCompensationCell
 3647              		.syntax unified
 3648              		.thumb
 3649              		.thumb_func
 3651              	HAL_SYSCFG_EnableVDDCompensationCell:
 3652              	.LFB978:
1828:../Drivers/STM32N6xx_HAL_Driver/Src/stm32n6xx_hal.c **** 
1829:../Drivers/STM32N6xx_HAL_Driver/Src/stm32n6xx_hal.c **** /**
1830:../Drivers/STM32N6xx_HAL_Driver/Src/stm32n6xx_hal.c ****   * @brief  Enable the VDD compensation cell.
1831:../Drivers/STM32N6xx_HAL_Driver/Src/stm32n6xx_hal.c ****   * @note   This function is deprecated, please refer to Errata Sheet ES0620.
1832:../Drivers/STM32N6xx_HAL_Driver/Src/stm32n6xx_hal.c ****   *         I/O compensation cells must remain disabled. 
1833:../Drivers/STM32N6xx_HAL_Driver/Src/stm32n6xx_hal.c ****   * @retval None
1834:../Drivers/STM32N6xx_HAL_Driver/Src/stm32n6xx_hal.c ****   */
1835:../Drivers/STM32N6xx_HAL_Driver/Src/stm32n6xx_hal.c **** void HAL_SYSCFG_EnableVDDCompensationCell(void)
1836:../Drivers/STM32N6xx_HAL_Driver/Src/stm32n6xx_hal.c **** {
 3653              		.loc 1 1836 1 is_stmt 1 view -0
 3654              		.cfi_startproc
 3655              		@ args = 0, pretend = 0, frame = 0
 3656              		@ frame_needed = 0, uses_anonymous_args = 0
 3657              		@ link register save eliminated.
1837:../Drivers/STM32N6xx_HAL_Driver/Src/stm32n6xx_hal.c ****   SET_BIT(SYSCFG->VDDCCCR, SYSCFG_VDDCCCR_EN);
ARM GAS  /tmp/ccvdUNht.s 			page 97


 3658              		.loc 1 1837 3 view .LVU682
 3659 0000 024A     		ldr	r2, .L372
 3660 0002 536E     		ldr	r3, [r2, #100]
 3661 0004 43F48073 		orr	r3, r3, #256
 3662 0008 5366     		str	r3, [r2, #100]
1838:../Drivers/STM32N6xx_HAL_Driver/Src/stm32n6xx_hal.c **** }
 3663              		.loc 1 1838 1 is_stmt 0 view .LVU683
 3664 000a 7047     		bx	lr
 3665              	.L373:
 3666              		.align	2
 3667              	.L372:
 3668 000c 00800056 		.word	1442873344
 3669              		.cfi_endproc
 3670              	.LFE978:
 3672              		.section	.text.HAL_SYSCFG_DisableVDDCompensationCell,"ax",%progbits
 3673              		.align	1
 3674              		.global	HAL_SYSCFG_DisableVDDCompensationCell
 3675              		.syntax unified
 3676              		.thumb
 3677              		.thumb_func
 3679              	HAL_SYSCFG_DisableVDDCompensationCell:
 3680              	.LFB979:
1839:../Drivers/STM32N6xx_HAL_Driver/Src/stm32n6xx_hal.c **** 
1840:../Drivers/STM32N6xx_HAL_Driver/Src/stm32n6xx_hal.c **** /**
1841:../Drivers/STM32N6xx_HAL_Driver/Src/stm32n6xx_hal.c ****   * @brief  Disable the VDD compensation cell.
1842:../Drivers/STM32N6xx_HAL_Driver/Src/stm32n6xx_hal.c ****   * @retval None
1843:../Drivers/STM32N6xx_HAL_Driver/Src/stm32n6xx_hal.c ****   */
1844:../Drivers/STM32N6xx_HAL_Driver/Src/stm32n6xx_hal.c **** void HAL_SYSCFG_DisableVDDCompensationCell(void)
1845:../Drivers/STM32N6xx_HAL_Driver/Src/stm32n6xx_hal.c **** {
 3681              		.loc 1 1845 1 is_stmt 1 view -0
 3682              		.cfi_startproc
 3683              		@ args = 0, pretend = 0, frame = 0
 3684              		@ frame_needed = 0, uses_anonymous_args = 0
 3685              		@ link register save eliminated.
1846:../Drivers/STM32N6xx_HAL_Driver/Src/stm32n6xx_hal.c ****   CLEAR_BIT(SYSCFG->VDDCCCR, SYSCFG_VDDCCCR_EN);
 3686              		.loc 1 1846 3 view .LVU685
 3687 0000 024A     		ldr	r2, .L375
 3688 0002 536E     		ldr	r3, [r2, #100]
 3689 0004 23F48073 		bic	r3, r3, #256
 3690 0008 5366     		str	r3, [r2, #100]
1847:../Drivers/STM32N6xx_HAL_Driver/Src/stm32n6xx_hal.c **** }
 3691              		.loc 1 1847 1 is_stmt 0 view .LVU686
 3692 000a 7047     		bx	lr
 3693              	.L376:
 3694              		.align	2
 3695              	.L375:
 3696 000c 00800056 		.word	1442873344
 3697              		.cfi_endproc
 3698              	.LFE979:
 3700              		.section	.text.HAL_SYSCFG_GetVDDCompensationCell,"ax",%progbits
 3701              		.align	1
 3702              		.global	HAL_SYSCFG_GetVDDCompensationCell
 3703              		.syntax unified
 3704              		.thumb
 3705              		.thumb_func
 3707              	HAL_SYSCFG_GetVDDCompensationCell:
 3708              	.LVL174:
ARM GAS  /tmp/ccvdUNht.s 			page 98


 3709              	.LFB980:
1848:../Drivers/STM32N6xx_HAL_Driver/Src/stm32n6xx_hal.c **** 
1849:../Drivers/STM32N6xx_HAL_Driver/Src/stm32n6xx_hal.c **** /**
1850:../Drivers/STM32N6xx_HAL_Driver/Src/stm32n6xx_hal.c ****   * @brief  Get the code selection for the compensation cell of VDD
1851:../Drivers/STM32N6xx_HAL_Driver/Src/stm32n6xx_hal.c ****   * @param  Code code selection
1852:../Drivers/STM32N6xx_HAL_Driver/Src/stm32n6xx_hal.c ****   *         This parameter can be one of the following values:
1853:../Drivers/STM32N6xx_HAL_Driver/Src/stm32n6xx_hal.c ****   *            @arg SYSCFG_IO_CELL_CODE  Code from the cell (available in the SYSCFG_VDDIOxCCSR)
1854:../Drivers/STM32N6xx_HAL_Driver/Src/stm32n6xx_hal.c ****   *            @arg SYSCFG_IO_REGISTER_CODE Code from the compensation cell code register ((SYSCFG_
1855:../Drivers/STM32N6xx_HAL_Driver/Src/stm32n6xx_hal.c ****   * @param  pNmosValue pointer to the Nmos value in range 0 to 15
1856:../Drivers/STM32N6xx_HAL_Driver/Src/stm32n6xx_hal.c ****   * @param  pPmosValue pointer to the Pmos value in range 0 to 15
1857:../Drivers/STM32N6xx_HAL_Driver/Src/stm32n6xx_hal.c ****   * @retval HAL_OK (all values available) or HAL_ERROR (check parameters)
1858:../Drivers/STM32N6xx_HAL_Driver/Src/stm32n6xx_hal.c ****   */
1859:../Drivers/STM32N6xx_HAL_Driver/Src/stm32n6xx_hal.c **** HAL_StatusTypeDef HAL_SYSCFG_GetVDDCompensationCell(uint32_t Code, uint32_t *pNmosValue,
1860:../Drivers/STM32N6xx_HAL_Driver/Src/stm32n6xx_hal.c ****                                                     uint32_t *pPmosValue)
1861:../Drivers/STM32N6xx_HAL_Driver/Src/stm32n6xx_hal.c **** {
 3710              		.loc 1 1861 1 is_stmt 1 view -0
 3711              		.cfi_startproc
 3712              		@ args = 0, pretend = 0, frame = 0
 3713              		@ frame_needed = 0, uses_anonymous_args = 0
 3714              		@ link register save eliminated.
1862:../Drivers/STM32N6xx_HAL_Driver/Src/stm32n6xx_hal.c ****   uint32_t values;
 3715              		.loc 1 1862 3 view .LVU688
1863:../Drivers/STM32N6xx_HAL_Driver/Src/stm32n6xx_hal.c ****   HAL_StatusTypeDef status = HAL_ERROR;
 3716              		.loc 1 1863 3 view .LVU689
1864:../Drivers/STM32N6xx_HAL_Driver/Src/stm32n6xx_hal.c **** 
1865:../Drivers/STM32N6xx_HAL_Driver/Src/stm32n6xx_hal.c ****   /* Check the parameters */
1866:../Drivers/STM32N6xx_HAL_Driver/Src/stm32n6xx_hal.c ****   assert_param(IS_SYSCFG_IO_COMPENSATION_CODE(Code));
 3717              		.loc 1 1866 3 view .LVU690
1867:../Drivers/STM32N6xx_HAL_Driver/Src/stm32n6xx_hal.c **** 
1868:../Drivers/STM32N6xx_HAL_Driver/Src/stm32n6xx_hal.c ****   if ((pNmosValue != NULL) && (pPmosValue != NULL))
 3718              		.loc 1 1868 3 view .LVU691
 3719              		.loc 1 1868 6 is_stmt 0 view .LVU692
 3720 0000 8C46     		mov	ip, r1
 3721 0002 69B1     		cbz	r1, .L380
 3722              		.loc 1 1868 28 discriminator 1 view .LVU693
 3723 0004 62B1     		cbz	r2, .L380
1869:../Drivers/STM32N6xx_HAL_Driver/Src/stm32n6xx_hal.c ****   {
1870:../Drivers/STM32N6xx_HAL_Driver/Src/stm32n6xx_hal.c ****     if (Code == SYSCFG_IO_REGISTER_CODE)
 3724              		.loc 1 1870 5 is_stmt 1 view .LVU694
 3725              		.loc 1 1870 8 is_stmt 0 view .LVU695
 3726 0006 0128     		cmp	r0, #1
 3727 0008 0CD0     		beq	.L383
1871:../Drivers/STM32N6xx_HAL_Driver/Src/stm32n6xx_hal.c ****     {
1872:../Drivers/STM32N6xx_HAL_Driver/Src/stm32n6xx_hal.c ****       values = READ_REG(SYSCFG->VDDCCCR) & 0xFFU;
1873:../Drivers/STM32N6xx_HAL_Driver/Src/stm32n6xx_hal.c ****     }
1874:../Drivers/STM32N6xx_HAL_Driver/Src/stm32n6xx_hal.c ****     else
1875:../Drivers/STM32N6xx_HAL_Driver/Src/stm32n6xx_hal.c ****     {
1876:../Drivers/STM32N6xx_HAL_Driver/Src/stm32n6xx_hal.c ****       values = READ_REG(SYSCFG->VDDCCSR) & 0xFFU;
 3728              		.loc 1 1876 7 is_stmt 1 view .LVU696
 3729              		.loc 1 1876 16 is_stmt 0 view .LVU697
 3730 000a 084B     		ldr	r3, .L384
 3731 000c 9B6E     		ldr	r3, [r3, #104]
 3732              		.loc 1 1876 14 view .LVU698
 3733 000e DBB2     		uxtb	r3, r3
 3734              	.L382:
 3735              	.LVL175:
1877:../Drivers/STM32N6xx_HAL_Driver/Src/stm32n6xx_hal.c ****     }
ARM GAS  /tmp/ccvdUNht.s 			page 99


1878:../Drivers/STM32N6xx_HAL_Driver/Src/stm32n6xx_hal.c **** 
1879:../Drivers/STM32N6xx_HAL_Driver/Src/stm32n6xx_hal.c ****     *pNmosValue = (values & 0xFU);
 3736              		.loc 1 1879 5 is_stmt 1 view .LVU699
 3737              		.loc 1 1879 27 is_stmt 0 view .LVU700
 3738 0010 03F00F01 		and	r1, r3, #15
 3739              	.LVL176:
 3740              		.loc 1 1879 17 view .LVU701
 3741 0014 CCF80010 		str	r1, [ip]
1880:../Drivers/STM32N6xx_HAL_Driver/Src/stm32n6xx_hal.c ****     *pPmosValue = ((values >> 4U) & 0xFU);
 3742              		.loc 1 1880 5 is_stmt 1 view .LVU702
 3743              		.loc 1 1880 35 is_stmt 0 view .LVU703
 3744 0018 1B09     		lsrs	r3, r3, #4
 3745              	.LVL177:
 3746              		.loc 1 1880 17 view .LVU704
 3747 001a 1360     		str	r3, [r2]
1881:../Drivers/STM32N6xx_HAL_Driver/Src/stm32n6xx_hal.c **** 
1882:../Drivers/STM32N6xx_HAL_Driver/Src/stm32n6xx_hal.c ****     status = HAL_OK;
 3748              		.loc 1 1882 5 is_stmt 1 view .LVU705
 3749              	.LVL178:
 3750              		.loc 1 1882 12 is_stmt 0 view .LVU706
 3751 001c 0020     		movs	r0, #0
 3752              	.LVL179:
1883:../Drivers/STM32N6xx_HAL_Driver/Src/stm32n6xx_hal.c ****   }
1884:../Drivers/STM32N6xx_HAL_Driver/Src/stm32n6xx_hal.c ****   return status;
 3753              		.loc 1 1884 3 is_stmt 1 view .LVU707
1885:../Drivers/STM32N6xx_HAL_Driver/Src/stm32n6xx_hal.c **** }
 3754              		.loc 1 1885 1 is_stmt 0 view .LVU708
 3755 001e 7047     		bx	lr
 3756              	.LVL180:
 3757              	.L380:
1863:../Drivers/STM32N6xx_HAL_Driver/Src/stm32n6xx_hal.c **** 
 3758              		.loc 1 1863 21 view .LVU709
 3759 0020 0120     		movs	r0, #1
 3760              	.LVL181:
1863:../Drivers/STM32N6xx_HAL_Driver/Src/stm32n6xx_hal.c **** 
 3761              		.loc 1 1863 21 view .LVU710
 3762 0022 7047     		bx	lr
 3763              	.LVL182:
 3764              	.L383:
1872:../Drivers/STM32N6xx_HAL_Driver/Src/stm32n6xx_hal.c ****     }
 3765              		.loc 1 1872 7 is_stmt 1 view .LVU711
1872:../Drivers/STM32N6xx_HAL_Driver/Src/stm32n6xx_hal.c ****     }
 3766              		.loc 1 1872 16 is_stmt 0 view .LVU712
 3767 0024 014B     		ldr	r3, .L384
 3768 0026 5B6E     		ldr	r3, [r3, #100]
1872:../Drivers/STM32N6xx_HAL_Driver/Src/stm32n6xx_hal.c ****     }
 3769              		.loc 1 1872 14 view .LVU713
 3770 0028 DBB2     		uxtb	r3, r3
 3771              	.LVL183:
1872:../Drivers/STM32N6xx_HAL_Driver/Src/stm32n6xx_hal.c ****     }
 3772              		.loc 1 1872 14 view .LVU714
 3773 002a F1E7     		b	.L382
 3774              	.L385:
 3775              		.align	2
 3776              	.L384:
 3777 002c 00800056 		.word	1442873344
 3778              		.cfi_endproc
ARM GAS  /tmp/ccvdUNht.s 			page 100


 3779              	.LFE980:
 3781              		.section	.text.HAL_SYSCFG_GetCompensationVDDCellReadyStatus,"ax",%progbits
 3782              		.align	1
 3783              		.global	HAL_SYSCFG_GetCompensationVDDCellReadyStatus
 3784              		.syntax unified
 3785              		.thumb
 3786              		.thumb_func
 3788              	HAL_SYSCFG_GetCompensationVDDCellReadyStatus:
 3789              	.LFB981:
1886:../Drivers/STM32N6xx_HAL_Driver/Src/stm32n6xx_hal.c **** 
1887:../Drivers/STM32N6xx_HAL_Driver/Src/stm32n6xx_hal.c **** /**
1888:../Drivers/STM32N6xx_HAL_Driver/Src/stm32n6xx_hal.c ****   * @brief  Get the compensation cell ready status of VDD.
1889:../Drivers/STM32N6xx_HAL_Driver/Src/stm32n6xx_hal.c ****   * @retval Ready status (0 (not ready) or !=0 (ready))
1890:../Drivers/STM32N6xx_HAL_Driver/Src/stm32n6xx_hal.c ****   */
1891:../Drivers/STM32N6xx_HAL_Driver/Src/stm32n6xx_hal.c **** uint32_t HAL_SYSCFG_GetCompensationVDDCellReadyStatus(void)
1892:../Drivers/STM32N6xx_HAL_Driver/Src/stm32n6xx_hal.c **** {
 3790              		.loc 1 1892 1 is_stmt 1 view -0
 3791              		.cfi_startproc
 3792              		@ args = 0, pretend = 0, frame = 0
 3793              		@ frame_needed = 0, uses_anonymous_args = 0
 3794              		@ link register save eliminated.
1893:../Drivers/STM32N6xx_HAL_Driver/Src/stm32n6xx_hal.c ****   return READ_BIT(SYSCFG->VDDCCSR, SYSCFG_VDDCCSR_READY);
 3795              		.loc 1 1893 3 view .LVU716
 3796              		.loc 1 1893 10 is_stmt 0 view .LVU717
 3797 0000 024B     		ldr	r3, .L387
 3798 0002 986E     		ldr	r0, [r3, #104]
1894:../Drivers/STM32N6xx_HAL_Driver/Src/stm32n6xx_hal.c **** }
 3799              		.loc 1 1894 1 view .LVU718
 3800 0004 00F48070 		and	r0, r0, #256
 3801 0008 7047     		bx	lr
 3802              	.L388:
 3803 000a 00BF     		.align	2
 3804              	.L387:
 3805 000c 00800056 		.word	1442873344
 3806              		.cfi_endproc
 3807              	.LFE981:
 3809              		.section	.text.HAL_SYSCFG_ConfigTimerBreakInput,"ax",%progbits
 3810              		.align	1
 3811              		.global	HAL_SYSCFG_ConfigTimerBreakInput
 3812              		.syntax unified
 3813              		.thumb
 3814              		.thumb_func
 3816              	HAL_SYSCFG_ConfigTimerBreakInput:
 3817              	.LVL184:
 3818              	.LFB982:
1895:../Drivers/STM32N6xx_HAL_Driver/Src/stm32n6xx_hal.c **** 
1896:../Drivers/STM32N6xx_HAL_Driver/Src/stm32n6xx_hal.c **** /**
1897:../Drivers/STM32N6xx_HAL_Driver/Src/stm32n6xx_hal.c ****   * @brief  Configure the Timer Break input for error flag(s).
1898:../Drivers/STM32N6xx_HAL_Driver/Src/stm32n6xx_hal.c ****   * @note   When a configuration is set, only a system reset can reset it.
1899:../Drivers/STM32N6xx_HAL_Driver/Src/stm32n6xx_hal.c ****   * @param  Input Input configuration
1900:../Drivers/STM32N6xx_HAL_Driver/Src/stm32n6xx_hal.c ****   *              This parameter can be one or a combination of the following values:
1901:../Drivers/STM32N6xx_HAL_Driver/Src/stm32n6xx_hal.c ****   *                @arg SYSCFG_CBR_BREAK_LOCK_CORE       Cortex-CM55 lockup
1902:../Drivers/STM32N6xx_HAL_Driver/Src/stm32n6xx_hal.c ****   *                @arg SYSCFG_CBR_BREAK_LOCK_PVD        PVD lock
1903:../Drivers/STM32N6xx_HAL_Driver/Src/stm32n6xx_hal.c ****   *                @arg SYSCFG_CBR_BREAK_LOCK_BKPRAM     Backup SRAM ECC error
1904:../Drivers/STM32N6xx_HAL_Driver/Src/stm32n6xx_hal.c ****   *                @arg SYSCFG_CBR_BREAK_LOCK_CM55_CACHE CM55 cache double ECC error
1905:../Drivers/STM32N6xx_HAL_Driver/Src/stm32n6xx_hal.c ****   *                @arg SYSCFG_CBR_BREAK_LOCK_CM55_TCM   DTCM double ECC error
1906:../Drivers/STM32N6xx_HAL_Driver/Src/stm32n6xx_hal.c ****   * @retval None
ARM GAS  /tmp/ccvdUNht.s 			page 101


1907:../Drivers/STM32N6xx_HAL_Driver/Src/stm32n6xx_hal.c ****   */
1908:../Drivers/STM32N6xx_HAL_Driver/Src/stm32n6xx_hal.c **** void HAL_SYSCFG_ConfigTimerBreakInput(uint32_t Input)
1909:../Drivers/STM32N6xx_HAL_Driver/Src/stm32n6xx_hal.c **** {
 3819              		.loc 1 1909 1 is_stmt 1 view -0
 3820              		.cfi_startproc
 3821              		@ args = 0, pretend = 0, frame = 0
 3822              		@ frame_needed = 0, uses_anonymous_args = 0
 3823              		@ link register save eliminated.
1910:../Drivers/STM32N6xx_HAL_Driver/Src/stm32n6xx_hal.c ****   /* Check the parameter */
1911:../Drivers/STM32N6xx_HAL_Driver/Src/stm32n6xx_hal.c ****   assert_param(IS_SYSCFG_CBR_BREAK_INPUT(Input));
 3824              		.loc 1 1911 3 view .LVU720
1912:../Drivers/STM32N6xx_HAL_Driver/Src/stm32n6xx_hal.c **** 
1913:../Drivers/STM32N6xx_HAL_Driver/Src/stm32n6xx_hal.c ****   MODIFY_REG(SYSCFG->CBR, Input, Input);
 3825              		.loc 1 1913 3 view .LVU721
 3826 0000 024A     		ldr	r2, .L390
 3827 0002 D36E     		ldr	r3, [r2, #108]
 3828 0004 0343     		orrs	r3, r3, r0
 3829 0006 D366     		str	r3, [r2, #108]
1914:../Drivers/STM32N6xx_HAL_Driver/Src/stm32n6xx_hal.c **** }
 3830              		.loc 1 1914 1 is_stmt 0 view .LVU722
 3831 0008 7047     		bx	lr
 3832              	.L391:
 3833 000a 00BF     		.align	2
 3834              	.L390:
 3835 000c 00800056 		.word	1442873344
 3836              		.cfi_endproc
 3837              	.LFE982:
 3839              		.section	.text.HAL_SYSCFG_GetTimerBreakInputConfig,"ax",%progbits
 3840              		.align	1
 3841              		.global	HAL_SYSCFG_GetTimerBreakInputConfig
 3842              		.syntax unified
 3843              		.thumb
 3844              		.thumb_func
 3846              	HAL_SYSCFG_GetTimerBreakInputConfig:
 3847              	.LFB983:
1915:../Drivers/STM32N6xx_HAL_Driver/Src/stm32n6xx_hal.c **** 
1916:../Drivers/STM32N6xx_HAL_Driver/Src/stm32n6xx_hal.c **** /**
1917:../Drivers/STM32N6xx_HAL_Driver/Src/stm32n6xx_hal.c ****   * @brief  Get the Timer Break input configuration.
1918:../Drivers/STM32N6xx_HAL_Driver/Src/stm32n6xx_hal.c ****   * @note   When a configuration is set, only a system reset can reset it.
1919:../Drivers/STM32N6xx_HAL_Driver/Src/stm32n6xx_hal.c ****   * @retval Timer break input configuration
1920:../Drivers/STM32N6xx_HAL_Driver/Src/stm32n6xx_hal.c ****   *              This return value can be one or a combination of the following values:
1921:../Drivers/STM32N6xx_HAL_Driver/Src/stm32n6xx_hal.c ****   *                @arg SYSCFG_CBR_BREAK_LOCK_CORE       Cortex-CM55 lockup
1922:../Drivers/STM32N6xx_HAL_Driver/Src/stm32n6xx_hal.c ****   *                @arg SYSCFG_CBR_BREAK_LOCK_PVD        PVD lock
1923:../Drivers/STM32N6xx_HAL_Driver/Src/stm32n6xx_hal.c ****   *                @arg SYSCFG_CBR_BREAK_LOCK_BKPRAM     Backup SRAM ECC error
1924:../Drivers/STM32N6xx_HAL_Driver/Src/stm32n6xx_hal.c ****   *                @arg SYSCFG_CBR_BREAK_LOCK_CM55_CACHE CM55 cache double ECC error
1925:../Drivers/STM32N6xx_HAL_Driver/Src/stm32n6xx_hal.c ****   *                @arg SYSCFG_CBR_BREAK_LOCK_CM55_TCM   DTCM double ECC error
1926:../Drivers/STM32N6xx_HAL_Driver/Src/stm32n6xx_hal.c ****   */
1927:../Drivers/STM32N6xx_HAL_Driver/Src/stm32n6xx_hal.c **** uint32_t HAL_SYSCFG_GetTimerBreakInputConfig(void)
1928:../Drivers/STM32N6xx_HAL_Driver/Src/stm32n6xx_hal.c **** {
 3848              		.loc 1 1928 1 is_stmt 1 view -0
 3849              		.cfi_startproc
 3850              		@ args = 0, pretend = 0, frame = 0
 3851              		@ frame_needed = 0, uses_anonymous_args = 0
 3852              		@ link register save eliminated.
1929:../Drivers/STM32N6xx_HAL_Driver/Src/stm32n6xx_hal.c ****   return (SYSCFG->CBR & SYSCFG_CBR_BREAK_LOCK_ALL);
 3853              		.loc 1 1929 3 view .LVU724
 3854              		.loc 1 1929 17 is_stmt 0 view .LVU725
ARM GAS  /tmp/ccvdUNht.s 			page 102


 3855 0000 034B     		ldr	r3, .L393
 3856 0002 D86E     		ldr	r0, [r3, #108]
1930:../Drivers/STM32N6xx_HAL_Driver/Src/stm32n6xx_hal.c **** }
 3857              		.loc 1 1930 1 view .LVU726
 3858 0004 20F0FA00 		bic	r0, r0, #250
 3859 0008 4005     		lsls	r0, r0, #21
 3860 000a 400D     		lsrs	r0, r0, #21
 3861 000c 7047     		bx	lr
 3862              	.L394:
 3863 000e 00BF     		.align	2
 3864              	.L393:
 3865 0010 00800056 		.word	1442873344
 3866              		.cfi_endproc
 3867              	.LFE983:
 3869              		.section	.text.HAL_SYSCFG_SetPerceivedCID,"ax",%progbits
 3870              		.align	1
 3871              		.global	HAL_SYSCFG_SetPerceivedCID
 3872              		.syntax unified
 3873              		.thumb
 3874              		.thumb_func
 3876              	HAL_SYSCFG_SetPerceivedCID:
 3877              	.LVL185:
 3878              	.LFB984:
1931:../Drivers/STM32N6xx_HAL_Driver/Src/stm32n6xx_hal.c **** 
1932:../Drivers/STM32N6xx_HAL_Driver/Src/stm32n6xx_hal.c **** /**
1933:../Drivers/STM32N6xx_HAL_Driver/Src/stm32n6xx_hal.c ****   * @brief  Set the perceived CID of the peripheral.
1934:../Drivers/STM32N6xx_HAL_Driver/Src/stm32n6xx_hal.c ****   * @note   Set the perceived CID so that all accesses which arrive at the peripheral
1935:../Drivers/STM32N6xx_HAL_Driver/Src/stm32n6xx_hal.c ****   *         (here HPDMA) appear to carry that CID.
1936:../Drivers/STM32N6xx_HAL_Driver/Src/stm32n6xx_hal.c ****   *         See Multi-tenancy section of the reference manual for further information.
1937:../Drivers/STM32N6xx_HAL_Driver/Src/stm32n6xx_hal.c ****   * @param  Cid CID in range 0 to 7
1938:../Drivers/STM32N6xx_HAL_Driver/Src/stm32n6xx_hal.c ****   * @retval None
1939:../Drivers/STM32N6xx_HAL_Driver/Src/stm32n6xx_hal.c ****   */
1940:../Drivers/STM32N6xx_HAL_Driver/Src/stm32n6xx_hal.c **** void HAL_SYSCFG_SetPerceivedCID(uint32_t Cid)
1941:../Drivers/STM32N6xx_HAL_Driver/Src/stm32n6xx_hal.c **** {
 3879              		.loc 1 1941 1 is_stmt 1 view -0
 3880              		.cfi_startproc
 3881              		@ args = 0, pretend = 0, frame = 0
 3882              		@ frame_needed = 0, uses_anonymous_args = 0
 3883              		@ link register save eliminated.
1942:../Drivers/STM32N6xx_HAL_Driver/Src/stm32n6xx_hal.c ****   /* Check the parameter */
1943:../Drivers/STM32N6xx_HAL_Driver/Src/stm32n6xx_hal.c ****   assert_param(IS_SYSCFG_DMA_CID_SEC(Cid));
 3884              		.loc 1 1943 3 view .LVU728
1944:../Drivers/STM32N6xx_HAL_Driver/Src/stm32n6xx_hal.c **** 
1945:../Drivers/STM32N6xx_HAL_Driver/Src/stm32n6xx_hal.c ****   MODIFY_REG(SYSCFG->SEC_AIDCR, SYSCFG_SEC_AIDCR_DMACID_SEC, Cid);
 3885              		.loc 1 1945 3 view .LVU729
 3886 0000 034A     		ldr	r2, .L396
 3887 0002 136F     		ldr	r3, [r2, #112]
 3888 0004 23F00703 		bic	r3, r3, #7
 3889 0008 0343     		orrs	r3, r3, r0
 3890 000a 1367     		str	r3, [r2, #112]
1946:../Drivers/STM32N6xx_HAL_Driver/Src/stm32n6xx_hal.c **** }
 3891              		.loc 1 1946 1 is_stmt 0 view .LVU730
 3892 000c 7047     		bx	lr
 3893              	.L397:
 3894 000e 00BF     		.align	2
 3895              	.L396:
 3896 0010 00800056 		.word	1442873344
ARM GAS  /tmp/ccvdUNht.s 			page 103


 3897              		.cfi_endproc
 3898              	.LFE984:
 3900              		.section	.text.HAL_SYSCFG_GetPerceivedCID,"ax",%progbits
 3901              		.align	1
 3902              		.global	HAL_SYSCFG_GetPerceivedCID
 3903              		.syntax unified
 3904              		.thumb
 3905              		.thumb_func
 3907              	HAL_SYSCFG_GetPerceivedCID:
 3908              	.LFB985:
1947:../Drivers/STM32N6xx_HAL_Driver/Src/stm32n6xx_hal.c **** 
1948:../Drivers/STM32N6xx_HAL_Driver/Src/stm32n6xx_hal.c **** /**
1949:../Drivers/STM32N6xx_HAL_Driver/Src/stm32n6xx_hal.c ****   * @brief  Get the perceived CID of the peripheral.
1950:../Drivers/STM32N6xx_HAL_Driver/Src/stm32n6xx_hal.c ****   * @retval CID in range 0 to 7
1951:../Drivers/STM32N6xx_HAL_Driver/Src/stm32n6xx_hal.c ****   */
1952:../Drivers/STM32N6xx_HAL_Driver/Src/stm32n6xx_hal.c **** uint32_t HAL_SYSCFG_GetPerceivedCID(void)
1953:../Drivers/STM32N6xx_HAL_Driver/Src/stm32n6xx_hal.c **** {
 3909              		.loc 1 1953 1 is_stmt 1 view -0
 3910              		.cfi_startproc
 3911              		@ args = 0, pretend = 0, frame = 0
 3912              		@ frame_needed = 0, uses_anonymous_args = 0
 3913              		@ link register save eliminated.
1954:../Drivers/STM32N6xx_HAL_Driver/Src/stm32n6xx_hal.c ****   return (SYSCFG->SEC_AIDCR & SYSCFG_SEC_AIDCR_DMACID_SEC);
 3914              		.loc 1 1954 3 view .LVU732
 3915              		.loc 1 1954 17 is_stmt 0 view .LVU733
 3916 0000 024B     		ldr	r3, .L399
 3917 0002 186F     		ldr	r0, [r3, #112]
1955:../Drivers/STM32N6xx_HAL_Driver/Src/stm32n6xx_hal.c **** }
 3918              		.loc 1 1955 1 view .LVU734
 3919 0004 00F00700 		and	r0, r0, #7
 3920 0008 7047     		bx	lr
 3921              	.L400:
 3922 000a 00BF     		.align	2
 3923              	.L399:
 3924 000c 00800056 		.word	1442873344
 3925              		.cfi_endproc
 3926              	.LFE985:
 3928              		.section	.text.HAL_SYSCFG_SetPerceivedPrivCID,"ax",%progbits
 3929              		.align	1
 3930              		.global	HAL_SYSCFG_SetPerceivedPrivCID
 3931              		.syntax unified
 3932              		.thumb
 3933              		.thumb_func
 3935              	HAL_SYSCFG_SetPerceivedPrivCID:
 3936              	.LVL186:
 3937              	.LFB986:
1956:../Drivers/STM32N6xx_HAL_Driver/Src/stm32n6xx_hal.c **** 
1957:../Drivers/STM32N6xx_HAL_Driver/Src/stm32n6xx_hal.c **** /**
1958:../Drivers/STM32N6xx_HAL_Driver/Src/stm32n6xx_hal.c ****   * @brief  Set the perceived CID of the peripheral as privileged.
1959:../Drivers/STM32N6xx_HAL_Driver/Src/stm32n6xx_hal.c ****   * @note   Set the perceived CID so that all accesses which arrive at the peripheral
1960:../Drivers/STM32N6xx_HAL_Driver/Src/stm32n6xx_hal.c ****   *         (here HPDMA) appear to carry that CID.
1961:../Drivers/STM32N6xx_HAL_Driver/Src/stm32n6xx_hal.c ****   *         This function shall be called in case of DMA channel interrupt (privileged) code
1962:../Drivers/STM32N6xx_HAL_Driver/Src/stm32n6xx_hal.c ****   *         to read the registers and clear the interrupt of this DMA channel.
1963:../Drivers/STM32N6xx_HAL_Driver/Src/stm32n6xx_hal.c ****   *         See Multi-tenancy section of the reference manual for forther information.
1964:../Drivers/STM32N6xx_HAL_Driver/Src/stm32n6xx_hal.c ****   * @param  Cid in range 0 to 7
1965:../Drivers/STM32N6xx_HAL_Driver/Src/stm32n6xx_hal.c ****   * @retval None
1966:../Drivers/STM32N6xx_HAL_Driver/Src/stm32n6xx_hal.c ****   */
ARM GAS  /tmp/ccvdUNht.s 			page 104


1967:../Drivers/STM32N6xx_HAL_Driver/Src/stm32n6xx_hal.c **** void HAL_SYSCFG_SetPerceivedPrivCID(uint32_t Cid)
1968:../Drivers/STM32N6xx_HAL_Driver/Src/stm32n6xx_hal.c **** {
 3938              		.loc 1 1968 1 is_stmt 1 view -0
 3939              		.cfi_startproc
 3940              		@ args = 0, pretend = 0, frame = 0
 3941              		@ frame_needed = 0, uses_anonymous_args = 0
 3942              		@ link register save eliminated.
1969:../Drivers/STM32N6xx_HAL_Driver/Src/stm32n6xx_hal.c ****   MODIFY_REG(SYSCFG->SECPRIV_AIDCR, SYSCFG_SECPRIV_AIDCR_DMACID_NONSEC, Cid);
 3943              		.loc 1 1969 3 view .LVU736
 3944 0000 044A     		ldr	r2, .L402
 3945 0002 D2F80038 		ldr	r3, [r2, #2048]
 3946 0006 23F00703 		bic	r3, r3, #7
 3947 000a 0343     		orrs	r3, r3, r0
 3948 000c C2F80038 		str	r3, [r2, #2048]
1970:../Drivers/STM32N6xx_HAL_Driver/Src/stm32n6xx_hal.c **** }
 3949              		.loc 1 1970 1 is_stmt 0 view .LVU737
 3950 0010 7047     		bx	lr
 3951              	.L403:
 3952 0012 00BF     		.align	2
 3953              	.L402:
 3954 0014 00800056 		.word	1442873344
 3955              		.cfi_endproc
 3956              	.LFE986:
 3958              		.section	.text.HAL_SYSCFG_GetPerceivedPrivCID,"ax",%progbits
 3959              		.align	1
 3960              		.global	HAL_SYSCFG_GetPerceivedPrivCID
 3961              		.syntax unified
 3962              		.thumb
 3963              		.thumb_func
 3965              	HAL_SYSCFG_GetPerceivedPrivCID:
 3966              	.LFB987:
1971:../Drivers/STM32N6xx_HAL_Driver/Src/stm32n6xx_hal.c **** 
1972:../Drivers/STM32N6xx_HAL_Driver/Src/stm32n6xx_hal.c **** /**
1973:../Drivers/STM32N6xx_HAL_Driver/Src/stm32n6xx_hal.c ****   * @brief   Get the perceived CID of the peripheral as privileged.
1974:../Drivers/STM32N6xx_HAL_Driver/Src/stm32n6xx_hal.c ****   * @retval  CID in range 0 to 7
1975:../Drivers/STM32N6xx_HAL_Driver/Src/stm32n6xx_hal.c ****   */
1976:../Drivers/STM32N6xx_HAL_Driver/Src/stm32n6xx_hal.c **** uint32_t HAL_SYSCFG_GetPerceivedPrivCID(void)
1977:../Drivers/STM32N6xx_HAL_Driver/Src/stm32n6xx_hal.c **** {
 3967              		.loc 1 1977 1 is_stmt 1 view -0
 3968              		.cfi_startproc
 3969              		@ args = 0, pretend = 0, frame = 0
 3970              		@ frame_needed = 0, uses_anonymous_args = 0
 3971              		@ link register save eliminated.
1978:../Drivers/STM32N6xx_HAL_Driver/Src/stm32n6xx_hal.c ****   return (SYSCFG->SECPRIV_AIDCR & SYSCFG_SECPRIV_AIDCR_DMACID_NONSEC);
 3972              		.loc 1 1978 3 view .LVU739
 3973              		.loc 1 1978 17 is_stmt 0 view .LVU740
 3974 0000 024B     		ldr	r3, .L405
 3975 0002 D3F80008 		ldr	r0, [r3, #2048]
1979:../Drivers/STM32N6xx_HAL_Driver/Src/stm32n6xx_hal.c **** }
 3976              		.loc 1 1979 1 view .LVU741
 3977 0006 00F00700 		and	r0, r0, #7
 3978 000a 7047     		bx	lr
 3979              	.L406:
 3980              		.align	2
 3981              	.L405:
 3982 000c 00800056 		.word	1442873344
 3983              		.cfi_endproc
ARM GAS  /tmp/ccvdUNht.s 			page 105


 3984              	.LFE987:
 3986              		.section	.text.HAL_SYSCFG_EnableReTimingRXpath,"ax",%progbits
 3987              		.align	1
 3988              		.global	HAL_SYSCFG_EnableReTimingRXpath
 3989              		.syntax unified
 3990              		.thumb
 3991              		.thumb_func
 3993              	HAL_SYSCFG_EnableReTimingRXpath:
 3994              	.LFB988:
1980:../Drivers/STM32N6xx_HAL_Driver/Src/stm32n6xx_hal.c **** 
1981:../Drivers/STM32N6xx_HAL_Driver/Src/stm32n6xx_hal.c **** /**
1982:../Drivers/STM32N6xx_HAL_Driver/Src/stm32n6xx_hal.c ****   * @brief  Enable Retiming on RX path.
1983:../Drivers/STM32N6xx_HAL_Driver/Src/stm32n6xx_hal.c ****   * @retval None
1984:../Drivers/STM32N6xx_HAL_Driver/Src/stm32n6xx_hal.c ****   */
1985:../Drivers/STM32N6xx_HAL_Driver/Src/stm32n6xx_hal.c **** void HAL_SYSCFG_EnableReTimingRXpath(void)
1986:../Drivers/STM32N6xx_HAL_Driver/Src/stm32n6xx_hal.c **** {
 3995              		.loc 1 1986 1 is_stmt 1 view -0
 3996              		.cfi_startproc
 3997              		@ args = 0, pretend = 0, frame = 0
 3998              		@ frame_needed = 0, uses_anonymous_args = 0
 3999              		@ link register save eliminated.
1987:../Drivers/STM32N6xx_HAL_Driver/Src/stm32n6xx_hal.c ****   SET_BIT(SYSCFG->FMC_RETIMECR, SYSCFG_FMC_RETIMECR_CFG_RETIME_RX);
 4000              		.loc 1 1987 3 view .LVU743
 4001 0000 024A     		ldr	r2, .L408
 4002 0002 536F     		ldr	r3, [r2, #116]
 4003 0004 43F00103 		orr	r3, r3, #1
 4004 0008 5367     		str	r3, [r2, #116]
1988:../Drivers/STM32N6xx_HAL_Driver/Src/stm32n6xx_hal.c **** }
 4005              		.loc 1 1988 1 is_stmt 0 view .LVU744
 4006 000a 7047     		bx	lr
 4007              	.L409:
 4008              		.align	2
 4009              	.L408:
 4010 000c 00800056 		.word	1442873344
 4011              		.cfi_endproc
 4012              	.LFE988:
 4014              		.section	.text.HAL_SYSCFG_DisableReTimingRXpath,"ax",%progbits
 4015              		.align	1
 4016              		.global	HAL_SYSCFG_DisableReTimingRXpath
 4017              		.syntax unified
 4018              		.thumb
 4019              		.thumb_func
 4021              	HAL_SYSCFG_DisableReTimingRXpath:
 4022              	.LFB989:
1989:../Drivers/STM32N6xx_HAL_Driver/Src/stm32n6xx_hal.c **** 
1990:../Drivers/STM32N6xx_HAL_Driver/Src/stm32n6xx_hal.c **** /**
1991:../Drivers/STM32N6xx_HAL_Driver/Src/stm32n6xx_hal.c ****   * @brief  Disable Retiming on RX path.
1992:../Drivers/STM32N6xx_HAL_Driver/Src/stm32n6xx_hal.c ****   * @retval None
1993:../Drivers/STM32N6xx_HAL_Driver/Src/stm32n6xx_hal.c ****   */
1994:../Drivers/STM32N6xx_HAL_Driver/Src/stm32n6xx_hal.c **** void HAL_SYSCFG_DisableReTimingRXpath(void)
1995:../Drivers/STM32N6xx_HAL_Driver/Src/stm32n6xx_hal.c **** {
 4023              		.loc 1 1995 1 is_stmt 1 view -0
 4024              		.cfi_startproc
 4025              		@ args = 0, pretend = 0, frame = 0
 4026              		@ frame_needed = 0, uses_anonymous_args = 0
 4027              		@ link register save eliminated.
1996:../Drivers/STM32N6xx_HAL_Driver/Src/stm32n6xx_hal.c ****   CLEAR_BIT(SYSCFG->FMC_RETIMECR, SYSCFG_FMC_RETIMECR_CFG_RETIME_RX);
ARM GAS  /tmp/ccvdUNht.s 			page 106


 4028              		.loc 1 1996 3 view .LVU746
 4029 0000 024A     		ldr	r2, .L411
 4030 0002 536F     		ldr	r3, [r2, #116]
 4031 0004 23F00103 		bic	r3, r3, #1
 4032 0008 5367     		str	r3, [r2, #116]
1997:../Drivers/STM32N6xx_HAL_Driver/Src/stm32n6xx_hal.c **** }
 4033              		.loc 1 1997 1 is_stmt 0 view .LVU747
 4034 000a 7047     		bx	lr
 4035              	.L412:
 4036              		.align	2
 4037              	.L411:
 4038 000c 00800056 		.word	1442873344
 4039              		.cfi_endproc
 4040              	.LFE989:
 4042              		.section	.text.HAL_SYSCFG_EnableReTimingTXpath,"ax",%progbits
 4043              		.align	1
 4044              		.global	HAL_SYSCFG_EnableReTimingTXpath
 4045              		.syntax unified
 4046              		.thumb
 4047              		.thumb_func
 4049              	HAL_SYSCFG_EnableReTimingTXpath:
 4050              	.LFB990:
1998:../Drivers/STM32N6xx_HAL_Driver/Src/stm32n6xx_hal.c **** 
1999:../Drivers/STM32N6xx_HAL_Driver/Src/stm32n6xx_hal.c **** /**
2000:../Drivers/STM32N6xx_HAL_Driver/Src/stm32n6xx_hal.c ****   * @brief  Enable Retiming on TX path.
2001:../Drivers/STM32N6xx_HAL_Driver/Src/stm32n6xx_hal.c ****   * @retval None
2002:../Drivers/STM32N6xx_HAL_Driver/Src/stm32n6xx_hal.c ****   */
2003:../Drivers/STM32N6xx_HAL_Driver/Src/stm32n6xx_hal.c **** void HAL_SYSCFG_EnableReTimingTXpath(void)
2004:../Drivers/STM32N6xx_HAL_Driver/Src/stm32n6xx_hal.c **** {
 4051              		.loc 1 2004 1 is_stmt 1 view -0
 4052              		.cfi_startproc
 4053              		@ args = 0, pretend = 0, frame = 0
 4054              		@ frame_needed = 0, uses_anonymous_args = 0
 4055              		@ link register save eliminated.
2005:../Drivers/STM32N6xx_HAL_Driver/Src/stm32n6xx_hal.c ****   SET_BIT(SYSCFG->FMC_RETIMECR, SYSCFG_FMC_RETIMECR_CFG_RETIME_TX);
 4056              		.loc 1 2005 3 view .LVU749
 4057 0000 024A     		ldr	r2, .L414
 4058 0002 536F     		ldr	r3, [r2, #116]
 4059 0004 43F00203 		orr	r3, r3, #2
 4060 0008 5367     		str	r3, [r2, #116]
2006:../Drivers/STM32N6xx_HAL_Driver/Src/stm32n6xx_hal.c **** }
 4061              		.loc 1 2006 1 is_stmt 0 view .LVU750
 4062 000a 7047     		bx	lr
 4063              	.L415:
 4064              		.align	2
 4065              	.L414:
 4066 000c 00800056 		.word	1442873344
 4067              		.cfi_endproc
 4068              	.LFE990:
 4070              		.section	.text.HAL_SYSCFG_DisableReTimingTXpath,"ax",%progbits
 4071              		.align	1
 4072              		.global	HAL_SYSCFG_DisableReTimingTXpath
 4073              		.syntax unified
 4074              		.thumb
 4075              		.thumb_func
 4077              	HAL_SYSCFG_DisableReTimingTXpath:
 4078              	.LFB991:
ARM GAS  /tmp/ccvdUNht.s 			page 107


2007:../Drivers/STM32N6xx_HAL_Driver/Src/stm32n6xx_hal.c **** 
2008:../Drivers/STM32N6xx_HAL_Driver/Src/stm32n6xx_hal.c **** /**
2009:../Drivers/STM32N6xx_HAL_Driver/Src/stm32n6xx_hal.c ****   * @brief  Disable Retiming on TX path.
2010:../Drivers/STM32N6xx_HAL_Driver/Src/stm32n6xx_hal.c ****   * @retval None
2011:../Drivers/STM32N6xx_HAL_Driver/Src/stm32n6xx_hal.c ****   */
2012:../Drivers/STM32N6xx_HAL_Driver/Src/stm32n6xx_hal.c **** void HAL_SYSCFG_DisableReTimingTXpath(void)
2013:../Drivers/STM32N6xx_HAL_Driver/Src/stm32n6xx_hal.c **** {
 4079              		.loc 1 2013 1 is_stmt 1 view -0
 4080              		.cfi_startproc
 4081              		@ args = 0, pretend = 0, frame = 0
 4082              		@ frame_needed = 0, uses_anonymous_args = 0
 4083              		@ link register save eliminated.
2014:../Drivers/STM32N6xx_HAL_Driver/Src/stm32n6xx_hal.c ****   CLEAR_BIT(SYSCFG->FMC_RETIMECR, SYSCFG_FMC_RETIMECR_CFG_RETIME_TX);
 4084              		.loc 1 2014 3 view .LVU752
 4085 0000 024A     		ldr	r2, .L417
 4086 0002 536F     		ldr	r3, [r2, #116]
 4087 0004 23F00203 		bic	r3, r3, #2
 4088 0008 5367     		str	r3, [r2, #116]
2015:../Drivers/STM32N6xx_HAL_Driver/Src/stm32n6xx_hal.c **** }
 4089              		.loc 1 2015 1 is_stmt 0 view .LVU753
 4090 000a 7047     		bx	lr
 4091              	.L418:
 4092              		.align	2
 4093              	.L417:
 4094 000c 00800056 		.word	1442873344
 4095              		.cfi_endproc
 4096              	.LFE991:
 4098              		.section	.text.HAL_SYSCFG_SetDelayOnFeedbackClock,"ax",%progbits
 4099              		.align	1
 4100              		.global	HAL_SYSCFG_SetDelayOnFeedbackClock
 4101              		.syntax unified
 4102              		.thumb
 4103              		.thumb_func
 4105              	HAL_SYSCFG_SetDelayOnFeedbackClock:
 4106              	.LVL187:
 4107              	.LFB992:
2016:../Drivers/STM32N6xx_HAL_Driver/Src/stm32n6xx_hal.c **** 
2017:../Drivers/STM32N6xx_HAL_Driver/Src/stm32n6xx_hal.c **** /**
2018:../Drivers/STM32N6xx_HAL_Driver/Src/stm32n6xx_hal.c ****   * @brief  Set delay on feedback clock.
2019:../Drivers/STM32N6xx_HAL_Driver/Src/stm32n6xx_hal.c ****   * @param  Delay Delay on feedback clock
2020:../Drivers/STM32N6xx_HAL_Driver/Src/stm32n6xx_hal.c ****   *                @arg SYSCFG_DELAY_FEEDBACK_NONE             None
2021:../Drivers/STM32N6xx_HAL_Driver/Src/stm32n6xx_hal.c ****   *                @arg SYSCFG_DELAY_FEEDBACK_HALF_CYCLE       Half a cycle delay
2022:../Drivers/STM32N6xx_HAL_Driver/Src/stm32n6xx_hal.c ****   * @retval None
2023:../Drivers/STM32N6xx_HAL_Driver/Src/stm32n6xx_hal.c ****   */
2024:../Drivers/STM32N6xx_HAL_Driver/Src/stm32n6xx_hal.c **** void HAL_SYSCFG_SetDelayOnFeedbackClock(uint32_t Delay)
2025:../Drivers/STM32N6xx_HAL_Driver/Src/stm32n6xx_hal.c **** {
 4108              		.loc 1 2025 1 is_stmt 1 view -0
 4109              		.cfi_startproc
 4110              		@ args = 0, pretend = 0, frame = 0
 4111              		@ frame_needed = 0, uses_anonymous_args = 0
 4112              		@ link register save eliminated.
2026:../Drivers/STM32N6xx_HAL_Driver/Src/stm32n6xx_hal.c ****   /* Check the parameter */
2027:../Drivers/STM32N6xx_HAL_Driver/Src/stm32n6xx_hal.c ****   assert_param(IS_SYSCFG_DMA_DELAY_FEEDBACK_CLOCK(Delay));
 4113              		.loc 1 2027 3 view .LVU755
2028:../Drivers/STM32N6xx_HAL_Driver/Src/stm32n6xx_hal.c **** 
2029:../Drivers/STM32N6xx_HAL_Driver/Src/stm32n6xx_hal.c ****   MODIFY_REG(SYSCFG->FMC_RETIMECR, SYSCFG_FMC_RETIMECR_SDFBCLK_180, Delay);
 4114              		.loc 1 2029 3 view .LVU756
ARM GAS  /tmp/ccvdUNht.s 			page 108


 4115 0000 034A     		ldr	r2, .L420
 4116 0002 536F     		ldr	r3, [r2, #116]
 4117 0004 23F00403 		bic	r3, r3, #4
 4118 0008 0343     		orrs	r3, r3, r0
 4119 000a 5367     		str	r3, [r2, #116]
2030:../Drivers/STM32N6xx_HAL_Driver/Src/stm32n6xx_hal.c **** }
 4120              		.loc 1 2030 1 is_stmt 0 view .LVU757
 4121 000c 7047     		bx	lr
 4122              	.L421:
 4123 000e 00BF     		.align	2
 4124              	.L420:
 4125 0010 00800056 		.word	1442873344
 4126              		.cfi_endproc
 4127              	.LFE992:
 4129              		.section	.text.HAL_SYSCFG_GetDelayOnFeedbackClock,"ax",%progbits
 4130              		.align	1
 4131              		.global	HAL_SYSCFG_GetDelayOnFeedbackClock
 4132              		.syntax unified
 4133              		.thumb
 4134              		.thumb_func
 4136              	HAL_SYSCFG_GetDelayOnFeedbackClock:
 4137              	.LFB993:
2031:../Drivers/STM32N6xx_HAL_Driver/Src/stm32n6xx_hal.c **** 
2032:../Drivers/STM32N6xx_HAL_Driver/Src/stm32n6xx_hal.c **** /**
2033:../Drivers/STM32N6xx_HAL_Driver/Src/stm32n6xx_hal.c ****   * @brief  Get delay on feedback clock.
2034:../Drivers/STM32N6xx_HAL_Driver/Src/stm32n6xx_hal.c ****   * @retval Delay on feedback clock
2035:../Drivers/STM32N6xx_HAL_Driver/Src/stm32n6xx_hal.c ****   *                @arg SYSCFG_DELAY_FEEDBACK_NONE             None
2036:../Drivers/STM32N6xx_HAL_Driver/Src/stm32n6xx_hal.c ****   *                @arg SYSCFG_DELAY_FEEDBACK_HALF_CYCLE       Half a cycle delay
2037:../Drivers/STM32N6xx_HAL_Driver/Src/stm32n6xx_hal.c ****   */
2038:../Drivers/STM32N6xx_HAL_Driver/Src/stm32n6xx_hal.c **** uint32_t HAL_SYSCFG_GetDelayOnFeedbackClock(void)
2039:../Drivers/STM32N6xx_HAL_Driver/Src/stm32n6xx_hal.c **** {
 4138              		.loc 1 2039 1 is_stmt 1 view -0
 4139              		.cfi_startproc
 4140              		@ args = 0, pretend = 0, frame = 0
 4141              		@ frame_needed = 0, uses_anonymous_args = 0
 4142              		@ link register save eliminated.
2040:../Drivers/STM32N6xx_HAL_Driver/Src/stm32n6xx_hal.c ****   return (SYSCFG->FMC_RETIMECR & SYSCFG_FMC_RETIMECR_SDFBCLK_180);
 4143              		.loc 1 2040 3 view .LVU759
 4144              		.loc 1 2040 17 is_stmt 0 view .LVU760
 4145 0000 024B     		ldr	r3, .L423
 4146 0002 586F     		ldr	r0, [r3, #116]
2041:../Drivers/STM32N6xx_HAL_Driver/Src/stm32n6xx_hal.c **** }
 4147              		.loc 1 2041 1 view .LVU761
 4148 0004 00F00400 		and	r0, r0, #4
 4149 0008 7047     		bx	lr
 4150              	.L424:
 4151 000a 00BF     		.align	2
 4152              	.L423:
 4153 000c 00800056 		.word	1442873344
 4154              		.cfi_endproc
 4155              	.LFE993:
 4157              		.section	.text.HAL_SYSCFG_EnableInterleavingCpuRam,"ax",%progbits
 4158              		.align	1
 4159              		.global	HAL_SYSCFG_EnableInterleavingCpuRam
 4160              		.syntax unified
 4161              		.thumb
 4162              		.thumb_func
ARM GAS  /tmp/ccvdUNht.s 			page 109


 4164              	HAL_SYSCFG_EnableInterleavingCpuRam:
 4165              	.LFB994:
2042:../Drivers/STM32N6xx_HAL_Driver/Src/stm32n6xx_hal.c **** 
2043:../Drivers/STM32N6xx_HAL_Driver/Src/stm32n6xx_hal.c **** #if defined(SYSCFG_NPUNICQOSCR_NPU1_ARQOSR)
2044:../Drivers/STM32N6xx_HAL_Driver/Src/stm32n6xx_hal.c **** /**
2045:../Drivers/STM32N6xx_HAL_Driver/Src/stm32n6xx_hal.c ****   * @brief  Enable the interleaving on NPU RAM.
2046:../Drivers/STM32N6xx_HAL_Driver/Src/stm32n6xx_hal.c ****   * @retval None
2047:../Drivers/STM32N6xx_HAL_Driver/Src/stm32n6xx_hal.c ****   */
2048:../Drivers/STM32N6xx_HAL_Driver/Src/stm32n6xx_hal.c **** void HAL_SYSCFG_EnableInterleavingCpuRam(void)
2049:../Drivers/STM32N6xx_HAL_Driver/Src/stm32n6xx_hal.c **** {
 4166              		.loc 1 2049 1 is_stmt 1 view -0
 4167              		.cfi_startproc
 4168              		@ args = 0, pretend = 0, frame = 0
 4169              		@ frame_needed = 0, uses_anonymous_args = 0
 4170              		@ link register save eliminated.
2050:../Drivers/STM32N6xx_HAL_Driver/Src/stm32n6xx_hal.c ****   SET_BIT(SYSCFG->NPU_ICNCR, SYSCFG_NPU_ICNCR_INTERLEAVING_ACTIVE);
 4171              		.loc 1 2050 3 view .LVU763
 4172 0000 024A     		ldr	r2, .L426
 4173 0002 936F     		ldr	r3, [r2, #120]
 4174 0004 43F00103 		orr	r3, r3, #1
 4175 0008 9367     		str	r3, [r2, #120]
2051:../Drivers/STM32N6xx_HAL_Driver/Src/stm32n6xx_hal.c **** }
 4176              		.loc 1 2051 1 is_stmt 0 view .LVU764
 4177 000a 7047     		bx	lr
 4178              	.L427:
 4179              		.align	2
 4180              	.L426:
 4181 000c 00800056 		.word	1442873344
 4182              		.cfi_endproc
 4183              	.LFE994:
 4185              		.section	.text.HAL_SYSCFG_DisableInterleavingCpuRam,"ax",%progbits
 4186              		.align	1
 4187              		.global	HAL_SYSCFG_DisableInterleavingCpuRam
 4188              		.syntax unified
 4189              		.thumb
 4190              		.thumb_func
 4192              	HAL_SYSCFG_DisableInterleavingCpuRam:
 4193              	.LFB995:
2052:../Drivers/STM32N6xx_HAL_Driver/Src/stm32n6xx_hal.c **** 
2053:../Drivers/STM32N6xx_HAL_Driver/Src/stm32n6xx_hal.c **** /**
2054:../Drivers/STM32N6xx_HAL_Driver/Src/stm32n6xx_hal.c ****   * @brief  Disable the interleaving on NPU RAM.
2055:../Drivers/STM32N6xx_HAL_Driver/Src/stm32n6xx_hal.c ****   * @retval None
2056:../Drivers/STM32N6xx_HAL_Driver/Src/stm32n6xx_hal.c ****   */
2057:../Drivers/STM32N6xx_HAL_Driver/Src/stm32n6xx_hal.c **** void HAL_SYSCFG_DisableInterleavingCpuRam(void)
2058:../Drivers/STM32N6xx_HAL_Driver/Src/stm32n6xx_hal.c **** {
 4194              		.loc 1 2058 1 is_stmt 1 view -0
 4195              		.cfi_startproc
 4196              		@ args = 0, pretend = 0, frame = 0
 4197              		@ frame_needed = 0, uses_anonymous_args = 0
 4198              		@ link register save eliminated.
2059:../Drivers/STM32N6xx_HAL_Driver/Src/stm32n6xx_hal.c ****   CLEAR_BIT(SYSCFG->NPU_ICNCR, SYSCFG_NPU_ICNCR_INTERLEAVING_ACTIVE);
 4199              		.loc 1 2059 3 view .LVU766
 4200 0000 024A     		ldr	r2, .L429
 4201 0002 936F     		ldr	r3, [r2, #120]
 4202 0004 23F00103 		bic	r3, r3, #1
 4203 0008 9367     		str	r3, [r2, #120]
2060:../Drivers/STM32N6xx_HAL_Driver/Src/stm32n6xx_hal.c **** }
ARM GAS  /tmp/ccvdUNht.s 			page 110


 4204              		.loc 1 2060 1 is_stmt 0 view .LVU767
 4205 000a 7047     		bx	lr
 4206              	.L430:
 4207              		.align	2
 4208              	.L429:
 4209 000c 00800056 		.word	1442873344
 4210              		.cfi_endproc
 4211              	.LFE995:
 4213              		.section	.text.HAL_SYSCFG_GetBootPinConnection,"ax",%progbits
 4214              		.align	1
 4215              		.global	HAL_SYSCFG_GetBootPinConnection
 4216              		.syntax unified
 4217              		.thumb
 4218              		.thumb_func
 4220              	HAL_SYSCFG_GetBootPinConnection:
 4221              	.LVL188:
 4222              	.LFB996:
2061:../Drivers/STM32N6xx_HAL_Driver/Src/stm32n6xx_hal.c **** #endif /* SYSCFG_NPUNICQOSCR_NPU1_ARQOSR */
2062:../Drivers/STM32N6xx_HAL_Driver/Src/stm32n6xx_hal.c **** 
2063:../Drivers/STM32N6xx_HAL_Driver/Src/stm32n6xx_hal.c **** /**
2064:../Drivers/STM32N6xx_HAL_Driver/Src/stm32n6xx_hal.c ****   * @brief  Get BOOT pin connection status
2065:../Drivers/STM32N6xx_HAL_Driver/Src/stm32n6xx_hal.c ****   * @param  BootId specifies the boot pins.
2066:../Drivers/STM32N6xx_HAL_Driver/Src/stm32n6xx_hal.c ****   * @retval BOOT pin connection configuration
2067:../Drivers/STM32N6xx_HAL_Driver/Src/stm32n6xx_hal.c ****   *              This return value can be one of the following values:
2068:../Drivers/STM32N6xx_HAL_Driver/Src/stm32n6xx_hal.c ****   *                @arg SYSCFG_BOOT_CONNECTION_VSS       pin connected to VSS
2069:../Drivers/STM32N6xx_HAL_Driver/Src/stm32n6xx_hal.c ****   *                @arg SYSCFG_BOOT_CONNECTION_VDD       pin connected to VDD
2070:../Drivers/STM32N6xx_HAL_Driver/Src/stm32n6xx_hal.c ****   */
2071:../Drivers/STM32N6xx_HAL_Driver/Src/stm32n6xx_hal.c **** uint32_t HAL_SYSCFG_GetBootPinConnection(uint32_t BootId)
2072:../Drivers/STM32N6xx_HAL_Driver/Src/stm32n6xx_hal.c **** {
 4223              		.loc 1 2072 1 is_stmt 1 view -0
 4224              		.cfi_startproc
 4225              		@ args = 0, pretend = 0, frame = 0
 4226              		@ frame_needed = 0, uses_anonymous_args = 0
 4227              		@ link register save eliminated.
 4228              		.loc 1 2072 1 is_stmt 0 view .LVU769
 4229 0000 0246     		mov	r2, r0
2073:../Drivers/STM32N6xx_HAL_Driver/Src/stm32n6xx_hal.c ****   uint32_t Connection;
 4230              		.loc 1 2073 3 is_stmt 1 view .LVU770
2074:../Drivers/STM32N6xx_HAL_Driver/Src/stm32n6xx_hal.c **** 
2075:../Drivers/STM32N6xx_HAL_Driver/Src/stm32n6xx_hal.c ****   /* Check the parameters */
2076:../Drivers/STM32N6xx_HAL_Driver/Src/stm32n6xx_hal.c ****   assert_param(IS_SYSCFG_BOOT_ID(BootId));
 4231              		.loc 1 2076 3 view .LVU771
2077:../Drivers/STM32N6xx_HAL_Driver/Src/stm32n6xx_hal.c **** 
2078:../Drivers/STM32N6xx_HAL_Driver/Src/stm32n6xx_hal.c ****   Connection = READ_BIT(SYSCFG->BOOTSR, BootId);
 4232              		.loc 1 2078 3 view .LVU772
 4233              		.loc 1 2078 16 is_stmt 0 view .LVU773
 4234 0002 044B     		ldr	r3, .L433
 4235 0004 D3F80001 		ldr	r0, [r3, #256]
 4236              	.LVL189:
 4237              		.loc 1 2078 14 view .LVU774
 4238 0008 1040     		ands	r0, r0, r2
 4239              	.LVL190:
2079:../Drivers/STM32N6xx_HAL_Driver/Src/stm32n6xx_hal.c **** 
2080:../Drivers/STM32N6xx_HAL_Driver/Src/stm32n6xx_hal.c ****   if (BootId == SYSCFG_BOOTCR_BOOT0_PD)
 4240              		.loc 1 2080 3 is_stmt 1 view .LVU775
 4241              		.loc 1 2080 6 is_stmt 0 view .LVU776
 4242 000a 012A     		cmp	r2, #1
ARM GAS  /tmp/ccvdUNht.s 			page 111


 4243 000c 00D0     		beq	.L431
2081:../Drivers/STM32N6xx_HAL_Driver/Src/stm32n6xx_hal.c ****   {
2082:../Drivers/STM32N6xx_HAL_Driver/Src/stm32n6xx_hal.c ****     return Connection;
2083:../Drivers/STM32N6xx_HAL_Driver/Src/stm32n6xx_hal.c ****   }
2084:../Drivers/STM32N6xx_HAL_Driver/Src/stm32n6xx_hal.c ****   else
2085:../Drivers/STM32N6xx_HAL_Driver/Src/stm32n6xx_hal.c ****   {
2086:../Drivers/STM32N6xx_HAL_Driver/Src/stm32n6xx_hal.c ****     return (Connection >> 1U);
 4244              		.loc 1 2086 5 is_stmt 1 view .LVU777
 4245              		.loc 1 2086 24 is_stmt 0 view .LVU778
 4246 000e 4008     		lsrs	r0, r0, #1
 4247              	.LVL191:
 4248              	.L431:
2087:../Drivers/STM32N6xx_HAL_Driver/Src/stm32n6xx_hal.c ****   }
2088:../Drivers/STM32N6xx_HAL_Driver/Src/stm32n6xx_hal.c **** }
 4249              		.loc 1 2088 1 view .LVU779
 4250 0010 7047     		bx	lr
 4251              	.L434:
 4252 0012 00BF     		.align	2
 4253              	.L433:
 4254 0014 00800056 		.word	1442873344
 4255              		.cfi_endproc
 4256              	.LFE996:
 4258              		.section	.text.HAL_SYSCFG_GetAddressWritePostingBuffer,"ax",%progbits
 4259              		.align	1
 4260              		.global	HAL_SYSCFG_GetAddressWritePostingBuffer
 4261              		.syntax unified
 4262              		.thumb
 4263              		.thumb_func
 4265              	HAL_SYSCFG_GetAddressWritePostingBuffer:
 4266              	.LFB997:
2089:../Drivers/STM32N6xx_HAL_Driver/Src/stm32n6xx_hal.c **** 
2090:../Drivers/STM32N6xx_HAL_Driver/Src/stm32n6xx_hal.c **** /**
2091:../Drivers/STM32N6xx_HAL_Driver/Src/stm32n6xx_hal.c ****   * @brief  Get address of first error in P-AHB write-posting buffer
2092:../Drivers/STM32N6xx_HAL_Driver/Src/stm32n6xx_hal.c ****   * @retval Address of the first error in P-AHB write-posting buffer
2093:../Drivers/STM32N6xx_HAL_Driver/Src/stm32n6xx_hal.c ****   */
2094:../Drivers/STM32N6xx_HAL_Driver/Src/stm32n6xx_hal.c **** uint32_t HAL_SYSCFG_GetAddressWritePostingBuffer(void)
2095:../Drivers/STM32N6xx_HAL_Driver/Src/stm32n6xx_hal.c **** {
 4267              		.loc 1 2095 1 is_stmt 1 view -0
 4268              		.cfi_startproc
 4269              		@ args = 0, pretend = 0, frame = 0
 4270              		@ frame_needed = 0, uses_anonymous_args = 0
 4271              		@ link register save eliminated.
2096:../Drivers/STM32N6xx_HAL_Driver/Src/stm32n6xx_hal.c ****   return READ_BIT(SYSCFG->AHBWP_ERROR_SR, SYSCFG_AHBWP_ERROR_SR_PAHB_ERROR_ADDR);
 4272              		.loc 1 2096 3 view .LVU781
2097:../Drivers/STM32N6xx_HAL_Driver/Src/stm32n6xx_hal.c **** }
 4273              		.loc 1 2097 1 is_stmt 0 view .LVU782
 4274 0000 014B     		ldr	r3, .L436
 4275 0002 D3F80401 		ldr	r0, [r3, #260]
 4276 0006 7047     		bx	lr
 4277              	.L437:
 4278              		.align	2
 4279              	.L436:
 4280 0008 00800056 		.word	1442873344
 4281              		.cfi_endproc
 4282              	.LFE997:
 4284              		.section	.text.HAL_FMC_SetBankSwapConfig,"ax",%progbits
 4285              		.align	1
ARM GAS  /tmp/ccvdUNht.s 			page 112


 4286              		.global	HAL_FMC_SetBankSwapConfig
 4287              		.syntax unified
 4288              		.thumb
 4289              		.thumb_func
 4291              	HAL_FMC_SetBankSwapConfig:
 4292              	.LVL192:
 4293              	.LFB998:
2098:../Drivers/STM32N6xx_HAL_Driver/Src/stm32n6xx_hal.c **** 
2099:../Drivers/STM32N6xx_HAL_Driver/Src/stm32n6xx_hal.c **** /**
2100:../Drivers/STM32N6xx_HAL_Driver/Src/stm32n6xx_hal.c ****   * @}
2101:../Drivers/STM32N6xx_HAL_Driver/Src/stm32n6xx_hal.c ****   */
2102:../Drivers/STM32N6xx_HAL_Driver/Src/stm32n6xx_hal.c **** 
2103:../Drivers/STM32N6xx_HAL_Driver/Src/stm32n6xx_hal.c **** /** @defgroup HAL_Exported_Functions_Group5 HAL FMC configuration functions
2104:../Drivers/STM32N6xx_HAL_Driver/Src/stm32n6xx_hal.c ****   *  @brief    HAL FMC configuration functions
2105:../Drivers/STM32N6xx_HAL_Driver/Src/stm32n6xx_hal.c ****   *
2106:../Drivers/STM32N6xx_HAL_Driver/Src/stm32n6xx_hal.c **** @verbatim
2107:../Drivers/STM32N6xx_HAL_Driver/Src/stm32n6xx_hal.c ****  ===============================================================================
2108:../Drivers/STM32N6xx_HAL_Driver/Src/stm32n6xx_hal.c ****                       ##### HAL FMC configuration functions #####
2109:../Drivers/STM32N6xx_HAL_Driver/Src/stm32n6xx_hal.c ****  ===============================================================================
2110:../Drivers/STM32N6xx_HAL_Driver/Src/stm32n6xx_hal.c ****     [..]  This section provides functions allowing to:
2111:../Drivers/STM32N6xx_HAL_Driver/Src/stm32n6xx_hal.c ****       (+) Configure the FMC Memory Bank Swapping mode
2112:../Drivers/STM32N6xx_HAL_Driver/Src/stm32n6xx_hal.c ****       (+) Get current FMC Memory Bank Swapping Mode used
2113:../Drivers/STM32N6xx_HAL_Driver/Src/stm32n6xx_hal.c **** @endverbatim
2114:../Drivers/STM32N6xx_HAL_Driver/Src/stm32n6xx_hal.c ****   * @{
2115:../Drivers/STM32N6xx_HAL_Driver/Src/stm32n6xx_hal.c ****   */
2116:../Drivers/STM32N6xx_HAL_Driver/Src/stm32n6xx_hal.c **** 
2117:../Drivers/STM32N6xx_HAL_Driver/Src/stm32n6xx_hal.c **** /**
2118:../Drivers/STM32N6xx_HAL_Driver/Src/stm32n6xx_hal.c ****   * @brief  Set the FMC Memory Bank Swapping mode.
2119:../Drivers/STM32N6xx_HAL_Driver/Src/stm32n6xx_hal.c ****   * @param  BankMapConfig  specifies the FMC Memory Bank Swapping mode to configure
2120:../Drivers/STM32N6xx_HAL_Driver/Src/stm32n6xx_hal.c ****   *           This parameter can be one of the following values:
2121:../Drivers/STM32N6xx_HAL_Driver/Src/stm32n6xx_hal.c ****   *             @arg FMC_SWAPBANK_MODE0 : FMC memory default mapping is used
2122:../Drivers/STM32N6xx_HAL_Driver/Src/stm32n6xx_hal.c ****   *             @arg FMC_SWAPBANK_MODE1 : NOR/SRAM/PSRAM bank and SDRAM bank1 are swapped
2123:../Drivers/STM32N6xx_HAL_Driver/Src/stm32n6xx_hal.c ****   * @note   FMC bank mapping options
2124:../Drivers/STM32N6xx_HAL_Driver/Src/stm32n6xx_hal.c ****   * | Start-End address     | FMC_SWAPBANK_MODE0  | FMC_SWAPBANK_MODE1  |
2125:../Drivers/STM32N6xx_HAL_Driver/Src/stm32n6xx_hal.c ****   * |-----------------------|---------------------|---------------------|
2126:../Drivers/STM32N6xx_HAL_Driver/Src/stm32n6xx_hal.c ****   * | 0x60000000-0x6FFFFFFF | NOR/SRAM/PSRAM bank | SDRAM bank1         |
2127:../Drivers/STM32N6xx_HAL_Driver/Src/stm32n6xx_hal.c ****   * | 0xC0000000-0xCFFFFFFF | SDRAM bank1         | NOR/SRAM/PSRAM bank |
2128:../Drivers/STM32N6xx_HAL_Driver/Src/stm32n6xx_hal.c ****   * | 0xD0000000-0xDFFFFFFF | SDRAM bank2         | SDRAM bank2         |
2129:../Drivers/STM32N6xx_HAL_Driver/Src/stm32n6xx_hal.c ****   * @retval None
2130:../Drivers/STM32N6xx_HAL_Driver/Src/stm32n6xx_hal.c ****   */
2131:../Drivers/STM32N6xx_HAL_Driver/Src/stm32n6xx_hal.c **** void HAL_FMC_SetBankSwapConfig(uint32_t BankMapConfig)
2132:../Drivers/STM32N6xx_HAL_Driver/Src/stm32n6xx_hal.c **** {
 4294              		.loc 1 2132 1 is_stmt 1 view -0
 4295              		.cfi_startproc
 4296              		@ args = 0, pretend = 0, frame = 0
 4297              		@ frame_needed = 0, uses_anonymous_args = 0
 4298              		@ link register save eliminated.
2133:../Drivers/STM32N6xx_HAL_Driver/Src/stm32n6xx_hal.c ****   /* Check the parameter */
2134:../Drivers/STM32N6xx_HAL_Driver/Src/stm32n6xx_hal.c ****   assert_param(IS_FMC_SWAPBANK_MODE(BankMapConfig));
 4299              		.loc 1 2134 3 view .LVU784
2135:../Drivers/STM32N6xx_HAL_Driver/Src/stm32n6xx_hal.c **** 
2136:../Drivers/STM32N6xx_HAL_Driver/Src/stm32n6xx_hal.c ****   /* Apply Memory Bank Swapping configuration */
2137:../Drivers/STM32N6xx_HAL_Driver/Src/stm32n6xx_hal.c ****   MODIFY_REG(FMC_Common_R->CFGR, FMC_CFGR_BMAP, BankMapConfig);
 4300              		.loc 1 2137 3 view .LVU785
 4301 0000 034A     		ldr	r2, .L439
 4302 0002 136A     		ldr	r3, [r2, #32]
 4303 0004 23F04073 		bic	r3, r3, #50331648
ARM GAS  /tmp/ccvdUNht.s 			page 113


 4304 0008 0343     		orrs	r3, r3, r0
 4305 000a 1362     		str	r3, [r2, #32]
2138:../Drivers/STM32N6xx_HAL_Driver/Src/stm32n6xx_hal.c **** }
 4306              		.loc 1 2138 1 is_stmt 0 view .LVU786
 4307 000c 7047     		bx	lr
 4308              	.L440:
 4309 000e 00BF     		.align	2
 4310              	.L439:
 4311 0010 00400258 		.word	1476542464
 4312              		.cfi_endproc
 4313              	.LFE998:
 4315              		.section	.text.HAL_FMC_GetBankSwapConfig,"ax",%progbits
 4316              		.align	1
 4317              		.global	HAL_FMC_GetBankSwapConfig
 4318              		.syntax unified
 4319              		.thumb
 4320              		.thumb_func
 4322              	HAL_FMC_GetBankSwapConfig:
 4323              	.LFB999:
2139:../Drivers/STM32N6xx_HAL_Driver/Src/stm32n6xx_hal.c **** 
2140:../Drivers/STM32N6xx_HAL_Driver/Src/stm32n6xx_hal.c **** /**
2141:../Drivers/STM32N6xx_HAL_Driver/Src/stm32n6xx_hal.c ****   * @brief  Get the FMC Memory Bank Swapping mode.
2142:../Drivers/STM32N6xx_HAL_Driver/Src/stm32n6xx_hal.c ****   * @retval Return value is FMC Memory Bank Swapping mode
2143:../Drivers/STM32N6xx_HAL_Driver/Src/stm32n6xx_hal.c ****   *           This return value can be one of the following values:
2144:../Drivers/STM32N6xx_HAL_Driver/Src/stm32n6xx_hal.c ****   *             @arg FMC_SWAPBANK_MODE0 : FMC memory default mapping is used
2145:../Drivers/STM32N6xx_HAL_Driver/Src/stm32n6xx_hal.c ****   *             @arg FMC_SWAPBANK_MODE1 : NOR/SRAM/PSRAM bank and SDRAM bank1 are swapped
2146:../Drivers/STM32N6xx_HAL_Driver/Src/stm32n6xx_hal.c ****   */
2147:../Drivers/STM32N6xx_HAL_Driver/Src/stm32n6xx_hal.c **** uint32_t HAL_FMC_GetBankSwapConfig(void)
2148:../Drivers/STM32N6xx_HAL_Driver/Src/stm32n6xx_hal.c **** {
 4324              		.loc 1 2148 1 is_stmt 1 view -0
 4325              		.cfi_startproc
 4326              		@ args = 0, pretend = 0, frame = 0
 4327              		@ frame_needed = 0, uses_anonymous_args = 0
 4328              		@ link register save eliminated.
2149:../Drivers/STM32N6xx_HAL_Driver/Src/stm32n6xx_hal.c ****   return READ_BIT(FMC_Common_R->CFGR, FMC_CFGR_BMAP);
 4329              		.loc 1 2149 3 view .LVU788
 4330              		.loc 1 2149 10 is_stmt 0 view .LVU789
 4331 0000 024B     		ldr	r3, .L442
 4332 0002 186A     		ldr	r0, [r3, #32]
2150:../Drivers/STM32N6xx_HAL_Driver/Src/stm32n6xx_hal.c **** }
 4333              		.loc 1 2150 1 view .LVU790
 4334 0004 00F04070 		and	r0, r0, #50331648
 4335 0008 7047     		bx	lr
 4336              	.L443:
 4337 000a 00BF     		.align	2
 4338              	.L442:
 4339 000c 00400258 		.word	1476542464
 4340              		.cfi_endproc
 4341              	.LFE999:
 4343              		.global	uwTickFreq
 4344              		.section	.data.uwTickFreq,"aw"
 4347              	uwTickFreq:
 4348 0000 01       		.byte	1
 4349              		.global	uwTickPrio
 4350              		.section	.data.uwTickPrio,"aw"
 4351              		.align	2
 4354              	uwTickPrio:
ARM GAS  /tmp/ccvdUNht.s 			page 114


 4355 0000 10000000 		.word	16
 4356              		.global	uwTick
 4357              		.section	.bss.uwTick,"aw",%nobits
 4358              		.align	2
 4361              	uwTick:
 4362 0000 00000000 		.space	4
 4363              		.text
 4364              	.Letext0:
 4365              		.file 2 "../Drivers/CMSIS/Device/ST/STM32N6xx/Include/stm32n657xx.h"
 4366              		.file 3 "/usr/arm-none-eabi/include/machine/_default_types.h"
 4367              		.file 4 "/usr/arm-none-eabi/include/sys/_stdint.h"
 4368              		.file 5 "../Drivers/CMSIS/Include/core_cm55.h"
 4369              		.file 6 "../Drivers/STM32N6xx_HAL_Driver/Inc/stm32n6xx_hal_def.h"
 4370              		.file 7 "../Drivers/STM32N6xx_HAL_Driver/Inc/stm32n6xx_hal.h"
 4371              		.file 8 "../Drivers/CMSIS/Device/ST/STM32N6xx/Include/system_stm32n6xx.h"
 4372              		.file 9 "../Drivers/STM32N6xx_HAL_Driver/Inc/stm32n6xx_hal_cortex.h"
ARM GAS  /tmp/ccvdUNht.s 			page 115


DEFINED SYMBOLS
                            *ABS*:00000000 stm32n6xx_hal.c
     /tmp/ccvdUNht.s:26     .text.HAL_MspInit:00000000 $t
     /tmp/ccvdUNht.s:32     .text.HAL_MspInit:00000000 HAL_MspInit
     /tmp/ccvdUNht.s:45     .text.HAL_MspDeInit:00000000 $t
     /tmp/ccvdUNht.s:51     .text.HAL_MspDeInit:00000000 HAL_MspDeInit
     /tmp/ccvdUNht.s:64     .text.HAL_DeInit:00000000 $t
     /tmp/ccvdUNht.s:70     .text.HAL_DeInit:00000000 HAL_DeInit
     /tmp/ccvdUNht.s:160    .text.HAL_DeInit:00000080 $d
     /tmp/ccvdUNht.s:171    .text.HAL_InitTick:00000000 $t
     /tmp/ccvdUNht.s:177    .text.HAL_InitTick:00000000 HAL_InitTick
     /tmp/ccvdUNht.s:247    .text.HAL_InitTick:00000040 $d
     /tmp/ccvdUNht.s:4347   .data.uwTickFreq:00000000 uwTickFreq
     /tmp/ccvdUNht.s:4354   .data.uwTickPrio:00000000 uwTickPrio
     /tmp/ccvdUNht.s:254    .text.HAL_Init:00000000 $t
     /tmp/ccvdUNht.s:260    .text.HAL_Init:00000000 HAL_Init
     /tmp/ccvdUNht.s:304    .text.HAL_IncTick:00000000 $t
     /tmp/ccvdUNht.s:310    .text.HAL_IncTick:00000000 HAL_IncTick
     /tmp/ccvdUNht.s:331    .text.HAL_IncTick:00000010 $d
     /tmp/ccvdUNht.s:4361   .bss.uwTick:00000000 uwTick
     /tmp/ccvdUNht.s:337    .text.HAL_GetTick:00000000 $t
     /tmp/ccvdUNht.s:343    .text.HAL_GetTick:00000000 HAL_GetTick
     /tmp/ccvdUNht.s:358    .text.HAL_GetTick:00000008 $d
     /tmp/ccvdUNht.s:363    .text.HAL_GetTickPrio:00000000 $t
     /tmp/ccvdUNht.s:369    .text.HAL_GetTickPrio:00000000 HAL_GetTickPrio
     /tmp/ccvdUNht.s:384    .text.HAL_GetTickPrio:00000008 $d
     /tmp/ccvdUNht.s:389    .text.HAL_SetTickFreq:00000000 $t
     /tmp/ccvdUNht.s:395    .text.HAL_SetTickFreq:00000000 HAL_SetTickFreq
     /tmp/ccvdUNht.s:452    .text.HAL_SetTickFreq:00000024 $d
     /tmp/ccvdUNht.s:458    .text.HAL_GetTickFreq:00000000 $t
     /tmp/ccvdUNht.s:464    .text.HAL_GetTickFreq:00000000 HAL_GetTickFreq
     /tmp/ccvdUNht.s:479    .text.HAL_GetTickFreq:00000008 $d
     /tmp/ccvdUNht.s:484    .text.HAL_Delay:00000000 $t
     /tmp/ccvdUNht.s:490    .text.HAL_Delay:00000000 HAL_Delay
     /tmp/ccvdUNht.s:543    .text.HAL_Delay:00000024 $d
     /tmp/ccvdUNht.s:548    .text.HAL_SuspendTick:00000000 $t
     /tmp/ccvdUNht.s:554    .text.HAL_SuspendTick:00000000 HAL_SuspendTick
     /tmp/ccvdUNht.s:574    .text.HAL_ResumeTick:00000000 $t
     /tmp/ccvdUNht.s:580    .text.HAL_ResumeTick:00000000 HAL_ResumeTick
     /tmp/ccvdUNht.s:600    .text.HAL_GetHalVersion:00000000 $t
     /tmp/ccvdUNht.s:606    .text.HAL_GetHalVersion:00000000 HAL_GetHalVersion
     /tmp/ccvdUNht.s:620    .text.HAL_GetHalVersion:00000004 $d
     /tmp/ccvdUNht.s:625    .text.HAL_GetREVID:00000000 $t
     /tmp/ccvdUNht.s:631    .text.HAL_GetREVID:00000000 HAL_GetREVID
     /tmp/ccvdUNht.s:646    .text.HAL_GetREVID:00000008 $d
     /tmp/ccvdUNht.s:651    .text.HAL_GetDEVID:00000000 $t
     /tmp/ccvdUNht.s:657    .text.HAL_GetDEVID:00000000 HAL_GetDEVID
     /tmp/ccvdUNht.s:672    .text.HAL_GetUIDw0:00000000 $t
     /tmp/ccvdUNht.s:678    .text.HAL_GetUIDw0:00000000 HAL_GetUIDw0
     /tmp/ccvdUNht.s:693    .text.HAL_GetUIDw0:00000008 $d
     /tmp/ccvdUNht.s:698    .text.HAL_GetUIDw1:00000000 $t
     /tmp/ccvdUNht.s:704    .text.HAL_GetUIDw1:00000000 HAL_GetUIDw1
     /tmp/ccvdUNht.s:719    .text.HAL_GetUIDw1:00000008 $d
     /tmp/ccvdUNht.s:724    .text.HAL_GetUIDw2:00000000 $t
     /tmp/ccvdUNht.s:730    .text.HAL_GetUIDw2:00000000 HAL_GetUIDw2
     /tmp/ccvdUNht.s:745    .text.HAL_GetUIDw2:00000008 $d
     /tmp/ccvdUNht.s:750    .text.HAL_DBGMCU_EnableDBGSleepMode:00000000 $t
ARM GAS  /tmp/ccvdUNht.s 			page 116


     /tmp/ccvdUNht.s:756    .text.HAL_DBGMCU_EnableDBGSleepMode:00000000 HAL_DBGMCU_EnableDBGSleepMode
     /tmp/ccvdUNht.s:773    .text.HAL_DBGMCU_EnableDBGSleepMode:0000000c $d
     /tmp/ccvdUNht.s:778    .text.HAL_DBGMCU_DisableDBGSleepMode:00000000 $t
     /tmp/ccvdUNht.s:784    .text.HAL_DBGMCU_DisableDBGSleepMode:00000000 HAL_DBGMCU_DisableDBGSleepMode
     /tmp/ccvdUNht.s:801    .text.HAL_DBGMCU_DisableDBGSleepMode:0000000c $d
     /tmp/ccvdUNht.s:806    .text.HAL_DBGMCU_EnableDBGStopMode:00000000 $t
     /tmp/ccvdUNht.s:812    .text.HAL_DBGMCU_EnableDBGStopMode:00000000 HAL_DBGMCU_EnableDBGStopMode
     /tmp/ccvdUNht.s:829    .text.HAL_DBGMCU_EnableDBGStopMode:0000000c $d
     /tmp/ccvdUNht.s:834    .text.HAL_DBGMCU_DisableDBGStopMode:00000000 $t
     /tmp/ccvdUNht.s:840    .text.HAL_DBGMCU_DisableDBGStopMode:00000000 HAL_DBGMCU_DisableDBGStopMode
     /tmp/ccvdUNht.s:857    .text.HAL_DBGMCU_DisableDBGStopMode:0000000c $d
     /tmp/ccvdUNht.s:862    .text.HAL_DBGMCU_EnableDBGStandbyMode:00000000 $t
     /tmp/ccvdUNht.s:868    .text.HAL_DBGMCU_EnableDBGStandbyMode:00000000 HAL_DBGMCU_EnableDBGStandbyMode
     /tmp/ccvdUNht.s:885    .text.HAL_DBGMCU_EnableDBGStandbyMode:0000000c $d
     /tmp/ccvdUNht.s:890    .text.HAL_DBGMCU_DisableDBGStandbyMode:00000000 $t
     /tmp/ccvdUNht.s:896    .text.HAL_DBGMCU_DisableDBGStandbyMode:00000000 HAL_DBGMCU_DisableDBGStandbyMode
     /tmp/ccvdUNht.s:913    .text.HAL_DBGMCU_DisableDBGStandbyMode:0000000c $d
     /tmp/ccvdUNht.s:918    .text.HAL_SYSCFG_EnablePullDown:00000000 $t
     /tmp/ccvdUNht.s:924    .text.HAL_SYSCFG_EnablePullDown:00000000 HAL_SYSCFG_EnablePullDown
     /tmp/ccvdUNht.s:943    .text.HAL_SYSCFG_EnablePullDown:0000000c $d
     /tmp/ccvdUNht.s:948    .text.HAL_SYSCFG_DisablePullDown:00000000 $t
     /tmp/ccvdUNht.s:954    .text.HAL_SYSCFG_DisablePullDown:00000000 HAL_SYSCFG_DisablePullDown
     /tmp/ccvdUNht.s:973    .text.HAL_SYSCFG_DisablePullDown:0000000c $d
     /tmp/ccvdUNht.s:978    .text.HAL_SYSCFG_Lock:00000000 $t
     /tmp/ccvdUNht.s:984    .text.HAL_SYSCFG_Lock:00000000 HAL_SYSCFG_Lock
     /tmp/ccvdUNht.s:1004   .text.HAL_SYSCFG_Lock:00000010 $d
     /tmp/ccvdUNht.s:1009   .text.HAL_SYSCFG_GetLock:00000000 $t
     /tmp/ccvdUNht.s:1015   .text.HAL_SYSCFG_GetLock:00000000 HAL_SYSCFG_GetLock
     /tmp/ccvdUNht.s:1049   .text.HAL_SYSCFG_GetLock:00000014 $d
     /tmp/ccvdUNht.s:1054   .text.HAL_SYSCFG_SetTCMSize:00000000 $t
     /tmp/ccvdUNht.s:1060   .text.HAL_SYSCFG_SetTCMSize:00000000 HAL_SYSCFG_SetTCMSize
     /tmp/ccvdUNht.s:1084   .text.HAL_SYSCFG_SetTCMSize:00000010 $d
     /tmp/ccvdUNht.s:1089   .text.HAL_SYSCFG_GetTCMSize:00000000 $t
     /tmp/ccvdUNht.s:1095   .text.HAL_SYSCFG_GetTCMSize:00000000 HAL_SYSCFG_GetTCMSize
     /tmp/ccvdUNht.s:1142   .text.HAL_SYSCFG_GetTCMSize:00000020 $d
     /tmp/ccvdUNht.s:1147   .text.HAL_SYSCFG_LockWriteAccess:00000000 $t
     /tmp/ccvdUNht.s:1153   .text.HAL_SYSCFG_LockWriteAccess:00000000 HAL_SYSCFG_LockWriteAccess
     /tmp/ccvdUNht.s:1173   .text.HAL_SYSCFG_LockWriteAccess:00000010 $d
     /tmp/ccvdUNht.s:1178   .text.HAL_SYSCFG_GetLockWriteAccess:00000000 $t
     /tmp/ccvdUNht.s:1184   .text.HAL_SYSCFG_GetLockWriteAccess:00000000 HAL_SYSCFG_GetLockWriteAccess
     /tmp/ccvdUNht.s:1218   .text.HAL_SYSCFG_GetLockWriteAccess:00000014 $d
     /tmp/ccvdUNht.s:1223   .text.HAL_SYSCFG_EnableITCMWaiteState:00000000 $t
     /tmp/ccvdUNht.s:1229   .text.HAL_SYSCFG_EnableITCMWaiteState:00000000 HAL_SYSCFG_EnableITCMWaiteState
     /tmp/ccvdUNht.s:1246   .text.HAL_SYSCFG_EnableITCMWaiteState:0000000c $d
     /tmp/ccvdUNht.s:1251   .text.HAL_SYSCFG_DisableITCMWaiteState:00000000 $t
     /tmp/ccvdUNht.s:1257   .text.HAL_SYSCFG_DisableITCMWaiteState:00000000 HAL_SYSCFG_DisableITCMWaiteState
     /tmp/ccvdUNht.s:1274   .text.HAL_SYSCFG_DisableITCMWaiteState:0000000c $d
     /tmp/ccvdUNht.s:1279   .text.HAL_SYSCFG_EnableDTCMWaiteState:00000000 $t
     /tmp/ccvdUNht.s:1285   .text.HAL_SYSCFG_EnableDTCMWaiteState:00000000 HAL_SYSCFG_EnableDTCMWaiteState
     /tmp/ccvdUNht.s:1302   .text.HAL_SYSCFG_EnableDTCMWaiteState:0000000c $d
     /tmp/ccvdUNht.s:1307   .text.HAL_SYSCFG_DisableDTCMWaiteState:00000000 $t
     /tmp/ccvdUNht.s:1313   .text.HAL_SYSCFG_DisableDTCMWaiteState:00000000 HAL_SYSCFG_DisableDTCMWaiteState
     /tmp/ccvdUNht.s:1330   .text.HAL_SYSCFG_DisableDTCMWaiteState:0000000c $d
     /tmp/ccvdUNht.s:1335   .text.HAL_SYSCFG_EnableTCMExternalMargin:00000000 $t
     /tmp/ccvdUNht.s:1341   .text.HAL_SYSCFG_EnableTCMExternalMargin:00000000 HAL_SYSCFG_EnableTCMExternalMargin
     /tmp/ccvdUNht.s:1358   .text.HAL_SYSCFG_EnableTCMExternalMargin:0000000c $d
     /tmp/ccvdUNht.s:1363   .text.HAL_SYSCFG_DisableTCMExternalMargin:00000000 $t
ARM GAS  /tmp/ccvdUNht.s 			page 117


     /tmp/ccvdUNht.s:1369   .text.HAL_SYSCFG_DisableTCMExternalMargin:00000000 HAL_SYSCFG_DisableTCMExternalMargin
     /tmp/ccvdUNht.s:1386   .text.HAL_SYSCFG_DisableTCMExternalMargin:0000000c $d
     /tmp/ccvdUNht.s:1391   .text.HAL_SYSCFG_SetTCMRWMarginInput:00000000 $t
     /tmp/ccvdUNht.s:1397   .text.HAL_SYSCFG_SetTCMRWMarginInput:00000000 HAL_SYSCFG_SetTCMRWMarginInput
     /tmp/ccvdUNht.s:1417   .text.HAL_SYSCFG_SetTCMRWMarginInput:00000010 $d
     /tmp/ccvdUNht.s:1422   .text.HAL_SYSCFG_GetTCMRWMarginInput:00000000 $t
     /tmp/ccvdUNht.s:1428   .text.HAL_SYSCFG_GetTCMRWMarginInput:00000000 HAL_SYSCFG_GetTCMRWMarginInput
     /tmp/ccvdUNht.s:1463   .text.HAL_SYSCFG_GetTCMRWMarginInput:00000014 $d
     /tmp/ccvdUNht.s:1468   .text.HAL_SYSCFG_SetTCMBiasingLevel:00000000 $t
     /tmp/ccvdUNht.s:1474   .text.HAL_SYSCFG_SetTCMBiasingLevel:00000000 HAL_SYSCFG_SetTCMBiasingLevel
     /tmp/ccvdUNht.s:1494   .text.HAL_SYSCFG_SetTCMBiasingLevel:00000010 $d
     /tmp/ccvdUNht.s:1499   .text.HAL_SYSCFG_GetTCMBiasingLevel:00000000 $t
     /tmp/ccvdUNht.s:1505   .text.HAL_SYSCFG_GetTCMBiasingLevel:00000000 HAL_SYSCFG_GetTCMBiasingLevel
     /tmp/ccvdUNht.s:1539   .text.HAL_SYSCFG_GetTCMBiasingLevel:00000014 $d
     /tmp/ccvdUNht.s:1544   .text.HAL_SYSCFG_EnableCacheExternalMargin:00000000 $t
     /tmp/ccvdUNht.s:1550   .text.HAL_SYSCFG_EnableCacheExternalMargin:00000000 HAL_SYSCFG_EnableCacheExternalMargin
     /tmp/ccvdUNht.s:1567   .text.HAL_SYSCFG_EnableCacheExternalMargin:0000000c $d
     /tmp/ccvdUNht.s:1572   .text.HAL_SYSCFG_DisableCacheExternalMargin:00000000 $t
     /tmp/ccvdUNht.s:1578   .text.HAL_SYSCFG_DisableCacheExternalMargin:00000000 HAL_SYSCFG_DisableCacheExternalMargin
     /tmp/ccvdUNht.s:1595   .text.HAL_SYSCFG_DisableCacheExternalMargin:0000000c $d
     /tmp/ccvdUNht.s:1600   .text.HAL_SYSCFG_SetCacheRWMarginInput:00000000 $t
     /tmp/ccvdUNht.s:1606   .text.HAL_SYSCFG_SetCacheRWMarginInput:00000000 HAL_SYSCFG_SetCacheRWMarginInput
     /tmp/ccvdUNht.s:1626   .text.HAL_SYSCFG_SetCacheRWMarginInput:00000010 $d
     /tmp/ccvdUNht.s:1631   .text.HAL_SYSCFG_GetCacheRWMarginInput:00000000 $t
     /tmp/ccvdUNht.s:1637   .text.HAL_SYSCFG_GetCacheRWMarginInput:00000000 HAL_SYSCFG_GetCacheRWMarginInput
     /tmp/ccvdUNht.s:1672   .text.HAL_SYSCFG_GetCacheRWMarginInput:00000014 $d
     /tmp/ccvdUNht.s:1677   .text.HAL_SYSCFG_SetCacheBiasingLevel:00000000 $t
     /tmp/ccvdUNht.s:1683   .text.HAL_SYSCFG_SetCacheBiasingLevel:00000000 HAL_SYSCFG_SetCacheBiasingLevel
     /tmp/ccvdUNht.s:1703   .text.HAL_SYSCFG_SetCacheBiasingLevel:00000010 $d
     /tmp/ccvdUNht.s:1708   .text.HAL_SYSCFG_GetCacheBiasingLevel:00000000 $t
     /tmp/ccvdUNht.s:1714   .text.HAL_SYSCFG_GetCacheBiasingLevel:00000000 HAL_SYSCFG_GetCacheBiasingLevel
     /tmp/ccvdUNht.s:1748   .text.HAL_SYSCFG_GetCacheBiasingLevel:00000014 $d
     /tmp/ccvdUNht.s:1753   .text.HAL_SYSCFG_SetSVTORAddress:00000000 $t
     /tmp/ccvdUNht.s:1759   .text.HAL_SYSCFG_SetSVTORAddress:00000000 HAL_SYSCFG_SetSVTORAddress
     /tmp/ccvdUNht.s:1776   .text.HAL_SYSCFG_SetSVTORAddress:00000008 $d
     /tmp/ccvdUNht.s:1781   .text.HAL_SYSCFG_GetSVTORAddress:00000000 $t
     /tmp/ccvdUNht.s:1787   .text.HAL_SYSCFG_GetSVTORAddress:00000000 HAL_SYSCFG_GetSVTORAddress
     /tmp/ccvdUNht.s:1820   .text.HAL_SYSCFG_GetSVTORAddress:00000010 $d
     /tmp/ccvdUNht.s:1825   .text.HAL_SYSCFG_SetNSVTORAddress:00000000 $t
     /tmp/ccvdUNht.s:1831   .text.HAL_SYSCFG_SetNSVTORAddress:00000000 HAL_SYSCFG_SetNSVTORAddress
     /tmp/ccvdUNht.s:1848   .text.HAL_SYSCFG_SetNSVTORAddress:00000008 $d
     /tmp/ccvdUNht.s:1853   .text.HAL_SYSCFG_GetNSVTORAddress:00000000 $t
     /tmp/ccvdUNht.s:1859   .text.HAL_SYSCFG_GetNSVTORAddress:00000000 HAL_SYSCFG_GetNSVTORAddress
     /tmp/ccvdUNht.s:1892   .text.HAL_SYSCFG_GetNSVTORAddress:00000010 $d
     /tmp/ccvdUNht.s:1897   .text.HAL_SYSCFG_EnablePowerOnReset:00000000 $t
     /tmp/ccvdUNht.s:1903   .text.HAL_SYSCFG_EnablePowerOnReset:00000000 HAL_SYSCFG_EnablePowerOnReset
     /tmp/ccvdUNht.s:1920   .text.HAL_SYSCFG_EnablePowerOnReset:0000000c $d
     /tmp/ccvdUNht.s:1925   .text.HAL_SYSCFG_DisablePowerOnReset:00000000 $t
     /tmp/ccvdUNht.s:1931   .text.HAL_SYSCFG_DisablePowerOnReset:00000000 HAL_SYSCFG_DisablePowerOnReset
     /tmp/ccvdUNht.s:1948   .text.HAL_SYSCFG_DisablePowerOnReset:0000000c $d
     /tmp/ccvdUNht.s:1953   .text.HAL_SYSCFG_EnableLockupWarmResetonRCC:00000000 $t
     /tmp/ccvdUNht.s:1959   .text.HAL_SYSCFG_EnableLockupWarmResetonRCC:00000000 HAL_SYSCFG_EnableLockupWarmResetonRCC
     /tmp/ccvdUNht.s:1976   .text.HAL_SYSCFG_EnableLockupWarmResetonRCC:0000000c $d
     /tmp/ccvdUNht.s:1981   .text.HAL_SYSCFG_DisableLockupWarmResetonRCC:00000000 $t
     /tmp/ccvdUNht.s:1987   .text.HAL_SYSCFG_DisableLockupWarmResetonRCC:00000000 HAL_SYSCFG_DisableLockupWarmResetonRCC
     /tmp/ccvdUNht.s:2004   .text.HAL_SYSCFG_DisableLockupWarmResetonRCC:0000000c $d
     /tmp/ccvdUNht.s:2009   .text.HAL_SYSCFG_EnableLockupGenerateNMI:00000000 $t
ARM GAS  /tmp/ccvdUNht.s 			page 118


     /tmp/ccvdUNht.s:2015   .text.HAL_SYSCFG_EnableLockupGenerateNMI:00000000 HAL_SYSCFG_EnableLockupGenerateNMI
     /tmp/ccvdUNht.s:2032   .text.HAL_SYSCFG_EnableLockupGenerateNMI:0000000c $d
     /tmp/ccvdUNht.s:2037   .text.HAL_SYSCFG_DisableLockupGenerateNMI:00000000 $t
     /tmp/ccvdUNht.s:2043   .text.HAL_SYSCFG_DisableLockupGenerateNMI:00000000 HAL_SYSCFG_DisableLockupGenerateNMI
     /tmp/ccvdUNht.s:2060   .text.HAL_SYSCFG_DisableLockupGenerateNMI:0000000c $d
     /tmp/ccvdUNht.s:2065   .text.HAL_SYSCFG_ReEnableWritePostingErrorCapture:00000000 $t
     /tmp/ccvdUNht.s:2071   .text.HAL_SYSCFG_ReEnableWritePostingErrorCapture:00000000 HAL_SYSCFG_ReEnableWritePostingErrorCapture
     /tmp/ccvdUNht.s:2094   .text.HAL_SYSCFG_ReEnableWritePostingErrorCapture:00000018 $d
     /tmp/ccvdUNht.s:2099   .text.HAL_SYSCFG_EnableVENCRAMReserved:00000000 $t
     /tmp/ccvdUNht.s:2105   .text.HAL_SYSCFG_EnableVENCRAMReserved:00000000 HAL_SYSCFG_EnableVENCRAMReserved
     /tmp/ccvdUNht.s:2122   .text.HAL_SYSCFG_EnableVENCRAMReserved:0000000c $d
     /tmp/ccvdUNht.s:2127   .text.HAL_SYSCFG_DisableVENCRAMReserved:00000000 $t
     /tmp/ccvdUNht.s:2133   .text.HAL_SYSCFG_DisableVENCRAMReserved:00000000 HAL_SYSCFG_DisableVENCRAMReserved
     /tmp/ccvdUNht.s:2150   .text.HAL_SYSCFG_DisableVENCRAMReserved:0000000c $d
     /tmp/ccvdUNht.s:2155   .text.HAL_SYSCFG_EnableCRYPPotentialTamper:00000000 $t
     /tmp/ccvdUNht.s:2161   .text.HAL_SYSCFG_EnableCRYPPotentialTamper:00000000 HAL_SYSCFG_EnableCRYPPotentialTamper
     /tmp/ccvdUNht.s:2178   .text.HAL_SYSCFG_EnableCRYPPotentialTamper:0000000c $d
     /tmp/ccvdUNht.s:2183   .text.HAL_SYSCFG_DisableCRYPPotentialTamper:00000000 $t
     /tmp/ccvdUNht.s:2189   .text.HAL_SYSCFG_DisableCRYPPotentialTamper:00000000 HAL_SYSCFG_DisableCRYPPotentialTamper
     /tmp/ccvdUNht.s:2206   .text.HAL_SYSCFG_DisableCRYPPotentialTamper:0000000c $d
     /tmp/ccvdUNht.s:2211   .text.HAL_SYSCFG_SetWriteQosNP1:00000000 $t
     /tmp/ccvdUNht.s:2217   .text.HAL_SYSCFG_SetWriteQosNP1:00000000 HAL_SYSCFG_SetWriteQosNP1
     /tmp/ccvdUNht.s:2237   .text.HAL_SYSCFG_SetWriteQosNP1:00000010 $d
     /tmp/ccvdUNht.s:2242   .text.HAL_SYSCFG_GetWriteQosNP1:00000000 $t
     /tmp/ccvdUNht.s:2248   .text.HAL_SYSCFG_GetWriteQosNP1:00000000 HAL_SYSCFG_GetWriteQosNP1
     /tmp/ccvdUNht.s:2283   .text.HAL_SYSCFG_GetWriteQosNP1:00000014 $d
     /tmp/ccvdUNht.s:2288   .text.HAL_SYSCFG_SetReadQosNP1:00000000 $t
     /tmp/ccvdUNht.s:2294   .text.HAL_SYSCFG_SetReadQosNP1:00000000 HAL_SYSCFG_SetReadQosNP1
     /tmp/ccvdUNht.s:2314   .text.HAL_SYSCFG_SetReadQosNP1:00000010 $d
     /tmp/ccvdUNht.s:2319   .text.HAL_SYSCFG_GetReadQosNP1:00000000 $t
     /tmp/ccvdUNht.s:2325   .text.HAL_SYSCFG_GetReadQosNP1:00000000 HAL_SYSCFG_GetReadQosNP1
     /tmp/ccvdUNht.s:2359   .text.HAL_SYSCFG_GetReadQosNP1:00000014 $d
     /tmp/ccvdUNht.s:2364   .text.HAL_SYSCFG_SetWriteQosNP2:00000000 $t
     /tmp/ccvdUNht.s:2370   .text.HAL_SYSCFG_SetWriteQosNP2:00000000 HAL_SYSCFG_SetWriteQosNP2
     /tmp/ccvdUNht.s:2390   .text.HAL_SYSCFG_SetWriteQosNP2:00000010 $d
     /tmp/ccvdUNht.s:2395   .text.HAL_SYSCFG_GetWriteQosNP2:00000000 $t
     /tmp/ccvdUNht.s:2401   .text.HAL_SYSCFG_GetWriteQosNP2:00000000 HAL_SYSCFG_GetWriteQosNP2
     /tmp/ccvdUNht.s:2436   .text.HAL_SYSCFG_GetWriteQosNP2:00000014 $d
     /tmp/ccvdUNht.s:2441   .text.HAL_SYSCFG_SetReadQosNP2:00000000 $t
     /tmp/ccvdUNht.s:2447   .text.HAL_SYSCFG_SetReadQosNP2:00000000 HAL_SYSCFG_SetReadQosNP2
     /tmp/ccvdUNht.s:2467   .text.HAL_SYSCFG_SetReadQosNP2:00000010 $d
     /tmp/ccvdUNht.s:2472   .text.HAL_SYSCFG_GetReadQosNP2:00000000 $t
     /tmp/ccvdUNht.s:2478   .text.HAL_SYSCFG_GetReadQosNP2:00000000 HAL_SYSCFG_GetReadQosNP2
     /tmp/ccvdUNht.s:2513   .text.HAL_SYSCFG_GetReadQosNP2:00000014 $d
     /tmp/ccvdUNht.s:2518   .text.HAL_SYSCFG_SetWriteQosCPUSS:00000000 $t
     /tmp/ccvdUNht.s:2524   .text.HAL_SYSCFG_SetWriteQosCPUSS:00000000 HAL_SYSCFG_SetWriteQosCPUSS
     /tmp/ccvdUNht.s:2544   .text.HAL_SYSCFG_SetWriteQosCPUSS:00000010 $d
     /tmp/ccvdUNht.s:2549   .text.HAL_SYSCFG_GetwriteQosCPUSS:00000000 $t
     /tmp/ccvdUNht.s:2555   .text.HAL_SYSCFG_GetwriteQosCPUSS:00000000 HAL_SYSCFG_GetwriteQosCPUSS
     /tmp/ccvdUNht.s:2590   .text.HAL_SYSCFG_GetwriteQosCPUSS:00000014 $d
     /tmp/ccvdUNht.s:2595   .text.HAL_SYSCFG_SetReadQosCPUSS:00000000 $t
     /tmp/ccvdUNht.s:2601   .text.HAL_SYSCFG_SetReadQosCPUSS:00000000 HAL_SYSCFG_SetReadQosCPUSS
     /tmp/ccvdUNht.s:2621   .text.HAL_SYSCFG_SetReadQosCPUSS:00000010 $d
     /tmp/ccvdUNht.s:2626   .text.HAL_SYSCFG_GetReadQosCPUSS:00000000 $t
     /tmp/ccvdUNht.s:2632   .text.HAL_SYSCFG_GetReadQosCPUSS:00000000 HAL_SYSCFG_GetReadQosCPUSS
     /tmp/ccvdUNht.s:2667   .text.HAL_SYSCFG_GetReadQosCPUSS:00000014 $d
     /tmp/ccvdUNht.s:2672   .text.HAL_SYSCFG_EnableSDMMCEarlyWRRESP:00000000 $t
ARM GAS  /tmp/ccvdUNht.s 			page 119


     /tmp/ccvdUNht.s:2678   .text.HAL_SYSCFG_EnableSDMMCEarlyWRRESP:00000000 HAL_SYSCFG_EnableSDMMCEarlyWRRESP
     /tmp/ccvdUNht.s:2697   .text.HAL_SYSCFG_EnableSDMMCEarlyWRRESP:0000000c $d
     /tmp/ccvdUNht.s:2702   .text.HAL_SYSCFG_DisableSDMMCEarlyWRRSP:00000000 $t
     /tmp/ccvdUNht.s:2708   .text.HAL_SYSCFG_DisableSDMMCEarlyWRRSP:00000000 HAL_SYSCFG_DisableSDMMCEarlyWRRSP
     /tmp/ccvdUNht.s:2727   .text.HAL_SYSCFG_DisableSDMMCEarlyWRRSP:0000000c $d
     /tmp/ccvdUNht.s:2732   .text.HAL_SYSCFG_EnableUSBEarlyEarlyWRRESP:00000000 $t
     /tmp/ccvdUNht.s:2738   .text.HAL_SYSCFG_EnableUSBEarlyEarlyWRRESP:00000000 HAL_SYSCFG_EnableUSBEarlyEarlyWRRESP
     /tmp/ccvdUNht.s:2757   .text.HAL_SYSCFG_EnableUSBEarlyEarlyWRRESP:0000000c $d
     /tmp/ccvdUNht.s:2762   .text.HAL_SYSCFG_DisableUSBEarlyEarlyWRRESP:00000000 $t
     /tmp/ccvdUNht.s:2768   .text.HAL_SYSCFG_DisableUSBEarlyEarlyWRRESP:00000000 HAL_SYSCFG_DisableUSBEarlyEarlyWRRESP
     /tmp/ccvdUNht.s:2787   .text.HAL_SYSCFG_DisableUSBEarlyEarlyWRRESP:0000000c $d
     /tmp/ccvdUNht.s:2792   .text.HAL_SYSCFG_EnablexPUClockGating:00000000 $t
     /tmp/ccvdUNht.s:2798   .text.HAL_SYSCFG_EnablexPUClockGating:00000000 HAL_SYSCFG_EnablexPUClockGating
     /tmp/ccvdUNht.s:2817   .text.HAL_SYSCFG_EnablexPUClockGating:0000000c $d
     /tmp/ccvdUNht.s:2822   .text.HAL_SYSCFG_DisablexPUClockGating:00000000 $t
     /tmp/ccvdUNht.s:2828   .text.HAL_SYSCFG_DisablexPUClockGating:00000000 HAL_SYSCFG_DisablexPUClockGating
     /tmp/ccvdUNht.s:2847   .text.HAL_SYSCFG_DisablexPUClockGating:0000000c $d
     /tmp/ccvdUNht.s:2852   .text.HAL_SYSCFG_EnableVDDIO2CompensationCell:00000000 $t
     /tmp/ccvdUNht.s:2858   .text.HAL_SYSCFG_EnableVDDIO2CompensationCell:00000000 HAL_SYSCFG_EnableVDDIO2CompensationCell
     /tmp/ccvdUNht.s:2875   .text.HAL_SYSCFG_EnableVDDIO2CompensationCell:0000000c $d
     /tmp/ccvdUNht.s:2880   .text.HAL_SYSCFG_DisableVDDIO2CompensationCell:00000000 $t
     /tmp/ccvdUNht.s:2886   .text.HAL_SYSCFG_DisableVDDIO2CompensationCell:00000000 HAL_SYSCFG_DisableVDDIO2CompensationCell
     /tmp/ccvdUNht.s:2903   .text.HAL_SYSCFG_DisableVDDIO2CompensationCell:0000000c $d
     /tmp/ccvdUNht.s:2908   .text.HAL_SYSCFG_EnableVDDIO3CompensationCell:00000000 $t
     /tmp/ccvdUNht.s:2914   .text.HAL_SYSCFG_EnableVDDIO3CompensationCell:00000000 HAL_SYSCFG_EnableVDDIO3CompensationCell
     /tmp/ccvdUNht.s:2931   .text.HAL_SYSCFG_EnableVDDIO3CompensationCell:0000000c $d
     /tmp/ccvdUNht.s:2936   .text.HAL_SYSCFG_DisableVDDIO3CompensationCell:00000000 $t
     /tmp/ccvdUNht.s:2942   .text.HAL_SYSCFG_DisableVDDIO3CompensationCell:00000000 HAL_SYSCFG_DisableVDDIO3CompensationCell
     /tmp/ccvdUNht.s:2959   .text.HAL_SYSCFG_DisableVDDIO3CompensationCell:0000000c $d
     /tmp/ccvdUNht.s:2964   .text.HAL_SYSCFG_EnableVDDIO4CompensationCell:00000000 $t
     /tmp/ccvdUNht.s:2970   .text.HAL_SYSCFG_EnableVDDIO4CompensationCell:00000000 HAL_SYSCFG_EnableVDDIO4CompensationCell
     /tmp/ccvdUNht.s:2987   .text.HAL_SYSCFG_EnableVDDIO4CompensationCell:0000000c $d
     /tmp/ccvdUNht.s:2992   .text.HAL_SYSCFG_DisableVDDIO4CompensationCell:00000000 $t
     /tmp/ccvdUNht.s:2998   .text.HAL_SYSCFG_DisableVDDIO4CompensationCell:00000000 HAL_SYSCFG_DisableVDDIO4CompensationCell
     /tmp/ccvdUNht.s:3015   .text.HAL_SYSCFG_DisableVDDIO4CompensationCell:0000000c $d
     /tmp/ccvdUNht.s:3020   .text.HAL_SYSCFG_EnableVDDIO5CompensationCell:00000000 $t
     /tmp/ccvdUNht.s:3026   .text.HAL_SYSCFG_EnableVDDIO5CompensationCell:00000000 HAL_SYSCFG_EnableVDDIO5CompensationCell
     /tmp/ccvdUNht.s:3043   .text.HAL_SYSCFG_EnableVDDIO5CompensationCell:0000000c $d
     /tmp/ccvdUNht.s:3048   .text.HAL_SYSCFG_DisableVDDIO5CompensationCell:00000000 $t
     /tmp/ccvdUNht.s:3054   .text.HAL_SYSCFG_DisableVDDIO5CompensationCell:00000000 HAL_SYSCFG_DisableVDDIO5CompensationCell
     /tmp/ccvdUNht.s:3071   .text.HAL_SYSCFG_DisableVDDIO5CompensationCell:0000000c $d
     /tmp/ccvdUNht.s:3076   .text.HAL_SYSCFG_ConfigVDDIOCompensationCell:00000000 $t
     /tmp/ccvdUNht.s:3082   .text.HAL_SYSCFG_ConfigVDDIOCompensationCell:00000000 HAL_SYSCFG_ConfigVDDIOCompensationCell
     /tmp/ccvdUNht.s:3103   .text.HAL_SYSCFG_ConfigVDDIOCompensationCell:0000000c $d
     /tmp/ccvdUNht.s:3107   .text.HAL_SYSCFG_ConfigVDDIOCompensationCell:00000010 $t
     /tmp/ccvdUNht.s:3124   .text.HAL_SYSCFG_ConfigVDDIOCompensationCell:00000020 $d
     /tmp/ccvdUNht.s:3128   .text.HAL_SYSCFG_ConfigVDDIOCompensationCell:00000024 $t
     /tmp/ccvdUNht.s:3255   .text.HAL_SYSCFG_ConfigVDDIOCompensationCell:000000c4 $d
     /tmp/ccvdUNht.s:3260   .text.HAL_SYSCFG_GetVDDIOCompensationCell:00000000 $t
     /tmp/ccvdUNht.s:3266   .text.HAL_SYSCFG_GetVDDIOCompensationCell:00000000 HAL_SYSCFG_GetVDDIOCompensationCell
     /tmp/ccvdUNht.s:3299   .text.HAL_SYSCFG_GetVDDIOCompensationCell:00000014 $d
     /tmp/ccvdUNht.s:3304   .text.HAL_SYSCFG_GetVDDIOCompensationCell:00000018 $t
     /tmp/ccvdUNht.s:3318   .text.HAL_SYSCFG_GetVDDIOCompensationCell:00000024 $d
     /tmp/ccvdUNht.s:3322   .text.HAL_SYSCFG_GetVDDIOCompensationCell:00000028 $t
     /tmp/ccvdUNht.s:3466   .text.HAL_SYSCFG_GetVDDIOCompensationCell:0000008c $d
     /tmp/ccvdUNht.s:3471   .text.HAL_SYSCFG_GetCompVDDIO2CellReadyStatus:00000000 $t
     /tmp/ccvdUNht.s:3477   .text.HAL_SYSCFG_GetCompVDDIO2CellReadyStatus:00000000 HAL_SYSCFG_GetCompVDDIO2CellReadyStatus
ARM GAS  /tmp/ccvdUNht.s 			page 120


     /tmp/ccvdUNht.s:3494   .text.HAL_SYSCFG_GetCompVDDIO2CellReadyStatus:0000000c $d
     /tmp/ccvdUNht.s:3499   .text.HAL_SYSCFG_GetCompVDDIO3CellReadyStatus:00000000 $t
     /tmp/ccvdUNht.s:3505   .text.HAL_SYSCFG_GetCompVDDIO3CellReadyStatus:00000000 HAL_SYSCFG_GetCompVDDIO3CellReadyStatus
     /tmp/ccvdUNht.s:3522   .text.HAL_SYSCFG_GetCompVDDIO3CellReadyStatus:0000000c $d
     /tmp/ccvdUNht.s:3527   .text.HAL_SYSCFG_GetCompVDDIO4CellReadyStatus:00000000 $t
     /tmp/ccvdUNht.s:3533   .text.HAL_SYSCFG_GetCompVDDIO4CellReadyStatus:00000000 HAL_SYSCFG_GetCompVDDIO4CellReadyStatus
     /tmp/ccvdUNht.s:3550   .text.HAL_SYSCFG_GetCompVDDIO4CellReadyStatus:0000000c $d
     /tmp/ccvdUNht.s:3555   .text.HAL_SYSCFG_GetCompVDDIO5CellReadyStatus:00000000 $t
     /tmp/ccvdUNht.s:3561   .text.HAL_SYSCFG_GetCompVDDIO5CellReadyStatus:00000000 HAL_SYSCFG_GetCompVDDIO5CellReadyStatus
     /tmp/ccvdUNht.s:3578   .text.HAL_SYSCFG_GetCompVDDIO5CellReadyStatus:0000000c $d
     /tmp/ccvdUNht.s:3583   .text.HAL_SYSCFG_ConfigVDDCompensationCell:00000000 $t
     /tmp/ccvdUNht.s:3589   .text.HAL_SYSCFG_ConfigVDDCompensationCell:00000000 HAL_SYSCFG_ConfigVDDCompensationCell
     /tmp/ccvdUNht.s:3640   .text.HAL_SYSCFG_ConfigVDDCompensationCell:00000028 $d
     /tmp/ccvdUNht.s:3645   .text.HAL_SYSCFG_EnableVDDCompensationCell:00000000 $t
     /tmp/ccvdUNht.s:3651   .text.HAL_SYSCFG_EnableVDDCompensationCell:00000000 HAL_SYSCFG_EnableVDDCompensationCell
     /tmp/ccvdUNht.s:3668   .text.HAL_SYSCFG_EnableVDDCompensationCell:0000000c $d
     /tmp/ccvdUNht.s:3673   .text.HAL_SYSCFG_DisableVDDCompensationCell:00000000 $t
     /tmp/ccvdUNht.s:3679   .text.HAL_SYSCFG_DisableVDDCompensationCell:00000000 HAL_SYSCFG_DisableVDDCompensationCell
     /tmp/ccvdUNht.s:3696   .text.HAL_SYSCFG_DisableVDDCompensationCell:0000000c $d
     /tmp/ccvdUNht.s:3701   .text.HAL_SYSCFG_GetVDDCompensationCell:00000000 $t
     /tmp/ccvdUNht.s:3707   .text.HAL_SYSCFG_GetVDDCompensationCell:00000000 HAL_SYSCFG_GetVDDCompensationCell
     /tmp/ccvdUNht.s:3777   .text.HAL_SYSCFG_GetVDDCompensationCell:0000002c $d
     /tmp/ccvdUNht.s:3782   .text.HAL_SYSCFG_GetCompensationVDDCellReadyStatus:00000000 $t
     /tmp/ccvdUNht.s:3788   .text.HAL_SYSCFG_GetCompensationVDDCellReadyStatus:00000000 HAL_SYSCFG_GetCompensationVDDCellReadyStatus
     /tmp/ccvdUNht.s:3805   .text.HAL_SYSCFG_GetCompensationVDDCellReadyStatus:0000000c $d
     /tmp/ccvdUNht.s:3810   .text.HAL_SYSCFG_ConfigTimerBreakInput:00000000 $t
     /tmp/ccvdUNht.s:3816   .text.HAL_SYSCFG_ConfigTimerBreakInput:00000000 HAL_SYSCFG_ConfigTimerBreakInput
     /tmp/ccvdUNht.s:3835   .text.HAL_SYSCFG_ConfigTimerBreakInput:0000000c $d
     /tmp/ccvdUNht.s:3840   .text.HAL_SYSCFG_GetTimerBreakInputConfig:00000000 $t
     /tmp/ccvdUNht.s:3846   .text.HAL_SYSCFG_GetTimerBreakInputConfig:00000000 HAL_SYSCFG_GetTimerBreakInputConfig
     /tmp/ccvdUNht.s:3865   .text.HAL_SYSCFG_GetTimerBreakInputConfig:00000010 $d
     /tmp/ccvdUNht.s:3870   .text.HAL_SYSCFG_SetPerceivedCID:00000000 $t
     /tmp/ccvdUNht.s:3876   .text.HAL_SYSCFG_SetPerceivedCID:00000000 HAL_SYSCFG_SetPerceivedCID
     /tmp/ccvdUNht.s:3896   .text.HAL_SYSCFG_SetPerceivedCID:00000010 $d
     /tmp/ccvdUNht.s:3901   .text.HAL_SYSCFG_GetPerceivedCID:00000000 $t
     /tmp/ccvdUNht.s:3907   .text.HAL_SYSCFG_GetPerceivedCID:00000000 HAL_SYSCFG_GetPerceivedCID
     /tmp/ccvdUNht.s:3924   .text.HAL_SYSCFG_GetPerceivedCID:0000000c $d
     /tmp/ccvdUNht.s:3929   .text.HAL_SYSCFG_SetPerceivedPrivCID:00000000 $t
     /tmp/ccvdUNht.s:3935   .text.HAL_SYSCFG_SetPerceivedPrivCID:00000000 HAL_SYSCFG_SetPerceivedPrivCID
     /tmp/ccvdUNht.s:3954   .text.HAL_SYSCFG_SetPerceivedPrivCID:00000014 $d
     /tmp/ccvdUNht.s:3959   .text.HAL_SYSCFG_GetPerceivedPrivCID:00000000 $t
     /tmp/ccvdUNht.s:3965   .text.HAL_SYSCFG_GetPerceivedPrivCID:00000000 HAL_SYSCFG_GetPerceivedPrivCID
     /tmp/ccvdUNht.s:3982   .text.HAL_SYSCFG_GetPerceivedPrivCID:0000000c $d
     /tmp/ccvdUNht.s:3987   .text.HAL_SYSCFG_EnableReTimingRXpath:00000000 $t
     /tmp/ccvdUNht.s:3993   .text.HAL_SYSCFG_EnableReTimingRXpath:00000000 HAL_SYSCFG_EnableReTimingRXpath
     /tmp/ccvdUNht.s:4010   .text.HAL_SYSCFG_EnableReTimingRXpath:0000000c $d
     /tmp/ccvdUNht.s:4015   .text.HAL_SYSCFG_DisableReTimingRXpath:00000000 $t
     /tmp/ccvdUNht.s:4021   .text.HAL_SYSCFG_DisableReTimingRXpath:00000000 HAL_SYSCFG_DisableReTimingRXpath
     /tmp/ccvdUNht.s:4038   .text.HAL_SYSCFG_DisableReTimingRXpath:0000000c $d
     /tmp/ccvdUNht.s:4043   .text.HAL_SYSCFG_EnableReTimingTXpath:00000000 $t
     /tmp/ccvdUNht.s:4049   .text.HAL_SYSCFG_EnableReTimingTXpath:00000000 HAL_SYSCFG_EnableReTimingTXpath
     /tmp/ccvdUNht.s:4066   .text.HAL_SYSCFG_EnableReTimingTXpath:0000000c $d
     /tmp/ccvdUNht.s:4071   .text.HAL_SYSCFG_DisableReTimingTXpath:00000000 $t
     /tmp/ccvdUNht.s:4077   .text.HAL_SYSCFG_DisableReTimingTXpath:00000000 HAL_SYSCFG_DisableReTimingTXpath
     /tmp/ccvdUNht.s:4094   .text.HAL_SYSCFG_DisableReTimingTXpath:0000000c $d
     /tmp/ccvdUNht.s:4099   .text.HAL_SYSCFG_SetDelayOnFeedbackClock:00000000 $t
     /tmp/ccvdUNht.s:4105   .text.HAL_SYSCFG_SetDelayOnFeedbackClock:00000000 HAL_SYSCFG_SetDelayOnFeedbackClock
ARM GAS  /tmp/ccvdUNht.s 			page 121


     /tmp/ccvdUNht.s:4125   .text.HAL_SYSCFG_SetDelayOnFeedbackClock:00000010 $d
     /tmp/ccvdUNht.s:4130   .text.HAL_SYSCFG_GetDelayOnFeedbackClock:00000000 $t
     /tmp/ccvdUNht.s:4136   .text.HAL_SYSCFG_GetDelayOnFeedbackClock:00000000 HAL_SYSCFG_GetDelayOnFeedbackClock
     /tmp/ccvdUNht.s:4153   .text.HAL_SYSCFG_GetDelayOnFeedbackClock:0000000c $d
     /tmp/ccvdUNht.s:4158   .text.HAL_SYSCFG_EnableInterleavingCpuRam:00000000 $t
     /tmp/ccvdUNht.s:4164   .text.HAL_SYSCFG_EnableInterleavingCpuRam:00000000 HAL_SYSCFG_EnableInterleavingCpuRam
     /tmp/ccvdUNht.s:4181   .text.HAL_SYSCFG_EnableInterleavingCpuRam:0000000c $d
     /tmp/ccvdUNht.s:4186   .text.HAL_SYSCFG_DisableInterleavingCpuRam:00000000 $t
     /tmp/ccvdUNht.s:4192   .text.HAL_SYSCFG_DisableInterleavingCpuRam:00000000 HAL_SYSCFG_DisableInterleavingCpuRam
     /tmp/ccvdUNht.s:4209   .text.HAL_SYSCFG_DisableInterleavingCpuRam:0000000c $d
     /tmp/ccvdUNht.s:4214   .text.HAL_SYSCFG_GetBootPinConnection:00000000 $t
     /tmp/ccvdUNht.s:4220   .text.HAL_SYSCFG_GetBootPinConnection:00000000 HAL_SYSCFG_GetBootPinConnection
     /tmp/ccvdUNht.s:4254   .text.HAL_SYSCFG_GetBootPinConnection:00000014 $d
     /tmp/ccvdUNht.s:4259   .text.HAL_SYSCFG_GetAddressWritePostingBuffer:00000000 $t
     /tmp/ccvdUNht.s:4265   .text.HAL_SYSCFG_GetAddressWritePostingBuffer:00000000 HAL_SYSCFG_GetAddressWritePostingBuffer
     /tmp/ccvdUNht.s:4280   .text.HAL_SYSCFG_GetAddressWritePostingBuffer:00000008 $d
     /tmp/ccvdUNht.s:4285   .text.HAL_FMC_SetBankSwapConfig:00000000 $t
     /tmp/ccvdUNht.s:4291   .text.HAL_FMC_SetBankSwapConfig:00000000 HAL_FMC_SetBankSwapConfig
     /tmp/ccvdUNht.s:4311   .text.HAL_FMC_SetBankSwapConfig:00000010 $d
     /tmp/ccvdUNht.s:4316   .text.HAL_FMC_GetBankSwapConfig:00000000 $t
     /tmp/ccvdUNht.s:4322   .text.HAL_FMC_GetBankSwapConfig:00000000 HAL_FMC_GetBankSwapConfig
     /tmp/ccvdUNht.s:4339   .text.HAL_FMC_GetBankSwapConfig:0000000c $d
     /tmp/ccvdUNht.s:4351   .data.uwTickPrio:00000000 $d
     /tmp/ccvdUNht.s:4358   .bss.uwTick:00000000 $d

UNDEFINED SYMBOLS
HAL_SYSTICK_Config
HAL_NVIC_SetPriority
SystemCoreClock
HAL_NVIC_SetPriorityGrouping
SystemCoreClockUpdate
