ARM GAS  /tmp/cch9jK6u.s 			page 1


   1              		.arch armv8.1-m.main
   2              		.fpu fpv5-d16
   3              		.arch_extension dsp
   4              		.arch_extension fp
   5              		.arch_extension fp.dp
   6              		.arch_extension mve
   7              		.arch_extension mve.fp
   8              		.eabi_attribute 5, "cortex-m55"
   9              		.eabi_attribute 28, 1
  10              		.eabi_attribute 20, 1
  11              		.eabi_attribute 21, 1
  12              		.eabi_attribute 23, 3
  13              		.eabi_attribute 24, 1
  14              		.eabi_attribute 25, 1
  15              		.eabi_attribute 26, 1
  16              		.eabi_attribute 30, 1
  17              		.eabi_attribute 34, 1
  18              		.eabi_attribute 38, 1
  19              		.eabi_attribute 18, 4
  20              		.file	"system_stm32n6xx_s.c"
  21              		.text
  22              	.Ltext0:
  23              		.cfi_sections	.debug_frame
  24              		.file 1 "Src/system_stm32n6xx_s.c"
  25              		.section	.text.TZ_SAU_Setup,"ax",%progbits
  26              		.align	1
  27              		.syntax unified
  28              		.thumb
  29              		.thumb_func
  31              	TZ_SAU_Setup:
  32              	.LFB881:
  33              		.file 2 "Inc/partition_stm32n657xx.h"
   1:Inc/partition_stm32n657xx.h **** /* USER CODE BEGIN Header */
   2:Inc/partition_stm32n657xx.h **** /**
   3:Inc/partition_stm32n657xx.h ****   ******************************************************************************
   4:Inc/partition_stm32n657xx.h ****   * @file    partition_stm32n657xx.h
   5:Inc/partition_stm32n657xx.h ****   * @author  MCD Application Team
   6:Inc/partition_stm32n657xx.h ****   * @brief   CMSIS STM32N657xx Device Initial Setup for Secure / Non-Secure Zones
   7:Inc/partition_stm32n657xx.h ****   *          for ARMCM55 based on CMSIS CORE V5.3.1 partition_ARMCM33.h Template.
   8:Inc/partition_stm32n657xx.h ****   *
   9:Inc/partition_stm32n657xx.h ****   *          This file contains:
  10:Inc/partition_stm32n657xx.h ****   *           - Initialize Security Attribution Unit (SAU) CTRL register
  11:Inc/partition_stm32n657xx.h ****   *           - Setup behavior of Sleep and Exception Handling
  12:Inc/partition_stm32n657xx.h ****   *           - Setup behavior of Floating Point Unit
  13:Inc/partition_stm32n657xx.h ****   *           - Setup Interrupt Target
  14:Inc/partition_stm32n657xx.h ****   *
  15:Inc/partition_stm32n657xx.h ****   ******************************************************************************/
  16:Inc/partition_stm32n657xx.h **** /*
  17:Inc/partition_stm32n657xx.h **** * Copyright (c) 2009-2016 ARM Limited. All rights reserved.
  18:Inc/partition_stm32n657xx.h **** * Portions Copyright (c) 2023 STMicroelectronics, all rights reserved
  19:Inc/partition_stm32n657xx.h **** *
  20:Inc/partition_stm32n657xx.h **** * SPDX-License-Identifier: Apache-2.0
  21:Inc/partition_stm32n657xx.h **** *
  22:Inc/partition_stm32n657xx.h **** * Licensed under the Apache License, Version 2.0 (the License); you may
  23:Inc/partition_stm32n657xx.h **** * not use this file except in compliance with the License.
  24:Inc/partition_stm32n657xx.h **** * You may obtain a copy of the License at
  25:Inc/partition_stm32n657xx.h **** *
ARM GAS  /tmp/cch9jK6u.s 			page 2


  26:Inc/partition_stm32n657xx.h **** * http://www.apache.org/licenses/LICENSE-2.0
  27:Inc/partition_stm32n657xx.h **** *
  28:Inc/partition_stm32n657xx.h **** * Unless required by applicable law or agreed to in writing, software
  29:Inc/partition_stm32n657xx.h **** * distributed under the License is distributed on an AS IS BASIS, WITHOUT
  30:Inc/partition_stm32n657xx.h **** * WARRANTIES OR CONDITIONS OF ANY KIND, either express or implied.
  31:Inc/partition_stm32n657xx.h **** * See the License for the specific language governing permissions and
  32:Inc/partition_stm32n657xx.h **** * limitations under the License.
  33:Inc/partition_stm32n657xx.h **** */
  34:Inc/partition_stm32n657xx.h **** /* USER CODE END Header */
  35:Inc/partition_stm32n657xx.h **** 
  36:Inc/partition_stm32n657xx.h **** #ifndef PARTITION_STM32N657XX_H
  37:Inc/partition_stm32n657xx.h **** #define PARTITION_STM32N657XX_H
  38:Inc/partition_stm32n657xx.h **** /*
  39:Inc/partition_stm32n657xx.h **** //-------- <<< Use Configuration Wizard in Context Menu >>> -----------------
  40:Inc/partition_stm32n657xx.h **** */
  41:Inc/partition_stm32n657xx.h **** /* USER CODE BEGIN 0 */
  42:Inc/partition_stm32n657xx.h **** /*
  43:Inc/partition_stm32n657xx.h **** // <e>Initialize Security Attribution Unit (SAU) CTRL register
  44:Inc/partition_stm32n657xx.h **** */
  45:Inc/partition_stm32n657xx.h **** #define SAU_INIT_CTRL          0
  46:Inc/partition_stm32n657xx.h **** 
  47:Inc/partition_stm32n657xx.h **** /*
  48:Inc/partition_stm32n657xx.h **** //   <q> Enable SAU
  49:Inc/partition_stm32n657xx.h **** //   <i> Value for SAU->CTRL register bit ENABLE
  50:Inc/partition_stm32n657xx.h **** */
  51:Inc/partition_stm32n657xx.h **** #define SAU_INIT_CTRL_ENABLE   0
  52:Inc/partition_stm32n657xx.h **** 
  53:Inc/partition_stm32n657xx.h **** /*
  54:Inc/partition_stm32n657xx.h **** //   <o> When SAU is disabled
  55:Inc/partition_stm32n657xx.h **** //     <0=> All Memory is Secure
  56:Inc/partition_stm32n657xx.h **** //     <1=> All Memory is Non-Secure
  57:Inc/partition_stm32n657xx.h **** //   <i> Value for SAU->CTRL register bit ALLNS
  58:Inc/partition_stm32n657xx.h **** //   <i> When all Memory is Non-Secure (ALLNS is 1), IDAU can override memory map configuration.
  59:Inc/partition_stm32n657xx.h **** */
  60:Inc/partition_stm32n657xx.h **** #define SAU_INIT_CTRL_ALLNS  0
  61:Inc/partition_stm32n657xx.h **** 
  62:Inc/partition_stm32n657xx.h **** /*
  63:Inc/partition_stm32n657xx.h **** // </e>
  64:Inc/partition_stm32n657xx.h **** */
  65:Inc/partition_stm32n657xx.h **** 
  66:Inc/partition_stm32n657xx.h **** /*
  67:Inc/partition_stm32n657xx.h **** // <h>Initialize Security Attribution Unit (SAU) Address Regions
  68:Inc/partition_stm32n657xx.h **** // <i>SAU configuration specifies regions to be one of:
  69:Inc/partition_stm32n657xx.h **** // <i> - Secure and Non-Secure Callable
  70:Inc/partition_stm32n657xx.h **** // <i> - Non-Secure
  71:Inc/partition_stm32n657xx.h **** // <i>Note: All memory regions not configured by SAU are Secure
  72:Inc/partition_stm32n657xx.h **** */
  73:Inc/partition_stm32n657xx.h **** #define SAU_REGIONS_MAX   8                 /* Max. number of SAU regions */
  74:Inc/partition_stm32n657xx.h **** 
  75:Inc/partition_stm32n657xx.h **** /*
  76:Inc/partition_stm32n657xx.h **** //   <e>Initialize SAU Region 0
  77:Inc/partition_stm32n657xx.h **** //   <i> Setup SAU Region 0 memory attributes
  78:Inc/partition_stm32n657xx.h **** */
  79:Inc/partition_stm32n657xx.h **** #define SAU_INIT_REGION0    0
  80:Inc/partition_stm32n657xx.h **** 
  81:Inc/partition_stm32n657xx.h **** /*
  82:Inc/partition_stm32n657xx.h **** //     <o>Start Address <0-0xFFFFFFE0>
ARM GAS  /tmp/cch9jK6u.s 			page 3


  83:Inc/partition_stm32n657xx.h **** */
  84:Inc/partition_stm32n657xx.h **** #define SAU_INIT_START0     0x00000000      /* start address of SAU region 0 */
  85:Inc/partition_stm32n657xx.h **** 
  86:Inc/partition_stm32n657xx.h **** /*
  87:Inc/partition_stm32n657xx.h **** //     <o>End Address <0x1F-0xFFFFFFFF>
  88:Inc/partition_stm32n657xx.h **** */
  89:Inc/partition_stm32n657xx.h **** #define SAU_INIT_END0       0x00000000      /* end address of SAU region 0 */
  90:Inc/partition_stm32n657xx.h **** 
  91:Inc/partition_stm32n657xx.h **** /*
  92:Inc/partition_stm32n657xx.h **** //     <o>Region is
  93:Inc/partition_stm32n657xx.h **** //         <0=>Non-Secure
  94:Inc/partition_stm32n657xx.h **** //         <1=>Secure, Non-Secure Callable
  95:Inc/partition_stm32n657xx.h **** */
  96:Inc/partition_stm32n657xx.h **** #define SAU_INIT_NSC0       0
  97:Inc/partition_stm32n657xx.h **** /*
  98:Inc/partition_stm32n657xx.h **** //   </e>
  99:Inc/partition_stm32n657xx.h **** */
 100:Inc/partition_stm32n657xx.h **** 
 101:Inc/partition_stm32n657xx.h **** /*
 102:Inc/partition_stm32n657xx.h **** //   <e>Initialize SAU Region 1
 103:Inc/partition_stm32n657xx.h **** //   <i> Setup SAU Region 1 memory attributes
 104:Inc/partition_stm32n657xx.h **** */
 105:Inc/partition_stm32n657xx.h **** #define SAU_INIT_REGION1    0
 106:Inc/partition_stm32n657xx.h **** 
 107:Inc/partition_stm32n657xx.h **** /*
 108:Inc/partition_stm32n657xx.h **** //     <o>Start Address <0-0xFFFFFFE0>
 109:Inc/partition_stm32n657xx.h **** */
 110:Inc/partition_stm32n657xx.h **** #define SAU_INIT_START1       0x00000000      /* start address of SAU region 1 */
 111:Inc/partition_stm32n657xx.h **** /*
 112:Inc/partition_stm32n657xx.h **** //     <o>End Address <0x1F-0xFFFFFFFF>
 113:Inc/partition_stm32n657xx.h **** */
 114:Inc/partition_stm32n657xx.h **** #define SAU_INIT_END1       0x00000000      /* end address of SAU region 1 */
 115:Inc/partition_stm32n657xx.h **** /*
 116:Inc/partition_stm32n657xx.h **** //     <o>Region is
 117:Inc/partition_stm32n657xx.h **** //         <0=>Non-Secure
 118:Inc/partition_stm32n657xx.h **** //         <1=>Secure, Non-Secure Callable
 119:Inc/partition_stm32n657xx.h **** */
 120:Inc/partition_stm32n657xx.h **** #define SAU_INIT_NSC1       0
 121:Inc/partition_stm32n657xx.h **** /*
 122:Inc/partition_stm32n657xx.h **** //   </e>
 123:Inc/partition_stm32n657xx.h **** */
 124:Inc/partition_stm32n657xx.h **** 
 125:Inc/partition_stm32n657xx.h **** /*
 126:Inc/partition_stm32n657xx.h **** //   <e>Initialize SAU Region 2
 127:Inc/partition_stm32n657xx.h **** //   <i> Setup SAU Region 2 memory attributes
 128:Inc/partition_stm32n657xx.h **** */
 129:Inc/partition_stm32n657xx.h **** #define SAU_INIT_REGION2    0
 130:Inc/partition_stm32n657xx.h **** 
 131:Inc/partition_stm32n657xx.h **** /*
 132:Inc/partition_stm32n657xx.h **** //     <o>Start Address <0-0xFFFFFFE0>
 133:Inc/partition_stm32n657xx.h **** */
 134:Inc/partition_stm32n657xx.h **** #define SAU_INIT_START2     0x00000000      /* start address of SAU region 2 */
 135:Inc/partition_stm32n657xx.h **** 
 136:Inc/partition_stm32n657xx.h **** /*
 137:Inc/partition_stm32n657xx.h **** //     <o>End Address <0x1F-0xFFFFFFFF>
 138:Inc/partition_stm32n657xx.h **** */
 139:Inc/partition_stm32n657xx.h **** #define SAU_INIT_END2       0x00000000      /* end address of SAU region 2 */
ARM GAS  /tmp/cch9jK6u.s 			page 4


 140:Inc/partition_stm32n657xx.h **** 
 141:Inc/partition_stm32n657xx.h **** /*
 142:Inc/partition_stm32n657xx.h **** //     <o>Region is
 143:Inc/partition_stm32n657xx.h **** //         <0=>Non-Secure
 144:Inc/partition_stm32n657xx.h **** //         <1=>Secure, Non-Secure Callable
 145:Inc/partition_stm32n657xx.h **** */
 146:Inc/partition_stm32n657xx.h **** #define SAU_INIT_NSC2       0
 147:Inc/partition_stm32n657xx.h **** /*
 148:Inc/partition_stm32n657xx.h **** //   </e>
 149:Inc/partition_stm32n657xx.h **** */
 150:Inc/partition_stm32n657xx.h **** 
 151:Inc/partition_stm32n657xx.h **** /*
 152:Inc/partition_stm32n657xx.h **** //   <e>Initialize SAU Region 3
 153:Inc/partition_stm32n657xx.h **** //   <i> Setup SAU Region 3 memory attributes
 154:Inc/partition_stm32n657xx.h **** */
 155:Inc/partition_stm32n657xx.h **** #define SAU_INIT_REGION3    0
 156:Inc/partition_stm32n657xx.h **** 
 157:Inc/partition_stm32n657xx.h **** /*
 158:Inc/partition_stm32n657xx.h **** //     <o>Start Address <0-0xFFFFFFE0>
 159:Inc/partition_stm32n657xx.h **** */
 160:Inc/partition_stm32n657xx.h **** #define SAU_INIT_START3     0x00000000      /* start address of SAU region 3 */
 161:Inc/partition_stm32n657xx.h **** 
 162:Inc/partition_stm32n657xx.h **** /*
 163:Inc/partition_stm32n657xx.h **** //     <o>End Address <0x1F-0xFFFFFFFF>
 164:Inc/partition_stm32n657xx.h **** */
 165:Inc/partition_stm32n657xx.h **** #define SAU_INIT_END3       0x00000000      /* end address of SAU region 3 */
 166:Inc/partition_stm32n657xx.h **** 
 167:Inc/partition_stm32n657xx.h **** /*
 168:Inc/partition_stm32n657xx.h **** //     <o>Region is
 169:Inc/partition_stm32n657xx.h **** //         <0=>Non-Secure
 170:Inc/partition_stm32n657xx.h **** //         <1=>Secure, Non-Secure Callable
 171:Inc/partition_stm32n657xx.h **** */
 172:Inc/partition_stm32n657xx.h **** #define SAU_INIT_NSC3       0
 173:Inc/partition_stm32n657xx.h **** /*
 174:Inc/partition_stm32n657xx.h **** //   </e>
 175:Inc/partition_stm32n657xx.h **** */
 176:Inc/partition_stm32n657xx.h **** 
 177:Inc/partition_stm32n657xx.h **** /*
 178:Inc/partition_stm32n657xx.h **** //   <e>Initialize SAU Region 4
 179:Inc/partition_stm32n657xx.h **** //   <i> Setup SAU Region 4 memory attributes
 180:Inc/partition_stm32n657xx.h **** */
 181:Inc/partition_stm32n657xx.h **** #define SAU_INIT_REGION4    0
 182:Inc/partition_stm32n657xx.h **** 
 183:Inc/partition_stm32n657xx.h **** /*
 184:Inc/partition_stm32n657xx.h **** //     <o>Start Address <0-0xFFFFFFE0>
 185:Inc/partition_stm32n657xx.h **** */
 186:Inc/partition_stm32n657xx.h **** #define SAU_INIT_START4     0x00000000      /* start address of SAU region 4 */
 187:Inc/partition_stm32n657xx.h **** 
 188:Inc/partition_stm32n657xx.h **** /*
 189:Inc/partition_stm32n657xx.h **** //     <o>End Address <0x1F-0xFFFFFFFF>
 190:Inc/partition_stm32n657xx.h **** */
 191:Inc/partition_stm32n657xx.h **** #define SAU_INIT_END4       0x00000000      /* end address of SAU region 4 */
 192:Inc/partition_stm32n657xx.h **** 
 193:Inc/partition_stm32n657xx.h **** /*
 194:Inc/partition_stm32n657xx.h **** //     <o>Region is
 195:Inc/partition_stm32n657xx.h **** //         <0=>Non-Secure
 196:Inc/partition_stm32n657xx.h **** //         <1=>Secure, Non-Secure Callable
ARM GAS  /tmp/cch9jK6u.s 			page 5


 197:Inc/partition_stm32n657xx.h **** */
 198:Inc/partition_stm32n657xx.h **** #define SAU_INIT_NSC4       0
 199:Inc/partition_stm32n657xx.h **** /*
 200:Inc/partition_stm32n657xx.h **** //   </e>
 201:Inc/partition_stm32n657xx.h **** */
 202:Inc/partition_stm32n657xx.h **** 
 203:Inc/partition_stm32n657xx.h **** /*
 204:Inc/partition_stm32n657xx.h **** //   <e>Initialize SAU Region 5
 205:Inc/partition_stm32n657xx.h **** //   <i> Setup SAU Region 5 memory attributes
 206:Inc/partition_stm32n657xx.h **** */
 207:Inc/partition_stm32n657xx.h **** #define SAU_INIT_REGION5    0
 208:Inc/partition_stm32n657xx.h **** 
 209:Inc/partition_stm32n657xx.h **** /*
 210:Inc/partition_stm32n657xx.h **** //     <o>Start Address <0-0xFFFFFFE0>
 211:Inc/partition_stm32n657xx.h **** */
 212:Inc/partition_stm32n657xx.h **** #define SAU_INIT_START5     0x00000000      /* start address of SAU region 5 */
 213:Inc/partition_stm32n657xx.h **** 
 214:Inc/partition_stm32n657xx.h **** /*
 215:Inc/partition_stm32n657xx.h **** //     <o>End Address <0x1F-0xFFFFFFFF>
 216:Inc/partition_stm32n657xx.h **** */
 217:Inc/partition_stm32n657xx.h **** #define SAU_INIT_END5       0x00000000      /* end address of SAU region 5 */
 218:Inc/partition_stm32n657xx.h **** 
 219:Inc/partition_stm32n657xx.h **** /*
 220:Inc/partition_stm32n657xx.h **** //     <o>Region is
 221:Inc/partition_stm32n657xx.h **** //         <0=>Non-Secure
 222:Inc/partition_stm32n657xx.h **** //         <1=>Secure, Non-Secure Callable
 223:Inc/partition_stm32n657xx.h **** */
 224:Inc/partition_stm32n657xx.h **** #define SAU_INIT_NSC5       0
 225:Inc/partition_stm32n657xx.h **** /*
 226:Inc/partition_stm32n657xx.h **** //   </e>
 227:Inc/partition_stm32n657xx.h **** */
 228:Inc/partition_stm32n657xx.h **** 
 229:Inc/partition_stm32n657xx.h **** /*
 230:Inc/partition_stm32n657xx.h **** //   <e>Initialize SAU Region 6
 231:Inc/partition_stm32n657xx.h **** //   <i> Setup SAU Region 6 memory attributes
 232:Inc/partition_stm32n657xx.h **** */
 233:Inc/partition_stm32n657xx.h **** #define SAU_INIT_REGION6    0
 234:Inc/partition_stm32n657xx.h **** 
 235:Inc/partition_stm32n657xx.h **** /*
 236:Inc/partition_stm32n657xx.h **** //     <o>Start Address <0-0xFFFFFFE0>
 237:Inc/partition_stm32n657xx.h **** */
 238:Inc/partition_stm32n657xx.h **** #define SAU_INIT_START6     0x00000000      /* start address of SAU region 6 */
 239:Inc/partition_stm32n657xx.h **** 
 240:Inc/partition_stm32n657xx.h **** /*
 241:Inc/partition_stm32n657xx.h **** //     <o>End Address <0x1F-0xFFFFFFFF>
 242:Inc/partition_stm32n657xx.h **** */
 243:Inc/partition_stm32n657xx.h **** #define SAU_INIT_END6       0x00000000      /* end address of SAU region 6 */
 244:Inc/partition_stm32n657xx.h **** 
 245:Inc/partition_stm32n657xx.h **** /*
 246:Inc/partition_stm32n657xx.h **** //     <o>Region is
 247:Inc/partition_stm32n657xx.h **** //         <0=>Non-Secure
 248:Inc/partition_stm32n657xx.h **** //         <1=>Secure, Non-Secure Callable
 249:Inc/partition_stm32n657xx.h **** */
 250:Inc/partition_stm32n657xx.h **** #define SAU_INIT_NSC6       0
 251:Inc/partition_stm32n657xx.h **** /*
 252:Inc/partition_stm32n657xx.h **** //   </e>
 253:Inc/partition_stm32n657xx.h **** */
ARM GAS  /tmp/cch9jK6u.s 			page 6


 254:Inc/partition_stm32n657xx.h **** 
 255:Inc/partition_stm32n657xx.h **** /*
 256:Inc/partition_stm32n657xx.h **** //   <e>Initialize SAU Region 7
 257:Inc/partition_stm32n657xx.h **** //   <i> Setup SAU Region 7 memory attributes
 258:Inc/partition_stm32n657xx.h **** */
 259:Inc/partition_stm32n657xx.h **** #define SAU_INIT_REGION7    0
 260:Inc/partition_stm32n657xx.h **** 
 261:Inc/partition_stm32n657xx.h **** /*
 262:Inc/partition_stm32n657xx.h **** //     <o>Start Address <0-0xFFFFFFE0>
 263:Inc/partition_stm32n657xx.h **** */
 264:Inc/partition_stm32n657xx.h **** #define SAU_INIT_START7     0x00000000      /* start address of SAU region 7 */
 265:Inc/partition_stm32n657xx.h **** 
 266:Inc/partition_stm32n657xx.h **** /*
 267:Inc/partition_stm32n657xx.h **** //     <o>End Address <0x1F-0xFFFFFFFF>
 268:Inc/partition_stm32n657xx.h **** */
 269:Inc/partition_stm32n657xx.h **** #define SAU_INIT_END7       0x00000000      /* end address of SAU region 7 */
 270:Inc/partition_stm32n657xx.h **** 
 271:Inc/partition_stm32n657xx.h **** /*
 272:Inc/partition_stm32n657xx.h **** //     <o>Region is
 273:Inc/partition_stm32n657xx.h **** //         <0=>Non-Secure
 274:Inc/partition_stm32n657xx.h **** //         <1=>Secure, Non-Secure Callable
 275:Inc/partition_stm32n657xx.h **** */
 276:Inc/partition_stm32n657xx.h **** #define SAU_INIT_NSC7       0
 277:Inc/partition_stm32n657xx.h **** /*
 278:Inc/partition_stm32n657xx.h **** //   </e>
 279:Inc/partition_stm32n657xx.h **** */
 280:Inc/partition_stm32n657xx.h **** 
 281:Inc/partition_stm32n657xx.h **** /*
 282:Inc/partition_stm32n657xx.h **** // </h>
 283:Inc/partition_stm32n657xx.h **** */
 284:Inc/partition_stm32n657xx.h **** /*
 285:Inc/partition_stm32n657xx.h **** // <e>Setup behaviour of Sleep and Exception Handling
 286:Inc/partition_stm32n657xx.h **** */
 287:Inc/partition_stm32n657xx.h **** #define SCB_CSR_AIRCR_INIT  0
 288:Inc/partition_stm32n657xx.h **** 
 289:Inc/partition_stm32n657xx.h **** /*
 290:Inc/partition_stm32n657xx.h **** //   <o> Deep Sleep can be enabled by
 291:Inc/partition_stm32n657xx.h **** //     <0=>Secure and Non-Secure state
 292:Inc/partition_stm32n657xx.h **** //     <1=>Secure state only
 293:Inc/partition_stm32n657xx.h **** //   <i> Value for SCB->CSR register bit DEEPSLEEPS
 294:Inc/partition_stm32n657xx.h **** */
 295:Inc/partition_stm32n657xx.h **** #define SCB_CSR_DEEPSLEEPS_VAL  0
 296:Inc/partition_stm32n657xx.h **** 
 297:Inc/partition_stm32n657xx.h **** /*
 298:Inc/partition_stm32n657xx.h **** //   <o>System reset request accessible from
 299:Inc/partition_stm32n657xx.h **** //     <0=> Secure and Non-Secure state
 300:Inc/partition_stm32n657xx.h **** //     <1=> Secure state only
 301:Inc/partition_stm32n657xx.h **** //   <i> Value for SCB->AIRCR register bit SYSRESETREQS
 302:Inc/partition_stm32n657xx.h **** */
 303:Inc/partition_stm32n657xx.h **** #define SCB_AIRCR_SYSRESETREQS_VAL  0
 304:Inc/partition_stm32n657xx.h **** /* USER CODE END 0 */
 305:Inc/partition_stm32n657xx.h **** /*
 306:Inc/partition_stm32n657xx.h **** //   <o>Priority of Non-Secure exceptions is
 307:Inc/partition_stm32n657xx.h **** //     <0=> Not altered
 308:Inc/partition_stm32n657xx.h **** //     <1=> Lowered to 0x04-0x07
 309:Inc/partition_stm32n657xx.h **** //   <i> Value for SCB->AIRCR register bit PRIS
 310:Inc/partition_stm32n657xx.h **** */
ARM GAS  /tmp/cch9jK6u.s 			page 7


 311:Inc/partition_stm32n657xx.h **** #define SCB_AIRCR_PRIS_VAL      0
 312:Inc/partition_stm32n657xx.h **** 
 313:Inc/partition_stm32n657xx.h **** /*
 314:Inc/partition_stm32n657xx.h **** //   <o>BusFault, HardFault, and NMI target
 315:Inc/partition_stm32n657xx.h **** //     <0=> Secure state
 316:Inc/partition_stm32n657xx.h **** //     <1=> Non-Secure state
 317:Inc/partition_stm32n657xx.h **** //   <i> Value for SCB->AIRCR register bit BFHFNMINS
 318:Inc/partition_stm32n657xx.h **** */
 319:Inc/partition_stm32n657xx.h **** #define SCB_AIRCR_BFHFNMINS_VAL 0
 320:Inc/partition_stm32n657xx.h **** 
 321:Inc/partition_stm32n657xx.h **** /*
 322:Inc/partition_stm32n657xx.h **** // </e>
 323:Inc/partition_stm32n657xx.h **** */
 324:Inc/partition_stm32n657xx.h **** /* USER CODE BEGIN 1 */
 325:Inc/partition_stm32n657xx.h **** /*
 326:Inc/partition_stm32n657xx.h **** // <e>Setup behaviour of Floating Point Unit
 327:Inc/partition_stm32n657xx.h **** */
 328:Inc/partition_stm32n657xx.h **** #define TZ_FPU_NS_USAGE 1
 329:Inc/partition_stm32n657xx.h **** 
 330:Inc/partition_stm32n657xx.h **** /*
 331:Inc/partition_stm32n657xx.h **** // <o>Floating Point Unit usage
 332:Inc/partition_stm32n657xx.h **** //     <0=> Secure state only
 333:Inc/partition_stm32n657xx.h **** //     <3=> Secure and Non-Secure state
 334:Inc/partition_stm32n657xx.h **** //   <i> Value for SCB->NSACR register bits CP10, CP11
 335:Inc/partition_stm32n657xx.h **** */
 336:Inc/partition_stm32n657xx.h **** #define SCB_NSACR_CP10_11_VAL       3
 337:Inc/partition_stm32n657xx.h **** 
 338:Inc/partition_stm32n657xx.h **** /*
 339:Inc/partition_stm32n657xx.h **** // <o>Treat floating-point registers as Secure
 340:Inc/partition_stm32n657xx.h **** //     <0=> Disabled
 341:Inc/partition_stm32n657xx.h **** //     <1=> Enabled
 342:Inc/partition_stm32n657xx.h **** //   <i> Value for FPU->FPCCR register bit TS
 343:Inc/partition_stm32n657xx.h **** */
 344:Inc/partition_stm32n657xx.h **** #define FPU_FPCCR_TS_VAL            0
 345:Inc/partition_stm32n657xx.h **** 
 346:Inc/partition_stm32n657xx.h **** /*
 347:Inc/partition_stm32n657xx.h **** // <o>Clear on return (CLRONRET) accessibility
 348:Inc/partition_stm32n657xx.h **** //     <0=> Secure and Non-Secure state
 349:Inc/partition_stm32n657xx.h **** //     <1=> Secure state only
 350:Inc/partition_stm32n657xx.h **** //   <i> Value for FPU->FPCCR register bit CLRONRETS
 351:Inc/partition_stm32n657xx.h **** */
 352:Inc/partition_stm32n657xx.h **** #define FPU_FPCCR_CLRONRETS_VAL     0
 353:Inc/partition_stm32n657xx.h **** 
 354:Inc/partition_stm32n657xx.h **** /*
 355:Inc/partition_stm32n657xx.h **** // <o>Clear floating-point caller saved registers on exception return
 356:Inc/partition_stm32n657xx.h **** //     <0=> Disabled
 357:Inc/partition_stm32n657xx.h **** //     <1=> Enabled
 358:Inc/partition_stm32n657xx.h **** //   <i> Value for FPU->FPCCR register bit CLRONRET
 359:Inc/partition_stm32n657xx.h **** */
 360:Inc/partition_stm32n657xx.h **** #define FPU_FPCCR_CLRONRET_VAL      1
 361:Inc/partition_stm32n657xx.h **** 
 362:Inc/partition_stm32n657xx.h **** /*
 363:Inc/partition_stm32n657xx.h **** // </e>
 364:Inc/partition_stm32n657xx.h **** */
 365:Inc/partition_stm32n657xx.h **** /* USER CODE END 1 */
 366:Inc/partition_stm32n657xx.h **** /*
 367:Inc/partition_stm32n657xx.h **** // <h>Setup Interrupt Target
ARM GAS  /tmp/cch9jK6u.s 			page 8


 368:Inc/partition_stm32n657xx.h **** */
 369:Inc/partition_stm32n657xx.h **** 
 370:Inc/partition_stm32n657xx.h **** /*
 371:Inc/partition_stm32n657xx.h **** //   <e>Initialize ITNS 0 (Interrupts 0..31)
 372:Inc/partition_stm32n657xx.h **** */
 373:Inc/partition_stm32n657xx.h **** #define NVIC_INIT_ITNS0    1
 374:Inc/partition_stm32n657xx.h **** /*
 375:Inc/partition_stm32n657xx.h **** // Interrupts 0..31
 376:Inc/partition_stm32n657xx.h **** //   <o.0>  PVD_PVM_IRQn        <0=> Secure state
 377:Inc/partition_stm32n657xx.h **** //   <o.1> Reserved             <0=> Secure state
 378:Inc/partition_stm32n657xx.h **** //   <o.2>  DTS_IRQn            <0=> Secure state
 379:Inc/partition_stm32n657xx.h **** //   <o.3>  RCC_IRQn            <0=> Secure state
 380:Inc/partition_stm32n657xx.h **** //   <o.4>  LOCKUP_IRQn         <0=> Secure state
 381:Inc/partition_stm32n657xx.h **** //   <o.5>  CACHE_ECC_IRQn      <0=> Secure state
 382:Inc/partition_stm32n657xx.h **** //   <o.6>  TCM_ECC_IRQn        <0=> Secure state
 383:Inc/partition_stm32n657xx.h **** //   <o.7>  BKP_ECC_IRQn        <0=> Secure state
 384:Inc/partition_stm32n657xx.h **** //   <o.8>  FPU_IRQn            <0=> Secure state
 385:Inc/partition_stm32n657xx.h **** //   <o.9>  Reserved            <0=> Secure state
 386:Inc/partition_stm32n657xx.h **** //   <o.10> RTC_S_IRQn          <0=> Secure state
 387:Inc/partition_stm32n657xx.h **** //   <o.11> TAMP_IRQn           <0=> Secure state
 388:Inc/partition_stm32n657xx.h **** //   <o.12> RIFSC_TAMPER_IRQn   <0=> Secure state
 389:Inc/partition_stm32n657xx.h **** //   <o.13> IAC_IRQn            <0=> Secure state
 390:Inc/partition_stm32n657xx.h **** //   <o.14> RCC_S_IRQn          <0=> Secure state
 391:Inc/partition_stm32n657xx.h **** //   <o.15> Reserved            <0=> Secure state
 392:Inc/partition_stm32n657xx.h **** //   <o.16> RTC_IRQn            <0=> Secure state
 393:Inc/partition_stm32n657xx.h **** //   <o.17> Reserved            <0=> Secure state
 394:Inc/partition_stm32n657xx.h **** //   <o.18> IWDG_IRQn           <0=> Secure state
 395:Inc/partition_stm32n657xx.h **** //   <o.19> WWDG_IRQn           <0=> Secure state
 396:Inc/partition_stm32n657xx.h **** //   <o.20> EXTI0_IRQn          <0=> Secure state
 397:Inc/partition_stm32n657xx.h **** //   <o.21> EXTI1_IRQn          <0=> Secure state
 398:Inc/partition_stm32n657xx.h **** //   <o.22> EXTI2_IRQn          <0=> Secure state
 399:Inc/partition_stm32n657xx.h **** //   <o.23> EXTI3_IRQn          <0=> Secure state
 400:Inc/partition_stm32n657xx.h **** //   <o.24> EXTI4_IRQn          <0=> Secure state
 401:Inc/partition_stm32n657xx.h **** //   <o.25> EXTI5_IRQn          <0=> Secure state
 402:Inc/partition_stm32n657xx.h **** //   <o.26> EXTI6_IRQn          <0=> Secure state
 403:Inc/partition_stm32n657xx.h **** //   <o.27> EXTI7_IRQn          <0=> Secure state
 404:Inc/partition_stm32n657xx.h **** //   <o.28> EXTI8_IRQn          <0=> Secure state
 405:Inc/partition_stm32n657xx.h **** //   <o.29> EXTI9_IRQn          <0=> Secure state
 406:Inc/partition_stm32n657xx.h **** //   <o.30> EXTI10_IRQn         <0=> Secure state
 407:Inc/partition_stm32n657xx.h **** //   <o.31> EXTI11_IRQn         <0=> Secure state
 408:Inc/partition_stm32n657xx.h **** */
 409:Inc/partition_stm32n657xx.h **** 
 410:Inc/partition_stm32n657xx.h **** #define NVIC_INIT_ITNS0_VAL      0x00000000
 411:Inc/partition_stm32n657xx.h **** /*
 412:Inc/partition_stm32n657xx.h **** //   </e>
 413:Inc/partition_stm32n657xx.h **** */
 414:Inc/partition_stm32n657xx.h **** 
 415:Inc/partition_stm32n657xx.h **** /*
 416:Inc/partition_stm32n657xx.h **** //   <e>Initialize ITNS 1 (Interrupts 32..63)
 417:Inc/partition_stm32n657xx.h **** */
 418:Inc/partition_stm32n657xx.h **** #define NVIC_INIT_ITNS1    1
 419:Inc/partition_stm32n657xx.h **** 
 420:Inc/partition_stm32n657xx.h **** /*
 421:Inc/partition_stm32n657xx.h **** / Interrupts 32..63
 422:Inc/partition_stm32n657xx.h **** //   <o.0>  EXTI12_IRQn       <0=> Secure state
 423:Inc/partition_stm32n657xx.h **** //   <o.1>  EXTI13_IRQn       <0=> Secure state
 424:Inc/partition_stm32n657xx.h **** //   <o.2>  EXTI14_IRQn       <0=> Secure state
ARM GAS  /tmp/cch9jK6u.s 			page 9


 425:Inc/partition_stm32n657xx.h **** //   <o.3>  EXTI15_IRQn       <0=> Secure state
 426:Inc/partition_stm32n657xx.h **** //   <o.4>  SAES_IRQn          <0=> Secure state
 427:Inc/partition_stm32n657xx.h **** //   <o.5>  CRYP_IRQn   	      <0=> Secure state
 428:Inc/partition_stm32n657xx.h **** //   <o.6>  PKA_IRQn          <0=> Secure state
 429:Inc/partition_stm32n657xx.h **** //   <o.7>  HASH_IRQn         <0=> Secure state
 430:Inc/partition_stm32n657xx.h **** //   <o.8>  RNG_IRQn          <0=> Secure state
 431:Inc/partition_stm32n657xx.h **** //   <o.9>  Reserved          <0=> Secure state
 432:Inc/partition_stm32n657xx.h **** //   <o.10> MCE1_IRQn          <0=> Secure state
 433:Inc/partition_stm32n657xx.h **** //   <o.11> MCE2_IRQn          <0=> Secure state
 434:Inc/partition_stm32n657xx.h **** //   <o.12> MCE3_IRQn          <0=> Secure state
 435:Inc/partition_stm32n657xx.h **** //   <o.13> MCE4_IRQn          <0=> Secure state
 436:Inc/partition_stm32n657xx.h **** //   <o.14> ADC1_2_IRQn       <0=> Secure state
 437:Inc/partition_stm32n657xx.h **** //   <o.15> CSI_IRQn          <0=> Secure state
 438:Inc/partition_stm32n657xx.h **** //   <o.16> DCMIPP_IRQn       <0=> Secure state
 439:Inc/partition_stm32n657xx.h **** //   <o.17> Reserved          <0=> Secure state
 440:Inc/partition_stm32n657xx.h **** //   <o.18> Reserved          <0=> Secure state
 441:Inc/partition_stm32n657xx.h **** //   <o.19> Reserved          <0=> Secure state
 442:Inc/partition_stm32n657xx.h **** //   <o.20> PAHB_ERR_IRQn     <0=> Secure state
 443:Inc/partition_stm32n657xx.h **** //   <o.21> NPU0_IRQn         <0=> Secure state
 444:Inc/partition_stm32n657xx.h **** //   <o.22> NPU1_IRQn         <0=> Secure state
 445:Inc/partition_stm32n657xx.h **** //   <o.23> NPU2_IRQn         <0=> Secure state
 446:Inc/partition_stm32n657xx.h **** //   <o.24> NPU3_IRQn         <0=> Secure state
 447:Inc/partition_stm32n657xx.h **** //   <o.25> CACHEAXI_IRQn     <0=> Secure state
 448:Inc/partition_stm32n657xx.h **** //   <o.26> LTDC_LO_IRQn      <0=> Secure state
 449:Inc/partition_stm32n657xx.h **** //   <o.27> LTDC_LO_ERR_IRQn  <0=> Secure state
 450:Inc/partition_stm32n657xx.h **** //   <o.28> DMA2D_IRQn        <0=> Secure state
 451:Inc/partition_stm32n657xx.h **** //   <o.29> JPEG_IRQn         <0=> Secure state
 452:Inc/partition_stm32n657xx.h **** //   <o.30> VENC_IRQn         <0=> Secure state
 453:Inc/partition_stm32n657xx.h **** //   <o.31> GFXMMU_IRQn       <0=> Secure state
 454:Inc/partition_stm32n657xx.h **** */
 455:Inc/partition_stm32n657xx.h **** 
 456:Inc/partition_stm32n657xx.h **** #define NVIC_INIT_ITNS1_VAL      0x00000000
 457:Inc/partition_stm32n657xx.h **** 
 458:Inc/partition_stm32n657xx.h **** /*
 459:Inc/partition_stm32n657xx.h **** //   </e>
 460:Inc/partition_stm32n657xx.h **** */
 461:Inc/partition_stm32n657xx.h **** 
 462:Inc/partition_stm32n657xx.h **** /*
 463:Inc/partition_stm32n657xx.h **** //   <e>Initialize ITNS 2 (Interrupts 64..95)
 464:Inc/partition_stm32n657xx.h **** */
 465:Inc/partition_stm32n657xx.h **** #define NVIC_INIT_ITNS2    1
 466:Inc/partition_stm32n657xx.h **** 
 467:Inc/partition_stm32n657xx.h **** /*
 468:Inc/partition_stm32n657xx.h **** // Interrupts 64..95
 469:Inc/partition_stm32n657xx.h **** //   <o.0>  GFXTIM_IRQn               <0=> Secure state
 470:Inc/partition_stm32n657xx.h **** //   <o.1>  GPU2D_IRQn                <0=> Secure state
 471:Inc/partition_stm32n657xx.h **** //   <o.2>  GPU2D_ER_IRQn             <0=> Secure state
 472:Inc/partition_stm32n657xx.h **** //   <o.3>  ICACHE_IRQn               <0=> Secure state
 473:Inc/partition_stm32n657xx.h **** //   <o.4>  HPDMA1_Channel0_IRQn      <0=> Secure state
 474:Inc/partition_stm32n657xx.h **** //   <o.5>  HPDMA1_Channel1_IRQn      <0=> Secure state
 475:Inc/partition_stm32n657xx.h **** //   <o.6>  HPDMA1_Channel2_IRQn      <0=> Secure state
 476:Inc/partition_stm32n657xx.h **** //   <o.7>  HPDMA1_Channel3_IRQn      <0=> Secure state
 477:Inc/partition_stm32n657xx.h **** //   <o.8>  HPDMA1_Channel4_IRQn      <0=> Secure state
 478:Inc/partition_stm32n657xx.h **** //   <o.9>  HPDMA1_Channel5_IRQn      <0=> Secure state
 479:Inc/partition_stm32n657xx.h **** //   <o.10> HPDMA1_Channel6_IRQn      <0=> Secure state
 480:Inc/partition_stm32n657xx.h **** //   <o.11> HPDMA1_Channel7_IRQn      <0=> Secure state
 481:Inc/partition_stm32n657xx.h **** //   <o.12> HPDMA1_Channel8_IRQn      <0=> Secure state
ARM GAS  /tmp/cch9jK6u.s 			page 10


 482:Inc/partition_stm32n657xx.h **** //   <o.13> HPDMA1_Channel9_IRQn      <0=> Secure state
 483:Inc/partition_stm32n657xx.h **** //   <o.14> HPDMA1_Channel10_IRQn     <0=> Secure state
 484:Inc/partition_stm32n657xx.h **** //   <o.15> HPDMA1_Channel11_IRQn     <0=> Secure state
 485:Inc/partition_stm32n657xx.h **** //   <o.16> HPDMA1_Channel12_IRQn     <0=> Secure state
 486:Inc/partition_stm32n657xx.h **** //   <o.17> HPDMA1_Channel13_IRQn     <0=> Secure state
 487:Inc/partition_stm32n657xx.h **** //   <o.18> HPDMA1_Channel14_IRQn     <0=> Secure state
 488:Inc/partition_stm32n657xx.h **** //   <o.19> HPDMA1_Channel15_IRQn     <0=> Secure state
 489:Inc/partition_stm32n657xx.h **** //   <o.20> GPDMA1_Channel0_IRQn      <0=> Secure state
 490:Inc/partition_stm32n657xx.h **** //   <o.21> GPDMA1_Channel1_IRQn      <0=> Secure state
 491:Inc/partition_stm32n657xx.h **** //   <o.22> GPDMA1_Channel2_IRQn      <0=> Secure state
 492:Inc/partition_stm32n657xx.h **** //   <o.23> GPDMA1_Channel3_IRQn      <0=> Secure state
 493:Inc/partition_stm32n657xx.h **** //   <o.24> GPDMA1_Channel4_IRQn      <0=> Secure state
 494:Inc/partition_stm32n657xx.h **** //   <o.25> GPDMA1_Channel5_IRQn      <0=> Secure state
 495:Inc/partition_stm32n657xx.h **** //   <o.26> GPDMA1_Channel6_IRQn      <0=> Secure state
 496:Inc/partition_stm32n657xx.h **** //   <o.27> GPDMA1_Channel7_IRQn      <0=> Secure state
 497:Inc/partition_stm32n657xx.h **** //   <o.28> GPDMA1_Channel8_IRQn      <0=> Secure state
 498:Inc/partition_stm32n657xx.h **** //   <o.29> GPDMA1_Channel9_IRQn      <0=> Secure state
 499:Inc/partition_stm32n657xx.h **** //   <o.30> GPDMA1_Channel10_IRQn     <0=> Secure state
 500:Inc/partition_stm32n657xx.h **** //   <o.31> GPDMA1_Channel11_IRQn     <0=> Secure state
 501:Inc/partition_stm32n657xx.h **** */
 502:Inc/partition_stm32n657xx.h **** 
 503:Inc/partition_stm32n657xx.h **** #define NVIC_INIT_ITNS2_VAL      0x00000000
 504:Inc/partition_stm32n657xx.h **** 
 505:Inc/partition_stm32n657xx.h **** /*
 506:Inc/partition_stm32n657xx.h **** //   </e>
 507:Inc/partition_stm32n657xx.h **** */
 508:Inc/partition_stm32n657xx.h **** 
 509:Inc/partition_stm32n657xx.h **** /*
 510:Inc/partition_stm32n657xx.h **** //   <e>Initialize ITNS 3 (Interrupts 96..127)
 511:Inc/partition_stm32n657xx.h **** */
 512:Inc/partition_stm32n657xx.h **** #define NVIC_INIT_ITNS3    1
 513:Inc/partition_stm32n657xx.h **** /*
 514:Inc/partition_stm32n657xx.h **** // Interrupts 96..127
 515:Inc/partition_stm32n657xx.h **** //   <o.0>  GPDMA1_Channel12_IRQn   <0=> Secure state
 516:Inc/partition_stm32n657xx.h **** //   <o.1>  GPDMA1_Channel13_IRQn   <0=> Secure state
 517:Inc/partition_stm32n657xx.h **** //   <o.2>  GPDMA1_Channel14_IRQn   <0=> Secure state
 518:Inc/partition_stm32n657xx.h **** //   <o.3>  GPDMA1_Channel15_IRQn   <0=> Secure state
 519:Inc/partition_stm32n657xx.h **** //   <o.4>  I2C1_EV_IRQn            <0=> Secure state
 520:Inc/partition_stm32n657xx.h **** //   <o.5>  I2C1_ER_IRQn            <0=> Secure state
 521:Inc/partition_stm32n657xx.h **** //   <o.6>  I2C2_EV_IRQn            <0=> Secure state
 522:Inc/partition_stm32n657xx.h **** //   <o.7>  I2C2_ER_IRQn            <0=> Secure state
 523:Inc/partition_stm32n657xx.h **** //   <o.8>  I2C3_EV_IRQn            <0=> Secure state
 524:Inc/partition_stm32n657xx.h **** //   <o.9>  I2C3_ER_IRQn            <0=> Secure state
 525:Inc/partition_stm32n657xx.h **** //   <o.10> I2C4_EV_IRQn            <0=> Secure state
 526:Inc/partition_stm32n657xx.h **** //   <o.11> I2C4_ER_IRQn            <0=> Secure state
 527:Inc/partition_stm32n657xx.h **** //   <o.12> I3C1_EV_IRQn            <0=> Secure state
 528:Inc/partition_stm32n657xx.h **** //   <o.13> I3C1_ER_IRQn            <0=> Secure state
 529:Inc/partition_stm32n657xx.h **** //   <o.14> I3C2_EV_IRQn            <0=> Secure state
 530:Inc/partition_stm32n657xx.h **** //   <o.15> I3C2_ER_IRQn            <0=> Secure state
 531:Inc/partition_stm32n657xx.h **** //   <o.16> TIM1_BRK_IRQn           <0=> Secure state
 532:Inc/partition_stm32n657xx.h **** //   <o.17> TIM1_UP_IRQn            <0=> Secure state
 533:Inc/partition_stm32n657xx.h **** //   <o.18> TIM1_TRG_COM_IRQn       <0=> Secure state
 534:Inc/partition_stm32n657xx.h **** //   <o.19> TIM1_CC_IRQn            <0=> Secure state
 535:Inc/partition_stm32n657xx.h **** //   <o.20> TIM2_IRQn               <0=> Secure state
 536:Inc/partition_stm32n657xx.h **** //   <o.21> TIM3_IRQn               <0=> Secure state
 537:Inc/partition_stm32n657xx.h **** //   <o.22> TIM4_IRQn               <0=> Secure state
 538:Inc/partition_stm32n657xx.h **** //   <o.23> TIM5_IRQn               <0=> Secure state
ARM GAS  /tmp/cch9jK6u.s 			page 11


 539:Inc/partition_stm32n657xx.h **** //   <o.24> TIM6_IRQn               <0=> Secure state
 540:Inc/partition_stm32n657xx.h **** //   <o.25> TIM7_IRQn               <0=> Secure state
 541:Inc/partition_stm32n657xx.h **** //   <o.26> TIM8_BRK_IRQn           <0=> Secure state
 542:Inc/partition_stm32n657xx.h **** //   <o.27> TIM8_UP_IRQn            <0=> Secure state
 543:Inc/partition_stm32n657xx.h **** //   <o.28> TIM8_TRG_COM_IRQn       <0=> Secure state
 544:Inc/partition_stm32n657xx.h **** //   <o.29> TIM8_CC_IRQn            <0=> Secure state
 545:Inc/partition_stm32n657xx.h **** //   <o.30> TIM9_IRQn               <0=> Secure state
 546:Inc/partition_stm32n657xx.h **** //   <o.31> TIM10_IRQn              <0=> Secure state
 547:Inc/partition_stm32n657xx.h **** */
 548:Inc/partition_stm32n657xx.h **** 
 549:Inc/partition_stm32n657xx.h **** #define NVIC_INIT_ITNS3_VAL      0x00000000
 550:Inc/partition_stm32n657xx.h **** 
 551:Inc/partition_stm32n657xx.h **** /*
 552:Inc/partition_stm32n657xx.h **** //   </e>
 553:Inc/partition_stm32n657xx.h **** */
 554:Inc/partition_stm32n657xx.h **** 
 555:Inc/partition_stm32n657xx.h **** /*
 556:Inc/partition_stm32n657xx.h **** //   <e>Initialize ITNS 4 (Interrupts 128..159)
 557:Inc/partition_stm32n657xx.h **** */
 558:Inc/partition_stm32n657xx.h **** #define NVIC_INIT_ITNS4    1
 559:Inc/partition_stm32n657xx.h **** /*
 560:Inc/partition_stm32n657xx.h **** // Interrupts 128..159
 561:Inc/partition_stm32n657xx.h **** //   <o.0>  TIM11_IRQn        <0=> Secure state
 562:Inc/partition_stm32n657xx.h **** //   <o.1>  TIM12_IRQn        <0=> Secure state
 563:Inc/partition_stm32n657xx.h **** //   <o.2>  TIM13_IRQn        <0=> Secure state
 564:Inc/partition_stm32n657xx.h **** //   <o.3>  TIM14_IRQn        <0=> Secure state
 565:Inc/partition_stm32n657xx.h **** //   <o.4>  TIM15_IRQn        <0=> Secure state
 566:Inc/partition_stm32n657xx.h **** //   <o.5>  TIM16_IRQn        <0=> Secure state
 567:Inc/partition_stm32n657xx.h **** //   <o.6>  TIM17_IRQn        <0=> Secure state
 568:Inc/partition_stm32n657xx.h **** //   <o.7>  TIM18_IRQn        <0=> Secure state
 569:Inc/partition_stm32n657xx.h **** //   <o.8>  LPTIM1_IRQn       <0=> Secure state
 570:Inc/partition_stm32n657xx.h **** //   <o.9>  LPTIM2_IRQn       <0=> Secure state
 571:Inc/partition_stm32n657xx.h **** //   <o.10> LPTIM3_IRQn       <0=> Secure state
 572:Inc/partition_stm32n657xx.h **** //   <o.11> LPTIM4_IRQn       <0=> Secure state
 573:Inc/partition_stm32n657xx.h **** //   <o.12> LPTIM5_IRQn       <0=> Secure state
 574:Inc/partition_stm32n657xx.h **** //   <o.13> ADF1_FLT0_IRQn    <0=> Secure state
 575:Inc/partition_stm32n657xx.h **** //   <o.14> MDF1_FLT0_IRQn    <0=> Secure state
 576:Inc/partition_stm32n657xx.h **** //   <o.15> MDF1_FLT1_IRQn    <0=> Secure state
 577:Inc/partition_stm32n657xx.h **** //   <o.16> MDF1_FLT2_IRQn    <0=> Secure state
 578:Inc/partition_stm32n657xx.h **** //   <o.17> MDF1_FLT3_IRQn    <0=> Secure state
 579:Inc/partition_stm32n657xx.h **** //   <o.18> MDF1_FLT4_IRQn    <0=> Secure state
 580:Inc/partition_stm32n657xx.h **** //   <o.19> MDF1_FLT5_IRQn    <0=> Secure state
 581:Inc/partition_stm32n657xx.h **** //   <o.20> SAI1_A_IRQn       <0=> Secure state
 582:Inc/partition_stm32n657xx.h **** //   <o.21> SAI1_B_IRQn       <0=> Secure state
 583:Inc/partition_stm32n657xx.h **** //   <o.22> SAI2_A_IRQn       <0=> Secure state
 584:Inc/partition_stm32n657xx.h **** //   <o.23> SAI2_B_IRQn       <0=> Secure state
 585:Inc/partition_stm32n657xx.h **** //   <o.24> SPDIFRX1_IRQn     <0=> Secure state
 586:Inc/partition_stm32n657xx.h **** //   <o.25> SPI1_IRQn         <0=> Secure state
 587:Inc/partition_stm32n657xx.h **** //   <o.26> SPI2_IRQn         <0=> Secure state
 588:Inc/partition_stm32n657xx.h **** //   <o.27> SPI3_IRQn         <0=> Secure state
 589:Inc/partition_stm32n657xx.h **** //   <o.28> SPI4_IRQn         <0=> Secure state
 590:Inc/partition_stm32n657xx.h **** //   <o.29> SPI5_IRQn         <0=> Secure state
 591:Inc/partition_stm32n657xx.h **** //   <o.30> SPI6_IRQn         <0=> Secure state
 592:Inc/partition_stm32n657xx.h **** //   <o.31> USART1_IRQn       <0=> Secure state
 593:Inc/partition_stm32n657xx.h **** */
 594:Inc/partition_stm32n657xx.h **** 
 595:Inc/partition_stm32n657xx.h **** #define NVIC_INIT_ITNS4_VAL      0x00000000
ARM GAS  /tmp/cch9jK6u.s 			page 12


 596:Inc/partition_stm32n657xx.h **** 
 597:Inc/partition_stm32n657xx.h **** /*
 598:Inc/partition_stm32n657xx.h **** //   </e>
 599:Inc/partition_stm32n657xx.h **** */
 600:Inc/partition_stm32n657xx.h **** 
 601:Inc/partition_stm32n657xx.h **** /*
 602:Inc/partition_stm32n657xx.h **** //   <e>Initialize ITNS 5 (Interrupts 160..191)
 603:Inc/partition_stm32n657xx.h **** */
 604:Inc/partition_stm32n657xx.h **** #define NVIC_INIT_ITNS5    1
 605:Inc/partition_stm32n657xx.h **** /*
 606:Inc/partition_stm32n657xx.h **** // Interrupts 160..191
 607:Inc/partition_stm32n657xx.h **** //   <o.0>  USART2_IRQn         <0=> Secure state
 608:Inc/partition_stm32n657xx.h **** //   <o.1>  USART3_IRQn         <0=> Secure state
 609:Inc/partition_stm32n657xx.h **** //   <o.2>  UART4_IRQn          <0=> Secure state
 610:Inc/partition_stm32n657xx.h **** //   <o.3>  UART5_IRQn          <0=> Secure state
 611:Inc/partition_stm32n657xx.h **** //   <o.4>  USART6_IRQn         <0=> Secure state
 612:Inc/partition_stm32n657xx.h **** //   <o.5>  UART7_IRQn          <0=> Secure state
 613:Inc/partition_stm32n657xx.h **** //   <o.6>  UART8_IRQn          <0=> Secure state
 614:Inc/partition_stm32n657xx.h **** //   <o.7>  UART9_IRQn          <0=> Secure state
 615:Inc/partition_stm32n657xx.h **** //   <o.8>  USART10_IRQn        <0=> Secure state
 616:Inc/partition_stm32n657xx.h **** //   <o.9>  LPUART1_IRQn        <0=> Secure state
 617:Inc/partition_stm32n657xx.h **** //   <o.10> XSPI1_IRQn          <0=> Secure state
 618:Inc/partition_stm32n657xx.h **** //   <o.11> XSPI2_IRQn          <0=> Secure state
 619:Inc/partition_stm32n657xx.h **** //   <o.12> XSPI3_IRQn          <0=> Secure state
 620:Inc/partition_stm32n657xx.h **** //   <o.13> FMC_IRQn            <0=> Secure state
 621:Inc/partition_stm32n657xx.h **** //   <o.14> SDMMC1_IRQn         <0=> Secure state
 622:Inc/partition_stm32n657xx.h **** //   <o.15> SDMMC2_IRQn         <0=> Secure state
 623:Inc/partition_stm32n657xx.h **** //   <o.16> UCPD1_IRQn          <0=> Secure state
 624:Inc/partition_stm32n657xx.h **** //   <o.17> USB1_OTG_HS_IRQn    <0=> Secure state
 625:Inc/partition_stm32n657xx.h **** //   <o.18> USB2_OTG_HS_IRQn    <0=> Secure state
 626:Inc/partition_stm32n657xx.h **** //   <o.19> ETH1_IRQn           <0=> Secure state
 627:Inc/partition_stm32n657xx.h **** //   <o.20> FDCAN1_IT0_IRQn     <0=> Secure state
 628:Inc/partition_stm32n657xx.h **** //   <o.21> FDCAN1_IT1_IRQn     <0=> Secure state
 629:Inc/partition_stm32n657xx.h **** //   <o.22> FDCAN2_IT0_IRQn     <0=> Secure state
 630:Inc/partition_stm32n657xx.h **** //   <o.23> FDCAN2_IT1_IRQn     <0=> Secure state
 631:Inc/partition_stm32n657xx.h **** //   <o.24> FDCAN3_IT0_IRQn     <0=> Secure state
 632:Inc/partition_stm32n657xx.h **** //   <o.25> FDCAN3_IT1_IRQn     <0=> Secure state
 633:Inc/partition_stm32n657xx.h **** //   <o.26> FDCAN_CU_IRQn       <0=> Secure state
 634:Inc/partition_stm32n657xx.h **** //   <o.27> MDIOS_IRQn          <0=> Secure state
 635:Inc/partition_stm32n657xx.h **** //   <o.28> DCMI_PSSI_IRQn      <0=> Secure state
 636:Inc/partition_stm32n657xx.h **** //   <o.29> WAKEUP_PIN_IRQn     <0=> Secure state
 637:Inc/partition_stm32n657xx.h **** //   <o.30> CTI_INT0_IRQn       <0=> Secure state
 638:Inc/partition_stm32n657xx.h **** //   <o.31> CTI_INT1_IRQn       <0=> Secure state
 639:Inc/partition_stm32n657xx.h **** */
 640:Inc/partition_stm32n657xx.h **** 
 641:Inc/partition_stm32n657xx.h **** #define NVIC_INIT_ITNS5_VAL      0x00000000
 642:Inc/partition_stm32n657xx.h **** 
 643:Inc/partition_stm32n657xx.h **** /*
 644:Inc/partition_stm32n657xx.h **** //   </e>
 645:Inc/partition_stm32n657xx.h **** */
 646:Inc/partition_stm32n657xx.h **** 
 647:Inc/partition_stm32n657xx.h **** /*
 648:Inc/partition_stm32n657xx.h **** //   <e>Initialize ITNS 6 (Interrupts 192..223)
 649:Inc/partition_stm32n657xx.h **** */
 650:Inc/partition_stm32n657xx.h **** #define NVIC_INIT_ITNS6    1
 651:Inc/partition_stm32n657xx.h **** /*
 652:Inc/partition_stm32n657xx.h **** // Interrupts 192..223
ARM GAS  /tmp/cch9jK6u.s 			page 13


 653:Inc/partition_stm32n657xx.h **** //   <o.0>  USART2_IRQn         <0=> Secure state
 654:Inc/partition_stm32n657xx.h **** //   <o.1>  USART3_IRQn         <0=> Secure state
 655:Inc/partition_stm32n657xx.h **** //   <o.2>  UART4_IRQn          <0=> Secure state
 656:Inc/partition_stm32n657xx.h **** 
 657:Inc/partition_stm32n657xx.h **** */
 658:Inc/partition_stm32n657xx.h **** #define NVIC_INIT_ITNS6_VAL      0x00000000
 659:Inc/partition_stm32n657xx.h **** 
 660:Inc/partition_stm32n657xx.h **** /*
 661:Inc/partition_stm32n657xx.h **** //   </e>
 662:Inc/partition_stm32n657xx.h **** */
 663:Inc/partition_stm32n657xx.h **** 
 664:Inc/partition_stm32n657xx.h **** /*
 665:Inc/partition_stm32n657xx.h **** // </h>
 666:Inc/partition_stm32n657xx.h **** */
 667:Inc/partition_stm32n657xx.h **** 
 668:Inc/partition_stm32n657xx.h **** /* USER CODE BEGIN 2 */
 669:Inc/partition_stm32n657xx.h **** 
 670:Inc/partition_stm32n657xx.h **** /*
 671:Inc/partition_stm32n657xx.h ****     max 8 SAU regions.
 672:Inc/partition_stm32n657xx.h ****     SAU regions are defined in partition.h
 673:Inc/partition_stm32n657xx.h ****  */
 674:Inc/partition_stm32n657xx.h **** 
 675:Inc/partition_stm32n657xx.h **** #define SAU_INIT_REGION(n) \
 676:Inc/partition_stm32n657xx.h ****     SAU->RNR  =  (n                                     & SAU_RNR_REGION_Msk); \
 677:Inc/partition_stm32n657xx.h ****     SAU->RBAR =  (SAU_INIT_START##n                     & SAU_RBAR_BADDR_Msk); \
 678:Inc/partition_stm32n657xx.h ****     SAU->RLAR =  (SAU_INIT_END##n                       & SAU_RLAR_LADDR_Msk) | \
 679:Inc/partition_stm32n657xx.h ****                 ((SAU_INIT_NSC##n << SAU_RLAR_NSC_Pos)  & SAU_RLAR_NSC_Msk)   | 1U
 680:Inc/partition_stm32n657xx.h **** 
 681:Inc/partition_stm32n657xx.h **** /**
 682:Inc/partition_stm32n657xx.h ****   \brief   Setup a SAU Region
 683:Inc/partition_stm32n657xx.h ****   \details Writes the region information contained in SAU_Region to the
 684:Inc/partition_stm32n657xx.h ****            registers SAU_RNR, SAU_RBAR, and SAU_RLAR
 685:Inc/partition_stm32n657xx.h ****  */
 686:Inc/partition_stm32n657xx.h **** __STATIC_INLINE void TZ_SAU_Setup (void)
 687:Inc/partition_stm32n657xx.h **** {
  34              		.loc 2 687 1 view -0
  35              		.cfi_startproc
  36              		@ args = 0, pretend = 0, frame = 0
  37              		@ frame_needed = 0, uses_anonymous_args = 0
  38              		@ link register save eliminated.
 688:Inc/partition_stm32n657xx.h **** 
 689:Inc/partition_stm32n657xx.h **** #if defined (__SAUREGION_PRESENT) && (__SAUREGION_PRESENT == 1U)
 690:Inc/partition_stm32n657xx.h **** 
 691:Inc/partition_stm32n657xx.h ****   #if defined (SAU_INIT_REGION0) && (SAU_INIT_REGION0 == 1U)
 692:Inc/partition_stm32n657xx.h ****     SAU_INIT_REGION(0);
 693:Inc/partition_stm32n657xx.h ****   #endif
 694:Inc/partition_stm32n657xx.h **** 
 695:Inc/partition_stm32n657xx.h ****   #if defined (SAU_INIT_REGION1) && (SAU_INIT_REGION1 == 1U)
 696:Inc/partition_stm32n657xx.h ****     SAU_INIT_REGION(1);
 697:Inc/partition_stm32n657xx.h ****   #endif
 698:Inc/partition_stm32n657xx.h **** 
 699:Inc/partition_stm32n657xx.h ****   #if defined (SAU_INIT_REGION2) && (SAU_INIT_REGION2 == 1U)
 700:Inc/partition_stm32n657xx.h ****     SAU_INIT_REGION(2);
 701:Inc/partition_stm32n657xx.h ****   #endif
 702:Inc/partition_stm32n657xx.h **** 
 703:Inc/partition_stm32n657xx.h ****   #if defined (SAU_INIT_REGION3) && (SAU_INIT_REGION3 == 1U)
 704:Inc/partition_stm32n657xx.h ****     SAU_INIT_REGION(3);
ARM GAS  /tmp/cch9jK6u.s 			page 14


 705:Inc/partition_stm32n657xx.h ****   #endif
 706:Inc/partition_stm32n657xx.h **** 
 707:Inc/partition_stm32n657xx.h ****   #if defined (SAU_INIT_REGION4) && (SAU_INIT_REGION4 == 1U)
 708:Inc/partition_stm32n657xx.h ****     SAU_INIT_REGION(4);
 709:Inc/partition_stm32n657xx.h ****   #endif
 710:Inc/partition_stm32n657xx.h **** 
 711:Inc/partition_stm32n657xx.h ****   #if defined (SAU_INIT_REGION5) && (SAU_INIT_REGION5 == 1U)
 712:Inc/partition_stm32n657xx.h ****     SAU_INIT_REGION(5);
 713:Inc/partition_stm32n657xx.h ****   #endif
 714:Inc/partition_stm32n657xx.h **** 
 715:Inc/partition_stm32n657xx.h ****   #if defined (SAU_INIT_REGION6) && (SAU_INIT_REGION6 == 1U)
 716:Inc/partition_stm32n657xx.h ****     SAU_INIT_REGION(6);
 717:Inc/partition_stm32n657xx.h ****   #endif
 718:Inc/partition_stm32n657xx.h **** 
 719:Inc/partition_stm32n657xx.h ****   #if defined (SAU_INIT_REGION7) && (SAU_INIT_REGION7 == 1U)
 720:Inc/partition_stm32n657xx.h ****     SAU_INIT_REGION(7);
 721:Inc/partition_stm32n657xx.h ****   #endif
 722:Inc/partition_stm32n657xx.h **** 
 723:Inc/partition_stm32n657xx.h ****   /* repeat this for all possible SAU regions */
 724:Inc/partition_stm32n657xx.h **** 
 725:Inc/partition_stm32n657xx.h **** #endif /* defined (__SAUREGION_PRESENT) && (__SAUREGION_PRESENT == 1U) */
 726:Inc/partition_stm32n657xx.h **** 
 727:Inc/partition_stm32n657xx.h ****   #if defined (SAU_INIT_CTRL) && (SAU_INIT_CTRL == 1U)
 728:Inc/partition_stm32n657xx.h ****     SAU->CTRL = ((SAU_INIT_CTRL_ENABLE << SAU_CTRL_ENABLE_Pos) & SAU_CTRL_ENABLE_Msk) |
 729:Inc/partition_stm32n657xx.h ****                 ((SAU_INIT_CTRL_ALLNS  << SAU_CTRL_ALLNS_Pos)  & SAU_CTRL_ALLNS_Msk)   ;
 730:Inc/partition_stm32n657xx.h ****   #endif
 731:Inc/partition_stm32n657xx.h **** 
 732:Inc/partition_stm32n657xx.h ****   #if defined (SCB_CSR_AIRCR_INIT) && (SCB_CSR_AIRCR_INIT == 1U)
 733:Inc/partition_stm32n657xx.h ****     SCB->SCR   = (SCB->SCR   & ~(SCB_SCR_SLEEPDEEPS_Msk    )) |
 734:Inc/partition_stm32n657xx.h ****                    ((SCB_CSR_DEEPSLEEPS_VAL     << SCB_SCR_SLEEPDEEPS_Pos)     & SCB_SCR_SLEEPDEEPS
 735:Inc/partition_stm32n657xx.h **** 
 736:Inc/partition_stm32n657xx.h ****     SCB->AIRCR = (SCB->AIRCR & ~(SCB_AIRCR_VECTKEY_Msk   | SCB_AIRCR_SYSRESETREQS_Msk |
 737:Inc/partition_stm32n657xx.h ****                                  SCB_AIRCR_BFHFNMINS_Msk | SCB_AIRCR_PRIS_Msk)        )            
 738:Inc/partition_stm32n657xx.h ****                    ((0x05FAU                    << SCB_AIRCR_VECTKEY_Pos)      & SCB_AIRCR_VECTKEY_
 739:Inc/partition_stm32n657xx.h ****                    ((SCB_AIRCR_SYSRESETREQS_VAL << SCB_AIRCR_SYSRESETREQS_Pos) & SCB_AIRCR_SYSRESET
 740:Inc/partition_stm32n657xx.h ****                    ((SCB_AIRCR_PRIS_VAL         << SCB_AIRCR_PRIS_Pos)         & SCB_AIRCR_PRIS_Msk
 741:Inc/partition_stm32n657xx.h ****                    ((SCB_AIRCR_BFHFNMINS_VAL    << SCB_AIRCR_BFHFNMINS_Pos)    & SCB_AIRCR_BFHFNMIN
 742:Inc/partition_stm32n657xx.h ****   #endif /* defined (SCB_CSR_AIRCR_INIT) && (SCB_CSR_AIRCR_INIT == 1U) */
 743:Inc/partition_stm32n657xx.h **** 
 744:Inc/partition_stm32n657xx.h ****   #if defined (__FPU_USED) && (__FPU_USED == 1U) && \
 745:Inc/partition_stm32n657xx.h ****       defined (TZ_FPU_NS_USAGE) && (TZ_FPU_NS_USAGE == 1U)
 746:Inc/partition_stm32n657xx.h **** 
 747:Inc/partition_stm32n657xx.h ****     SCB->NSACR = (SCB->NSACR & ~(SCB_NSACR_CP10_Msk | SCB_NSACR_CP11_Msk)) |
  39              		.loc 2 747 5 view .LVU1
  40              		.loc 2 747 22 is_stmt 0 view .LVU2
  41 0000 0F4A     		ldr	r2, .L2
  42 0002 D2F88C30 		ldr	r3, [r2, #140]
  43              		.loc 2 747 76 view .LVU3
  44 0006 43F44063 		orr	r3, r3, #3072
  45              		.loc 2 747 16 view .LVU4
  46 000a C2F88C30 		str	r3, [r2, #140]
 748:Inc/partition_stm32n657xx.h ****                    ((SCB_NSACR_CP10_11_VAL << SCB_NSACR_CP10_Pos) & (SCB_NSACR_CP10_Msk | SCB_NSACR
 749:Inc/partition_stm32n657xx.h **** 
 750:Inc/partition_stm32n657xx.h ****     FPU->FPCCR = (FPU->FPCCR & ~(FPU_FPCCR_TS_Msk | FPU_FPCCR_CLRONRETS_Msk | FPU_FPCCR_CLRONRET_Ms
  47              		.loc 2 750 5 is_stmt 1 view .LVU5
  48              		.loc 2 750 22 is_stmt 0 view .LVU6
  49 000e 02F50072 		add	r2, r2, #512
ARM GAS  /tmp/cch9jK6u.s 			page 15


  50 0012 536B     		ldr	r3, [r2, #52]
 751:Inc/partition_stm32n657xx.h ****                    ((FPU_FPCCR_TS_VAL        << FPU_FPCCR_TS_Pos       ) & FPU_FPCCR_TS_Msk       )
  51              		.loc 2 751 101 view .LVU7
  52 0014 23F0E053 		bic	r3, r3, #469762048
 752:Inc/partition_stm32n657xx.h ****                    ((FPU_FPCCR_CLRONRETS_VAL << FPU_FPCCR_CLRONRETS_Pos) & FPU_FPCCR_CLRONRETS_Msk)
  53              		.loc 2 752 101 view .LVU8
  54 0018 43F08053 		orr	r3, r3, #268435456
 750:Inc/partition_stm32n657xx.h ****                    ((FPU_FPCCR_TS_VAL        << FPU_FPCCR_TS_Pos       ) & FPU_FPCCR_TS_Msk       )
  55              		.loc 2 750 16 view .LVU9
  56 001c 5363     		str	r3, [r2, #52]
 753:Inc/partition_stm32n657xx.h ****                    ((FPU_FPCCR_CLRONRET_VAL  << FPU_FPCCR_CLRONRET_Pos ) & FPU_FPCCR_CLRONRET_Msk )
 754:Inc/partition_stm32n657xx.h ****   #endif
 755:Inc/partition_stm32n657xx.h **** 
 756:Inc/partition_stm32n657xx.h ****   #if defined (NVIC_INIT_ITNS0) && (NVIC_INIT_ITNS0 == 1U)
 757:Inc/partition_stm32n657xx.h ****     NVIC->ITNS[0] = NVIC_INIT_ITNS0_VAL;
  57              		.loc 2 757 5 is_stmt 1 view .LVU10
  58              		.loc 2 757 19 is_stmt 0 view .LVU11
  59 001e 094B     		ldr	r3, .L2+4
  60 0020 0022     		movs	r2, #0
  61 0022 C3F88022 		str	r2, [r3, #640]
 758:Inc/partition_stm32n657xx.h ****   #endif
 759:Inc/partition_stm32n657xx.h **** 
 760:Inc/partition_stm32n657xx.h ****   #if defined (NVIC_INIT_ITNS1) && (NVIC_INIT_ITNS1 == 1U)
 761:Inc/partition_stm32n657xx.h ****     NVIC->ITNS[1] = NVIC_INIT_ITNS1_VAL;
  62              		.loc 2 761 5 is_stmt 1 view .LVU12
  63              		.loc 2 761 19 is_stmt 0 view .LVU13
  64 0026 C3F88422 		str	r2, [r3, #644]
 762:Inc/partition_stm32n657xx.h ****   #endif
 763:Inc/partition_stm32n657xx.h **** 
 764:Inc/partition_stm32n657xx.h ****   #if defined (NVIC_INIT_ITNS2) && (NVIC_INIT_ITNS2 == 1U)
 765:Inc/partition_stm32n657xx.h ****     NVIC->ITNS[2] = NVIC_INIT_ITNS2_VAL;
  65              		.loc 2 765 5 is_stmt 1 view .LVU14
  66              		.loc 2 765 19 is_stmt 0 view .LVU15
  67 002a C3F88822 		str	r2, [r3, #648]
 766:Inc/partition_stm32n657xx.h ****   #endif
 767:Inc/partition_stm32n657xx.h **** 
 768:Inc/partition_stm32n657xx.h ****   #if defined (NVIC_INIT_ITNS3) && (NVIC_INIT_ITNS3 == 1U)
 769:Inc/partition_stm32n657xx.h ****     NVIC->ITNS[3] = NVIC_INIT_ITNS3_VAL;
  68              		.loc 2 769 5 is_stmt 1 view .LVU16
  69              		.loc 2 769 19 is_stmt 0 view .LVU17
  70 002e C3F88C22 		str	r2, [r3, #652]
 770:Inc/partition_stm32n657xx.h ****   #endif
 771:Inc/partition_stm32n657xx.h **** 
 772:Inc/partition_stm32n657xx.h ****   #if defined (NVIC_INIT_ITNS4) && (NVIC_INIT_ITNS4 == 1U)
 773:Inc/partition_stm32n657xx.h ****     NVIC->ITNS[4] = NVIC_INIT_ITNS4_VAL;
  71              		.loc 2 773 5 is_stmt 1 view .LVU18
  72              		.loc 2 773 19 is_stmt 0 view .LVU19
  73 0032 C3F89022 		str	r2, [r3, #656]
 774:Inc/partition_stm32n657xx.h ****   #endif
 775:Inc/partition_stm32n657xx.h **** 
 776:Inc/partition_stm32n657xx.h ****   #if defined (NVIC_INIT_ITNS5) && (NVIC_INIT_ITNS5 == 1U)
 777:Inc/partition_stm32n657xx.h ****     NVIC->ITNS[5] = NVIC_INIT_ITNS5_VAL;
  74              		.loc 2 777 5 is_stmt 1 view .LVU20
  75              		.loc 2 777 19 is_stmt 0 view .LVU21
  76 0036 C3F89422 		str	r2, [r3, #660]
 778:Inc/partition_stm32n657xx.h ****   #endif
 779:Inc/partition_stm32n657xx.h **** 
ARM GAS  /tmp/cch9jK6u.s 			page 16


 780:Inc/partition_stm32n657xx.h ****   #if defined (NVIC_INIT_ITNS6) && (NVIC_INIT_ITNS6 == 1U)
 781:Inc/partition_stm32n657xx.h ****     NVIC->ITNS[6] = NVIC_INIT_ITNS6_VAL;
  77              		.loc 2 781 5 is_stmt 1 view .LVU22
  78              		.loc 2 781 19 is_stmt 0 view .LVU23
  79 003a C3F89822 		str	r2, [r3, #664]
 782:Inc/partition_stm32n657xx.h ****   #endif
 783:Inc/partition_stm32n657xx.h **** 
 784:Inc/partition_stm32n657xx.h **** }
  80              		.loc 2 784 1 view .LVU24
  81 003e 7047     		bx	lr
  82              	.L3:
  83              		.align	2
  84              	.L2:
  85 0040 00ED00E0 		.word	-536810240
  86 0044 00E100E0 		.word	-536813312
  87              		.cfi_endproc
  88              	.LFE881:
  90              		.section	.text.SystemInit,"ax",%progbits
  91              		.align	1
  92              		.global	SystemInit
  93              		.syntax unified
  94              		.thumb
  95              		.thumb_func
  97              	SystemInit:
  98              	.LFB882:
   1:Src/system_stm32n6xx_s.c **** /**
   2:Src/system_stm32n6xx_s.c ****   ******************************************************************************
   3:Src/system_stm32n6xx_s.c ****   * @file    system_stm32n6xx_s.c
   4:Src/system_stm32n6xx_s.c ****   * @author  MCD Application Team
   5:Src/system_stm32n6xx_s.c ****   * @brief   CMSIS Cortex-M55 Device Peripheral Access Layer System Source File
   6:Src/system_stm32n6xx_s.c ****   *          to be used in secure application.
   7:Src/system_stm32n6xx_s.c ****   *
   8:Src/system_stm32n6xx_s.c ****   *   This file provides two functions and one global variable to be called from
   9:Src/system_stm32n6xx_s.c ****   *   user application:
  10:Src/system_stm32n6xx_s.c ****   *      - SystemInit(): This function is called at secure startup just after reset
  11:Src/system_stm32n6xx_s.c ****   *                      and before branch to secure main program.
  12:Src/system_stm32n6xx_s.c ****   *                      This call is made inside the "startup_stm32n6xx.s" file.
  13:Src/system_stm32n6xx_s.c ****   *
  14:Src/system_stm32n6xx_s.c ****   *      - SystemCoreClock variable: Contains the CPU core clock, it can be used
  15:Src/system_stm32n6xx_s.c ****   *                                  by the user application to setup the SysTick
  16:Src/system_stm32n6xx_s.c ****   *                                  timer or configure other parameters.
  17:Src/system_stm32n6xx_s.c ****   *
  18:Src/system_stm32n6xx_s.c ****   *      - SystemCoreClockUpdate(): Updates the variable SystemCoreClock and must
  19:Src/system_stm32n6xx_s.c ****   *                                 be called whenever the core clock is changed
  20:Src/system_stm32n6xx_s.c ****   *                                 during program execution.
  21:Src/system_stm32n6xx_s.c ****   *
  22:Src/system_stm32n6xx_s.c ****   *      - SECURE_SystemCoreClockUpdate(): Non-secure callable function to update
  23:Src/system_stm32n6xx_s.c ****   *                                        the variable SystemCoreClock and return
  24:Src/system_stm32n6xx_s.c ****   *                                        its value to the non-secure calling
  25:Src/system_stm32n6xx_s.c ****   *                                        application. It must be called whenever
  26:Src/system_stm32n6xx_s.c ****   *                                        the core clock is changed during program
  27:Src/system_stm32n6xx_s.c ****   *                                        execution.
  28:Src/system_stm32n6xx_s.c ****   *
  29:Src/system_stm32n6xx_s.c ****   *   After each device reset the HSI (64 MHz) is used as system clock source.
  30:Src/system_stm32n6xx_s.c ****   *   Then SystemInit() function is called, in "startup_stm32n6xx.s" file, to
  31:Src/system_stm32n6xx_s.c ****   *   configure the system before to branch to main program.
  32:Src/system_stm32n6xx_s.c ****   *
ARM GAS  /tmp/cch9jK6u.s 			page 17


  33:Src/system_stm32n6xx_s.c ****   ******************************************************************************
  34:Src/system_stm32n6xx_s.c ****   * @attention
  35:Src/system_stm32n6xx_s.c ****   *
  36:Src/system_stm32n6xx_s.c ****   * Copyright (c) 2023 STMicroelectronics.
  37:Src/system_stm32n6xx_s.c ****   * All rights reserved.
  38:Src/system_stm32n6xx_s.c ****   *
  39:Src/system_stm32n6xx_s.c ****   * This software is licensed under terms that can be found in the LICENSE file
  40:Src/system_stm32n6xx_s.c ****   * in the root directory of this software component.
  41:Src/system_stm32n6xx_s.c ****   * If no LICENSE file comes with this software, it is provided AS-IS.
  42:Src/system_stm32n6xx_s.c ****   *
  43:Src/system_stm32n6xx_s.c ****   ******************************************************************************
  44:Src/system_stm32n6xx_s.c ****   */
  45:Src/system_stm32n6xx_s.c **** 
  46:Src/system_stm32n6xx_s.c **** /** @addtogroup CMSIS
  47:Src/system_stm32n6xx_s.c ****   * @{
  48:Src/system_stm32n6xx_s.c ****   */
  49:Src/system_stm32n6xx_s.c **** 
  50:Src/system_stm32n6xx_s.c **** /** @addtogroup STM32N6xx_System
  51:Src/system_stm32n6xx_s.c ****   * @{
  52:Src/system_stm32n6xx_s.c ****   */
  53:Src/system_stm32n6xx_s.c **** 
  54:Src/system_stm32n6xx_s.c **** /** @addtogroup STM32N6xx_System_Private_Includes
  55:Src/system_stm32n6xx_s.c ****   * @{
  56:Src/system_stm32n6xx_s.c ****   */
  57:Src/system_stm32n6xx_s.c **** 
  58:Src/system_stm32n6xx_s.c **** #include "stm32n6xx.h"
  59:Src/system_stm32n6xx_s.c **** #include "partition_stm32n6xx.h"  /* Trustzone-M core secure attributes */
  60:Src/system_stm32n6xx_s.c **** #include <math.h>
  61:Src/system_stm32n6xx_s.c **** 
  62:Src/system_stm32n6xx_s.c **** /**
  63:Src/system_stm32n6xx_s.c ****   * @}
  64:Src/system_stm32n6xx_s.c ****   */
  65:Src/system_stm32n6xx_s.c **** 
  66:Src/system_stm32n6xx_s.c **** /** @addtogroup STM32N6xx_System_Private_TypesDefinitions
  67:Src/system_stm32n6xx_s.c ****   * @{
  68:Src/system_stm32n6xx_s.c ****   */
  69:Src/system_stm32n6xx_s.c **** 
  70:Src/system_stm32n6xx_s.c **** #if defined ( __ICCARM__ )
  71:Src/system_stm32n6xx_s.c **** #  define CMSE_NS_ENTRY __cmse_nonsecure_entry
  72:Src/system_stm32n6xx_s.c **** #else
  73:Src/system_stm32n6xx_s.c **** #  define CMSE_NS_ENTRY __attribute((cmse_nonsecure_entry))
  74:Src/system_stm32n6xx_s.c **** #endif
  75:Src/system_stm32n6xx_s.c **** 
  76:Src/system_stm32n6xx_s.c **** /**
  77:Src/system_stm32n6xx_s.c ****   * @}
  78:Src/system_stm32n6xx_s.c ****   */
  79:Src/system_stm32n6xx_s.c **** 
  80:Src/system_stm32n6xx_s.c **** /** @addtogroup STM32N6xx_System_Private_Defines
  81:Src/system_stm32n6xx_s.c ****   * @{
  82:Src/system_stm32n6xx_s.c ****   */
  83:Src/system_stm32n6xx_s.c **** #if !defined  (HSE_VALUE)
  84:Src/system_stm32n6xx_s.c **** #define HSE_VALUE      48000000UL /*!< Value of the High-Speed External oscillator in Hz */
  85:Src/system_stm32n6xx_s.c **** #endif /* HSE_VALUE */
  86:Src/system_stm32n6xx_s.c **** 
  87:Src/system_stm32n6xx_s.c **** #if !defined  (HSI_VALUE)
  88:Src/system_stm32n6xx_s.c **** #define HSI_VALUE      64000000UL /*!< Value of the High-Speed Internal oscillator in Hz */
  89:Src/system_stm32n6xx_s.c **** #endif /* HSI_VALUE */
ARM GAS  /tmp/cch9jK6u.s 			page 18


  90:Src/system_stm32n6xx_s.c **** 
  91:Src/system_stm32n6xx_s.c **** #if !defined  (MSI_VALUE)
  92:Src/system_stm32n6xx_s.c ****   #define MSI_VALUE       4000000UL /*!< Minimum value of the Low-power Internal oscillator in Hz *
  93:Src/system_stm32n6xx_s.c **** #endif /* MSI_VALUE */
  94:Src/system_stm32n6xx_s.c **** 
  95:Src/system_stm32n6xx_s.c **** #if !defined  (EXTERNAL_I2S_CLOCK_VALUE)
  96:Src/system_stm32n6xx_s.c ****   #define EXTERNAL_I2S_CLOCK_VALUE  12288000UL /*!< Value of the External clock for I2S_CKIN in Hz 
  97:Src/system_stm32n6xx_s.c **** #endif /* EXTERNAL_I2S_CLOCK_VALUE */
  98:Src/system_stm32n6xx_s.c **** 
  99:Src/system_stm32n6xx_s.c **** 
 100:Src/system_stm32n6xx_s.c **** /* Note: Following vector table addresses must be defined in line with linker
 101:Src/system_stm32n6xx_s.c ****          configuration. */
 102:Src/system_stm32n6xx_s.c **** /*!< Uncomment the following line if you need to relocate the vector table
 103:Src/system_stm32n6xx_s.c ****      anywhere in memory, else the vector table is kept at the automatic
 104:Src/system_stm32n6xx_s.c ****      selected boot address */
 105:Src/system_stm32n6xx_s.c **** /* #define USER_VECT_TAB_ADDRESS */
 106:Src/system_stm32n6xx_s.c **** 
 107:Src/system_stm32n6xx_s.c **** #if defined(USER_VECT_TAB_ADDRESS)
 108:Src/system_stm32n6xx_s.c **** #if !defined(VECT_TAB_BASE_ADDRESS)
 109:Src/system_stm32n6xx_s.c **** #define VECT_TAB_BASE_ADDRESS   SRAM1_AXI_BASE_S /*!< Vector Table base address field.
 110:Src/system_stm32n6xx_s.c ****                                                      This value must be a multiple of 0x400. */
 111:Src/system_stm32n6xx_s.c **** #endif
 112:Src/system_stm32n6xx_s.c **** 
 113:Src/system_stm32n6xx_s.c **** #if !defined(VECT_TAB_OFFSET)
 114:Src/system_stm32n6xx_s.c **** #define VECT_TAB_OFFSET         0x00000000U     /*!< Vector Table base offset field.
 115:Src/system_stm32n6xx_s.c ****                                                      This value must be a multiple of 0x400. */
 116:Src/system_stm32n6xx_s.c **** #endif
 117:Src/system_stm32n6xx_s.c **** #endif /* USER_VECT_TAB_ADDRESS */
 118:Src/system_stm32n6xx_s.c **** 
 119:Src/system_stm32n6xx_s.c **** /******************************************************************************/
 120:Src/system_stm32n6xx_s.c **** /**
 121:Src/system_stm32n6xx_s.c ****   * @}
 122:Src/system_stm32n6xx_s.c ****   */
 123:Src/system_stm32n6xx_s.c **** 
 124:Src/system_stm32n6xx_s.c **** /** @addtogroup STM32N6xx_System_Private_Macros
 125:Src/system_stm32n6xx_s.c ****   * @{
 126:Src/system_stm32n6xx_s.c ****   */
 127:Src/system_stm32n6xx_s.c **** 
 128:Src/system_stm32n6xx_s.c **** /**
 129:Src/system_stm32n6xx_s.c ****   * @}
 130:Src/system_stm32n6xx_s.c ****   */
 131:Src/system_stm32n6xx_s.c **** 
 132:Src/system_stm32n6xx_s.c **** /** @addtogroup STM32N6xx_System_Private_Variables
 133:Src/system_stm32n6xx_s.c ****   * @{
 134:Src/system_stm32n6xx_s.c ****   */
 135:Src/system_stm32n6xx_s.c ****   /* The SystemCoreClock variable is updated in three ways:
 136:Src/system_stm32n6xx_s.c ****       1) by calling CMSIS function SystemCoreClockUpdate()
 137:Src/system_stm32n6xx_s.c ****       2) by calling HAL API function HAL_RCC_GetHCLKFreq()
 138:Src/system_stm32n6xx_s.c ****       3) each time HAL_RCC_ClockConfig() is called to configure the system clock frequency
 139:Src/system_stm32n6xx_s.c ****          Note: If you use this function to configure the system clock; then there
 140:Src/system_stm32n6xx_s.c ****                is no need to call the 2 first functions listed above, since SystemCoreClock
 141:Src/system_stm32n6xx_s.c ****                variable is updated automatically.
 142:Src/system_stm32n6xx_s.c ****   */
 143:Src/system_stm32n6xx_s.c **** uint32_t SystemCoreClock = HSI_VALUE;
 144:Src/system_stm32n6xx_s.c **** /**
 145:Src/system_stm32n6xx_s.c ****   * @}
 146:Src/system_stm32n6xx_s.c ****   */
ARM GAS  /tmp/cch9jK6u.s 			page 19


 147:Src/system_stm32n6xx_s.c **** 
 148:Src/system_stm32n6xx_s.c **** /** @addtogroup STM32N6xx_System_Private_FunctionPrototypes
 149:Src/system_stm32n6xx_s.c ****   * @{
 150:Src/system_stm32n6xx_s.c ****   */
 151:Src/system_stm32n6xx_s.c **** 
 152:Src/system_stm32n6xx_s.c **** /**
 153:Src/system_stm32n6xx_s.c ****   * @}
 154:Src/system_stm32n6xx_s.c ****   */
 155:Src/system_stm32n6xx_s.c **** 
 156:Src/system_stm32n6xx_s.c **** /** @addtogroup STM32N6xx_System_Private_Functions
 157:Src/system_stm32n6xx_s.c ****   * @{
 158:Src/system_stm32n6xx_s.c ****   */
 159:Src/system_stm32n6xx_s.c **** 
 160:Src/system_stm32n6xx_s.c **** #if defined(__ICCARM__)
 161:Src/system_stm32n6xx_s.c **** extern uint32_t __vector_table;
 162:Src/system_stm32n6xx_s.c **** #define INTVECT_START ((uint32_t)&__vector_table)
 163:Src/system_stm32n6xx_s.c **** #elif defined(__ARMCC_VERSION)
 164:Src/system_stm32n6xx_s.c **** extern void *__Vectors;
 165:Src/system_stm32n6xx_s.c **** #define INTVECT_START ((uint32_t)&__Vectors)
 166:Src/system_stm32n6xx_s.c **** #elif defined(__GNUC__)
 167:Src/system_stm32n6xx_s.c **** extern void *g_pfnVectors;
 168:Src/system_stm32n6xx_s.c **** #define INTVECT_START ((uint32_t)&g_pfnVectors)
 169:Src/system_stm32n6xx_s.c **** #endif
 170:Src/system_stm32n6xx_s.c **** 
 171:Src/system_stm32n6xx_s.c **** /**
 172:Src/system_stm32n6xx_s.c ****   * @brief  Setup the microcontroller system.
 173:Src/system_stm32n6xx_s.c ****   * @retval None
 174:Src/system_stm32n6xx_s.c ****   */
 175:Src/system_stm32n6xx_s.c **** 
 176:Src/system_stm32n6xx_s.c **** void SystemInit(void)
 177:Src/system_stm32n6xx_s.c **** {
  99              		.loc 1 177 1 is_stmt 1 view -0
 100              		.cfi_startproc
 101              		@ args = 0, pretend = 0, frame = 0
 102              		@ frame_needed = 0, uses_anonymous_args = 0
 103 0000 08B5     		push	{r3, lr}
 104              	.LCFI0:
 105              		.cfi_def_cfa_offset 8
 106              		.cfi_offset 3, -8
 107              		.cfi_offset 14, -4
 178:Src/system_stm32n6xx_s.c ****   /* SAU/IDAU, FPU and Interrupts secure/non-secure allocation settings */
 179:Src/system_stm32n6xx_s.c ****   TZ_SAU_Setup();
 108              		.loc 1 179 3 view .LVU26
 109 0002 FFF7FEFF 		bl	TZ_SAU_Setup
 110              	.LVL0:
 180:Src/system_stm32n6xx_s.c **** 
 181:Src/system_stm32n6xx_s.c ****   /* Configure the Vector Table location -------------------------------------*/
 182:Src/system_stm32n6xx_s.c **** #if defined(USER_VECT_TAB_ADDRESS)
 183:Src/system_stm32n6xx_s.c ****   SCB->VTOR = VECT_TAB_BASE_ADDRESS | VECT_TAB_OFFSET;
 184:Src/system_stm32n6xx_s.c **** #else
 185:Src/system_stm32n6xx_s.c ****   SCB->VTOR = INTVECT_START;
 111              		.loc 1 185 3 view .LVU27
 112              		.loc 1 185 13 is_stmt 0 view .LVU28
 113 0006 114A     		ldr	r2, .L6
 114 0008 114B     		ldr	r3, .L6+4
 115 000a 9360     		str	r3, [r2, #8]
 186:Src/system_stm32n6xx_s.c **** #endif  /* USER_VECT_TAB_ADDRESS */
ARM GAS  /tmp/cch9jK6u.s 			page 20


 187:Src/system_stm32n6xx_s.c **** 
 188:Src/system_stm32n6xx_s.c ****   /* System configuration setup */
 189:Src/system_stm32n6xx_s.c ****   RCC->APB4ENSR2 = RCC_APB4ENSR2_SYSCFGENS;
 116              		.loc 1 189 3 is_stmt 1 view .LVU29
 117              		.loc 1 189 18 is_stmt 0 view .LVU30
 118 000c 114B     		ldr	r3, .L6+8
 119 000e 0121     		movs	r1, #1
 120 0010 C3F8781A 		str	r1, [r3, #2680]
 190:Src/system_stm32n6xx_s.c ****   /* Delay after an RCC peripheral clock enabling */
 191:Src/system_stm32n6xx_s.c ****   (void)RCC->APB4ENR2;
 121              		.loc 1 191 3 is_stmt 1 view .LVU31
 122 0014 D3F87802 		ldr	r0, [r3, #632]
 192:Src/system_stm32n6xx_s.c **** 
 193:Src/system_stm32n6xx_s.c ****   /* Set default Vector Table location after system reset or return from Standby */
 194:Src/system_stm32n6xx_s.c ****   SYSCFG->INITSVTORCR = SCB->VTOR;
 123              		.loc 1 194 3 view .LVU32
 124              		.loc 1 194 28 is_stmt 0 view .LVU33
 125 0018 D2F808C0 		ldr	ip, [r2, #8]
 126              		.loc 1 194 23 view .LVU34
 127 001c 0E48     		ldr	r0, .L6+12
 128 001e C0F810C0 		str	ip, [r0, #16]
 195:Src/system_stm32n6xx_s.c ****   /* Read back the value to make sure it is written before deactivating SYSCFG */
 196:Src/system_stm32n6xx_s.c ****   (void) SYSCFG->INITSVTORCR;
 129              		.loc 1 196 3 is_stmt 1 view .LVU35
 130 0022 0069     		ldr	r0, [r0, #16]
 197:Src/system_stm32n6xx_s.c ****   /* Deactivate SYSCFG clock */
 198:Src/system_stm32n6xx_s.c ****   RCC->APB4ENCR2 = RCC_APB4ENCR2_SYSCFGENC;
 131              		.loc 1 198 3 view .LVU36
 132              		.loc 1 198 18 is_stmt 0 view .LVU37
 133 0024 03F58053 		add	r3, r3, #4096
 134 0028 C3F87812 		str	r1, [r3, #632]
 199:Src/system_stm32n6xx_s.c ****   /* FPU settings ------------------------------------------------------------*/
 200:Src/system_stm32n6xx_s.c **** #if (__FPU_PRESENT == 1) && (__FPU_USED == 1)
 201:Src/system_stm32n6xx_s.c ****   SCB->CPACR |= ((3UL << 20U)|(3UL << 22U));  /* set CP10 and CP11 Full Access */
 135              		.loc 1 201 3 is_stmt 1 view .LVU38
 136              		.loc 1 201 6 is_stmt 0 view .LVU39
 137 002c D2F88830 		ldr	r3, [r2, #136]
 138              		.loc 1 201 14 view .LVU40
 139 0030 43F47003 		orr	r3, r3, #15728640
 140 0034 C2F88830 		str	r3, [r2, #136]
 202:Src/system_stm32n6xx_s.c **** 
 203:Src/system_stm32n6xx_s.c ****   SCB_NS->CPACR |= ((3UL << 20U)|(3UL << 22U));  /* set CP10 and CP11 Full Access */
 141              		.loc 1 203 3 is_stmt 1 view .LVU41
 142              		.loc 1 203 9 is_stmt 0 view .LVU42
 143 0038 02F50032 		add	r2, r2, #131072
 144 003c D2F88830 		ldr	r3, [r2, #136]
 145              		.loc 1 203 17 view .LVU43
 146 0040 43F47003 		orr	r3, r3, #15728640
 147 0044 C2F88830 		str	r3, [r2, #136]
 204:Src/system_stm32n6xx_s.c **** #endif /* __FPU_PRESENT && __FPU_USED */
 205:Src/system_stm32n6xx_s.c **** 
 206:Src/system_stm32n6xx_s.c **** }
 148              		.loc 1 206 1 view .LVU44
 149 0048 08BD     		pop	{r3, pc}
 150              	.L7:
 151 004a 00BF     		.align	2
 152              	.L6:
ARM GAS  /tmp/cch9jK6u.s 			page 21


 153 004c 00ED00E0 		.word	-536810240
 154 0050 00000000 		.word	g_pfnVectors
 155 0054 00800256 		.word	1443004416
 156 0058 00800056 		.word	1442873344
 157              		.cfi_endproc
 158              	.LFE882:
 160              		.section	.text.SystemCoreClockUpdate,"ax",%progbits
 161              		.align	1
 162              		.global	SystemCoreClockUpdate
 163              		.syntax unified
 164              		.thumb
 165              		.thumb_func
 167              	SystemCoreClockUpdate:
 168              	.LFB883:
 207:Src/system_stm32n6xx_s.c **** 
 208:Src/system_stm32n6xx_s.c **** /**
 209:Src/system_stm32n6xx_s.c ****   * @brief  Update SystemCoreClock variable according to Clock Register Values.
 210:Src/system_stm32n6xx_s.c ****   *         The SystemCoreClock variable contains the core clock (HCLK), it can
 211:Src/system_stm32n6xx_s.c ****   *         be used by the user application to setup the SysTick timer or configure
 212:Src/system_stm32n6xx_s.c ****   *         other parameters.
 213:Src/system_stm32n6xx_s.c ****   *
 214:Src/system_stm32n6xx_s.c ****   * @note   Depending on secure or non-secure compilation, the adequate RCC peripheral
 215:Src/system_stm32n6xx_s.c ****   *         memory are is accessed thanks to RCC alias defined in stm32n6xxxx.h device file
 216:Src/system_stm32n6xx_s.c ****   *         so either from RCC_S peripheral register mapped memory in secure or from
 217:Src/system_stm32n6xx_s.c ****   *         RCC_NS peripheral register mapped memory in non-secure.
 218:Src/system_stm32n6xx_s.c ****   *
 219:Src/system_stm32n6xx_s.c ****   * @note   Each time the CPU core clock changes, this function must be called
 220:Src/system_stm32n6xx_s.c ****   *         to update SystemCoreClock variable value. Otherwise, any configuration
 221:Src/system_stm32n6xx_s.c ****   *         based on this variable will be incorrect.
 222:Src/system_stm32n6xx_s.c ****   *
 223:Src/system_stm32n6xx_s.c ****   * @note   - The system frequency computed by this function is not the real
 224:Src/system_stm32n6xx_s.c ****   *           frequency in the chip. It is calculated based on the predefined
 225:Src/system_stm32n6xx_s.c ****   *           constant and the selected clock source:
 226:Src/system_stm32n6xx_s.c ****   *
 227:Src/system_stm32n6xx_s.c ****   *           - If CPUCLK source is HSI, SystemCoreClock will contain the HSI_VALUE(*)
 228:Src/system_stm32n6xx_s.c ****   *
 229:Src/system_stm32n6xx_s.c ****   *           - If CPUCLK source is MSI, SystemCoreClock will contain the MSI_VALUE(**)
 230:Src/system_stm32n6xx_s.c ****   *
 231:Src/system_stm32n6xx_s.c ****   *           - If CPUCLK source is HSE, SystemCoreClock will contain the HSE_VALUE(***)
 232:Src/system_stm32n6xx_s.c ****   *
 233:Src/system_stm32n6xx_s.c ****   *           - If CPUCLK source is IC1, SystemCoreClock will contain the HSI_VALUE(*)
 234:Src/system_stm32n6xx_s.c ****   *             or MSI_VALUE(**) or HSE_VALUE(***) or EXTERNAL_I2S_CLOCK_VALUE (****)
 235:Src/system_stm32n6xx_s.c ****   *             multiplied/divided by the PLL factors.
 236:Src/system_stm32n6xx_s.c ****   *
 237:Src/system_stm32n6xx_s.c ****   *         (*) HSI_VALUE default value is 64 MHz.
 238:Src/system_stm32n6xx_s.c ****   *             With the HAL, HSI_VALUE is a constant defined in stm32n6xx_hal_conf.h file
 239:Src/system_stm32n6xx_s.c ****   *             but the real value may vary depending on the variations in voltage and temperature.
 240:Src/system_stm32n6xx_s.c ****   *
 241:Src/system_stm32n6xx_s.c ****   *        (**) MSI_VALUE default value is 4 MHz.
 242:Src/system_stm32n6xx_s.c ****   *             With the HAL, MSI_VALUE is a constant defined in stm32n6xx_hal_conf.h file
 243:Src/system_stm32n6xx_s.c ****   *             but the real value may vary depending on the variations in voltage and temperature.
 244:Src/system_stm32n6xx_s.c ****   *
 245:Src/system_stm32n6xx_s.c ****   *       (***) HSE_VALUE default value is 30 MHz.
 246:Src/system_stm32n6xx_s.c ****   *             With the HAL, HSE_VALUE is a constant defined in stm32n6xx_hal_conf.h file.
 247:Src/system_stm32n6xx_s.c ****   *             User has to ensure that HSE_VALUE is same as the real frequency of the crystal used
 248:Src/system_stm32n6xx_s.c ****   *             Otherwise, this function may have wrong result.
 249:Src/system_stm32n6xx_s.c ****   *
ARM GAS  /tmp/cch9jK6u.s 			page 22


 250:Src/system_stm32n6xx_s.c ****   *      (****) EXTERNAL_I2S_CLOCK_VALUE default value is 12.288 MHz.
 251:Src/system_stm32n6xx_s.c ****   *             With the HAL, EXTERNAL_I2S_CLOCK_VALUE is a constant defined in stm32n6xx_hal_conf.
 252:Src/system_stm32n6xx_s.c ****   *             User has to ensure that EXTERNAL_I2S_CLOCK_VALUE is same as the real I2S_CKIN
 253:Src/system_stm32n6xx_s.c ****   *             pin frequency. Otherwise, this function may have wrong result.
 254:Src/system_stm32n6xx_s.c ****   *
 255:Src/system_stm32n6xx_s.c ****   *         - The result of this function could be not correct when using fractional
 256:Src/system_stm32n6xx_s.c ****   *           value for HSE crystal.
 257:Src/system_stm32n6xx_s.c ****   *
 258:Src/system_stm32n6xx_s.c ****   * @retval None
 259:Src/system_stm32n6xx_s.c ****   */
 260:Src/system_stm32n6xx_s.c **** void SystemCoreClockUpdate(void)
 261:Src/system_stm32n6xx_s.c **** {
 169              		.loc 1 261 1 is_stmt 1 view -0
 170              		.cfi_startproc
 171              		@ args = 0, pretend = 0, frame = 0
 172              		@ frame_needed = 0, uses_anonymous_args = 0
 262:Src/system_stm32n6xx_s.c ****   uint32_t sysclk = 0;
 173              		.loc 1 262 3 view .LVU46
 174              	.LVL1:
 263:Src/system_stm32n6xx_s.c ****   uint32_t pllm = 0;
 175              		.loc 1 263 3 view .LVU47
 264:Src/system_stm32n6xx_s.c ****   uint32_t plln = 0;
 176              		.loc 1 264 3 view .LVU48
 265:Src/system_stm32n6xx_s.c ****   uint32_t pllfracn = 0;
 177              		.loc 1 265 3 view .LVU49
 266:Src/system_stm32n6xx_s.c ****   uint32_t pllp1 = 0;
 178              		.loc 1 266 3 view .LVU50
 267:Src/system_stm32n6xx_s.c ****   uint32_t pllp2 = 0;
 179              		.loc 1 267 3 view .LVU51
 268:Src/system_stm32n6xx_s.c ****   uint32_t pllcfgr, pllsource, pllbypass, ic_divider;
 180              		.loc 1 268 3 view .LVU52
 269:Src/system_stm32n6xx_s.c ****   float_t pllvco;
 181              		.loc 1 269 3 view .LVU53
 270:Src/system_stm32n6xx_s.c **** 
 271:Src/system_stm32n6xx_s.c ****   /* Get CPUCLK source -------------------------------------------------------*/
 272:Src/system_stm32n6xx_s.c ****   switch (RCC->CFGR1 & RCC_CFGR1_CPUSWS)
 182              		.loc 1 272 3 view .LVU54
 183              		.loc 1 272 14 is_stmt 0 view .LVU55
 184 0000 874B     		ldr	r3, .L37
 185 0002 1B6A     		ldr	r3, [r3, #32]
 186              		.loc 1 272 22 view .LVU56
 187 0004 03F44013 		and	r3, r3, #3145728
 188              		.loc 1 272 3 view .LVU57
 189 0008 B3F5001F 		cmp	r3, #2097152
 190 000c 00F00481 		beq	.L24
 191 0010 0CD8     		bhi	.L10
 192 0012 002B     		cmp	r3, #0
 193 0014 49D0     		beq	.L11
 194 0016 B3F5801F 		cmp	r3, #1048576
 195 001a 44D1     		bne	.L13
 273:Src/system_stm32n6xx_s.c ****   {
 274:Src/system_stm32n6xx_s.c ****   case 0:  /* HSI used as system clock source (default after reset) */
 275:Src/system_stm32n6xx_s.c ****     sysclk = HSI_VALUE >> ((RCC->HSICFGR & RCC_HSICFGR_HSIDIV) >> RCC_HSICFGR_HSIDIV_Pos);
 276:Src/system_stm32n6xx_s.c ****     break;
 277:Src/system_stm32n6xx_s.c **** 
 278:Src/system_stm32n6xx_s.c ****   case RCC_CFGR1_CPUSWS_0:  /* MSI used as system clock source */
 279:Src/system_stm32n6xx_s.c ****     if (READ_BIT(RCC->MSICFGR, RCC_MSICFGR_MSIFREQSEL) == 0UL)
ARM GAS  /tmp/cch9jK6u.s 			page 23


 196              		.loc 1 279 5 is_stmt 1 view .LVU58
 197              		.loc 1 279 9 is_stmt 0 view .LVU59
 198 001c 804B     		ldr	r3, .L37
 199 001e 5B6C     		ldr	r3, [r3, #68]
 200              		.loc 1 279 8 view .LVU60
 201 0020 13F4007F 		tst	r3, #512
 202 0024 40F0FA80 		bne	.L25
 280:Src/system_stm32n6xx_s.c ****     {
 281:Src/system_stm32n6xx_s.c ****       sysclk = MSI_VALUE;
 203              		.loc 1 281 14 view .LVU61
 204 0028 7E4B     		ldr	r3, .L37+4
 205 002a 44E0     		b	.L34
 206              	.L10:
 272:Src/system_stm32n6xx_s.c ****   {
 207              		.loc 1 272 3 view .LVU62
 208 002c B3F5401F 		cmp	r3, #3145728
 209 0030 39D1     		bne	.L13
 261:Src/system_stm32n6xx_s.c ****   uint32_t sysclk = 0;
 210              		.loc 1 261 1 view .LVU63
 211 0032 30B5     		push	{r4, r5, lr}
 212              	.LCFI1:
 213              		.cfi_def_cfa_offset 12
 214              		.cfi_offset 4, -12
 215              		.cfi_offset 5, -8
 216              		.cfi_offset 14, -4
 282:Src/system_stm32n6xx_s.c ****     }
 283:Src/system_stm32n6xx_s.c ****     else
 284:Src/system_stm32n6xx_s.c ****     {
 285:Src/system_stm32n6xx_s.c ****       sysclk = 16000000UL;
 286:Src/system_stm32n6xx_s.c ****     }
 287:Src/system_stm32n6xx_s.c ****     break;
 288:Src/system_stm32n6xx_s.c **** 
 289:Src/system_stm32n6xx_s.c ****   case RCC_CFGR1_CPUSWS_1:  /* HSE used as system clock source */
 290:Src/system_stm32n6xx_s.c ****     sysclk = HSE_VALUE;
 291:Src/system_stm32n6xx_s.c ****     break;
 292:Src/system_stm32n6xx_s.c **** 
 293:Src/system_stm32n6xx_s.c ****   case (RCC_CFGR1_CPUSWS_1 | RCC_CFGR1_CPUSWS_0):  /* IC1 used as system clock  source */
 294:Src/system_stm32n6xx_s.c ****     /* Get IC1 clock source parameters */
 295:Src/system_stm32n6xx_s.c ****     switch (READ_BIT(RCC->IC1CFGR, RCC_IC1CFGR_IC1SEL))
 217              		.loc 1 295 5 is_stmt 1 view .LVU64
 218              		.loc 1 295 13 is_stmt 0 view .LVU65
 219 0034 7A4B     		ldr	r3, .L37
 220 0036 D3F8C430 		ldr	r3, [r3, #196]
 221 003a 03F0405E 		and	lr, r3, #805306368
 222              		.loc 1 295 5 view .LVU66
 223 003e BEF1805F 		cmp	lr, #268435456
 224 0042 3BD0     		beq	.L15
 225 0044 BEF1005F 		cmp	lr, #536870912
 226 0048 51D0     		beq	.L16
 227 004a BEF1000F 		cmp	lr, #0
 228 004e 67D1     		bne	.L17
 296:Src/system_stm32n6xx_s.c ****     {
 297:Src/system_stm32n6xx_s.c ****     case 0:  /* PLL1 selected at IC1 clock source */
 298:Src/system_stm32n6xx_s.c ****       pllcfgr = READ_REG(RCC->PLL1CFGR1);
 229              		.loc 1 298 7 is_stmt 1 view .LVU67
 230              		.loc 1 298 15 is_stmt 0 view .LVU68
 231 0050 734B     		ldr	r3, .L37
ARM GAS  /tmp/cch9jK6u.s 			page 24


 232 0052 D3F88020 		ldr	r2, [r3, #128]
 233              	.LVL2:
 299:Src/system_stm32n6xx_s.c ****       pllsource = pllcfgr & RCC_PLL1CFGR1_PLL1SEL;
 234              		.loc 1 299 7 is_stmt 1 view .LVU69
 235              		.loc 1 299 17 is_stmt 0 view .LVU70
 236 0056 02F0E043 		and	r3, r2, #1879048192
 237              	.LVL3:
 300:Src/system_stm32n6xx_s.c ****       pllbypass = pllcfgr & RCC_PLL1CFGR1_PLL1BYP;
 238              		.loc 1 300 7 is_stmt 1 view .LVU71
 301:Src/system_stm32n6xx_s.c ****       if (pllbypass == 0U)
 239              		.loc 1 301 7 view .LVU72
 240              		.loc 1 301 10 is_stmt 0 view .LVU73
 241 005a 12F0006C 		ands	ip, r2, #134217728
 242              	.LVL4:
 243              		.loc 1 301 10 view .LVU74
 244 005e 78D1     		bne	.L26
 302:Src/system_stm32n6xx_s.c ****       {
 303:Src/system_stm32n6xx_s.c ****         pllm = (pllcfgr & RCC_PLL1CFGR1_PLL1DIVM) >>  RCC_PLL1CFGR1_PLL1DIVM_Pos;
 245              		.loc 1 303 9 is_stmt 1 view .LVU75
 246              		.loc 1 303 14 is_stmt 0 view .LVU76
 247 0060 C2F3055E 		ubfx	lr, r2, #20, #6
 248              	.LVL5:
 304:Src/system_stm32n6xx_s.c ****         plln = (pllcfgr & RCC_PLL1CFGR1_PLL1DIVN) >>  RCC_PLL1CFGR1_PLL1DIVN_Pos;
 249              		.loc 1 304 9 is_stmt 1 view .LVU77
 250              		.loc 1 304 14 is_stmt 0 view .LVU78
 251 0064 C2F30B22 		ubfx	r2, r2, #8, #12
 252              	.LVL6:
 305:Src/system_stm32n6xx_s.c ****         pllfracn = READ_BIT(RCC->PLL1CFGR2, RCC_PLL1CFGR2_PLL1DIVNFRAC) >>  RCC_PLL1CFGR2_PLL1DIVNF
 253              		.loc 1 305 9 is_stmt 1 view .LVU79
 254              		.loc 1 305 20 is_stmt 0 view .LVU80
 255 0068 6D49     		ldr	r1, .L37
 256 006a D1F88400 		ldr	r0, [r1, #132]
 257              		.loc 1 305 18 view .LVU81
 258 006e 20F07F40 		bic	r0, r0, #-16777216
 259              	.LVL7:
 306:Src/system_stm32n6xx_s.c ****         pllcfgr = READ_REG(RCC->PLL1CFGR3);
 260              		.loc 1 306 9 is_stmt 1 view .LVU82
 261              		.loc 1 306 17 is_stmt 0 view .LVU83
 262 0072 D1F88810 		ldr	r1, [r1, #136]
 263              	.LVL8:
 307:Src/system_stm32n6xx_s.c ****         pllp1 = (pllcfgr & RCC_PLL1CFGR3_PLL1PDIV1) >>  RCC_PLL1CFGR3_PLL1PDIV1_Pos;
 264              		.loc 1 307 9 is_stmt 1 view .LVU84
 265              		.loc 1 307 15 is_stmt 0 view .LVU85
 266 0076 C1F3C264 		ubfx	r4, r1, #27, #3
 267 007a 2546     		mov	r5, r4
 268              	.LVL9:
 308:Src/system_stm32n6xx_s.c ****         pllp2 = (pllcfgr & RCC_PLL1CFGR3_PLL1PDIV2) >>  RCC_PLL1CFGR3_PLL1PDIV2_Pos;
 269              		.loc 1 308 9 is_stmt 1 view .LVU86
 270              		.loc 1 308 15 is_stmt 0 view .LVU87
 271 007c C1F30261 		ubfx	r1, r1, #24, #3
 272              	.LVL10:
 273              	.L18:
 309:Src/system_stm32n6xx_s.c ****       }
 310:Src/system_stm32n6xx_s.c ****       break;
 311:Src/system_stm32n6xx_s.c ****     case RCC_IC1CFGR_IC1SEL_0:  /* PLL2 selected at IC1 clock source */
 312:Src/system_stm32n6xx_s.c ****       pllcfgr = READ_REG(RCC->PLL2CFGR1);
 313:Src/system_stm32n6xx_s.c ****       pllsource = pllcfgr & RCC_PLL2CFGR1_PLL2SEL;
ARM GAS  /tmp/cch9jK6u.s 			page 25


 314:Src/system_stm32n6xx_s.c ****       pllbypass = pllcfgr & RCC_PLL2CFGR1_PLL2BYP;
 315:Src/system_stm32n6xx_s.c ****       if (pllbypass == 0U)
 316:Src/system_stm32n6xx_s.c ****       {
 317:Src/system_stm32n6xx_s.c ****         pllm = (pllcfgr & RCC_PLL2CFGR1_PLL2DIVM) >>  RCC_PLL2CFGR1_PLL2DIVM_Pos;
 318:Src/system_stm32n6xx_s.c ****         plln = (pllcfgr & RCC_PLL2CFGR1_PLL2DIVN) >>  RCC_PLL2CFGR1_PLL2DIVN_Pos;
 319:Src/system_stm32n6xx_s.c ****         pllfracn = READ_BIT(RCC->PLL2CFGR2, RCC_PLL2CFGR2_PLL2DIVNFRAC) >>  RCC_PLL2CFGR2_PLL2DIVNF
 320:Src/system_stm32n6xx_s.c ****         pllcfgr = READ_REG(RCC->PLL2CFGR3);
 321:Src/system_stm32n6xx_s.c ****         pllp1 = (pllcfgr & RCC_PLL2CFGR3_PLL2PDIV1) >>  RCC_PLL2CFGR3_PLL2PDIV1_Pos;
 322:Src/system_stm32n6xx_s.c ****         pllp2 = (pllcfgr & RCC_PLL2CFGR3_PLL2PDIV2) >>  RCC_PLL2CFGR3_PLL2PDIV2_Pos;
 323:Src/system_stm32n6xx_s.c ****       }
 324:Src/system_stm32n6xx_s.c ****       break;
 325:Src/system_stm32n6xx_s.c **** 
 326:Src/system_stm32n6xx_s.c ****     case RCC_IC1CFGR_IC1SEL_1:  /* PLL3 selected at IC1 clock source */
 327:Src/system_stm32n6xx_s.c ****       pllcfgr = READ_REG(RCC->PLL3CFGR1);
 328:Src/system_stm32n6xx_s.c ****       pllsource = pllcfgr & RCC_PLL3CFGR1_PLL3SEL;
 329:Src/system_stm32n6xx_s.c ****       pllbypass = pllcfgr & RCC_PLL3CFGR1_PLL3BYP;
 330:Src/system_stm32n6xx_s.c ****       if (pllbypass == 0U)
 331:Src/system_stm32n6xx_s.c ****       {
 332:Src/system_stm32n6xx_s.c ****         pllm = (pllcfgr & RCC_PLL3CFGR1_PLL3DIVM) >>  RCC_PLL3CFGR1_PLL3DIVM_Pos;
 333:Src/system_stm32n6xx_s.c ****         plln = (pllcfgr & RCC_PLL3CFGR1_PLL3DIVN) >>  RCC_PLL3CFGR1_PLL3DIVN_Pos;
 334:Src/system_stm32n6xx_s.c ****         pllfracn = READ_BIT(RCC->PLL3CFGR2, RCC_PLL3CFGR2_PLL3DIVNFRAC) >>  RCC_PLL3CFGR2_PLL3DIVNF
 335:Src/system_stm32n6xx_s.c ****         pllcfgr = READ_REG(RCC->PLL3CFGR3);
 336:Src/system_stm32n6xx_s.c ****         pllp1 = (pllcfgr & RCC_PLL3CFGR3_PLL3PDIV1) >>  RCC_PLL3CFGR3_PLL3PDIV1_Pos;
 337:Src/system_stm32n6xx_s.c ****         pllp2 = (pllcfgr & RCC_PLL3CFGR3_PLL3PDIV2) >>  RCC_PLL3CFGR3_PLL3PDIV2_Pos;
 338:Src/system_stm32n6xx_s.c ****       }
 339:Src/system_stm32n6xx_s.c ****       break;
 340:Src/system_stm32n6xx_s.c **** 
 341:Src/system_stm32n6xx_s.c ****     default: /* RCC_IC1CFGR_IC1SEL_1 | RCC_IC1CFGR_IC1SEL_0 */  /* PLL4 selected at IC1 clock sourc
 342:Src/system_stm32n6xx_s.c ****       pllcfgr = READ_REG(RCC->PLL4CFGR1);
 343:Src/system_stm32n6xx_s.c ****       pllsource = pllcfgr & RCC_PLL4CFGR1_PLL4SEL;
 344:Src/system_stm32n6xx_s.c ****       pllbypass = pllcfgr & RCC_PLL4CFGR1_PLL4BYP;
 345:Src/system_stm32n6xx_s.c ****       if (pllbypass == 0U)
 346:Src/system_stm32n6xx_s.c ****       {
 347:Src/system_stm32n6xx_s.c ****         pllm = (pllcfgr & RCC_PLL4CFGR1_PLL4DIVM) >>  RCC_PLL4CFGR1_PLL4DIVM_Pos;
 348:Src/system_stm32n6xx_s.c ****         plln = (pllcfgr & RCC_PLL4CFGR1_PLL4DIVN) >>  RCC_PLL4CFGR1_PLL4DIVN_Pos;
 349:Src/system_stm32n6xx_s.c ****         pllfracn = READ_BIT(RCC->PLL4CFGR2, RCC_PLL4CFGR2_PLL4DIVNFRAC) >>  RCC_PLL4CFGR2_PLL4DIVNF
 350:Src/system_stm32n6xx_s.c ****         pllcfgr = READ_REG(RCC->PLL4CFGR3);
 351:Src/system_stm32n6xx_s.c ****         pllp1 = (pllcfgr & RCC_PLL4CFGR3_PLL4PDIV1) >>  RCC_PLL4CFGR3_PLL4PDIV1_Pos;
 352:Src/system_stm32n6xx_s.c ****         pllp2 = (pllcfgr & RCC_PLL4CFGR3_PLL4PDIV2) >>  RCC_PLL4CFGR3_PLL4PDIV2_Pos;
 353:Src/system_stm32n6xx_s.c ****       }
 354:Src/system_stm32n6xx_s.c ****       break;
 355:Src/system_stm32n6xx_s.c ****     }
 356:Src/system_stm32n6xx_s.c **** 
 357:Src/system_stm32n6xx_s.c ****     /* Get oscillator frequency used as PLL clock source */
 358:Src/system_stm32n6xx_s.c ****     switch (pllsource)
 274              		.loc 1 358 5 is_stmt 1 view .LVU88
 275 0080 B3F1005F 		cmp	r3, #536870912
 276 0084 00F0C280 		beq	.L30
 277              		.loc 1 358 5 is_stmt 0 view .LVU89
 278 0088 7CD8     		bhi	.L20
 279 008a 002B     		cmp	r3, #0
 280 008c 00F0B680 		beq	.L21
 281 0090 B3F1805F 		cmp	r3, #268435456
 282 0094 74D1     		bne	.L36
 359:Src/system_stm32n6xx_s.c ****     {
 360:Src/system_stm32n6xx_s.c ****     case 0:  /* HSI selected as PLL clock source */
 361:Src/system_stm32n6xx_s.c ****       sysclk = HSI_VALUE >> ((RCC->HSICFGR & RCC_HSICFGR_HSIDIV) >> RCC_HSICFGR_HSIDIV_Pos);
ARM GAS  /tmp/cch9jK6u.s 			page 26


 362:Src/system_stm32n6xx_s.c ****       break;
 363:Src/system_stm32n6xx_s.c ****     case RCC_PLL1CFGR1_PLL1SEL_0: /* MSI selected as PLL clock source */
 364:Src/system_stm32n6xx_s.c ****       if (READ_BIT(RCC->MSICFGR, RCC_MSICFGR_MSIFREQSEL) == 0UL)
 283              		.loc 1 364 7 is_stmt 1 view .LVU90
 284              		.loc 1 364 11 is_stmt 0 view .LVU91
 285 0096 624B     		ldr	r3, .L37
 286              	.LVL11:
 287              		.loc 1 364 11 view .LVU92
 288 0098 5B6C     		ldr	r3, [r3, #68]
 289              		.loc 1 364 10 view .LVU93
 290 009a 13F4007F 		tst	r3, #512
 291 009e 40F0B980 		bne	.L32
 365:Src/system_stm32n6xx_s.c ****       {
 366:Src/system_stm32n6xx_s.c ****         sysclk = MSI_VALUE;
 292              		.loc 1 366 16 view .LVU94
 293 00a2 604B     		ldr	r3, .L37+4
 294 00a4 72E0     		b	.L19
 295              	.LVL12:
 296              	.L13:
 297              	.LCFI2:
 298              		.cfi_def_cfa_offset 0
 299              		.cfi_restore 4
 300              		.cfi_restore 5
 301              		.cfi_restore 14
 290:Src/system_stm32n6xx_s.c ****     break;
 302              		.loc 1 290 12 view .LVU95
 303 00a6 0023     		movs	r3, #0
 304 00a8 05E0     		b	.L34
 305              	.L11:
 275:Src/system_stm32n6xx_s.c ****     break;
 306              		.loc 1 275 5 is_stmt 1 view .LVU96
 275:Src/system_stm32n6xx_s.c ****     break;
 307              		.loc 1 275 32 is_stmt 0 view .LVU97
 308 00aa 5D4B     		ldr	r3, .L37
 309 00ac 9A6C     		ldr	r2, [r3, #72]
 275:Src/system_stm32n6xx_s.c ****     break;
 310              		.loc 1 275 64 view .LVU98
 311 00ae C2F3C112 		ubfx	r2, r2, #7, #2
 275:Src/system_stm32n6xx_s.c ****     break;
 312              		.loc 1 275 12 view .LVU99
 313 00b2 5D4B     		ldr	r3, .L37+8
 314 00b4 D340     		lsrs	r3, r3, r2
 315              	.LVL13:
 276:Src/system_stm32n6xx_s.c **** 
 316              		.loc 1 276 5 is_stmt 1 view .LVU100
 317              	.L34:
 367:Src/system_stm32n6xx_s.c ****       }
 368:Src/system_stm32n6xx_s.c ****       else
 369:Src/system_stm32n6xx_s.c ****       {
 370:Src/system_stm32n6xx_s.c ****         sysclk = 16000000UL;
 371:Src/system_stm32n6xx_s.c ****       }
 372:Src/system_stm32n6xx_s.c ****       break;
 373:Src/system_stm32n6xx_s.c ****     case RCC_PLL1CFGR1_PLL1SEL_1: /* HSE selected as PLL clock source */
 374:Src/system_stm32n6xx_s.c ****       sysclk = HSE_VALUE;
 375:Src/system_stm32n6xx_s.c ****       break;
 376:Src/system_stm32n6xx_s.c ****     case (RCC_PLL1CFGR1_PLL1SEL_1 | RCC_PLL1CFGR1_PLL1SEL_0):  /* I2S_CKIN selected as PLL clock so
 377:Src/system_stm32n6xx_s.c ****       sysclk = EXTERNAL_I2S_CLOCK_VALUE;
ARM GAS  /tmp/cch9jK6u.s 			page 27


 378:Src/system_stm32n6xx_s.c ****       break;
 379:Src/system_stm32n6xx_s.c ****     default:
 380:Src/system_stm32n6xx_s.c ****       /* Nothing to do, should not occur */
 381:Src/system_stm32n6xx_s.c ****       break;
 382:Src/system_stm32n6xx_s.c ****     }
 383:Src/system_stm32n6xx_s.c **** 
 384:Src/system_stm32n6xx_s.c ****     /* Check whether PLL is in bypass mode or not */
 385:Src/system_stm32n6xx_s.c ****     if (pllbypass == 0U)
 386:Src/system_stm32n6xx_s.c ****     {
 387:Src/system_stm32n6xx_s.c ****       /* Compte PLL output frequency (Integer and fractional modes) */
 388:Src/system_stm32n6xx_s.c ****       /* PLLVCO = (Freq * (DIVN + (FRACN / 0x1000000) / DIVM) / (DIVP1 * DIVP2)) */
 389:Src/system_stm32n6xx_s.c ****       pllvco = ((float_t)sysclk * ((float_t)plln + ((float_t)pllfracn/(float_t)0x1000000UL))) / (fl
 390:Src/system_stm32n6xx_s.c ****       sysclk = (uint32_t)((float_t)(pllvco/(((float_t)pllp1) * ((float_t)pllp2))));
 391:Src/system_stm32n6xx_s.c ****     }
 392:Src/system_stm32n6xx_s.c ****     /* Apply IC1 divider */
 393:Src/system_stm32n6xx_s.c ****     ic_divider = (READ_BIT(RCC->IC1CFGR, RCC_IC1CFGR_IC1INT) >> RCC_IC1CFGR_IC1INT_Pos) + 1UL;
 394:Src/system_stm32n6xx_s.c ****     sysclk = sysclk / ic_divider;
 395:Src/system_stm32n6xx_s.c ****     break;
 396:Src/system_stm32n6xx_s.c ****   default:
 397:Src/system_stm32n6xx_s.c ****     /* Nothing to do, should not occur */
 398:Src/system_stm32n6xx_s.c ****     break;
 399:Src/system_stm32n6xx_s.c ****   }
 400:Src/system_stm32n6xx_s.c **** 
 401:Src/system_stm32n6xx_s.c ****   /* Return system clock frequency (CPU frequency) */
 402:Src/system_stm32n6xx_s.c ****   SystemCoreClock = sysclk;
 318              		.loc 1 402 3 view .LVU101
 319              		.loc 1 402 19 is_stmt 0 view .LVU102
 320 00b6 5D4A     		ldr	r2, .L37+12
 321 00b8 1360     		str	r3, [r2]
 322 00ba 7047     		bx	lr
 323              	.LVL14:
 324              	.L15:
 325              	.LCFI3:
 326              		.cfi_def_cfa_offset 12
 327              		.cfi_offset 4, -12
 328              		.cfi_offset 5, -8
 329              		.cfi_offset 14, -4
 312:Src/system_stm32n6xx_s.c ****       pllsource = pllcfgr & RCC_PLL2CFGR1_PLL2SEL;
 330              		.loc 1 312 7 is_stmt 1 view .LVU103
 312:Src/system_stm32n6xx_s.c ****       pllsource = pllcfgr & RCC_PLL2CFGR1_PLL2SEL;
 331              		.loc 1 312 15 is_stmt 0 view .LVU104
 332 00bc 584B     		ldr	r3, .L37
 333 00be D3F89020 		ldr	r2, [r3, #144]
 334              	.LVL15:
 313:Src/system_stm32n6xx_s.c ****       pllbypass = pllcfgr & RCC_PLL2CFGR1_PLL2BYP;
 335              		.loc 1 313 7 is_stmt 1 view .LVU105
 313:Src/system_stm32n6xx_s.c ****       pllbypass = pllcfgr & RCC_PLL2CFGR1_PLL2BYP;
 336              		.loc 1 313 17 is_stmt 0 view .LVU106
 337 00c2 02F0E043 		and	r3, r2, #1879048192
 338              	.LVL16:
 314:Src/system_stm32n6xx_s.c ****       if (pllbypass == 0U)
 339              		.loc 1 314 7 is_stmt 1 view .LVU107
 315:Src/system_stm32n6xx_s.c ****       {
 340              		.loc 1 315 7 view .LVU108
 315:Src/system_stm32n6xx_s.c ****       {
 341              		.loc 1 315 10 is_stmt 0 view .LVU109
 342 00c6 12F0006C 		ands	ip, r2, #134217728
ARM GAS  /tmp/cch9jK6u.s 			page 28


 343              	.LVL17:
 315:Src/system_stm32n6xx_s.c ****       {
 344              		.loc 1 315 10 view .LVU110
 345 00ca 47D1     		bne	.L27
 317:Src/system_stm32n6xx_s.c ****         plln = (pllcfgr & RCC_PLL2CFGR1_PLL2DIVN) >>  RCC_PLL2CFGR1_PLL2DIVN_Pos;
 346              		.loc 1 317 9 is_stmt 1 view .LVU111
 317:Src/system_stm32n6xx_s.c ****         plln = (pllcfgr & RCC_PLL2CFGR1_PLL2DIVN) >>  RCC_PLL2CFGR1_PLL2DIVN_Pos;
 347              		.loc 1 317 14 is_stmt 0 view .LVU112
 348 00cc C2F3055E 		ubfx	lr, r2, #20, #6
 349              	.LVL18:
 318:Src/system_stm32n6xx_s.c ****         pllfracn = READ_BIT(RCC->PLL2CFGR2, RCC_PLL2CFGR2_PLL2DIVNFRAC) >>  RCC_PLL2CFGR2_PLL2DIVNF
 350              		.loc 1 318 9 is_stmt 1 view .LVU113
 318:Src/system_stm32n6xx_s.c ****         pllfracn = READ_BIT(RCC->PLL2CFGR2, RCC_PLL2CFGR2_PLL2DIVNFRAC) >>  RCC_PLL2CFGR2_PLL2DIVNF
 351              		.loc 1 318 14 is_stmt 0 view .LVU114
 352 00d0 C2F30B22 		ubfx	r2, r2, #8, #12
 353              	.LVL19:
 319:Src/system_stm32n6xx_s.c ****         pllcfgr = READ_REG(RCC->PLL2CFGR3);
 354              		.loc 1 319 9 is_stmt 1 view .LVU115
 319:Src/system_stm32n6xx_s.c ****         pllcfgr = READ_REG(RCC->PLL2CFGR3);
 355              		.loc 1 319 20 is_stmt 0 view .LVU116
 356 00d4 5249     		ldr	r1, .L37
 357 00d6 D1F89400 		ldr	r0, [r1, #148]
 319:Src/system_stm32n6xx_s.c ****         pllcfgr = READ_REG(RCC->PLL2CFGR3);
 358              		.loc 1 319 18 view .LVU117
 359 00da 20F07F40 		bic	r0, r0, #-16777216
 360              	.LVL20:
 320:Src/system_stm32n6xx_s.c ****         pllp1 = (pllcfgr & RCC_PLL2CFGR3_PLL2PDIV1) >>  RCC_PLL2CFGR3_PLL2PDIV1_Pos;
 361              		.loc 1 320 9 is_stmt 1 view .LVU118
 320:Src/system_stm32n6xx_s.c ****         pllp1 = (pllcfgr & RCC_PLL2CFGR3_PLL2PDIV1) >>  RCC_PLL2CFGR3_PLL2PDIV1_Pos;
 362              		.loc 1 320 17 is_stmt 0 view .LVU119
 363 00de D1F89810 		ldr	r1, [r1, #152]
 364              	.LVL21:
 321:Src/system_stm32n6xx_s.c ****         pllp2 = (pllcfgr & RCC_PLL2CFGR3_PLL2PDIV2) >>  RCC_PLL2CFGR3_PLL2PDIV2_Pos;
 365              		.loc 1 321 9 is_stmt 1 view .LVU120
 321:Src/system_stm32n6xx_s.c ****         pllp2 = (pllcfgr & RCC_PLL2CFGR3_PLL2PDIV2) >>  RCC_PLL2CFGR3_PLL2PDIV2_Pos;
 366              		.loc 1 321 15 is_stmt 0 view .LVU121
 367 00e2 C1F3C264 		ubfx	r4, r1, #27, #3
 368 00e6 2546     		mov	r5, r4
 369              	.LVL22:
 322:Src/system_stm32n6xx_s.c ****       }
 370              		.loc 1 322 9 is_stmt 1 view .LVU122
 322:Src/system_stm32n6xx_s.c ****       }
 371              		.loc 1 322 15 is_stmt 0 view .LVU123
 372 00e8 C1F30261 		ubfx	r1, r1, #24, #3
 373              	.LVL23:
 322:Src/system_stm32n6xx_s.c ****       }
 374              		.loc 1 322 15 view .LVU124
 375 00ec C8E7     		b	.L18
 376              	.LVL24:
 377              	.L16:
 327:Src/system_stm32n6xx_s.c ****       pllsource = pllcfgr & RCC_PLL3CFGR1_PLL3SEL;
 378              		.loc 1 327 7 is_stmt 1 view .LVU125
 327:Src/system_stm32n6xx_s.c ****       pllsource = pllcfgr & RCC_PLL3CFGR1_PLL3SEL;
 379              		.loc 1 327 15 is_stmt 0 view .LVU126
 380 00ee 4C4B     		ldr	r3, .L37
 381 00f0 D3F8A020 		ldr	r2, [r3, #160]
 382              	.LVL25:
ARM GAS  /tmp/cch9jK6u.s 			page 29


 328:Src/system_stm32n6xx_s.c ****       pllbypass = pllcfgr & RCC_PLL3CFGR1_PLL3BYP;
 383              		.loc 1 328 7 is_stmt 1 view .LVU127
 328:Src/system_stm32n6xx_s.c ****       pllbypass = pllcfgr & RCC_PLL3CFGR1_PLL3BYP;
 384              		.loc 1 328 17 is_stmt 0 view .LVU128
 385 00f4 02F0E043 		and	r3, r2, #1879048192
 386              	.LVL26:
 329:Src/system_stm32n6xx_s.c ****       if (pllbypass == 0U)
 387              		.loc 1 329 7 is_stmt 1 view .LVU129
 330:Src/system_stm32n6xx_s.c ****       {
 388              		.loc 1 330 7 view .LVU130
 330:Src/system_stm32n6xx_s.c ****       {
 389              		.loc 1 330 10 is_stmt 0 view .LVU131
 390 00f8 12F0006C 		ands	ip, r2, #134217728
 391              	.LVL27:
 330:Src/system_stm32n6xx_s.c ****       {
 392              		.loc 1 330 10 view .LVU132
 393 00fc 34D1     		bne	.L28
 332:Src/system_stm32n6xx_s.c ****         plln = (pllcfgr & RCC_PLL3CFGR1_PLL3DIVN) >>  RCC_PLL3CFGR1_PLL3DIVN_Pos;
 394              		.loc 1 332 9 is_stmt 1 view .LVU133
 332:Src/system_stm32n6xx_s.c ****         plln = (pllcfgr & RCC_PLL3CFGR1_PLL3DIVN) >>  RCC_PLL3CFGR1_PLL3DIVN_Pos;
 395              		.loc 1 332 14 is_stmt 0 view .LVU134
 396 00fe C2F3055E 		ubfx	lr, r2, #20, #6
 397              	.LVL28:
 333:Src/system_stm32n6xx_s.c ****         pllfracn = READ_BIT(RCC->PLL3CFGR2, RCC_PLL3CFGR2_PLL3DIVNFRAC) >>  RCC_PLL3CFGR2_PLL3DIVNF
 398              		.loc 1 333 9 is_stmt 1 view .LVU135
 333:Src/system_stm32n6xx_s.c ****         pllfracn = READ_BIT(RCC->PLL3CFGR2, RCC_PLL3CFGR2_PLL3DIVNFRAC) >>  RCC_PLL3CFGR2_PLL3DIVNF
 399              		.loc 1 333 14 is_stmt 0 view .LVU136
 400 0102 C2F30B22 		ubfx	r2, r2, #8, #12
 401              	.LVL29:
 334:Src/system_stm32n6xx_s.c ****         pllcfgr = READ_REG(RCC->PLL3CFGR3);
 402              		.loc 1 334 9 is_stmt 1 view .LVU137
 334:Src/system_stm32n6xx_s.c ****         pllcfgr = READ_REG(RCC->PLL3CFGR3);
 403              		.loc 1 334 20 is_stmt 0 view .LVU138
 404 0106 4649     		ldr	r1, .L37
 405 0108 D1F8A400 		ldr	r0, [r1, #164]
 334:Src/system_stm32n6xx_s.c ****         pllcfgr = READ_REG(RCC->PLL3CFGR3);
 406              		.loc 1 334 18 view .LVU139
 407 010c 20F07F40 		bic	r0, r0, #-16777216
 408              	.LVL30:
 335:Src/system_stm32n6xx_s.c ****         pllp1 = (pllcfgr & RCC_PLL3CFGR3_PLL3PDIV1) >>  RCC_PLL3CFGR3_PLL3PDIV1_Pos;
 409              		.loc 1 335 9 is_stmt 1 view .LVU140
 335:Src/system_stm32n6xx_s.c ****         pllp1 = (pllcfgr & RCC_PLL3CFGR3_PLL3PDIV1) >>  RCC_PLL3CFGR3_PLL3PDIV1_Pos;
 410              		.loc 1 335 17 is_stmt 0 view .LVU141
 411 0110 D1F8A810 		ldr	r1, [r1, #168]
 412              	.LVL31:
 336:Src/system_stm32n6xx_s.c ****         pllp2 = (pllcfgr & RCC_PLL3CFGR3_PLL3PDIV2) >>  RCC_PLL3CFGR3_PLL3PDIV2_Pos;
 413              		.loc 1 336 9 is_stmt 1 view .LVU142
 336:Src/system_stm32n6xx_s.c ****         pllp2 = (pllcfgr & RCC_PLL3CFGR3_PLL3PDIV2) >>  RCC_PLL3CFGR3_PLL3PDIV2_Pos;
 414              		.loc 1 336 15 is_stmt 0 view .LVU143
 415 0114 C1F3C264 		ubfx	r4, r1, #27, #3
 416 0118 2546     		mov	r5, r4
 417              	.LVL32:
 337:Src/system_stm32n6xx_s.c ****       }
 418              		.loc 1 337 9 is_stmt 1 view .LVU144
 337:Src/system_stm32n6xx_s.c ****       }
 419              		.loc 1 337 15 is_stmt 0 view .LVU145
 420 011a C1F30261 		ubfx	r1, r1, #24, #3
ARM GAS  /tmp/cch9jK6u.s 			page 30


 421              	.LVL33:
 337:Src/system_stm32n6xx_s.c ****       }
 422              		.loc 1 337 15 view .LVU146
 423 011e AFE7     		b	.L18
 424              	.LVL34:
 425              	.L17:
 342:Src/system_stm32n6xx_s.c ****       pllsource = pllcfgr & RCC_PLL4CFGR1_PLL4SEL;
 426              		.loc 1 342 7 is_stmt 1 view .LVU147
 342:Src/system_stm32n6xx_s.c ****       pllsource = pllcfgr & RCC_PLL4CFGR1_PLL4SEL;
 427              		.loc 1 342 15 is_stmt 0 view .LVU148
 428 0120 3F4B     		ldr	r3, .L37
 429 0122 D3F8B020 		ldr	r2, [r3, #176]
 430              	.LVL35:
 343:Src/system_stm32n6xx_s.c ****       pllbypass = pllcfgr & RCC_PLL4CFGR1_PLL4BYP;
 431              		.loc 1 343 7 is_stmt 1 view .LVU149
 343:Src/system_stm32n6xx_s.c ****       pllbypass = pllcfgr & RCC_PLL4CFGR1_PLL4BYP;
 432              		.loc 1 343 17 is_stmt 0 view .LVU150
 433 0126 02F0E043 		and	r3, r2, #1879048192
 434              	.LVL36:
 344:Src/system_stm32n6xx_s.c ****       if (pllbypass == 0U)
 435              		.loc 1 344 7 is_stmt 1 view .LVU151
 345:Src/system_stm32n6xx_s.c ****       {
 436              		.loc 1 345 7 view .LVU152
 345:Src/system_stm32n6xx_s.c ****       {
 437              		.loc 1 345 10 is_stmt 0 view .LVU153
 438 012a 12F0006C 		ands	ip, r2, #134217728
 439              	.LVL37:
 345:Src/system_stm32n6xx_s.c ****       {
 440              		.loc 1 345 10 view .LVU154
 441 012e 21D1     		bne	.L29
 347:Src/system_stm32n6xx_s.c ****         plln = (pllcfgr & RCC_PLL4CFGR1_PLL4DIVN) >>  RCC_PLL4CFGR1_PLL4DIVN_Pos;
 442              		.loc 1 347 9 is_stmt 1 view .LVU155
 347:Src/system_stm32n6xx_s.c ****         plln = (pllcfgr & RCC_PLL4CFGR1_PLL4DIVN) >>  RCC_PLL4CFGR1_PLL4DIVN_Pos;
 443              		.loc 1 347 14 is_stmt 0 view .LVU156
 444 0130 C2F3055E 		ubfx	lr, r2, #20, #6
 445              	.LVL38:
 348:Src/system_stm32n6xx_s.c ****         pllfracn = READ_BIT(RCC->PLL4CFGR2, RCC_PLL4CFGR2_PLL4DIVNFRAC) >>  RCC_PLL4CFGR2_PLL4DIVNF
 446              		.loc 1 348 9 is_stmt 1 view .LVU157
 348:Src/system_stm32n6xx_s.c ****         pllfracn = READ_BIT(RCC->PLL4CFGR2, RCC_PLL4CFGR2_PLL4DIVNFRAC) >>  RCC_PLL4CFGR2_PLL4DIVNF
 447              		.loc 1 348 14 is_stmt 0 view .LVU158
 448 0134 C2F30B22 		ubfx	r2, r2, #8, #12
 449              	.LVL39:
 349:Src/system_stm32n6xx_s.c ****         pllcfgr = READ_REG(RCC->PLL4CFGR3);
 450              		.loc 1 349 9 is_stmt 1 view .LVU159
 349:Src/system_stm32n6xx_s.c ****         pllcfgr = READ_REG(RCC->PLL4CFGR3);
 451              		.loc 1 349 20 is_stmt 0 view .LVU160
 452 0138 3949     		ldr	r1, .L37
 453 013a D1F8B400 		ldr	r0, [r1, #180]
 349:Src/system_stm32n6xx_s.c ****         pllcfgr = READ_REG(RCC->PLL4CFGR3);
 454              		.loc 1 349 18 view .LVU161
 455 013e 20F07F40 		bic	r0, r0, #-16777216
 456              	.LVL40:
 350:Src/system_stm32n6xx_s.c ****         pllp1 = (pllcfgr & RCC_PLL4CFGR3_PLL4PDIV1) >>  RCC_PLL4CFGR3_PLL4PDIV1_Pos;
 457              		.loc 1 350 9 is_stmt 1 view .LVU162
 350:Src/system_stm32n6xx_s.c ****         pllp1 = (pllcfgr & RCC_PLL4CFGR3_PLL4PDIV1) >>  RCC_PLL4CFGR3_PLL4PDIV1_Pos;
 458              		.loc 1 350 17 is_stmt 0 view .LVU163
 459 0142 D1F8B810 		ldr	r1, [r1, #184]
ARM GAS  /tmp/cch9jK6u.s 			page 31


 460              	.LVL41:
 351:Src/system_stm32n6xx_s.c ****         pllp2 = (pllcfgr & RCC_PLL4CFGR3_PLL4PDIV2) >>  RCC_PLL4CFGR3_PLL4PDIV2_Pos;
 461              		.loc 1 351 9 is_stmt 1 view .LVU164
 351:Src/system_stm32n6xx_s.c ****         pllp2 = (pllcfgr & RCC_PLL4CFGR3_PLL4PDIV2) >>  RCC_PLL4CFGR3_PLL4PDIV2_Pos;
 462              		.loc 1 351 15 is_stmt 0 view .LVU165
 463 0146 C1F3C264 		ubfx	r4, r1, #27, #3
 464 014a 2546     		mov	r5, r4
 465              	.LVL42:
 352:Src/system_stm32n6xx_s.c ****       }
 466              		.loc 1 352 9 is_stmt 1 view .LVU166
 352:Src/system_stm32n6xx_s.c ****       }
 467              		.loc 1 352 15 is_stmt 0 view .LVU167
 468 014c C1F30261 		ubfx	r1, r1, #24, #3
 469              	.LVL43:
 352:Src/system_stm32n6xx_s.c ****       }
 470              		.loc 1 352 15 view .LVU168
 471 0150 96E7     		b	.L18
 472              	.LVL44:
 473              	.L26:
 267:Src/system_stm32n6xx_s.c ****   uint32_t pllcfgr, pllsource, pllbypass, ic_divider;
 474              		.loc 1 267 12 view .LVU169
 475 0152 7146     		mov	r1, lr
 266:Src/system_stm32n6xx_s.c ****   uint32_t pllp2 = 0;
 476              		.loc 1 266 12 view .LVU170
 477 0154 7546     		mov	r5, lr
 265:Src/system_stm32n6xx_s.c ****   uint32_t pllp1 = 0;
 478              		.loc 1 265 12 view .LVU171
 479 0156 7046     		mov	r0, lr
 264:Src/system_stm32n6xx_s.c ****   uint32_t pllfracn = 0;
 480              		.loc 1 264 12 view .LVU172
 481 0158 7246     		mov	r2, lr
 482              	.LVL45:
 264:Src/system_stm32n6xx_s.c ****   uint32_t pllfracn = 0;
 483              		.loc 1 264 12 view .LVU173
 484 015a 91E7     		b	.L18
 485              	.LVL46:
 486              	.L27:
 267:Src/system_stm32n6xx_s.c ****   uint32_t pllcfgr, pllsource, pllbypass, ic_divider;
 487              		.loc 1 267 12 view .LVU174
 488 015c 0021     		movs	r1, #0
 266:Src/system_stm32n6xx_s.c ****   uint32_t pllp2 = 0;
 489              		.loc 1 266 12 view .LVU175
 490 015e 0D46     		mov	r5, r1
 265:Src/system_stm32n6xx_s.c ****   uint32_t pllp1 = 0;
 491              		.loc 1 265 12 view .LVU176
 492 0160 0846     		mov	r0, r1
 264:Src/system_stm32n6xx_s.c ****   uint32_t pllfracn = 0;
 493              		.loc 1 264 12 view .LVU177
 494 0162 0A46     		mov	r2, r1
 495              	.LVL47:
 263:Src/system_stm32n6xx_s.c ****   uint32_t plln = 0;
 496              		.loc 1 263 12 view .LVU178
 497 0164 8E46     		mov	lr, r1
 498 0166 8BE7     		b	.L18
 499              	.LVL48:
 500              	.L28:
 267:Src/system_stm32n6xx_s.c ****   uint32_t pllcfgr, pllsource, pllbypass, ic_divider;
ARM GAS  /tmp/cch9jK6u.s 			page 32


 501              		.loc 1 267 12 view .LVU179
 502 0168 0021     		movs	r1, #0
 266:Src/system_stm32n6xx_s.c ****   uint32_t pllp2 = 0;
 503              		.loc 1 266 12 view .LVU180
 504 016a 0D46     		mov	r5, r1
 265:Src/system_stm32n6xx_s.c ****   uint32_t pllp1 = 0;
 505              		.loc 1 265 12 view .LVU181
 506 016c 0846     		mov	r0, r1
 264:Src/system_stm32n6xx_s.c ****   uint32_t pllfracn = 0;
 507              		.loc 1 264 12 view .LVU182
 508 016e 0A46     		mov	r2, r1
 509              	.LVL49:
 263:Src/system_stm32n6xx_s.c ****   uint32_t plln = 0;
 510              		.loc 1 263 12 view .LVU183
 511 0170 8E46     		mov	lr, r1
 512 0172 85E7     		b	.L18
 513              	.LVL50:
 514              	.L29:
 267:Src/system_stm32n6xx_s.c ****   uint32_t pllcfgr, pllsource, pllbypass, ic_divider;
 515              		.loc 1 267 12 view .LVU184
 516 0174 0021     		movs	r1, #0
 266:Src/system_stm32n6xx_s.c ****   uint32_t pllp2 = 0;
 517              		.loc 1 266 12 view .LVU185
 518 0176 0D46     		mov	r5, r1
 265:Src/system_stm32n6xx_s.c ****   uint32_t pllp1 = 0;
 519              		.loc 1 265 12 view .LVU186
 520 0178 0846     		mov	r0, r1
 264:Src/system_stm32n6xx_s.c ****   uint32_t pllfracn = 0;
 521              		.loc 1 264 12 view .LVU187
 522 017a 0A46     		mov	r2, r1
 523              	.LVL51:
 263:Src/system_stm32n6xx_s.c ****   uint32_t plln = 0;
 524              		.loc 1 263 12 view .LVU188
 525 017c 8E46     		mov	lr, r1
 526 017e 7FE7     		b	.L18
 527              	.LVL52:
 528              	.L36:
 358:Src/system_stm32n6xx_s.c ****     {
 529              		.loc 1 358 5 view .LVU189
 530 0180 0023     		movs	r3, #0
 531              	.LVL53:
 358:Src/system_stm32n6xx_s.c ****     {
 532              		.loc 1 358 5 view .LVU190
 533 0182 03E0     		b	.L19
 534              	.LVL54:
 535              	.L20:
 358:Src/system_stm32n6xx_s.c ****     {
 536              		.loc 1 358 5 view .LVU191
 537 0184 B3F1405F 		cmp	r3, #805306368
 538 0188 42D1     		bne	.L31
 377:Src/system_stm32n6xx_s.c ****       break;
 539              		.loc 1 377 14 view .LVU192
 540 018a 294B     		ldr	r3, .L37+16
 541              	.LVL55:
 542              	.L19:
 385:Src/system_stm32n6xx_s.c ****     {
 543              		.loc 1 385 5 is_stmt 1 view .LVU193
ARM GAS  /tmp/cch9jK6u.s 			page 33


 385:Src/system_stm32n6xx_s.c ****     {
 544              		.loc 1 385 8 is_stmt 0 view .LVU194
 545 018c BCF1000F 		cmp	ip, #0
 546 0190 29D1     		bne	.L23
 389:Src/system_stm32n6xx_s.c ****       sysclk = (uint32_t)((float_t)(pllvco/(((float_t)pllp1) * ((float_t)pllp2))));
 547              		.loc 1 389 7 is_stmt 1 view .LVU195
 389:Src/system_stm32n6xx_s.c ****       sysclk = (uint32_t)((float_t)(pllvco/(((float_t)pllp1) * ((float_t)pllp2))));
 548              		.loc 1 389 17 is_stmt 0 view .LVU196
 549 0192 07EE903A 		vmov	s15, r3	@ int
 550 0196 F8EE677A 		vcvt.f32.u32	s15, s15
 389:Src/system_stm32n6xx_s.c ****       sysclk = (uint32_t)((float_t)(pllvco/(((float_t)pllp1) * ((float_t)pllp2))));
 551              		.loc 1 389 36 view .LVU197
 552 019a 07EE102A 		vmov	s14, r2	@ int
 553 019e B8EE477A 		vcvt.f32.u32	s14, s14
 389:Src/system_stm32n6xx_s.c ****       sysclk = (uint32_t)((float_t)(pllvco/(((float_t)pllp1) * ((float_t)pllp2))));
 554              		.loc 1 389 53 view .LVU198
 555 01a2 06EE900A 		vmov	s13, r0	@ int
 556 01a6 F8EE666A 		vcvt.f32.u32	s13, s13
 389:Src/system_stm32n6xx_s.c ****       sysclk = (uint32_t)((float_t)(pllvco/(((float_t)pllp1) * ((float_t)pllp2))));
 557              		.loc 1 389 70 view .LVU199
 558 01aa 9FED226A 		vldr.32	s12, .L37+20
 559 01ae 66EE866A 		vmul.f32	s13, s13, s12
 389:Src/system_stm32n6xx_s.c ****       sysclk = (uint32_t)((float_t)(pllvco/(((float_t)pllp1) * ((float_t)pllp2))));
 560              		.loc 1 389 50 view .LVU200
 561 01b2 37EE267A 		vadd.f32	s14, s14, s13
 389:Src/system_stm32n6xx_s.c ****       sysclk = (uint32_t)((float_t)(pllvco/(((float_t)pllp1) * ((float_t)pllp2))));
 562              		.loc 1 389 33 view .LVU201
 563 01b6 67EE877A 		vmul.f32	s15, s15, s14
 389:Src/system_stm32n6xx_s.c ****       sysclk = (uint32_t)((float_t)(pllvco/(((float_t)pllp1) * ((float_t)pllp2))));
 564              		.loc 1 389 97 view .LVU202
 565 01ba 07EE10EA 		vmov	s14, lr	@ int
 566 01be B8EE477A 		vcvt.f32.u32	s14, s14
 389:Src/system_stm32n6xx_s.c ****       sysclk = (uint32_t)((float_t)(pllvco/(((float_t)pllp1) * ((float_t)pllp2))));
 567              		.loc 1 389 14 view .LVU203
 568 01c2 C7EE876A 		vdiv.f32	s13, s15, s14
 569              	.LVL56:
 390:Src/system_stm32n6xx_s.c ****     }
 570              		.loc 1 390 7 is_stmt 1 view .LVU204
 390:Src/system_stm32n6xx_s.c ****     }
 571              		.loc 1 390 46 is_stmt 0 view .LVU205
 572 01c6 07EE905A 		vmov	s15, r5	@ int
 573 01ca B8EE677A 		vcvt.f32.u32	s14, s15
 390:Src/system_stm32n6xx_s.c ****     }
 574              		.loc 1 390 65 view .LVU206
 575 01ce 07EE901A 		vmov	s15, r1	@ int
 576 01d2 F8EE677A 		vcvt.f32.u32	s15, s15
 390:Src/system_stm32n6xx_s.c ****     }
 577              		.loc 1 390 62 view .LVU207
 578 01d6 27EE277A 		vmul.f32	s14, s14, s15
 390:Src/system_stm32n6xx_s.c ****     }
 579              		.loc 1 390 27 view .LVU208
 580 01da C6EE877A 		vdiv.f32	s15, s13, s14
 390:Src/system_stm32n6xx_s.c ****     }
 581              		.loc 1 390 14 view .LVU209
 582 01de FCEEE77A 		vcvt.u32.f32	s15, s15
 583 01e2 17EE903A 		vmov	r3, s15	@ int
 584              	.LVL57:
ARM GAS  /tmp/cch9jK6u.s 			page 34


 585              	.L23:
 393:Src/system_stm32n6xx_s.c ****     sysclk = sysclk / ic_divider;
 586              		.loc 1 393 5 is_stmt 1 view .LVU210
 393:Src/system_stm32n6xx_s.c ****     sysclk = sysclk / ic_divider;
 587              		.loc 1 393 19 is_stmt 0 view .LVU211
 588 01e6 0E4A     		ldr	r2, .L37
 589              	.LVL58:
 393:Src/system_stm32n6xx_s.c ****     sysclk = sysclk / ic_divider;
 590              		.loc 1 393 19 view .LVU212
 591 01e8 D2F8C420 		ldr	r2, [r2, #196]
 393:Src/system_stm32n6xx_s.c ****     sysclk = sysclk / ic_divider;
 592              		.loc 1 393 62 view .LVU213
 593 01ec C2F30742 		ubfx	r2, r2, #16, #8
 393:Src/system_stm32n6xx_s.c ****     sysclk = sysclk / ic_divider;
 594              		.loc 1 393 16 view .LVU214
 595 01f0 0132     		adds	r2, r2, #1
 596              	.LVL59:
 394:Src/system_stm32n6xx_s.c ****     break;
 597              		.loc 1 394 5 is_stmt 1 view .LVU215
 394:Src/system_stm32n6xx_s.c ****     break;
 598              		.loc 1 394 12 is_stmt 0 view .LVU216
 599 01f2 B3FBF2F3 		udiv	r3, r3, r2
 600              	.LVL60:
 395:Src/system_stm32n6xx_s.c ****   default:
 601              		.loc 1 395 5 is_stmt 1 view .LVU217
 602              		.loc 1 402 3 view .LVU218
 603              		.loc 1 402 19 is_stmt 0 view .LVU219
 604 01f6 0D4A     		ldr	r2, .L37+12
 605              	.LVL61:
 606              		.loc 1 402 19 view .LVU220
 607 01f8 1360     		str	r3, [r2]
 403:Src/system_stm32n6xx_s.c **** }
 608              		.loc 1 403 1 view .LVU221
 609 01fa 30BD     		pop	{r4, r5, pc}
 610              	.LVL62:
 611              	.L21:
 361:Src/system_stm32n6xx_s.c ****       break;
 612              		.loc 1 361 7 is_stmt 1 view .LVU222
 361:Src/system_stm32n6xx_s.c ****       break;
 613              		.loc 1 361 34 is_stmt 0 view .LVU223
 614 01fc 084B     		ldr	r3, .L37
 615              	.LVL63:
 361:Src/system_stm32n6xx_s.c ****       break;
 616              		.loc 1 361 34 view .LVU224
 617 01fe 9B6C     		ldr	r3, [r3, #72]
 361:Src/system_stm32n6xx_s.c ****       break;
 618              		.loc 1 361 66 view .LVU225
 619 0200 C3F3C113 		ubfx	r3, r3, #7, #2
 361:Src/system_stm32n6xx_s.c ****       break;
 620              		.loc 1 361 14 view .LVU226
 621 0204 084C     		ldr	r4, .L37+8
 622 0206 24FA03F3 		lsr	r3, r4, r3
 623              	.LVL64:
 362:Src/system_stm32n6xx_s.c ****     case RCC_PLL1CFGR1_PLL1SEL_0: /* MSI selected as PLL clock source */
 624              		.loc 1 362 7 is_stmt 1 view .LVU227
 625 020a BFE7     		b	.L19
 626              	.LVL65:
ARM GAS  /tmp/cch9jK6u.s 			page 35


 627              	.L30:
 374:Src/system_stm32n6xx_s.c ****       break;
 628              		.loc 1 374 14 is_stmt 0 view .LVU228
 629 020c 0A4B     		ldr	r3, .L37+24
 630              	.LVL66:
 374:Src/system_stm32n6xx_s.c ****       break;
 631              		.loc 1 374 14 view .LVU229
 632 020e BDE7     		b	.L19
 633              	.LVL67:
 634              	.L31:
 358:Src/system_stm32n6xx_s.c ****     {
 635              		.loc 1 358 5 view .LVU230
 636 0210 0023     		movs	r3, #0
 637              	.LVL68:
 358:Src/system_stm32n6xx_s.c ****     {
 638              		.loc 1 358 5 view .LVU231
 639 0212 BBE7     		b	.L19
 640              	.L32:
 370:Src/system_stm32n6xx_s.c ****       }
 641              		.loc 1 370 16 view .LVU232
 642 0214 094B     		ldr	r3, .L37+28
 643 0216 B9E7     		b	.L19
 644              	.LVL69:
 645              	.L24:
 646              	.LCFI4:
 647              		.cfi_def_cfa_offset 0
 648              		.cfi_restore 4
 649              		.cfi_restore 5
 650              		.cfi_restore 14
 290:Src/system_stm32n6xx_s.c ****     break;
 651              		.loc 1 290 12 view .LVU233
 652 0218 074B     		ldr	r3, .L37+24
 653 021a 4CE7     		b	.L34
 654              	.L25:
 285:Src/system_stm32n6xx_s.c ****     }
 655              		.loc 1 285 14 view .LVU234
 656 021c 074B     		ldr	r3, .L37+28
 657 021e 4AE7     		b	.L34
 658              	.L38:
 659              		.align	2
 660              	.L37:
 661 0220 00800256 		.word	1443004416
 662 0224 00093D00 		.word	4000000
 663 0228 0090D003 		.word	64000000
 664 022c 00000000 		.word	SystemCoreClock
 665 0230 0080BB00 		.word	12288000
 666 0234 00008033 		.word	864026624
 667 0238 00366E01 		.word	24000000
 668 023c 0024F400 		.word	16000000
 669              		.cfi_endproc
 670              	.LFE883:
 672              		.section	.text.SECURE_SystemCoreClockUpdate,"ax",%progbits
 673              		.align	1
 674              		.global	SECURE_SystemCoreClockUpdate
 675              		.global	__acle_se_SECURE_SystemCoreClockUpdate
 676              		.syntax unified
 677              		.thumb
ARM GAS  /tmp/cch9jK6u.s 			page 36


 678              		.thumb_func
 680              		.syntax unified
 681              		.thumb
 682              		.thumb_func
 684              	SECURE_SystemCoreClockUpdate:
 685              	__acle_se_SECURE_SystemCoreClockUpdate:
 686              	.LFB884:
 404:Src/system_stm32n6xx_s.c **** 
 405:Src/system_stm32n6xx_s.c **** /**
 406:Src/system_stm32n6xx_s.c ****   * @brief  Secure Non-Secure-Callable function to return the current
 407:Src/system_stm32n6xx_s.c ****   *         SystemCoreClock value after SystemCoreClock update.
 408:Src/system_stm32n6xx_s.c ****   *         The SystemCoreClock variable contains the CPU core clock, it can
 409:Src/system_stm32n6xx_s.c ****   *         be used by the user application to setup the SysTick timer or configure
 410:Src/system_stm32n6xx_s.c ****   *         other parameters.
 411:Src/system_stm32n6xx_s.c ****   * @retval SystemCoreClock value
 412:Src/system_stm32n6xx_s.c ****   */
 413:Src/system_stm32n6xx_s.c **** CMSE_NS_ENTRY uint32_t SECURE_SystemCoreClockUpdate(void)
 414:Src/system_stm32n6xx_s.c **** {
 687              		.loc 1 414 1 is_stmt 1 view -0
 688              		.cfi_startproc
 689              		@ Non-secure entry function: called from non-secure code.
 690              		@ args = 0, pretend = 0, frame = 0
 691              		@ frame_needed = 0, uses_anonymous_args = 0
 692 0000 6DED81CF 		vstr	FPCXTNS, [sp, #-4]!
 693              	.LCFI5:
 694              		.cfi_def_cfa_offset 4
 695 0004 00B5     		push	{lr}
 696              	.LCFI6:
 697              		.cfi_def_cfa_offset 8
 698              		.cfi_offset 14, -8
 415:Src/system_stm32n6xx_s.c ****   SystemCoreClockUpdate();
 699              		.loc 1 415 3 view .LVU236
 700 0006 FFF7FEFF 		bl	SystemCoreClockUpdate
 701              	.LVL70:
 416:Src/system_stm32n6xx_s.c **** 
 417:Src/system_stm32n6xx_s.c ****   return SystemCoreClock;
 702              		.loc 1 417 3 view .LVU237
 418:Src/system_stm32n6xx_s.c **** }
 703              		.loc 1 418 1 is_stmt 0 view .LVU238
 704 000a 054B     		ldr	r3, .L41
 705 000c 1868     		ldr	r0, [r3]
 706 000e 5DF804EB 		ldr	lr, [sp], #4
 707              	.LCFI7:
 708              		.cfi_restore 14
 709              		.cfi_def_cfa_offset 4
 710 0012 9FEC100A 		vscclrm	{s0-s15, VPR}
 711 0016 9FE80E90 		clrm	{r1, r2, r3, ip, APSR}
 712 001a FDEC81CF 		vldr	FPCXTNS, [sp], #4
 713              	.LCFI8:
 714              		.cfi_def_cfa_offset 0
 715 001e 7447     		bxns	lr
 716              	.L42:
 717              		.align	2
 718              	.L41:
 719 0020 00000000 		.word	SystemCoreClock
 720              		.cfi_endproc
 721              	.LFE884:
ARM GAS  /tmp/cch9jK6u.s 			page 37


 723              		.global	SystemCoreClock
 724              		.section	.data.SystemCoreClock,"aw"
 725              		.align	2
 728              	SystemCoreClock:
 729 0000 0090D003 		.word	64000000
 730              		.text
 731              	.Letext0:
 732              		.file 3 "/usr/arm-none-eabi/include/machine/_default_types.h"
 733              		.file 4 "/usr/arm-none-eabi/include/sys/_stdint.h"
 734              		.file 5 "../Drivers/CMSIS/Include/core_cm55.h"
 735              		.file 6 "../Drivers/CMSIS/Device/ST/STM32N6xx/Include/stm32n657xx.h"
 736              		.file 7 "/usr/arm-none-eabi/include/math.h"
 737              		.file 8 "../Drivers/CMSIS/Device/ST/STM32N6xx/Include/system_stm32n6xx.h"
ARM GAS  /tmp/cch9jK6u.s 			page 38

