ARM GAS  /tmp/ccnP2BJh.s 			page 1


   1              		.arch armv8.1-m.main
   2              		.fpu fpv5-d16
   3              		.arch_extension dsp
   4              		.arch_extension fp
   5              		.arch_extension fp.dp
   6              		.arch_extension mve
   7              		.arch_extension mve.fp
   8              		.eabi_attribute 5, "cortex-m55"
   9              		.eabi_attribute 28, 1
  10              		.eabi_attribute 20, 1
  11              		.eabi_attribute 21, 1
  12              		.eabi_attribute 23, 3
  13              		.eabi_attribute 24, 1
  14              		.eabi_attribute 25, 1
  15              		.eabi_attribute 26, 1
  16              		.eabi_attribute 30, 1
  17              		.eabi_attribute 34, 1
  18              		.eabi_attribute 38, 1
  19              		.eabi_attribute 18, 4
  20              		.file	"imx335_reg.c"
  21              		.text
  22              	.Ltext0:
  23              		.cfi_sections	.debug_frame
  24              		.file 1 "../Drivers/cmw_camera/sensors/imx335/imx335_reg.c"
  25              		.section	.text.imx335_read_reg,"ax",%progbits
  26              		.align	1
  27              		.global	imx335_read_reg
  28              		.syntax unified
  29              		.thumb
  30              		.thumb_func
  32              	imx335_read_reg:
  33              	.LVL0:
  34              	.LFB186:
   1:../Drivers/cmw_camera/sensors/imx335/imx335_reg.c **** /**
   2:../Drivers/cmw_camera/sensors/imx335/imx335_reg.c ****   ******************************************************************************
   3:../Drivers/cmw_camera/sensors/imx335/imx335_reg.c ****   * @file    imx335_reg.c
   4:../Drivers/cmw_camera/sensors/imx335/imx335_reg.c ****   * @author  MCD Application Team
   5:../Drivers/cmw_camera/sensors/imx335/imx335_reg.c ****   * @brief   This file provides unitary register function to control the IMX335
   6:../Drivers/cmw_camera/sensors/imx335/imx335_reg.c ****   *          Camera driver.
   7:../Drivers/cmw_camera/sensors/imx335/imx335_reg.c ****   ******************************************************************************
   8:../Drivers/cmw_camera/sensors/imx335/imx335_reg.c ****   * @attention
   9:../Drivers/cmw_camera/sensors/imx335/imx335_reg.c ****   *
  10:../Drivers/cmw_camera/sensors/imx335/imx335_reg.c ****   * Copyright (c) 2022 STMicroelectronics.
  11:../Drivers/cmw_camera/sensors/imx335/imx335_reg.c ****   * All rights reserved.
  12:../Drivers/cmw_camera/sensors/imx335/imx335_reg.c ****   *
  13:../Drivers/cmw_camera/sensors/imx335/imx335_reg.c ****   * This software is licensed under terms that can be found in the LICENSE file
  14:../Drivers/cmw_camera/sensors/imx335/imx335_reg.c ****   * in the root directory of this software component.
  15:../Drivers/cmw_camera/sensors/imx335/imx335_reg.c ****   * If no LICENSE file comes with this software, it is provided AS-IS.
  16:../Drivers/cmw_camera/sensors/imx335/imx335_reg.c ****   *
  17:../Drivers/cmw_camera/sensors/imx335/imx335_reg.c ****   ******************************************************************************
  18:../Drivers/cmw_camera/sensors/imx335/imx335_reg.c ****   */
  19:../Drivers/cmw_camera/sensors/imx335/imx335_reg.c **** 
  20:../Drivers/cmw_camera/sensors/imx335/imx335_reg.c **** /* Includes ------------------------------------------------------------------*/
  21:../Drivers/cmw_camera/sensors/imx335/imx335_reg.c **** #include "imx335_reg.h"
  22:../Drivers/cmw_camera/sensors/imx335/imx335_reg.c **** 
  23:../Drivers/cmw_camera/sensors/imx335/imx335_reg.c **** /** @addtogroup BSP
  24:../Drivers/cmw_camera/sensors/imx335/imx335_reg.c ****   * @{
ARM GAS  /tmp/ccnP2BJh.s 			page 2


  25:../Drivers/cmw_camera/sensors/imx335/imx335_reg.c ****   */
  26:../Drivers/cmw_camera/sensors/imx335/imx335_reg.c **** 
  27:../Drivers/cmw_camera/sensors/imx335/imx335_reg.c **** /** @addtogroup Components
  28:../Drivers/cmw_camera/sensors/imx335/imx335_reg.c ****   * @{
  29:../Drivers/cmw_camera/sensors/imx335/imx335_reg.c ****   */
  30:../Drivers/cmw_camera/sensors/imx335/imx335_reg.c **** 
  31:../Drivers/cmw_camera/sensors/imx335/imx335_reg.c **** /** @addtogroup IMX335
  32:../Drivers/cmw_camera/sensors/imx335/imx335_reg.c ****   * @brief     This file provides a set of functions needed to drive the
  33:../Drivers/cmw_camera/sensors/imx335/imx335_reg.c ****   *            IMX335 Camera sensor.
  34:../Drivers/cmw_camera/sensors/imx335/imx335_reg.c ****   * @{
  35:../Drivers/cmw_camera/sensors/imx335/imx335_reg.c ****   */
  36:../Drivers/cmw_camera/sensors/imx335/imx335_reg.c **** 
  37:../Drivers/cmw_camera/sensors/imx335/imx335_reg.c **** /**
  38:../Drivers/cmw_camera/sensors/imx335/imx335_reg.c ****   * @brief  Read IMX335 component registers
  39:../Drivers/cmw_camera/sensors/imx335/imx335_reg.c ****   * @param  ctx component context
  40:../Drivers/cmw_camera/sensors/imx335/imx335_reg.c ****   * @param  reg Register to read from
  41:../Drivers/cmw_camera/sensors/imx335/imx335_reg.c ****   * @param  pdata Pointer to data buffer
  42:../Drivers/cmw_camera/sensors/imx335/imx335_reg.c ****   * @param  length Number of data to read
  43:../Drivers/cmw_camera/sensors/imx335/imx335_reg.c ****   * @retval Component status
  44:../Drivers/cmw_camera/sensors/imx335/imx335_reg.c ****   */
  45:../Drivers/cmw_camera/sensors/imx335/imx335_reg.c **** int32_t imx335_read_reg(imx335_ctx_t *ctx, uint16_t reg, uint8_t *pdata, uint16_t length)
  46:../Drivers/cmw_camera/sensors/imx335/imx335_reg.c **** {
  35              		.loc 1 46 1 view -0
  36              		.cfi_startproc
  37              		@ args = 0, pretend = 0, frame = 0
  38              		@ frame_needed = 0, uses_anonymous_args = 0
  39              		.loc 1 46 1 is_stmt 0 view .LVU1
  40 0000 10B5     		push	{r4, lr}
  41              	.LCFI0:
  42              		.cfi_def_cfa_offset 8
  43              		.cfi_offset 4, -8
  44              		.cfi_offset 14, -4
  47:../Drivers/cmw_camera/sensors/imx335/imx335_reg.c ****   return ctx->ReadReg(ctx->handle, reg, pdata, length);
  45              		.loc 1 47 3 is_stmt 1 view .LVU2
  46              		.loc 1 47 13 is_stmt 0 view .LVU3
  47 0002 4468     		ldr	r4, [r0, #4]
  48              		.loc 1 47 10 view .LVU4
  49 0004 8068     		ldr	r0, [r0, #8]
  50              	.LVL1:
  51              		.loc 1 47 10 view .LVU5
  52 0006 A047     		blx	r4
  53              	.LVL2:
  48:../Drivers/cmw_camera/sensors/imx335/imx335_reg.c **** }
  54              		.loc 1 48 1 view .LVU6
  55 0008 10BD     		pop	{r4, pc}
  56              		.cfi_endproc
  57              	.LFE186:
  59              		.section	.text.imx335_write_reg,"ax",%progbits
  60              		.align	1
  61              		.global	imx335_write_reg
  62              		.syntax unified
  63              		.thumb
  64              		.thumb_func
  66              	imx335_write_reg:
  67              	.LVL3:
  68              	.LFB187:
  49:../Drivers/cmw_camera/sensors/imx335/imx335_reg.c **** 
ARM GAS  /tmp/ccnP2BJh.s 			page 3


  50:../Drivers/cmw_camera/sensors/imx335/imx335_reg.c **** /**
  51:../Drivers/cmw_camera/sensors/imx335/imx335_reg.c ****   * @brief  Write IMX335 component registers
  52:../Drivers/cmw_camera/sensors/imx335/imx335_reg.c ****   * @param  ctx component context
  53:../Drivers/cmw_camera/sensors/imx335/imx335_reg.c ****   * @param  reg Register to write to
  54:../Drivers/cmw_camera/sensors/imx335/imx335_reg.c ****   * @param  pdata Pointer to data buffer
  55:../Drivers/cmw_camera/sensors/imx335/imx335_reg.c ****   * @param  length Number of data to write
  56:../Drivers/cmw_camera/sensors/imx335/imx335_reg.c ****   * @retval Component status
  57:../Drivers/cmw_camera/sensors/imx335/imx335_reg.c ****   */
  58:../Drivers/cmw_camera/sensors/imx335/imx335_reg.c **** int32_t imx335_write_reg(imx335_ctx_t *ctx, uint16_t reg, uint8_t *data, uint16_t length)
  59:../Drivers/cmw_camera/sensors/imx335/imx335_reg.c **** {
  69              		.loc 1 59 1 is_stmt 1 view -0
  70              		.cfi_startproc
  71              		@ args = 0, pretend = 0, frame = 0
  72              		@ frame_needed = 0, uses_anonymous_args = 0
  73              		.loc 1 59 1 is_stmt 0 view .LVU8
  74 0000 10B5     		push	{r4, lr}
  75              	.LCFI1:
  76              		.cfi_def_cfa_offset 8
  77              		.cfi_offset 4, -8
  78              		.cfi_offset 14, -4
  60:../Drivers/cmw_camera/sensors/imx335/imx335_reg.c ****   return ctx->WriteReg(ctx->handle, reg, data, length);
  79              		.loc 1 60 3 is_stmt 1 view .LVU9
  80              		.loc 1 60 13 is_stmt 0 view .LVU10
  81 0002 0468     		ldr	r4, [r0]
  82              		.loc 1 60 10 view .LVU11
  83 0004 8068     		ldr	r0, [r0, #8]
  84              	.LVL4:
  85              		.loc 1 60 10 view .LVU12
  86 0006 A047     		blx	r4
  87              	.LVL5:
  61:../Drivers/cmw_camera/sensors/imx335/imx335_reg.c **** }
  88              		.loc 1 61 1 view .LVU13
  89 0008 10BD     		pop	{r4, pc}
  90              		.cfi_endproc
  91              	.LFE187:
  93              		.text
  94              	.Letext0:
  95              		.file 2 "/usr/arm-none-eabi/include/machine/_default_types.h"
  96              		.file 3 "/usr/arm-none-eabi/include/sys/_stdint.h"
  97              		.file 4 "../Drivers/cmw_camera/sensors/imx335/imx335_reg.h"
ARM GAS  /tmp/ccnP2BJh.s 			page 4

