ARM GAS  /tmp/ccF20hIi.s 			page 1


   1              		.arch armv8.1-m.main
   2              		.fpu fpv5-d16
   3              		.arch_extension dsp
   4              		.arch_extension fp
   5              		.arch_extension fp.dp
   6              		.arch_extension mve
   7              		.arch_extension mve.fp
   8              		.eabi_attribute 5, "cortex-m55"
   9              		.eabi_attribute 28, 1
  10              		.eabi_attribute 20, 1
  11              		.eabi_attribute 21, 1
  12              		.eabi_attribute 23, 3
  13              		.eabi_attribute 24, 1
  14              		.eabi_attribute 25, 1
  15              		.eabi_attribute 26, 1
  16              		.eabi_attribute 30, 1
  17              		.eabi_attribute 34, 1
  18              		.eabi_attribute 38, 1
  19              		.eabi_attribute 18, 4
  20              		.file	"imx335.c"
  21              		.text
  22              	.Ltext0:
  23              		.cfi_sections	.debug_frame
  24              		.file 1 "../Drivers/cmw_camera/sensors/imx335/imx335.c"
  25              		.section	.text.IMX335_Delay,"ax",%progbits
  26              		.align	1
  27              		.syntax unified
  28              		.thumb
  29              		.thumb_func
  31              	IMX335_Delay:
  32              	.LVL0:
  33              	.LFB187:
   1:../Drivers/cmw_camera/sensors/imx335/imx335.c **** /**
   2:../Drivers/cmw_camera/sensors/imx335/imx335.c ****   ******************************************************************************
   3:../Drivers/cmw_camera/sensors/imx335/imx335.c ****   * @file    imx335.c
   4:../Drivers/cmw_camera/sensors/imx335/imx335.c ****   * @author  MCD Application Team
   5:../Drivers/cmw_camera/sensors/imx335/imx335.c ****   * @brief   This file provides the IMX335 camera driver
   6:../Drivers/cmw_camera/sensors/imx335/imx335.c ****   ******************************************************************************
   7:../Drivers/cmw_camera/sensors/imx335/imx335.c ****   * @attention
   8:../Drivers/cmw_camera/sensors/imx335/imx335.c ****   *
   9:../Drivers/cmw_camera/sensors/imx335/imx335.c ****   * Copyright (c) 2022 STMicroelectronics.
  10:../Drivers/cmw_camera/sensors/imx335/imx335.c ****   * All rights reserved.
  11:../Drivers/cmw_camera/sensors/imx335/imx335.c ****   *
  12:../Drivers/cmw_camera/sensors/imx335/imx335.c ****   * This software is licensed under terms that can be found in the LICENSE file
  13:../Drivers/cmw_camera/sensors/imx335/imx335.c ****   * in the root directory of this software component.
  14:../Drivers/cmw_camera/sensors/imx335/imx335.c ****   * If no LICENSE file comes with this software, it is provided AS-IS.
  15:../Drivers/cmw_camera/sensors/imx335/imx335.c ****   *
  16:../Drivers/cmw_camera/sensors/imx335/imx335.c ****   ******************************************************************************
  17:../Drivers/cmw_camera/sensors/imx335/imx335.c ****   */
  18:../Drivers/cmw_camera/sensors/imx335/imx335.c **** 
  19:../Drivers/cmw_camera/sensors/imx335/imx335.c **** /* Includes ------------------------------------------------------------------*/
  20:../Drivers/cmw_camera/sensors/imx335/imx335.c **** #include "imx335.h"
  21:../Drivers/cmw_camera/sensors/imx335/imx335.c **** #include <string.h>
  22:../Drivers/cmw_camera/sensors/imx335/imx335.c **** 
  23:../Drivers/cmw_camera/sensors/imx335/imx335.c **** /** @addtogroup BSP
  24:../Drivers/cmw_camera/sensors/imx335/imx335.c ****   * @{
  25:../Drivers/cmw_camera/sensors/imx335/imx335.c ****   */
ARM GAS  /tmp/ccF20hIi.s 			page 2


  26:../Drivers/cmw_camera/sensors/imx335/imx335.c **** 
  27:../Drivers/cmw_camera/sensors/imx335/imx335.c **** /** @addtogroup Components
  28:../Drivers/cmw_camera/sensors/imx335/imx335.c ****   * @{
  29:../Drivers/cmw_camera/sensors/imx335/imx335.c ****   */
  30:../Drivers/cmw_camera/sensors/imx335/imx335.c **** 
  31:../Drivers/cmw_camera/sensors/imx335/imx335.c **** /** @addtogroup IMX335
  32:../Drivers/cmw_camera/sensors/imx335/imx335.c ****   * @brief     This file provides a set of functions needed to drive the
  33:../Drivers/cmw_camera/sensors/imx335/imx335.c ****   *            IMX335 Camera module.
  34:../Drivers/cmw_camera/sensors/imx335/imx335.c ****   * @{
  35:../Drivers/cmw_camera/sensors/imx335/imx335.c ****   */
  36:../Drivers/cmw_camera/sensors/imx335/imx335.c **** 
  37:../Drivers/cmw_camera/sensors/imx335/imx335.c **** /** @defgroup IMX335_Private_TypesDefinitions Private Types definition
  38:../Drivers/cmw_camera/sensors/imx335/imx335.c ****   * @{
  39:../Drivers/cmw_camera/sensors/imx335/imx335.c ****   */
  40:../Drivers/cmw_camera/sensors/imx335/imx335.c **** #define ARRAY_SIZE(arr) (sizeof(arr) / sizeof((arr)[0]))
  41:../Drivers/cmw_camera/sensors/imx335/imx335.c **** 
  42:../Drivers/cmw_camera/sensors/imx335/imx335.c **** /** @defgroup IMX335_Private_Constants Private Constants
  43:../Drivers/cmw_camera/sensors/imx335/imx335.c ****   * @{
  44:../Drivers/cmw_camera/sensors/imx335/imx335.c ****   */
  45:../Drivers/cmw_camera/sensors/imx335/imx335.c **** struct regval {
  46:../Drivers/cmw_camera/sensors/imx335/imx335.c ****   uint16_t addr;
  47:../Drivers/cmw_camera/sensors/imx335/imx335.c ****   uint8_t val;
  48:../Drivers/cmw_camera/sensors/imx335/imx335.c **** };
  49:../Drivers/cmw_camera/sensors/imx335/imx335.c **** 
  50:../Drivers/cmw_camera/sensors/imx335/imx335.c **** static const struct regval res_2592_1944_regs[] = {
  51:../Drivers/cmw_camera/sensors/imx335/imx335.c ****   {0x3000, 0x01},
  52:../Drivers/cmw_camera/sensors/imx335/imx335.c ****   {0x3002, 0x00},
  53:../Drivers/cmw_camera/sensors/imx335/imx335.c ****   {0x300c, 0x3b},
  54:../Drivers/cmw_camera/sensors/imx335/imx335.c ****   {0x300d, 0x2a},
  55:../Drivers/cmw_camera/sensors/imx335/imx335.c ****   {0x3018, 0x04},
  56:../Drivers/cmw_camera/sensors/imx335/imx335.c ****   {0x302c, 0x3c},
  57:../Drivers/cmw_camera/sensors/imx335/imx335.c ****   {0x302e, 0x20},
  58:../Drivers/cmw_camera/sensors/imx335/imx335.c ****   {0x3056, 0x98},
  59:../Drivers/cmw_camera/sensors/imx335/imx335.c ****   {0x3074, 0xc8},
  60:../Drivers/cmw_camera/sensors/imx335/imx335.c ****   {0x3076, 0x30},
  61:../Drivers/cmw_camera/sensors/imx335/imx335.c ****   {0x304c, 0x00},
  62:../Drivers/cmw_camera/sensors/imx335/imx335.c ****   {0x314c, 0xc6},
  63:../Drivers/cmw_camera/sensors/imx335/imx335.c ****   {0x315a, 0x02},
  64:../Drivers/cmw_camera/sensors/imx335/imx335.c ****   {0x3168, 0xa0},
  65:../Drivers/cmw_camera/sensors/imx335/imx335.c ****   {0x316a, 0x7e},
  66:../Drivers/cmw_camera/sensors/imx335/imx335.c ****   {0x31a1, 0x00},
  67:../Drivers/cmw_camera/sensors/imx335/imx335.c ****   {0x3288, 0x21},
  68:../Drivers/cmw_camera/sensors/imx335/imx335.c ****   {0x328a, 0x02},
  69:../Drivers/cmw_camera/sensors/imx335/imx335.c ****   {0x3414, 0x05},
  70:../Drivers/cmw_camera/sensors/imx335/imx335.c ****   {0x3416, 0x18},
  71:../Drivers/cmw_camera/sensors/imx335/imx335.c ****   {0x3648, 0x01},
  72:../Drivers/cmw_camera/sensors/imx335/imx335.c ****   {0x364a, 0x04},
  73:../Drivers/cmw_camera/sensors/imx335/imx335.c ****   {0x364c, 0x04},
  74:../Drivers/cmw_camera/sensors/imx335/imx335.c ****   {0x3678, 0x01},
  75:../Drivers/cmw_camera/sensors/imx335/imx335.c ****   {0x367c, 0x31},
  76:../Drivers/cmw_camera/sensors/imx335/imx335.c ****   {0x367e, 0x31},
  77:../Drivers/cmw_camera/sensors/imx335/imx335.c ****   {0x3706, 0x10},
  78:../Drivers/cmw_camera/sensors/imx335/imx335.c ****   {0x3708, 0x03},
  79:../Drivers/cmw_camera/sensors/imx335/imx335.c ****   {0x3714, 0x02},
  80:../Drivers/cmw_camera/sensors/imx335/imx335.c ****   {0x3715, 0x02},
  81:../Drivers/cmw_camera/sensors/imx335/imx335.c ****   {0x3716, 0x01},
  82:../Drivers/cmw_camera/sensors/imx335/imx335.c ****   {0x3717, 0x03},
ARM GAS  /tmp/ccF20hIi.s 			page 3


  83:../Drivers/cmw_camera/sensors/imx335/imx335.c ****   {0x371c, 0x3d},
  84:../Drivers/cmw_camera/sensors/imx335/imx335.c ****   {0x371d, 0x3f},
  85:../Drivers/cmw_camera/sensors/imx335/imx335.c ****   {0x372c, 0x00},
  86:../Drivers/cmw_camera/sensors/imx335/imx335.c ****   {0x372d, 0x00},
  87:../Drivers/cmw_camera/sensors/imx335/imx335.c ****   {0x372e, 0x46},
  88:../Drivers/cmw_camera/sensors/imx335/imx335.c ****   {0x372f, 0x00},
  89:../Drivers/cmw_camera/sensors/imx335/imx335.c ****   {0x3730, 0x89},
  90:../Drivers/cmw_camera/sensors/imx335/imx335.c ****   {0x3731, 0x00},
  91:../Drivers/cmw_camera/sensors/imx335/imx335.c ****   {0x3732, 0x08},
  92:../Drivers/cmw_camera/sensors/imx335/imx335.c ****   {0x3733, 0x01},
  93:../Drivers/cmw_camera/sensors/imx335/imx335.c ****   {0x3734, 0xfe},
  94:../Drivers/cmw_camera/sensors/imx335/imx335.c ****   {0x3735, 0x05},
  95:../Drivers/cmw_camera/sensors/imx335/imx335.c ****   {0x3740, 0x02},
  96:../Drivers/cmw_camera/sensors/imx335/imx335.c ****   {0x375d, 0x00},
  97:../Drivers/cmw_camera/sensors/imx335/imx335.c ****   {0x375e, 0x00},
  98:../Drivers/cmw_camera/sensors/imx335/imx335.c ****   {0x375f, 0x11},
  99:../Drivers/cmw_camera/sensors/imx335/imx335.c ****   {0x3760, 0x01},
 100:../Drivers/cmw_camera/sensors/imx335/imx335.c ****   {0x3768, 0x1b},
 101:../Drivers/cmw_camera/sensors/imx335/imx335.c ****   {0x3769, 0x1b},
 102:../Drivers/cmw_camera/sensors/imx335/imx335.c ****   {0x376a, 0x1b},
 103:../Drivers/cmw_camera/sensors/imx335/imx335.c ****   {0x376b, 0x1b},
 104:../Drivers/cmw_camera/sensors/imx335/imx335.c ****   {0x376c, 0x1a},
 105:../Drivers/cmw_camera/sensors/imx335/imx335.c ****   {0x376d, 0x17},
 106:../Drivers/cmw_camera/sensors/imx335/imx335.c ****   {0x376e, 0x0f},
 107:../Drivers/cmw_camera/sensors/imx335/imx335.c ****   {0x3776, 0x00},
 108:../Drivers/cmw_camera/sensors/imx335/imx335.c ****   {0x3777, 0x00},
 109:../Drivers/cmw_camera/sensors/imx335/imx335.c ****   {0x3778, 0x46},
 110:../Drivers/cmw_camera/sensors/imx335/imx335.c ****   {0x3779, 0x00},
 111:../Drivers/cmw_camera/sensors/imx335/imx335.c ****   {0x377a, 0x89},
 112:../Drivers/cmw_camera/sensors/imx335/imx335.c ****   {0x377b, 0x00},
 113:../Drivers/cmw_camera/sensors/imx335/imx335.c ****   {0x377c, 0x08},
 114:../Drivers/cmw_camera/sensors/imx335/imx335.c ****   {0x377d, 0x01},
 115:../Drivers/cmw_camera/sensors/imx335/imx335.c ****   {0x377e, 0x23},
 116:../Drivers/cmw_camera/sensors/imx335/imx335.c ****   {0x377f, 0x02},
 117:../Drivers/cmw_camera/sensors/imx335/imx335.c ****   {0x3780, 0xd9},
 118:../Drivers/cmw_camera/sensors/imx335/imx335.c ****   {0x3781, 0x03},
 119:../Drivers/cmw_camera/sensors/imx335/imx335.c ****   {0x3782, 0xf5},
 120:../Drivers/cmw_camera/sensors/imx335/imx335.c ****   {0x3783, 0x06},
 121:../Drivers/cmw_camera/sensors/imx335/imx335.c ****   {0x3784, 0xa5},
 122:../Drivers/cmw_camera/sensors/imx335/imx335.c ****   {0x3788, 0x0f},
 123:../Drivers/cmw_camera/sensors/imx335/imx335.c ****   {0x378a, 0xd9},
 124:../Drivers/cmw_camera/sensors/imx335/imx335.c ****   {0x378b, 0x03},
 125:../Drivers/cmw_camera/sensors/imx335/imx335.c ****   {0x378c, 0xeb},
 126:../Drivers/cmw_camera/sensors/imx335/imx335.c ****   {0x378d, 0x05},
 127:../Drivers/cmw_camera/sensors/imx335/imx335.c ****   {0x378e, 0x87},
 128:../Drivers/cmw_camera/sensors/imx335/imx335.c ****   {0x378f, 0x06},
 129:../Drivers/cmw_camera/sensors/imx335/imx335.c ****   {0x3790, 0xf5},
 130:../Drivers/cmw_camera/sensors/imx335/imx335.c ****   {0x3792, 0x43},
 131:../Drivers/cmw_camera/sensors/imx335/imx335.c ****   {0x3794, 0x7a},
 132:../Drivers/cmw_camera/sensors/imx335/imx335.c ****   {0x3796, 0xa1},
 133:../Drivers/cmw_camera/sensors/imx335/imx335.c ****   {0x37b0, 0x36},
 134:../Drivers/cmw_camera/sensors/imx335/imx335.c ****   {0x3a00, 0x01},
 135:../Drivers/cmw_camera/sensors/imx335/imx335.c **** };
 136:../Drivers/cmw_camera/sensors/imx335/imx335.c **** 
 137:../Drivers/cmw_camera/sensors/imx335/imx335.c **** static const struct regval mode_2l_10b_regs[] = {
 138:../Drivers/cmw_camera/sensors/imx335/imx335.c ****   {0x3050, 0x00},
 139:../Drivers/cmw_camera/sensors/imx335/imx335.c ****   {0x319D, 0x00},
ARM GAS  /tmp/ccF20hIi.s 			page 4


 140:../Drivers/cmw_camera/sensors/imx335/imx335.c ****   {0x341c, 0xff},
 141:../Drivers/cmw_camera/sensors/imx335/imx335.c ****   {0x341d, 0x01},
 142:../Drivers/cmw_camera/sensors/imx335/imx335.c ****   {0x3a01, 0x01},
 143:../Drivers/cmw_camera/sensors/imx335/imx335.c **** };
 144:../Drivers/cmw_camera/sensors/imx335/imx335.c **** 
 145:../Drivers/cmw_camera/sensors/imx335/imx335.c **** static const struct regval inck_74Mhz_regs[] = {
 146:../Drivers/cmw_camera/sensors/imx335/imx335.c ****   {0x300c, 0xB6},
 147:../Drivers/cmw_camera/sensors/imx335/imx335.c ****   {0x300d, 0x7F},
 148:../Drivers/cmw_camera/sensors/imx335/imx335.c ****   {0x314c, 0x80},
 149:../Drivers/cmw_camera/sensors/imx335/imx335.c ****   {0x314d, 0x00},
 150:../Drivers/cmw_camera/sensors/imx335/imx335.c ****   {0x315a, 0x03},
 151:../Drivers/cmw_camera/sensors/imx335/imx335.c ****   {0x3168, 0x68},
 152:../Drivers/cmw_camera/sensors/imx335/imx335.c ****   {0x316a, 0x7F},
 153:../Drivers/cmw_camera/sensors/imx335/imx335.c **** };
 154:../Drivers/cmw_camera/sensors/imx335/imx335.c **** 
 155:../Drivers/cmw_camera/sensors/imx335/imx335.c **** static const struct regval inck_27Mhz_regs[] = {
 156:../Drivers/cmw_camera/sensors/imx335/imx335.c ****   {0x300c, 0x42},
 157:../Drivers/cmw_camera/sensors/imx335/imx335.c ****   {0x300d, 0x2E},
 158:../Drivers/cmw_camera/sensors/imx335/imx335.c ****   {0x314c, 0xB0},
 159:../Drivers/cmw_camera/sensors/imx335/imx335.c ****   {0x314d, 0x00},
 160:../Drivers/cmw_camera/sensors/imx335/imx335.c ****   {0x315a, 0x02},
 161:../Drivers/cmw_camera/sensors/imx335/imx335.c ****   {0x3168, 0x8F},
 162:../Drivers/cmw_camera/sensors/imx335/imx335.c ****   {0x316a, 0x7E},
 163:../Drivers/cmw_camera/sensors/imx335/imx335.c **** };
 164:../Drivers/cmw_camera/sensors/imx335/imx335.c **** 
 165:../Drivers/cmw_camera/sensors/imx335/imx335.c **** static const struct regval inck_24Mhz_regs[] = {
 166:../Drivers/cmw_camera/sensors/imx335/imx335.c ****   {0x300c, 0x3B},
 167:../Drivers/cmw_camera/sensors/imx335/imx335.c ****   {0x300d, 0x2A},
 168:../Drivers/cmw_camera/sensors/imx335/imx335.c ****   {0x314c, 0xC6},
 169:../Drivers/cmw_camera/sensors/imx335/imx335.c ****   {0x314d, 0x00},
 170:../Drivers/cmw_camera/sensors/imx335/imx335.c ****   {0x315a, 0x02},
 171:../Drivers/cmw_camera/sensors/imx335/imx335.c ****   {0x3168, 0xA0},
 172:../Drivers/cmw_camera/sensors/imx335/imx335.c ****   {0x316a, 0x7E},
 173:../Drivers/cmw_camera/sensors/imx335/imx335.c **** };
 174:../Drivers/cmw_camera/sensors/imx335/imx335.c **** 
 175:../Drivers/cmw_camera/sensors/imx335/imx335.c **** static const struct regval inck_18Mhz_regs[] = {
 176:../Drivers/cmw_camera/sensors/imx335/imx335.c ****   {0x300c, 0x2D},
 177:../Drivers/cmw_camera/sensors/imx335/imx335.c ****   {0x300d, 0x1F},
 178:../Drivers/cmw_camera/sensors/imx335/imx335.c ****   {0x314c, 0x84},
 179:../Drivers/cmw_camera/sensors/imx335/imx335.c ****   {0x314d, 0x00},
 180:../Drivers/cmw_camera/sensors/imx335/imx335.c ****   {0x315a, 0x01},
 181:../Drivers/cmw_camera/sensors/imx335/imx335.c ****   {0x3168, 0x6B},
 182:../Drivers/cmw_camera/sensors/imx335/imx335.c ****   {0x316a, 0x7D},
 183:../Drivers/cmw_camera/sensors/imx335/imx335.c **** };
 184:../Drivers/cmw_camera/sensors/imx335/imx335.c **** 
 185:../Drivers/cmw_camera/sensors/imx335/imx335.c **** static const struct regval inck_6Mhz_regs[] = {
 186:../Drivers/cmw_camera/sensors/imx335/imx335.c ****   {0x300c, 0x0F},
 187:../Drivers/cmw_camera/sensors/imx335/imx335.c ****   {0x300d, 0x0B},
 188:../Drivers/cmw_camera/sensors/imx335/imx335.c ****   {0x314c, 0xC6},
 189:../Drivers/cmw_camera/sensors/imx335/imx335.c ****   {0x314d, 0x00},
 190:../Drivers/cmw_camera/sensors/imx335/imx335.c ****   {0x315a, 0x00},
 191:../Drivers/cmw_camera/sensors/imx335/imx335.c ****   {0x3168, 0xA0},
 192:../Drivers/cmw_camera/sensors/imx335/imx335.c ****   {0x316a, 0x7C},
 193:../Drivers/cmw_camera/sensors/imx335/imx335.c **** };
 194:../Drivers/cmw_camera/sensors/imx335/imx335.c **** 
 195:../Drivers/cmw_camera/sensors/imx335/imx335.c **** static const struct regval framerate_10fps_regs[] = {
 196:../Drivers/cmw_camera/sensors/imx335/imx335.c ****   {0x3030, 0xC0},
ARM GAS  /tmp/ccF20hIi.s 			page 5


 197:../Drivers/cmw_camera/sensors/imx335/imx335.c ****   {0x3031, 0x34},
 198:../Drivers/cmw_camera/sensors/imx335/imx335.c **** };
 199:../Drivers/cmw_camera/sensors/imx335/imx335.c **** 
 200:../Drivers/cmw_camera/sensors/imx335/imx335.c **** static const struct regval framerate_15fps_regs[] = {
 201:../Drivers/cmw_camera/sensors/imx335/imx335.c ****   {0x3030, 0x2A},
 202:../Drivers/cmw_camera/sensors/imx335/imx335.c ****   {0x3031, 0x23},
 203:../Drivers/cmw_camera/sensors/imx335/imx335.c **** };
 204:../Drivers/cmw_camera/sensors/imx335/imx335.c **** 
 205:../Drivers/cmw_camera/sensors/imx335/imx335.c **** static const struct regval framerate_20fps_regs[] = {
 206:../Drivers/cmw_camera/sensors/imx335/imx335.c ****   {0x3030, 0x60},
 207:../Drivers/cmw_camera/sensors/imx335/imx335.c ****   {0x3031, 0x1A},
 208:../Drivers/cmw_camera/sensors/imx335/imx335.c **** };
 209:../Drivers/cmw_camera/sensors/imx335/imx335.c **** 
 210:../Drivers/cmw_camera/sensors/imx335/imx335.c **** static const struct regval framerate_25fps_regs[] = {
 211:../Drivers/cmw_camera/sensors/imx335/imx335.c ****   {0x3030, 0x1A},
 212:../Drivers/cmw_camera/sensors/imx335/imx335.c ****   {0x3031, 0x15},
 213:../Drivers/cmw_camera/sensors/imx335/imx335.c **** };
 214:../Drivers/cmw_camera/sensors/imx335/imx335.c **** 
 215:../Drivers/cmw_camera/sensors/imx335/imx335.c **** static const struct regval framerate_30fps_regs[] = {
 216:../Drivers/cmw_camera/sensors/imx335/imx335.c ****   {0x3030, 0x94},
 217:../Drivers/cmw_camera/sensors/imx335/imx335.c ****   {0x3031, 0x11},
 218:../Drivers/cmw_camera/sensors/imx335/imx335.c **** };
 219:../Drivers/cmw_camera/sensors/imx335/imx335.c **** 
 220:../Drivers/cmw_camera/sensors/imx335/imx335.c **** static const struct regval mirrorflip_mode_regs[][10] = {
 221:../Drivers/cmw_camera/sensors/imx335/imx335.c ****   {
 222:../Drivers/cmw_camera/sensors/imx335/imx335.c ****     {AREA3_ST_ADR_1_LSB, 0xc8}, //AREA3_ST_ADR_1 LSB
 223:../Drivers/cmw_camera/sensors/imx335/imx335.c ****     {AREA3_ST_ADR_1_MSB, 0x00}, //AREA3_ST_ADR_1 MSB
 224:../Drivers/cmw_camera/sensors/imx335/imx335.c ****     {IMX335_REG_HREVERSE, 0x00}, //HREVERSE 0
 225:../Drivers/cmw_camera/sensors/imx335/imx335.c ****     {IMX335_REG_VREVERSE, 0x00}, //VREVERSE 0
 226:../Drivers/cmw_camera/sensors/imx335/imx335.c ****     {0x3081, 0x02}, //RESERVED
 227:../Drivers/cmw_camera/sensors/imx335/imx335.c ****     {0x3083, 0x02}, //RESERVED
 228:../Drivers/cmw_camera/sensors/imx335/imx335.c ****     {0x30b6, 0x00}, //RESERVED
 229:../Drivers/cmw_camera/sensors/imx335/imx335.c ****     {0x30b7, 0x00}, //RESERVED
 230:../Drivers/cmw_camera/sensors/imx335/imx335.c ****     {0x3116, 0x08}, //RESERVED
 231:../Drivers/cmw_camera/sensors/imx335/imx335.c ****     {0x3117, 0x00}, //RESERVED
 232:../Drivers/cmw_camera/sensors/imx335/imx335.c ****   },
 233:../Drivers/cmw_camera/sensors/imx335/imx335.c ****   {
 234:../Drivers/cmw_camera/sensors/imx335/imx335.c ****     {AREA3_ST_ADR_1_LSB, 0xf8}, //AREA3_ST_ADR_1 LSB
 235:../Drivers/cmw_camera/sensors/imx335/imx335.c ****     {AREA3_ST_ADR_1_MSB, 0x0f}, //AREA3_ST_ADR_1 MSB
 236:../Drivers/cmw_camera/sensors/imx335/imx335.c ****     {IMX335_REG_HREVERSE, 0x00}, //HREVERSE 0
 237:../Drivers/cmw_camera/sensors/imx335/imx335.c ****     {IMX335_REG_VREVERSE, 0x01}, //VREVERSE 1
 238:../Drivers/cmw_camera/sensors/imx335/imx335.c ****     {0x3081, 0xfe}, //RESERVED
 239:../Drivers/cmw_camera/sensors/imx335/imx335.c ****     {0x3083, 0xfe}, //RESERVED
 240:../Drivers/cmw_camera/sensors/imx335/imx335.c ****     {0x30b6, 0xfa}, //RESERVED
 241:../Drivers/cmw_camera/sensors/imx335/imx335.c ****     {0x30b7, 0x01}, //RESERVED
 242:../Drivers/cmw_camera/sensors/imx335/imx335.c ****     {0x3116, 0x02}, //RESERVED
 243:../Drivers/cmw_camera/sensors/imx335/imx335.c ****     {0x3117, 0x00}, //RESERVED
 244:../Drivers/cmw_camera/sensors/imx335/imx335.c ****   },
 245:../Drivers/cmw_camera/sensors/imx335/imx335.c ****   {
 246:../Drivers/cmw_camera/sensors/imx335/imx335.c ****     {AREA3_ST_ADR_1_LSB, 0xc8}, //AREA3_ST_ADR_1 LSB
 247:../Drivers/cmw_camera/sensors/imx335/imx335.c ****     {AREA3_ST_ADR_1_MSB, 0x00}, //AREA3_ST_ADR_1 MSB
 248:../Drivers/cmw_camera/sensors/imx335/imx335.c ****     {IMX335_REG_HREVERSE, 0x01}, //HREVERSE 1
 249:../Drivers/cmw_camera/sensors/imx335/imx335.c ****     {IMX335_REG_VREVERSE, 0x00}, //VREVERSE 0
 250:../Drivers/cmw_camera/sensors/imx335/imx335.c ****     {0x3081, 0x02}, //RESERVED
 251:../Drivers/cmw_camera/sensors/imx335/imx335.c ****     {0x3083, 0x02}, //RESERVED
 252:../Drivers/cmw_camera/sensors/imx335/imx335.c ****     {0x30b6, 0x00}, //RESERVED
 253:../Drivers/cmw_camera/sensors/imx335/imx335.c ****     {0x30b7, 0x00}, //RESERVED
ARM GAS  /tmp/ccF20hIi.s 			page 6


 254:../Drivers/cmw_camera/sensors/imx335/imx335.c ****     {0x3116, 0x08}, //RESERVED
 255:../Drivers/cmw_camera/sensors/imx335/imx335.c ****     {0x3117, 0x00}, //RESERVED
 256:../Drivers/cmw_camera/sensors/imx335/imx335.c ****   },
 257:../Drivers/cmw_camera/sensors/imx335/imx335.c ****   {
 258:../Drivers/cmw_camera/sensors/imx335/imx335.c ****     {AREA3_ST_ADR_1_LSB, 0xf8}, //AREA3_ST_ADR_1 LSB
 259:../Drivers/cmw_camera/sensors/imx335/imx335.c ****     {AREA3_ST_ADR_1_MSB, 0x0f}, //AREA3_ST_ADR_1 MSB
 260:../Drivers/cmw_camera/sensors/imx335/imx335.c ****     {IMX335_REG_HREVERSE, 0x01}, //HREVERSE 1
 261:../Drivers/cmw_camera/sensors/imx335/imx335.c ****     {IMX335_REG_VREVERSE, 0x01}, //VREVERSE 1
 262:../Drivers/cmw_camera/sensors/imx335/imx335.c ****     {0x3081, 0xfe}, //RESERVED
 263:../Drivers/cmw_camera/sensors/imx335/imx335.c ****     {0x3083, 0xfe}, //RESERVED
 264:../Drivers/cmw_camera/sensors/imx335/imx335.c ****     {0x30b6, 0xfa}, //RESERVED
 265:../Drivers/cmw_camera/sensors/imx335/imx335.c ****     {0x30b7, 0x01}, //RESERVED
 266:../Drivers/cmw_camera/sensors/imx335/imx335.c ****     {0x3116, 0x02}, //RESERVED
 267:../Drivers/cmw_camera/sensors/imx335/imx335.c ****     {0x3117, 0x00}, //RESERVED
 268:../Drivers/cmw_camera/sensors/imx335/imx335.c ****   },
 269:../Drivers/cmw_camera/sensors/imx335/imx335.c **** };
 270:../Drivers/cmw_camera/sensors/imx335/imx335.c **** 
 271:../Drivers/cmw_camera/sensors/imx335/imx335.c **** static const struct regval test_pattern_enable_regs[] = {
 272:../Drivers/cmw_camera/sensors/imx335/imx335.c ****   {0x3148, 0x10},
 273:../Drivers/cmw_camera/sensors/imx335/imx335.c ****   {0x3280, 0x00},
 274:../Drivers/cmw_camera/sensors/imx335/imx335.c ****   {0x329c, 0x01},
 275:../Drivers/cmw_camera/sensors/imx335/imx335.c ****   {0x32a0, 0x11},
 276:../Drivers/cmw_camera/sensors/imx335/imx335.c ****   {0x3302, 0x00},
 277:../Drivers/cmw_camera/sensors/imx335/imx335.c ****   {0x3303, 0x00},
 278:../Drivers/cmw_camera/sensors/imx335/imx335.c ****   {0x336c, 0x00},
 279:../Drivers/cmw_camera/sensors/imx335/imx335.c **** };
 280:../Drivers/cmw_camera/sensors/imx335/imx335.c **** 
 281:../Drivers/cmw_camera/sensors/imx335/imx335.c **** static const struct regval test_pattern_disable_regs[] = {
 282:../Drivers/cmw_camera/sensors/imx335/imx335.c ****   {0x3148, 0x00},
 283:../Drivers/cmw_camera/sensors/imx335/imx335.c ****   {0x3280, 0x01},
 284:../Drivers/cmw_camera/sensors/imx335/imx335.c ****   {0x329c, 0x00},
 285:../Drivers/cmw_camera/sensors/imx335/imx335.c ****   {0x32a0, 0x10},
 286:../Drivers/cmw_camera/sensors/imx335/imx335.c ****   {0x3302, 0x32},
 287:../Drivers/cmw_camera/sensors/imx335/imx335.c ****   {0x3303, 0x00},
 288:../Drivers/cmw_camera/sensors/imx335/imx335.c ****   {0x336c, 0x01},
 289:../Drivers/cmw_camera/sensors/imx335/imx335.c **** };
 290:../Drivers/cmw_camera/sensors/imx335/imx335.c **** 
 291:../Drivers/cmw_camera/sensors/imx335/imx335.c **** #define IMX335_1H_PERIOD_USEC (1000000.0F / 4500 / 30)
 292:../Drivers/cmw_camera/sensors/imx335/imx335.c **** 
 293:../Drivers/cmw_camera/sensors/imx335/imx335.c **** /**
 294:../Drivers/cmw_camera/sensors/imx335/imx335.c ****   * @}
 295:../Drivers/cmw_camera/sensors/imx335/imx335.c ****   */
 296:../Drivers/cmw_camera/sensors/imx335/imx335.c **** 
 297:../Drivers/cmw_camera/sensors/imx335/imx335.c **** /** @defgroup IMX335_Private_Functions_Prototypes Private Functions Prototypes
 298:../Drivers/cmw_camera/sensors/imx335/imx335.c ****   * @{
 299:../Drivers/cmw_camera/sensors/imx335/imx335.c ****   */
 300:../Drivers/cmw_camera/sensors/imx335/imx335.c **** static int32_t IMX335_WriteTable(IMX335_Object_t *pObj, const struct regval *regs, uint32_t size);
 301:../Drivers/cmw_camera/sensors/imx335/imx335.c **** static int32_t IMX335_ReadRegWrap(void *handle, uint16_t Reg, uint8_t* Data, uint16_t Length);
 302:../Drivers/cmw_camera/sensors/imx335/imx335.c **** static int32_t IMX335_WriteRegWrap(void *handle, uint16_t Reg, uint8_t* Data, uint16_t Length);
 303:../Drivers/cmw_camera/sensors/imx335/imx335.c **** static int32_t IMX335_Delay(IMX335_Object_t *pObj, uint32_t Delay);
 304:../Drivers/cmw_camera/sensors/imx335/imx335.c **** 
 305:../Drivers/cmw_camera/sensors/imx335/imx335.c **** /**
 306:../Drivers/cmw_camera/sensors/imx335/imx335.c ****   * @}
 307:../Drivers/cmw_camera/sensors/imx335/imx335.c ****   */
 308:../Drivers/cmw_camera/sensors/imx335/imx335.c **** 
 309:../Drivers/cmw_camera/sensors/imx335/imx335.c **** /** @defgroup IMX335_Private_Functions Private Functions
 310:../Drivers/cmw_camera/sensors/imx335/imx335.c ****   * @{
ARM GAS  /tmp/ccF20hIi.s 			page 7


 311:../Drivers/cmw_camera/sensors/imx335/imx335.c ****   */
 312:../Drivers/cmw_camera/sensors/imx335/imx335.c **** static int32_t IMX335_WriteTable(IMX335_Object_t *pObj, const struct regval *regs, uint32_t size)
 313:../Drivers/cmw_camera/sensors/imx335/imx335.c **** {
 314:../Drivers/cmw_camera/sensors/imx335/imx335.c ****   uint32_t index;
 315:../Drivers/cmw_camera/sensors/imx335/imx335.c ****   int32_t ret = IMX335_OK;
 316:../Drivers/cmw_camera/sensors/imx335/imx335.c **** 
 317:../Drivers/cmw_camera/sensors/imx335/imx335.c ****   /* Set registers */
 318:../Drivers/cmw_camera/sensors/imx335/imx335.c ****   for(index=0; index<size ; index++)
 319:../Drivers/cmw_camera/sensors/imx335/imx335.c ****   {
 320:../Drivers/cmw_camera/sensors/imx335/imx335.c ****     if(ret != IMX335_ERROR)
 321:../Drivers/cmw_camera/sensors/imx335/imx335.c ****     {
 322:../Drivers/cmw_camera/sensors/imx335/imx335.c ****       if(imx335_write_reg(&pObj->Ctx, regs[index].addr, (uint8_t *)&(regs[index].val), 1) != IMX335
 323:../Drivers/cmw_camera/sensors/imx335/imx335.c ****       {
 324:../Drivers/cmw_camera/sensors/imx335/imx335.c ****         ret = IMX335_ERROR;
 325:../Drivers/cmw_camera/sensors/imx335/imx335.c ****       }
 326:../Drivers/cmw_camera/sensors/imx335/imx335.c ****     }
 327:../Drivers/cmw_camera/sensors/imx335/imx335.c ****   }
 328:../Drivers/cmw_camera/sensors/imx335/imx335.c ****   return ret;
 329:../Drivers/cmw_camera/sensors/imx335/imx335.c **** }
 330:../Drivers/cmw_camera/sensors/imx335/imx335.c **** 
 331:../Drivers/cmw_camera/sensors/imx335/imx335.c **** /**
 332:../Drivers/cmw_camera/sensors/imx335/imx335.c ****   * @brief This function provides accurate delay (in milliseconds)
 333:../Drivers/cmw_camera/sensors/imx335/imx335.c ****   * @param pObj   pointer to component object
 334:../Drivers/cmw_camera/sensors/imx335/imx335.c ****   * @param Delay  specifies the delay time length, in milliseconds
 335:../Drivers/cmw_camera/sensors/imx335/imx335.c ****   * @retval IMX335_OK
 336:../Drivers/cmw_camera/sensors/imx335/imx335.c ****   */
 337:../Drivers/cmw_camera/sensors/imx335/imx335.c **** static int32_t IMX335_Delay(IMX335_Object_t *pObj, uint32_t Delay)
 338:../Drivers/cmw_camera/sensors/imx335/imx335.c **** {
  34              		.loc 1 338 1 view -0
  35              		.cfi_startproc
  36              		@ args = 0, pretend = 0, frame = 0
  37              		@ frame_needed = 0, uses_anonymous_args = 0
  38              		.loc 1 338 1 is_stmt 0 view .LVU1
  39 0000 70B5     		push	{r4, r5, r6, lr}
  40              	.LCFI0:
  41              		.cfi_def_cfa_offset 16
  42              		.cfi_offset 4, -16
  43              		.cfi_offset 5, -12
  44              		.cfi_offset 6, -8
  45              		.cfi_offset 14, -4
  46 0002 0446     		mov	r4, r0
  47 0004 0E46     		mov	r6, r1
 339:../Drivers/cmw_camera/sensors/imx335/imx335.c ****   uint32_t tickstart;
  48              		.loc 1 339 3 is_stmt 1 view .LVU2
 340:../Drivers/cmw_camera/sensors/imx335/imx335.c ****   tickstart = pObj->IO.GetTick();
  49              		.loc 1 340 3 view .LVU3
  50              		.loc 1 340 23 is_stmt 0 view .LVU4
  51 0006 4369     		ldr	r3, [r0, #20]
  52              		.loc 1 340 15 view .LVU5
  53 0008 9847     		blx	r3
  54              	.LVL1:
  55              		.loc 1 340 15 view .LVU6
  56 000a 0546     		mov	r5, r0
  57              	.LVL2:
 341:../Drivers/cmw_camera/sensors/imx335/imx335.c ****   while((pObj->IO.GetTick() - tickstart) < Delay)
  58              		.loc 1 341 3 is_stmt 1 view .LVU7
  59              	.L2:
ARM GAS  /tmp/ccF20hIi.s 			page 8


 342:../Drivers/cmw_camera/sensors/imx335/imx335.c ****   {
 343:../Drivers/cmw_camera/sensors/imx335/imx335.c ****   }
  60              		.loc 1 343 3 view .LVU8
 341:../Drivers/cmw_camera/sensors/imx335/imx335.c ****   while((pObj->IO.GetTick() - tickstart) < Delay)
  61              		.loc 1 341 42 discriminator 1 view .LVU9
 341:../Drivers/cmw_camera/sensors/imx335/imx335.c ****   while((pObj->IO.GetTick() - tickstart) < Delay)
  62              		.loc 1 341 18 is_stmt 0 discriminator 1 view .LVU10
  63 000c 6369     		ldr	r3, [r4, #20]
 341:../Drivers/cmw_camera/sensors/imx335/imx335.c ****   while((pObj->IO.GetTick() - tickstart) < Delay)
  64              		.loc 1 341 10 discriminator 1 view .LVU11
  65 000e 9847     		blx	r3
  66              	.LVL3:
 341:../Drivers/cmw_camera/sensors/imx335/imx335.c ****   while((pObj->IO.GetTick() - tickstart) < Delay)
  67              		.loc 1 341 29 discriminator 2 view .LVU12
  68 0010 401B     		subs	r0, r0, r5
 341:../Drivers/cmw_camera/sensors/imx335/imx335.c ****   while((pObj->IO.GetTick() - tickstart) < Delay)
  69              		.loc 1 341 42 discriminator 2 view .LVU13
  70 0012 B042     		cmp	r0, r6
  71 0014 FAD3     		bcc	.L2
 344:../Drivers/cmw_camera/sensors/imx335/imx335.c ****   return IMX335_OK;
  72              		.loc 1 344 3 is_stmt 1 view .LVU14
 345:../Drivers/cmw_camera/sensors/imx335/imx335.c **** }
  73              		.loc 1 345 1 is_stmt 0 view .LVU15
  74 0016 0020     		movs	r0, #0
  75 0018 70BD     		pop	{r4, r5, r6, pc}
  76              		.loc 1 345 1 view .LVU16
  77              		.cfi_endproc
  78              	.LFE187:
  80              		.section	.text.IMX335_ReadRegWrap,"ax",%progbits
  81              		.align	1
  82              		.syntax unified
  83              		.thumb
  84              		.thumb_func
  86              	IMX335_ReadRegWrap:
  87              	.LVL4:
  88              	.LFB188:
 346:../Drivers/cmw_camera/sensors/imx335/imx335.c **** 
 347:../Drivers/cmw_camera/sensors/imx335/imx335.c **** /**
 348:../Drivers/cmw_camera/sensors/imx335/imx335.c ****   * @brief  Wrap component ReadReg to Bus Read function
 349:../Drivers/cmw_camera/sensors/imx335/imx335.c ****   * @param  handle  Component object handle
 350:../Drivers/cmw_camera/sensors/imx335/imx335.c ****   * @param  Reg  The target register address to write
 351:../Drivers/cmw_camera/sensors/imx335/imx335.c ****   * @param  pData  The target register value to be written
 352:../Drivers/cmw_camera/sensors/imx335/imx335.c ****   * @param  Length  buffer size to be written
 353:../Drivers/cmw_camera/sensors/imx335/imx335.c ****   * @retval error status
 354:../Drivers/cmw_camera/sensors/imx335/imx335.c ****   */
 355:../Drivers/cmw_camera/sensors/imx335/imx335.c **** static int32_t IMX335_ReadRegWrap(void *handle, uint16_t Reg, uint8_t* pData, uint16_t Length)
 356:../Drivers/cmw_camera/sensors/imx335/imx335.c **** {
  89              		.loc 1 356 1 is_stmt 1 view -0
  90              		.cfi_startproc
  91              		@ args = 0, pretend = 0, frame = 0
  92              		@ frame_needed = 0, uses_anonymous_args = 0
  93              		.loc 1 356 1 is_stmt 0 view .LVU18
  94 0000 10B5     		push	{r4, lr}
  95              	.LCFI1:
  96              		.cfi_def_cfa_offset 8
  97              		.cfi_offset 4, -8
  98              		.cfi_offset 14, -4
ARM GAS  /tmp/ccF20hIi.s 			page 9


 357:../Drivers/cmw_camera/sensors/imx335/imx335.c ****   IMX335_Object_t *pObj = (IMX335_Object_t *)handle;
  99              		.loc 1 357 3 is_stmt 1 view .LVU19
 100              	.LVL5:
 358:../Drivers/cmw_camera/sensors/imx335/imx335.c **** 
 359:../Drivers/cmw_camera/sensors/imx335/imx335.c ****   return pObj->IO.ReadReg(pObj->IO.Address, Reg, pData, Length);
 101              		.loc 1 359 3 view .LVU20
 102              		.loc 1 359 18 is_stmt 0 view .LVU21
 103 0002 0469     		ldr	r4, [r0, #16]
 104              		.loc 1 359 10 view .LVU22
 105 0004 0089     		ldrh	r0, [r0, #8]
 106              	.LVL6:
 107              		.loc 1 359 10 view .LVU23
 108 0006 A047     		blx	r4
 109              	.LVL7:
 360:../Drivers/cmw_camera/sensors/imx335/imx335.c **** }
 110              		.loc 1 360 1 view .LVU24
 111 0008 10BD     		pop	{r4, pc}
 112              		.cfi_endproc
 113              	.LFE188:
 115              		.section	.text.IMX335_WriteRegWrap,"ax",%progbits
 116              		.align	1
 117              		.syntax unified
 118              		.thumb
 119              		.thumb_func
 121              	IMX335_WriteRegWrap:
 122              	.LVL8:
 123              	.LFB189:
 361:../Drivers/cmw_camera/sensors/imx335/imx335.c **** 
 362:../Drivers/cmw_camera/sensors/imx335/imx335.c **** /**
 363:../Drivers/cmw_camera/sensors/imx335/imx335.c ****   * @brief  Wrap component WriteReg to Bus Write function
 364:../Drivers/cmw_camera/sensors/imx335/imx335.c ****   * @param  handle  Component object handle
 365:../Drivers/cmw_camera/sensors/imx335/imx335.c ****   * @param  Reg  The target register address to write
 366:../Drivers/cmw_camera/sensors/imx335/imx335.c ****   * @param  pData  The target register value to be written
 367:../Drivers/cmw_camera/sensors/imx335/imx335.c ****   * @param  Length  buffer size to be written
 368:../Drivers/cmw_camera/sensors/imx335/imx335.c ****   * @retval error status
 369:../Drivers/cmw_camera/sensors/imx335/imx335.c ****   */
 370:../Drivers/cmw_camera/sensors/imx335/imx335.c **** static int32_t IMX335_WriteRegWrap(void *handle, uint16_t Reg, uint8_t* pData, uint16_t Length)
 371:../Drivers/cmw_camera/sensors/imx335/imx335.c **** {
 124              		.loc 1 371 1 is_stmt 1 view -0
 125              		.cfi_startproc
 126              		@ args = 0, pretend = 0, frame = 0
 127              		@ frame_needed = 0, uses_anonymous_args = 0
 128              		.loc 1 371 1 is_stmt 0 view .LVU26
 129 0000 10B5     		push	{r4, lr}
 130              	.LCFI2:
 131              		.cfi_def_cfa_offset 8
 132              		.cfi_offset 4, -8
 133              		.cfi_offset 14, -4
 372:../Drivers/cmw_camera/sensors/imx335/imx335.c ****   IMX335_Object_t *pObj = (IMX335_Object_t *)handle;
 134              		.loc 1 372 3 is_stmt 1 view .LVU27
 135              	.LVL9:
 373:../Drivers/cmw_camera/sensors/imx335/imx335.c **** 
 374:../Drivers/cmw_camera/sensors/imx335/imx335.c ****   return pObj->IO.WriteReg(pObj->IO.Address, Reg, pData, Length);
 136              		.loc 1 374 3 view .LVU28
 137              		.loc 1 374 18 is_stmt 0 view .LVU29
 138 0002 C468     		ldr	r4, [r0, #12]
 139              		.loc 1 374 10 view .LVU30
ARM GAS  /tmp/ccF20hIi.s 			page 10


 140 0004 0089     		ldrh	r0, [r0, #8]
 141              	.LVL10:
 142              		.loc 1 374 10 view .LVU31
 143 0006 A047     		blx	r4
 144              	.LVL11:
 375:../Drivers/cmw_camera/sensors/imx335/imx335.c **** }
 145              		.loc 1 375 1 view .LVU32
 146 0008 10BD     		pop	{r4, pc}
 147              		.cfi_endproc
 148              	.LFE189:
 150              		.section	.text.IMX335_WriteTable,"ax",%progbits
 151              		.align	1
 152              		.syntax unified
 153              		.thumb
 154              		.thumb_func
 156              	IMX335_WriteTable:
 157              	.LVL12:
 158              	.LFB186:
 313:../Drivers/cmw_camera/sensors/imx335/imx335.c ****   uint32_t index;
 159              		.loc 1 313 1 is_stmt 1 view -0
 160              		.cfi_startproc
 161              		@ args = 0, pretend = 0, frame = 0
 162              		@ frame_needed = 0, uses_anonymous_args = 0
 313:../Drivers/cmw_camera/sensors/imx335/imx335.c ****   uint32_t index;
 163              		.loc 1 313 1 is_stmt 0 view .LVU34
 164 0000 2DE9F041 		push	{r4, r5, r6, r7, r8, lr}
 165              	.LCFI3:
 166              		.cfi_def_cfa_offset 24
 167              		.cfi_offset 4, -24
 168              		.cfi_offset 5, -20
 169              		.cfi_offset 6, -16
 170              		.cfi_offset 7, -12
 171              		.cfi_offset 8, -8
 172              		.cfi_offset 14, -4
 173 0004 8046     		mov	r8, r0
 174 0006 0F46     		mov	r7, r1
 175 0008 1646     		mov	r6, r2
 314:../Drivers/cmw_camera/sensors/imx335/imx335.c ****   int32_t ret = IMX335_OK;
 176              		.loc 1 314 3 is_stmt 1 view .LVU35
 315:../Drivers/cmw_camera/sensors/imx335/imx335.c **** 
 177              		.loc 1 315 3 view .LVU36
 178              	.LVL13:
 318:../Drivers/cmw_camera/sensors/imx335/imx335.c ****   {
 179              		.loc 1 318 3 view .LVU37
 315:../Drivers/cmw_camera/sensors/imx335/imx335.c **** 
 180              		.loc 1 315 11 is_stmt 0 view .LVU38
 181 000a 0025     		movs	r5, #0
 318:../Drivers/cmw_camera/sensors/imx335/imx335.c ****   {
 182              		.loc 1 318 12 view .LVU39
 183 000c 2C46     		mov	r4, r5
 318:../Drivers/cmw_camera/sensors/imx335/imx335.c ****   {
 184              		.loc 1 318 3 view .LVU40
 185 000e 00E0     		b	.L9
 186              	.LVL14:
 187              	.L10:
 318:../Drivers/cmw_camera/sensors/imx335/imx335.c ****   {
 188              		.loc 1 318 34 is_stmt 1 discriminator 1 view .LVU41
ARM GAS  /tmp/ccF20hIi.s 			page 11


 189 0010 0134     		adds	r4, r4, #1
 190              	.LVL15:
 191              	.L9:
 318:../Drivers/cmw_camera/sensors/imx335/imx335.c ****   {
 192              		.loc 1 318 21 discriminator 2 view .LVU42
 193 0012 B442     		cmp	r4, r6
 194 0014 10D2     		bcs	.L14
 320:../Drivers/cmw_camera/sensors/imx335/imx335.c ****     {
 195              		.loc 1 320 5 view .LVU43
 320:../Drivers/cmw_camera/sensors/imx335/imx335.c ****     {
 196              		.loc 1 320 7 is_stmt 0 view .LVU44
 197 0016 002D     		cmp	r5, #0
 198 0018 FAD1     		bne	.L10
 322:../Drivers/cmw_camera/sensors/imx335/imx335.c ****       {
 199              		.loc 1 322 7 is_stmt 1 view .LVU45
 322:../Drivers/cmw_camera/sensors/imx335/imx335.c ****       {
 200              		.loc 1 322 43 is_stmt 0 view .LVU46
 201 001a 07EB8402 		add	r2, r7, r4, lsl #2
 322:../Drivers/cmw_camera/sensors/imx335/imx335.c ****       {
 202              		.loc 1 322 10 view .LVU47
 203 001e 0123     		movs	r3, #1
 204 0020 0232     		adds	r2, r2, #2
 205 0022 37F82410 		ldrh	r1, [r7, r4, lsl #2]
 206 0026 08F11800 		add	r0, r8, #24
 207 002a FFF7FEFF 		bl	imx335_write_reg
 208              	.LVL16:
 322:../Drivers/cmw_camera/sensors/imx335/imx335.c ****       {
 209              		.loc 1 322 9 discriminator 1 view .LVU48
 210 002e 0028     		cmp	r0, #0
 211 0030 EED0     		beq	.L10
 324:../Drivers/cmw_camera/sensors/imx335/imx335.c ****       }
 212              		.loc 1 324 13 view .LVU49
 213 0032 4FF0FF35 		mov	r5, #-1
 214              	.LVL17:
 324:../Drivers/cmw_camera/sensors/imx335/imx335.c ****       }
 215              		.loc 1 324 13 view .LVU50
 216 0036 EBE7     		b	.L10
 217              	.LVL18:
 218              	.L14:
 328:../Drivers/cmw_camera/sensors/imx335/imx335.c **** }
 219              		.loc 1 328 3 is_stmt 1 view .LVU51
 329:../Drivers/cmw_camera/sensors/imx335/imx335.c **** 
 220              		.loc 1 329 1 is_stmt 0 view .LVU52
 221 0038 2846     		mov	r0, r5
 222 003a BDE8F081 		pop	{r4, r5, r6, r7, r8, pc}
 329:../Drivers/cmw_camera/sensors/imx335/imx335.c **** 
 223              		.loc 1 329 1 view .LVU53
 224              		.cfi_endproc
 225              	.LFE186:
 227              		.section	.text.IMX335_RegisterBusIO,"ax",%progbits
 228              		.align	1
 229              		.global	IMX335_RegisterBusIO
 230              		.syntax unified
 231              		.thumb
 232              		.thumb_func
 234              	IMX335_RegisterBusIO:
 235              	.LVL19:
ARM GAS  /tmp/ccF20hIi.s 			page 12


 236              	.LFB190:
 376:../Drivers/cmw_camera/sensors/imx335/imx335.c **** 
 377:../Drivers/cmw_camera/sensors/imx335/imx335.c **** /**
 378:../Drivers/cmw_camera/sensors/imx335/imx335.c ****   * @}
 379:../Drivers/cmw_camera/sensors/imx335/imx335.c ****   */
 380:../Drivers/cmw_camera/sensors/imx335/imx335.c **** 
 381:../Drivers/cmw_camera/sensors/imx335/imx335.c **** /** @defgroup IMX335_Exported_Functions IMX335 Exported Functions
 382:../Drivers/cmw_camera/sensors/imx335/imx335.c ****   * @{
 383:../Drivers/cmw_camera/sensors/imx335/imx335.c ****   */
 384:../Drivers/cmw_camera/sensors/imx335/imx335.c **** /**
 385:../Drivers/cmw_camera/sensors/imx335/imx335.c ****   * @brief  Register component IO bus
 386:../Drivers/cmw_camera/sensors/imx335/imx335.c ****   * @param  Component object pointer
 387:../Drivers/cmw_camera/sensors/imx335/imx335.c ****   * @retval Component status
 388:../Drivers/cmw_camera/sensors/imx335/imx335.c ****   */
 389:../Drivers/cmw_camera/sensors/imx335/imx335.c **** int32_t IMX335_RegisterBusIO(IMX335_Object_t *pObj, IMX335_IO_t *pIO)
 390:../Drivers/cmw_camera/sensors/imx335/imx335.c **** {
 237              		.loc 1 390 1 is_stmt 1 view -0
 238              		.cfi_startproc
 239              		@ args = 0, pretend = 0, frame = 0
 240              		@ frame_needed = 0, uses_anonymous_args = 0
 391:../Drivers/cmw_camera/sensors/imx335/imx335.c ****   int32_t ret;
 241              		.loc 1 391 3 view .LVU55
 392:../Drivers/cmw_camera/sensors/imx335/imx335.c **** 
 393:../Drivers/cmw_camera/sensors/imx335/imx335.c ****   if (pObj == NULL)
 242              		.loc 1 393 3 view .LVU56
 243              		.loc 1 393 6 is_stmt 0 view .LVU57
 244 0000 C0B1     		cbz	r0, .L22
 390:../Drivers/cmw_camera/sensors/imx335/imx335.c ****   int32_t ret;
 245              		.loc 1 390 1 view .LVU58
 246 0002 08B5     		push	{r3, lr}
 247              	.LCFI4:
 248              		.cfi_def_cfa_offset 8
 249              		.cfi_offset 3, -8
 250              		.cfi_offset 14, -4
 251 0004 0346     		mov	r3, r0
 394:../Drivers/cmw_camera/sensors/imx335/imx335.c ****   {
 395:../Drivers/cmw_camera/sensors/imx335/imx335.c ****     ret = IMX335_ERROR;
 396:../Drivers/cmw_camera/sensors/imx335/imx335.c ****   }
 397:../Drivers/cmw_camera/sensors/imx335/imx335.c ****   else
 398:../Drivers/cmw_camera/sensors/imx335/imx335.c ****   {
 399:../Drivers/cmw_camera/sensors/imx335/imx335.c ****     pObj->IO.Init      = pIO->Init;
 252              		.loc 1 399 5 is_stmt 1 view .LVU59
 253              		.loc 1 399 29 is_stmt 0 view .LVU60
 254 0006 0A68     		ldr	r2, [r1]
 255              		.loc 1 399 24 view .LVU61
 256 0008 0260     		str	r2, [r0]
 400:../Drivers/cmw_camera/sensors/imx335/imx335.c ****     pObj->IO.DeInit    = pIO->DeInit;
 257              		.loc 1 400 5 is_stmt 1 view .LVU62
 258              		.loc 1 400 29 is_stmt 0 view .LVU63
 259 000a 4868     		ldr	r0, [r1, #4]
 260              	.LVL20:
 261              		.loc 1 400 24 view .LVU64
 262 000c 5860     		str	r0, [r3, #4]
 401:../Drivers/cmw_camera/sensors/imx335/imx335.c ****     pObj->IO.Address   = pIO->Address;
 263              		.loc 1 401 5 is_stmt 1 view .LVU65
 264              		.loc 1 401 29 is_stmt 0 view .LVU66
 265 000e 0889     		ldrh	r0, [r1, #8]
ARM GAS  /tmp/ccF20hIi.s 			page 13


 266              		.loc 1 401 24 view .LVU67
 267 0010 1881     		strh	r0, [r3, #8]	@ movhi
 402:../Drivers/cmw_camera/sensors/imx335/imx335.c ****     pObj->IO.WriteReg  = pIO->WriteReg;
 268              		.loc 1 402 5 is_stmt 1 view .LVU68
 269              		.loc 1 402 29 is_stmt 0 view .LVU69
 270 0012 C868     		ldr	r0, [r1, #12]
 271              		.loc 1 402 24 view .LVU70
 272 0014 D860     		str	r0, [r3, #12]
 403:../Drivers/cmw_camera/sensors/imx335/imx335.c ****     pObj->IO.ReadReg   = pIO->ReadReg;
 273              		.loc 1 403 5 is_stmt 1 view .LVU71
 274              		.loc 1 403 29 is_stmt 0 view .LVU72
 275 0016 0869     		ldr	r0, [r1, #16]
 276              		.loc 1 403 24 view .LVU73
 277 0018 1861     		str	r0, [r3, #16]
 404:../Drivers/cmw_camera/sensors/imx335/imx335.c ****     pObj->IO.GetTick   = pIO->GetTick;
 278              		.loc 1 404 5 is_stmt 1 view .LVU74
 279              		.loc 1 404 29 is_stmt 0 view .LVU75
 280 001a 4969     		ldr	r1, [r1, #20]
 281              	.LVL21:
 282              		.loc 1 404 24 view .LVU76
 283 001c 5961     		str	r1, [r3, #20]
 405:../Drivers/cmw_camera/sensors/imx335/imx335.c **** 
 406:../Drivers/cmw_camera/sensors/imx335/imx335.c ****     pObj->Ctx.ReadReg  = IMX335_ReadRegWrap;
 284              		.loc 1 406 5 is_stmt 1 view .LVU77
 285              		.loc 1 406 24 is_stmt 0 view .LVU78
 286 001e 0749     		ldr	r1, .L23
 287 0020 D961     		str	r1, [r3, #28]
 407:../Drivers/cmw_camera/sensors/imx335/imx335.c ****     pObj->Ctx.WriteReg = IMX335_WriteRegWrap;
 288              		.loc 1 407 5 is_stmt 1 view .LVU79
 289              		.loc 1 407 24 is_stmt 0 view .LVU80
 290 0022 0749     		ldr	r1, .L23+4
 291 0024 9961     		str	r1, [r3, #24]
 408:../Drivers/cmw_camera/sensors/imx335/imx335.c ****     pObj->Ctx.handle   = pObj;
 292              		.loc 1 408 5 is_stmt 1 view .LVU81
 293              		.loc 1 408 24 is_stmt 0 view .LVU82
 294 0026 1B62     		str	r3, [r3, #32]
 409:../Drivers/cmw_camera/sensors/imx335/imx335.c **** 
 410:../Drivers/cmw_camera/sensors/imx335/imx335.c ****     if(pObj->IO.Init != NULL)
 295              		.loc 1 410 5 is_stmt 1 view .LVU83
 296              		.loc 1 410 7 is_stmt 0 view .LVU84
 297 0028 0AB1     		cbz	r2, .L18
 411:../Drivers/cmw_camera/sensors/imx335/imx335.c ****     {
 412:../Drivers/cmw_camera/sensors/imx335/imx335.c ****       ret = pObj->IO.Init();
 298              		.loc 1 412 7 is_stmt 1 view .LVU85
 299              		.loc 1 412 13 is_stmt 0 view .LVU86
 300 002a 9047     		blx	r2
 301              	.LVL22:
 413:../Drivers/cmw_camera/sensors/imx335/imx335.c ****     }
 414:../Drivers/cmw_camera/sensors/imx335/imx335.c ****     else
 415:../Drivers/cmw_camera/sensors/imx335/imx335.c ****     {
 416:../Drivers/cmw_camera/sensors/imx335/imx335.c ****       ret = IMX335_ERROR;
 417:../Drivers/cmw_camera/sensors/imx335/imx335.c ****     }
 418:../Drivers/cmw_camera/sensors/imx335/imx335.c ****   }
 419:../Drivers/cmw_camera/sensors/imx335/imx335.c **** 
 420:../Drivers/cmw_camera/sensors/imx335/imx335.c ****   return ret;
 302              		.loc 1 420 3 is_stmt 1 view .LVU87
 303              	.L15:
ARM GAS  /tmp/ccF20hIi.s 			page 14


 421:../Drivers/cmw_camera/sensors/imx335/imx335.c **** }
 304              		.loc 1 421 1 is_stmt 0 view .LVU88
 305 002c 08BD     		pop	{r3, pc}
 306              	.LVL23:
 307              	.L18:
 395:../Drivers/cmw_camera/sensors/imx335/imx335.c ****   }
 308              		.loc 1 395 9 view .LVU89
 309 002e 4FF0FF30 		mov	r0, #-1
 310 0032 FBE7     		b	.L15
 311              	.LVL24:
 312              	.L22:
 313              	.LCFI5:
 314              		.cfi_def_cfa_offset 0
 315              		.cfi_restore 3
 316              		.cfi_restore 14
 395:../Drivers/cmw_camera/sensors/imx335/imx335.c ****   }
 317              		.loc 1 395 9 view .LVU90
 318 0034 4FF0FF30 		mov	r0, #-1
 319              	.LVL25:
 320              		.loc 1 421 1 view .LVU91
 321 0038 7047     		bx	lr
 322              	.L24:
 323 003a 00BF     		.align	2
 324              	.L23:
 325 003c 00000000 		.word	IMX335_ReadRegWrap
 326 0040 00000000 		.word	IMX335_WriteRegWrap
 327              		.cfi_endproc
 328              	.LFE190:
 330              		.section	.text.IMX335_Init,"ax",%progbits
 331              		.align	1
 332              		.global	IMX335_Init
 333              		.syntax unified
 334              		.thumb
 335              		.thumb_func
 337              	IMX335_Init:
 338              	.LVL26:
 339              	.LFB191:
 422:../Drivers/cmw_camera/sensors/imx335/imx335.c **** 
 423:../Drivers/cmw_camera/sensors/imx335/imx335.c **** /**
 424:../Drivers/cmw_camera/sensors/imx335/imx335.c ****   * @brief  Initializes the IMX335 CAMERA component.
 425:../Drivers/cmw_camera/sensors/imx335/imx335.c ****   * @param  pObj  pointer to component object
 426:../Drivers/cmw_camera/sensors/imx335/imx335.c ****   * @param  Resolution  Camera resolution
 427:../Drivers/cmw_camera/sensors/imx335/imx335.c ****   * @param  PixelFormat pixel format to be configured
 428:../Drivers/cmw_camera/sensors/imx335/imx335.c ****   * @retval Component status
 429:../Drivers/cmw_camera/sensors/imx335/imx335.c ****   */
 430:../Drivers/cmw_camera/sensors/imx335/imx335.c **** int32_t IMX335_Init(IMX335_Object_t *pObj, uint32_t Resolution, uint32_t PixelFormat)
 431:../Drivers/cmw_camera/sensors/imx335/imx335.c **** {
 340              		.loc 1 431 1 is_stmt 1 view -0
 341              		.cfi_startproc
 342              		@ args = 0, pretend = 0, frame = 0
 343              		@ frame_needed = 0, uses_anonymous_args = 0
 432:../Drivers/cmw_camera/sensors/imx335/imx335.c ****   int32_t ret = IMX335_OK;
 344              		.loc 1 432 3 view .LVU93
 433:../Drivers/cmw_camera/sensors/imx335/imx335.c **** 
 434:../Drivers/cmw_camera/sensors/imx335/imx335.c ****   if(pObj->IsInitialized == 0U)
 345              		.loc 1 434 3 view .LVU94
 346              		.loc 1 434 10 is_stmt 0 view .LVU95
ARM GAS  /tmp/ccF20hIi.s 			page 15


 347 0000 90F82430 		ldrb	r3, [r0, #36]	@ zero_extendqisi2
 348              		.loc 1 434 5 view .LVU96
 349 0004 ABB9     		cbnz	r3, .L29
 431:../Drivers/cmw_camera/sensors/imx335/imx335.c ****   int32_t ret = IMX335_OK;
 350              		.loc 1 431 1 view .LVU97
 351 0006 10B5     		push	{r4, lr}
 352              	.LCFI6:
 353              		.cfi_def_cfa_offset 8
 354              		.cfi_offset 4, -8
 355              		.cfi_offset 14, -4
 356 0008 0446     		mov	r4, r0
 435:../Drivers/cmw_camera/sensors/imx335/imx335.c ****   {
 436:../Drivers/cmw_camera/sensors/imx335/imx335.c ****     switch (Resolution)
 357              		.loc 1 436 5 is_stmt 1 view .LVU98
 358 000a 0629     		cmp	r1, #6
 359 000c 0ED1     		bne	.L28
 437:../Drivers/cmw_camera/sensors/imx335/imx335.c ****     {
 438:../Drivers/cmw_camera/sensors/imx335/imx335.c ****       case IMX335_R2592_1944:
 439:../Drivers/cmw_camera/sensors/imx335/imx335.c ****         if(IMX335_WriteTable(pObj, res_2592_1944_regs, ARRAY_SIZE(res_2592_1944_regs)) != IMX335_OK
 360              		.loc 1 439 9 view .LVU99
 361              		.loc 1 439 12 is_stmt 0 view .LVU100
 362 000e 5422     		movs	r2, #84
 363              	.LVL27:
 364              		.loc 1 439 12 view .LVU101
 365 0010 0949     		ldr	r1, .L34
 366              	.LVL28:
 367              		.loc 1 439 12 view .LVU102
 368 0012 FFF7FEFF 		bl	IMX335_WriteTable
 369              	.LVL29:
 370              		.loc 1 439 11 discriminator 1 view .LVU103
 371 0016 48B9     		cbnz	r0, .L28
 440:../Drivers/cmw_camera/sensors/imx335/imx335.c ****         {
 441:../Drivers/cmw_camera/sensors/imx335/imx335.c ****           ret = IMX335_ERROR;
 442:../Drivers/cmw_camera/sensors/imx335/imx335.c ****         }
 443:../Drivers/cmw_camera/sensors/imx335/imx335.c ****         break;
 444:../Drivers/cmw_camera/sensors/imx335/imx335.c ****       /* Add new resolution here */
 445:../Drivers/cmw_camera/sensors/imx335/imx335.c ****       default:
 446:../Drivers/cmw_camera/sensors/imx335/imx335.c ****         /* Resolution not supported */
 447:../Drivers/cmw_camera/sensors/imx335/imx335.c ****         ret = IMX335_ERROR;
 448:../Drivers/cmw_camera/sensors/imx335/imx335.c ****     }
 449:../Drivers/cmw_camera/sensors/imx335/imx335.c **** 
 450:../Drivers/cmw_camera/sensors/imx335/imx335.c ****     if(!ret)
 372              		.loc 1 450 5 is_stmt 1 view .LVU104
 451:../Drivers/cmw_camera/sensors/imx335/imx335.c ****     {
 452:../Drivers/cmw_camera/sensors/imx335/imx335.c ****       if(IMX335_WriteTable(pObj, mode_2l_10b_regs, ARRAY_SIZE(mode_2l_10b_regs)) != IMX335_OK)
 373              		.loc 1 452 7 view .LVU105
 374              		.loc 1 452 10 is_stmt 0 view .LVU106
 375 0018 0522     		movs	r2, #5
 376 001a 0849     		ldr	r1, .L34+4
 377 001c 2046     		mov	r0, r4
 378 001e FFF7FEFF 		bl	IMX335_WriteTable
 379              	.LVL30:
 380              		.loc 1 452 9 discriminator 1 view .LVU107
 381 0022 18B9     		cbnz	r0, .L28
 453:../Drivers/cmw_camera/sensors/imx335/imx335.c ****       {
 454:../Drivers/cmw_camera/sensors/imx335/imx335.c ****         ret = IMX335_ERROR;
 455:../Drivers/cmw_camera/sensors/imx335/imx335.c ****       }
ARM GAS  /tmp/ccF20hIi.s 			page 16


 456:../Drivers/cmw_camera/sensors/imx335/imx335.c ****       else
 457:../Drivers/cmw_camera/sensors/imx335/imx335.c ****       {
 458:../Drivers/cmw_camera/sensors/imx335/imx335.c ****         pObj->IsInitialized = 1U;
 382              		.loc 1 458 9 is_stmt 1 view .LVU108
 383              		.loc 1 458 29 is_stmt 0 view .LVU109
 384 0024 0123     		movs	r3, #1
 385 0026 84F82430 		strb	r3, [r4, #36]
 386              	.L25:
 459:../Drivers/cmw_camera/sensors/imx335/imx335.c ****       }
 460:../Drivers/cmw_camera/sensors/imx335/imx335.c ****     }
 461:../Drivers/cmw_camera/sensors/imx335/imx335.c ****   }
 462:../Drivers/cmw_camera/sensors/imx335/imx335.c **** 
 463:../Drivers/cmw_camera/sensors/imx335/imx335.c ****   return ret;
 464:../Drivers/cmw_camera/sensors/imx335/imx335.c **** }
 387              		.loc 1 464 1 view .LVU110
 388 002a 10BD     		pop	{r4, pc}
 389              	.LVL31:
 390              	.L28:
 447:../Drivers/cmw_camera/sensors/imx335/imx335.c ****     }
 391              		.loc 1 447 13 view .LVU111
 392 002c 4FF0FF30 		mov	r0, #-1
 393 0030 FBE7     		b	.L25
 394              	.LVL32:
 395              	.L29:
 396              	.LCFI7:
 397              		.cfi_def_cfa_offset 0
 398              		.cfi_restore 4
 399              		.cfi_restore 14
 432:../Drivers/cmw_camera/sensors/imx335/imx335.c **** 
 400              		.loc 1 432 11 view .LVU112
 401 0032 0020     		movs	r0, #0
 402              	.LVL33:
 463:../Drivers/cmw_camera/sensors/imx335/imx335.c **** }
 403              		.loc 1 463 3 is_stmt 1 view .LVU113
 404              		.loc 1 464 1 is_stmt 0 view .LVU114
 405 0034 7047     		bx	lr
 406              	.L35:
 407 0036 00BF     		.align	2
 408              	.L34:
 409 0038 00000000 		.word	res_2592_1944_regs
 410 003c 00000000 		.word	mode_2l_10b_regs
 411              		.cfi_endproc
 412              	.LFE191:
 414              		.section	.text.IMX335_Start,"ax",%progbits
 415              		.align	1
 416              		.global	IMX335_Start
 417              		.syntax unified
 418              		.thumb
 419              		.thumb_func
 421              	IMX335_Start:
 422              	.LVL34:
 423              	.LFB192:
 465:../Drivers/cmw_camera/sensors/imx335/imx335.c **** 
 466:../Drivers/cmw_camera/sensors/imx335/imx335.c **** /**
 467:../Drivers/cmw_camera/sensors/imx335/imx335.c ****   * @brief  Initializes the IMX335 CAMERA component.
 468:../Drivers/cmw_camera/sensors/imx335/imx335.c ****   * @param  pObj  pointer to component object
 469:../Drivers/cmw_camera/sensors/imx335/imx335.c ****   * @param  Resolution  Camera resolution
ARM GAS  /tmp/ccF20hIi.s 			page 17


 470:../Drivers/cmw_camera/sensors/imx335/imx335.c ****   * @param  PixelFormat pixel format to be configured
 471:../Drivers/cmw_camera/sensors/imx335/imx335.c ****   * @retval Component status
 472:../Drivers/cmw_camera/sensors/imx335/imx335.c ****   */
 473:../Drivers/cmw_camera/sensors/imx335/imx335.c **** int32_t IMX335_Start(IMX335_Object_t *pObj)
 474:../Drivers/cmw_camera/sensors/imx335/imx335.c **** {
 424              		.loc 1 474 1 is_stmt 1 view -0
 425              		.cfi_startproc
 426              		@ args = 0, pretend = 0, frame = 8
 427              		@ frame_needed = 0, uses_anonymous_args = 0
 428              		.loc 1 474 1 is_stmt 0 view .LVU116
 429 0000 30B5     		push	{r4, r5, lr}
 430              	.LCFI8:
 431              		.cfi_def_cfa_offset 12
 432              		.cfi_offset 4, -12
 433              		.cfi_offset 5, -8
 434              		.cfi_offset 14, -4
 435 0002 83B0     		sub	sp, sp, #12
 436              	.LCFI9:
 437              		.cfi_def_cfa_offset 24
 438 0004 0446     		mov	r4, r0
 475:../Drivers/cmw_camera/sensors/imx335/imx335.c ****   uint8_t tmp;
 439              		.loc 1 475 3 is_stmt 1 view .LVU117
 476:../Drivers/cmw_camera/sensors/imx335/imx335.c ****   int32_t ret = IMX335_OK;
 440              		.loc 1 476 3 view .LVU118
 441              	.LVL35:
 477:../Drivers/cmw_camera/sensors/imx335/imx335.c ****   /* Start streaming */
 478:../Drivers/cmw_camera/sensors/imx335/imx335.c ****   tmp = IMX335_MODE_STREAMING;
 442              		.loc 1 478 3 view .LVU119
 443              		.loc 1 478 7 is_stmt 0 view .LVU120
 444 0006 0023     		movs	r3, #0
 445 0008 8DF80730 		strb	r3, [sp, #7]
 479:../Drivers/cmw_camera/sensors/imx335/imx335.c ****   ret = imx335_write_reg(&pObj->Ctx, IMX335_REG_MODE_SELECT, &tmp, 1);
 446              		.loc 1 479 3 is_stmt 1 view .LVU121
 447              		.loc 1 479 9 is_stmt 0 view .LVU122
 448 000c 0123     		movs	r3, #1
 449 000e 0DF10702 		add	r2, sp, #7
 450 0012 4FF44051 		mov	r1, #12288
 451 0016 1830     		adds	r0, r0, #24
 452              	.LVL36:
 453              		.loc 1 479 9 view .LVU123
 454 0018 FFF7FEFF 		bl	imx335_write_reg
 455              	.LVL37:
 480:../Drivers/cmw_camera/sensors/imx335/imx335.c ****   if (ret != IMX335_OK)
 456              		.loc 1 480 3 is_stmt 1 view .LVU124
 457              		.loc 1 480 6 is_stmt 0 view .LVU125
 458 001c 38B9     		cbnz	r0, .L38
 459 001e 0546     		mov	r5, r0
 481:../Drivers/cmw_camera/sensors/imx335/imx335.c ****   {
 482:../Drivers/cmw_camera/sensors/imx335/imx335.c ****     return IMX335_ERROR;
 483:../Drivers/cmw_camera/sensors/imx335/imx335.c ****   }
 484:../Drivers/cmw_camera/sensors/imx335/imx335.c ****   IMX335_Delay(pObj, 20);
 460              		.loc 1 484 3 is_stmt 1 view .LVU126
 461 0020 1421     		movs	r1, #20
 462 0022 2046     		mov	r0, r4
 463              	.LVL38:
 464              		.loc 1 484 3 is_stmt 0 view .LVU127
 465 0024 FFF7FEFF 		bl	IMX335_Delay
ARM GAS  /tmp/ccF20hIi.s 			page 18


 466              	.LVL39:
 485:../Drivers/cmw_camera/sensors/imx335/imx335.c ****   return ret;
 467              		.loc 1 485 3 is_stmt 1 view .LVU128
 468              	.L36:
 486:../Drivers/cmw_camera/sensors/imx335/imx335.c **** }
 469              		.loc 1 486 1 is_stmt 0 view .LVU129
 470 0028 2846     		mov	r0, r5
 471 002a 03B0     		add	sp, sp, #12
 472              	.LCFI10:
 473              		.cfi_remember_state
 474              		.cfi_def_cfa_offset 12
 475              		@ sp needed
 476 002c 30BD     		pop	{r4, r5, pc}
 477              	.LVL40:
 478              	.L38:
 479              	.LCFI11:
 480              		.cfi_restore_state
 482:../Drivers/cmw_camera/sensors/imx335/imx335.c ****   }
 481              		.loc 1 482 12 view .LVU130
 482 002e 4FF0FF33 		mov	r3, #-1
 483 0032 1D46     		mov	r5, r3
 484 0034 F8E7     		b	.L36
 485              		.cfi_endproc
 486              	.LFE192:
 488              		.section	.text.IMX335_DeInit,"ax",%progbits
 489              		.align	1
 490              		.global	IMX335_DeInit
 491              		.syntax unified
 492              		.thumb
 493              		.thumb_func
 495              	IMX335_DeInit:
 496              	.LVL41:
 497              	.LFB193:
 487:../Drivers/cmw_camera/sensors/imx335/imx335.c **** 
 488:../Drivers/cmw_camera/sensors/imx335/imx335.c **** /**
 489:../Drivers/cmw_camera/sensors/imx335/imx335.c ****   * @brief  De-initializes the camera sensor.
 490:../Drivers/cmw_camera/sensors/imx335/imx335.c ****   * @param  pObj  pointer to component object
 491:../Drivers/cmw_camera/sensors/imx335/imx335.c ****   * @retval Component status
 492:../Drivers/cmw_camera/sensors/imx335/imx335.c ****   */
 493:../Drivers/cmw_camera/sensors/imx335/imx335.c **** int32_t IMX335_DeInit(IMX335_Object_t *pObj)
 494:../Drivers/cmw_camera/sensors/imx335/imx335.c **** {
 498              		.loc 1 494 1 is_stmt 1 view -0
 499              		.cfi_startproc
 500              		@ args = 0, pretend = 0, frame = 0
 501              		@ frame_needed = 0, uses_anonymous_args = 0
 502              		@ link register save eliminated.
 495:../Drivers/cmw_camera/sensors/imx335/imx335.c ****   if(pObj->IsInitialized == 1U)
 503              		.loc 1 495 3 view .LVU132
 504              		.loc 1 495 10 is_stmt 0 view .LVU133
 505 0000 90F82430 		ldrb	r3, [r0, #36]	@ zero_extendqisi2
 506              		.loc 1 495 5 view .LVU134
 507 0004 012B     		cmp	r3, #1
 508 0006 01D0     		beq	.L42
 509              	.L41:
 496:../Drivers/cmw_camera/sensors/imx335/imx335.c ****   {
 497:../Drivers/cmw_camera/sensors/imx335/imx335.c ****     /* De-initialize camera sensor interface */
 498:../Drivers/cmw_camera/sensors/imx335/imx335.c ****     pObj->IsInitialized = 0U;
ARM GAS  /tmp/ccF20hIi.s 			page 19


 499:../Drivers/cmw_camera/sensors/imx335/imx335.c ****   }
 500:../Drivers/cmw_camera/sensors/imx335/imx335.c **** 
 501:../Drivers/cmw_camera/sensors/imx335/imx335.c ****   return IMX335_OK;
 510              		.loc 1 501 3 is_stmt 1 view .LVU135
 502:../Drivers/cmw_camera/sensors/imx335/imx335.c **** }
 511              		.loc 1 502 1 is_stmt 0 view .LVU136
 512 0008 0020     		movs	r0, #0
 513              	.LVL42:
 514              		.loc 1 502 1 view .LVU137
 515 000a 7047     		bx	lr
 516              	.LVL43:
 517              	.L42:
 498:../Drivers/cmw_camera/sensors/imx335/imx335.c ****   }
 518              		.loc 1 498 5 is_stmt 1 view .LVU138
 498:../Drivers/cmw_camera/sensors/imx335/imx335.c ****   }
 519              		.loc 1 498 25 is_stmt 0 view .LVU139
 520 000c 0023     		movs	r3, #0
 521 000e 80F82430 		strb	r3, [r0, #36]
 522 0012 F9E7     		b	.L41
 523              		.cfi_endproc
 524              	.LFE193:
 526              		.section	.text.IMX335_ReadID,"ax",%progbits
 527              		.align	1
 528              		.global	IMX335_ReadID
 529              		.syntax unified
 530              		.thumb
 531              		.thumb_func
 533              	IMX335_ReadID:
 534              	.LVL44:
 535              	.LFB194:
 503:../Drivers/cmw_camera/sensors/imx335/imx335.c **** 
 504:../Drivers/cmw_camera/sensors/imx335/imx335.c **** /**
 505:../Drivers/cmw_camera/sensors/imx335/imx335.c ****   * @brief  Read the IMX335 Camera identity.
 506:../Drivers/cmw_camera/sensors/imx335/imx335.c ****   * @param  pObj  pointer to component object
 507:../Drivers/cmw_camera/sensors/imx335/imx335.c ****   * @param  Id    pointer to component ID
 508:../Drivers/cmw_camera/sensors/imx335/imx335.c ****   * @retval Component status
 509:../Drivers/cmw_camera/sensors/imx335/imx335.c ****   */
 510:../Drivers/cmw_camera/sensors/imx335/imx335.c **** int32_t IMX335_ReadID(IMX335_Object_t *pObj, uint32_t *Id)
 511:../Drivers/cmw_camera/sensors/imx335/imx335.c **** {
 536              		.loc 1 511 1 is_stmt 1 view -0
 537              		.cfi_startproc
 538              		@ args = 0, pretend = 0, frame = 8
 539              		@ frame_needed = 0, uses_anonymous_args = 0
 540              		.loc 1 511 1 is_stmt 0 view .LVU141
 541 0000 30B5     		push	{r4, r5, lr}
 542              	.LCFI12:
 543              		.cfi_def_cfa_offset 12
 544              		.cfi_offset 4, -12
 545              		.cfi_offset 5, -8
 546              		.cfi_offset 14, -4
 547 0002 83B0     		sub	sp, sp, #12
 548              	.LCFI13:
 549              		.cfi_def_cfa_offset 24
 550 0004 0D46     		mov	r5, r1
 512:../Drivers/cmw_camera/sensors/imx335/imx335.c ****   int32_t ret;
 551              		.loc 1 512 3 is_stmt 1 view .LVU142
 513:../Drivers/cmw_camera/sensors/imx335/imx335.c ****   uint8_t tmp;
ARM GAS  /tmp/ccF20hIi.s 			page 20


 552              		.loc 1 513 3 view .LVU143
 514:../Drivers/cmw_camera/sensors/imx335/imx335.c **** 
 515:../Drivers/cmw_camera/sensors/imx335/imx335.c ****   /* Initialize I2C */
 516:../Drivers/cmw_camera/sensors/imx335/imx335.c ****   pObj->IO.Init();
 553              		.loc 1 516 3 view .LVU144
 554              		.loc 1 516 11 is_stmt 0 view .LVU145
 555 0006 0446     		mov	r4, r0
 556 0008 54F8183B 		ldr	r3, [r4], #24
 557              		.loc 1 516 3 view .LVU146
 558 000c 9847     		blx	r3
 559              	.LVL45:
 517:../Drivers/cmw_camera/sensors/imx335/imx335.c **** 
 518:../Drivers/cmw_camera/sensors/imx335/imx335.c ****   if(imx335_read_reg(&pObj->Ctx, IMX335_REG_ID, &tmp, 1)!= IMX335_OK)
 560              		.loc 1 518 3 is_stmt 1 view .LVU147
 561              		.loc 1 518 6 is_stmt 0 view .LVU148
 562 000e 0123     		movs	r3, #1
 563 0010 0DF10702 		add	r2, sp, #7
 564 0014 43F61211 		movw	r1, #14610
 565 0018 2046     		mov	r0, r4
 566 001a FFF7FEFF 		bl	imx335_read_reg
 567              	.LVL46:
 568              		.loc 1 518 5 discriminator 1 view .LVU149
 569 001e 20B9     		cbnz	r0, .L45
 519:../Drivers/cmw_camera/sensors/imx335/imx335.c ****   {
 520:../Drivers/cmw_camera/sensors/imx335/imx335.c ****     ret = IMX335_ERROR;
 521:../Drivers/cmw_camera/sensors/imx335/imx335.c ****   }
 522:../Drivers/cmw_camera/sensors/imx335/imx335.c ****   else
 523:../Drivers/cmw_camera/sensors/imx335/imx335.c ****   {
 524:../Drivers/cmw_camera/sensors/imx335/imx335.c ****     *Id = tmp;
 570              		.loc 1 524 5 is_stmt 1 view .LVU150
 571              		.loc 1 524 9 is_stmt 0 view .LVU151
 572 0020 9DF80730 		ldrb	r3, [sp, #7]	@ zero_extendqisi2
 573 0024 2B60     		str	r3, [r5]
 525:../Drivers/cmw_camera/sensors/imx335/imx335.c ****     ret = IMX335_OK;
 574              		.loc 1 525 5 is_stmt 1 view .LVU152
 575              	.LVL47:
 576              	.L43:
 526:../Drivers/cmw_camera/sensors/imx335/imx335.c ****   }
 527:../Drivers/cmw_camera/sensors/imx335/imx335.c **** 
 528:../Drivers/cmw_camera/sensors/imx335/imx335.c ****   /* Component status */
 529:../Drivers/cmw_camera/sensors/imx335/imx335.c ****   return ret;
 530:../Drivers/cmw_camera/sensors/imx335/imx335.c **** }
 577              		.loc 1 530 1 is_stmt 0 view .LVU153
 578 0026 03B0     		add	sp, sp, #12
 579              	.LCFI14:
 580              		.cfi_remember_state
 581              		.cfi_def_cfa_offset 12
 582              		@ sp needed
 583 0028 30BD     		pop	{r4, r5, pc}
 584              	.LVL48:
 585              	.L45:
 586              	.LCFI15:
 587              		.cfi_restore_state
 520:../Drivers/cmw_camera/sensors/imx335/imx335.c ****   }
 588              		.loc 1 520 9 view .LVU154
 589 002a 4FF0FF30 		mov	r0, #-1
 590              	.LVL49:
ARM GAS  /tmp/ccF20hIi.s 			page 21


 529:../Drivers/cmw_camera/sensors/imx335/imx335.c **** }
 591              		.loc 1 529 3 is_stmt 1 view .LVU155
 529:../Drivers/cmw_camera/sensors/imx335/imx335.c **** }
 592              		.loc 1 529 10 is_stmt 0 discriminator 1 view .LVU156
 593 002e FAE7     		b	.L43
 594              		.cfi_endproc
 595              	.LFE194:
 597              		.section	.text.IMX335_GetCapabilities,"ax",%progbits
 598              		.align	1
 599              		.global	IMX335_GetCapabilities
 600              		.syntax unified
 601              		.thumb
 602              		.thumb_func
 604              	IMX335_GetCapabilities:
 605              	.LVL50:
 606              	.LFB195:
 531:../Drivers/cmw_camera/sensors/imx335/imx335.c **** 
 532:../Drivers/cmw_camera/sensors/imx335/imx335.c **** /**
 533:../Drivers/cmw_camera/sensors/imx335/imx335.c ****   * @brief  Read the IMX335 Camera Capabilities.
 534:../Drivers/cmw_camera/sensors/imx335/imx335.c ****   * @param  pObj          pointer to component object
 535:../Drivers/cmw_camera/sensors/imx335/imx335.c ****   * @param  Capabilities  pointer to component Capabilities
 536:../Drivers/cmw_camera/sensors/imx335/imx335.c ****   * @retval Component status
 537:../Drivers/cmw_camera/sensors/imx335/imx335.c ****   */
 538:../Drivers/cmw_camera/sensors/imx335/imx335.c **** int32_t IMX335_GetCapabilities(IMX335_Object_t *pObj, IMX335_Capabilities_t *Capabilities)
 539:../Drivers/cmw_camera/sensors/imx335/imx335.c **** {
 607              		.loc 1 539 1 is_stmt 1 view -0
 608              		.cfi_startproc
 609              		@ args = 0, pretend = 0, frame = 0
 610              		@ frame_needed = 0, uses_anonymous_args = 0
 611              		@ link register save eliminated.
 540:../Drivers/cmw_camera/sensors/imx335/imx335.c ****   int32_t ret;
 612              		.loc 1 540 3 view .LVU158
 541:../Drivers/cmw_camera/sensors/imx335/imx335.c **** 
 542:../Drivers/cmw_camera/sensors/imx335/imx335.c ****   if(pObj == NULL)
 613              		.loc 1 542 3 view .LVU159
 614              		.loc 1 542 5 is_stmt 0 view .LVU160
 615 0000 88B1     		cbz	r0, .L49
 543:../Drivers/cmw_camera/sensors/imx335/imx335.c ****   {
 544:../Drivers/cmw_camera/sensors/imx335/imx335.c ****     ret = IMX335_ERROR;
 545:../Drivers/cmw_camera/sensors/imx335/imx335.c ****   }
 546:../Drivers/cmw_camera/sensors/imx335/imx335.c ****   else
 547:../Drivers/cmw_camera/sensors/imx335/imx335.c ****   {
 548:../Drivers/cmw_camera/sensors/imx335/imx335.c ****     Capabilities->Config_Brightness    = 0;
 616              		.loc 1 548 5 is_stmt 1 view .LVU161
 617              		.loc 1 548 40 is_stmt 0 view .LVU162
 618 0002 0020     		movs	r0, #0
 619              	.LVL51:
 620              		.loc 1 548 40 view .LVU163
 621 0004 C860     		str	r0, [r1, #12]
 549:../Drivers/cmw_camera/sensors/imx335/imx335.c ****     Capabilities->Config_Contrast      = 0;
 622              		.loc 1 549 5 is_stmt 1 view .LVU164
 623              		.loc 1 549 40 is_stmt 0 view .LVU165
 624 0006 4861     		str	r0, [r1, #20]
 550:../Drivers/cmw_camera/sensors/imx335/imx335.c ****     Capabilities->Config_HueDegree     = 0;
 625              		.loc 1 550 5 is_stmt 1 view .LVU166
 626              		.loc 1 550 40 is_stmt 0 view .LVU167
 627 0008 8861     		str	r0, [r1, #24]
ARM GAS  /tmp/ccF20hIi.s 			page 22


 551:../Drivers/cmw_camera/sensors/imx335/imx335.c ****     Capabilities->Config_Gain          = 1;
 628              		.loc 1 551 5 is_stmt 1 view .LVU168
 629              		.loc 1 551 40 is_stmt 0 view .LVU169
 630 000a 0123     		movs	r3, #1
 631 000c CB61     		str	r3, [r1, #28]
 552:../Drivers/cmw_camera/sensors/imx335/imx335.c ****     Capabilities->Config_Exposure      = 1;
 632              		.loc 1 552 5 is_stmt 1 view .LVU170
 633              		.loc 1 552 40 is_stmt 0 view .LVU171
 634 000e 0B62     		str	r3, [r1, #32]
 553:../Drivers/cmw_camera/sensors/imx335/imx335.c ****     Capabilities->Config_ExposureMode  = 0;
 635              		.loc 1 553 5 is_stmt 1 view .LVU172
 636              		.loc 1 553 40 is_stmt 0 view .LVU173
 637 0010 0863     		str	r0, [r1, #48]
 554:../Drivers/cmw_camera/sensors/imx335/imx335.c ****     Capabilities->Config_LightMode     = 0;
 638              		.loc 1 554 5 is_stmt 1 view .LVU174
 639              		.loc 1 554 40 is_stmt 0 view .LVU175
 640 0012 4860     		str	r0, [r1, #4]
 555:../Drivers/cmw_camera/sensors/imx335/imx335.c ****     Capabilities->Config_MirrorFlip    = 1;
 641              		.loc 1 555 5 is_stmt 1 view .LVU176
 642              		.loc 1 555 40 is_stmt 0 view .LVU177
 643 0014 4B62     		str	r3, [r1, #36]
 556:../Drivers/cmw_camera/sensors/imx335/imx335.c ****     Capabilities->Config_NightMode     = 0;
 644              		.loc 1 556 5 is_stmt 1 view .LVU178
 645              		.loc 1 556 40 is_stmt 0 view .LVU179
 646 0016 C862     		str	r0, [r1, #44]
 557:../Drivers/cmw_camera/sensors/imx335/imx335.c ****     Capabilities->Config_Resolution    = 0;
 647              		.loc 1 557 5 is_stmt 1 view .LVU180
 648              		.loc 1 557 40 is_stmt 0 view .LVU181
 649 0018 0860     		str	r0, [r1]
 558:../Drivers/cmw_camera/sensors/imx335/imx335.c ****     Capabilities->Config_Saturation    = 0;
 650              		.loc 1 558 5 is_stmt 1 view .LVU182
 651              		.loc 1 558 40 is_stmt 0 view .LVU183
 652 001a 0861     		str	r0, [r1, #16]
 559:../Drivers/cmw_camera/sensors/imx335/imx335.c ****     Capabilities->Config_SpecialEffect = 0;
 653              		.loc 1 559 5 is_stmt 1 view .LVU184
 654              		.loc 1 559 40 is_stmt 0 view .LVU185
 655 001c 8860     		str	r0, [r1, #8]
 560:../Drivers/cmw_camera/sensors/imx335/imx335.c ****     Capabilities->Config_Zoom          = 0;
 656              		.loc 1 560 5 is_stmt 1 view .LVU186
 657              		.loc 1 560 40 is_stmt 0 view .LVU187
 658 001e 8862     		str	r0, [r1, #40]
 561:../Drivers/cmw_camera/sensors/imx335/imx335.c ****     Capabilities->Config_SensorInfo    = 1;
 659              		.loc 1 561 5 is_stmt 1 view .LVU188
 660              		.loc 1 561 40 is_stmt 0 view .LVU189
 661 0020 4B63     		str	r3, [r1, #52]
 562:../Drivers/cmw_camera/sensors/imx335/imx335.c ****     Capabilities->Config_TestPattern   = 1;
 662              		.loc 1 562 5 is_stmt 1 view .LVU190
 663              		.loc 1 562 40 is_stmt 0 view .LVU191
 664 0022 8B63     		str	r3, [r1, #56]
 563:../Drivers/cmw_camera/sensors/imx335/imx335.c **** 
 564:../Drivers/cmw_camera/sensors/imx335/imx335.c ****     ret = IMX335_OK;
 665              		.loc 1 564 5 is_stmt 1 view .LVU192
 666              	.LVL52:
 667              		.loc 1 564 5 is_stmt 0 view .LVU193
 668 0024 7047     		bx	lr
 669              	.LVL53:
 670              	.L49:
ARM GAS  /tmp/ccF20hIi.s 			page 23


 544:../Drivers/cmw_camera/sensors/imx335/imx335.c ****   }
 671              		.loc 1 544 9 view .LVU194
 672 0026 4FF0FF30 		mov	r0, #-1
 673              	.LVL54:
 565:../Drivers/cmw_camera/sensors/imx335/imx335.c ****   }
 566:../Drivers/cmw_camera/sensors/imx335/imx335.c **** 
 567:../Drivers/cmw_camera/sensors/imx335/imx335.c ****   return ret;
 674              		.loc 1 567 3 is_stmt 1 view .LVU195
 568:../Drivers/cmw_camera/sensors/imx335/imx335.c **** }
 675              		.loc 1 568 1 is_stmt 0 view .LVU196
 676 002a 7047     		bx	lr
 677              		.cfi_endproc
 678              	.LFE195:
 680              		.section	.text.IMX335_SetGain,"ax",%progbits
 681              		.align	1
 682              		.global	IMX335_SetGain
 683              		.syntax unified
 684              		.thumb
 685              		.thumb_func
 687              	IMX335_SetGain:
 688              	.LVL55:
 689              	.LFB196:
 569:../Drivers/cmw_camera/sensors/imx335/imx335.c **** 
 570:../Drivers/cmw_camera/sensors/imx335/imx335.c **** /**
 571:../Drivers/cmw_camera/sensors/imx335/imx335.c ****   * @brief  Set the gain
 572:../Drivers/cmw_camera/sensors/imx335/imx335.c ****   * @param  pObj  pointer to component object
 573:../Drivers/cmw_camera/sensors/imx335/imx335.c ****   * @param  Gain Gain in mdB
 574:../Drivers/cmw_camera/sensors/imx335/imx335.c ****   * @retval Component status
 575:../Drivers/cmw_camera/sensors/imx335/imx335.c ****   */
 576:../Drivers/cmw_camera/sensors/imx335/imx335.c **** int32_t IMX335_SetGain(IMX335_Object_t *pObj, int32_t gain)
 577:../Drivers/cmw_camera/sensors/imx335/imx335.c **** {
 690              		.loc 1 577 1 is_stmt 1 view -0
 691              		.cfi_startproc
 692              		@ args = 0, pretend = 0, frame = 16
 693              		@ frame_needed = 0, uses_anonymous_args = 0
 694              		.loc 1 577 1 is_stmt 0 view .LVU198
 695 0000 10B5     		push	{r4, lr}
 696              	.LCFI16:
 697              		.cfi_def_cfa_offset 8
 698              		.cfi_offset 4, -8
 699              		.cfi_offset 14, -4
 700 0002 84B0     		sub	sp, sp, #16
 701              	.LCFI17:
 702              		.cfi_def_cfa_offset 24
 703 0004 0191     		str	r1, [sp, #4]
 578:../Drivers/cmw_camera/sensors/imx335/imx335.c ****   int32_t ret = IMX335_OK;
 704              		.loc 1 578 3 is_stmt 1 view .LVU199
 705              	.LVL56:
 579:../Drivers/cmw_camera/sensors/imx335/imx335.c ****   uint8_t hold;
 706              		.loc 1 579 3 view .LVU200
 580:../Drivers/cmw_camera/sensors/imx335/imx335.c **** 
 581:../Drivers/cmw_camera/sensors/imx335/imx335.c ****   if ((gain > IMX335_GAIN_MAX) || (gain < IMX335_GAIN_MIN))
 707              		.loc 1 581 3 view .LVU201
 708              		.loc 1 581 6 is_stmt 0 view .LVU202
 709 0006 194B     		ldr	r3, .L57
 710 0008 9942     		cmp	r1, r3
 711 000a 28D8     		bhi	.L53
ARM GAS  /tmp/ccF20hIi.s 			page 24


 582:../Drivers/cmw_camera/sensors/imx335/imx335.c ****   {
 583:../Drivers/cmw_camera/sensors/imx335/imx335.c ****     ret = IMX335_ERROR;
 584:../Drivers/cmw_camera/sensors/imx335/imx335.c ****   }
 585:../Drivers/cmw_camera/sensors/imx335/imx335.c ****   else
 586:../Drivers/cmw_camera/sensors/imx335/imx335.c ****   {
 587:../Drivers/cmw_camera/sensors/imx335/imx335.c ****     /* Convert to IMX335 gain unit (0.3 dB = 300 mdB) */
 588:../Drivers/cmw_camera/sensors/imx335/imx335.c ****     gain /= IMX335_GAIN_UNIT_MDB;
 712              		.loc 1 588 5 is_stmt 1 view .LVU203
 713              		.loc 1 588 10 is_stmt 0 view .LVU204
 714 000c 184B     		ldr	r3, .L57+4
 715 000e 83FB0123 		smull	r2, r3, r3, r1
 716 0012 C917     		asrs	r1, r1, #31
 717              	.LVL57:
 718              		.loc 1 588 10 view .LVU205
 719 0014 C1EB6311 		rsb	r1, r1, r3, asr #5
 720 0018 0191     		str	r1, [sp, #4]
 721              	.LVL58:
 589:../Drivers/cmw_camera/sensors/imx335/imx335.c **** 
 590:../Drivers/cmw_camera/sensors/imx335/imx335.c ****     hold = 1;
 722              		.loc 1 590 5 is_stmt 1 view .LVU206
 723              		.loc 1 590 10 is_stmt 0 view .LVU207
 724 001a 0123     		movs	r3, #1
 725 001c 8DF80F30 		strb	r3, [sp, #15]
 591:../Drivers/cmw_camera/sensors/imx335/imx335.c ****     if(imx335_write_reg(&pObj->Ctx, IMX335_REG_HOLD, &hold, 1) != IMX335_OK)
 726              		.loc 1 591 5 is_stmt 1 view .LVU208
 727              		.loc 1 591 8 is_stmt 0 view .LVU209
 728 0020 00F11804 		add	r4, r0, #24
 729 0024 0DF10F02 		add	r2, sp, #15
 730 0028 43F20101 		movw	r1, #12289
 731 002c 2046     		mov	r0, r4
 732              	.LVL59:
 733              		.loc 1 591 8 view .LVU210
 734 002e FFF7FEFF 		bl	imx335_write_reg
 735              	.LVL60:
 736              		.loc 1 591 7 discriminator 1 view .LVU211
 737 0032 A0B9     		cbnz	r0, .L53
 592:../Drivers/cmw_camera/sensors/imx335/imx335.c ****     {
 593:../Drivers/cmw_camera/sensors/imx335/imx335.c ****       ret = IMX335_ERROR;
 594:../Drivers/cmw_camera/sensors/imx335/imx335.c ****     }
 595:../Drivers/cmw_camera/sensors/imx335/imx335.c ****     else
 596:../Drivers/cmw_camera/sensors/imx335/imx335.c ****     {
 597:../Drivers/cmw_camera/sensors/imx335/imx335.c ****       if(imx335_write_reg(&pObj->Ctx, IMX335_REG_GAIN, (uint8_t *)&gain, 2) != IMX335_OK)
 738              		.loc 1 597 7 is_stmt 1 view .LVU212
 739              		.loc 1 597 10 is_stmt 0 view .LVU213
 740 0034 0223     		movs	r3, #2
 741 0036 01AA     		add	r2, sp, #4
 742 0038 43F2E801 		movw	r1, #12520
 743 003c 2046     		mov	r0, r4
 744 003e FFF7FEFF 		bl	imx335_write_reg
 745              	.LVL61:
 746              		.loc 1 597 9 discriminator 1 view .LVU214
 747 0042 60B9     		cbnz	r0, .L53
 598:../Drivers/cmw_camera/sensors/imx335/imx335.c ****       {
 599:../Drivers/cmw_camera/sensors/imx335/imx335.c ****         ret = IMX335_ERROR;
 600:../Drivers/cmw_camera/sensors/imx335/imx335.c ****       }
 601:../Drivers/cmw_camera/sensors/imx335/imx335.c ****       else
 602:../Drivers/cmw_camera/sensors/imx335/imx335.c ****       {
ARM GAS  /tmp/ccF20hIi.s 			page 25


 603:../Drivers/cmw_camera/sensors/imx335/imx335.c ****         hold = 0;
 748              		.loc 1 603 9 is_stmt 1 view .LVU215
 749              		.loc 1 603 14 is_stmt 0 view .LVU216
 750 0044 8DF80F00 		strb	r0, [sp, #15]
 604:../Drivers/cmw_camera/sensors/imx335/imx335.c ****         if(imx335_write_reg(&pObj->Ctx, IMX335_REG_HOLD, &hold, 1) != IMX335_OK)
 751              		.loc 1 604 9 is_stmt 1 view .LVU217
 752              		.loc 1 604 12 is_stmt 0 view .LVU218
 753 0048 0123     		movs	r3, #1
 754 004a 0DF10F02 		add	r2, sp, #15
 755 004e 43F20101 		movw	r1, #12289
 756 0052 2046     		mov	r0, r4
 757 0054 FFF7FEFF 		bl	imx335_write_reg
 758              	.LVL62:
 759              		.loc 1 604 11 discriminator 1 view .LVU219
 760 0058 20B9     		cbnz	r0, .L56
 761              	.LVL63:
 762              	.L50:
 605:../Drivers/cmw_camera/sensors/imx335/imx335.c ****         {
 606:../Drivers/cmw_camera/sensors/imx335/imx335.c ****           ret = IMX335_ERROR;
 607:../Drivers/cmw_camera/sensors/imx335/imx335.c ****         }
 608:../Drivers/cmw_camera/sensors/imx335/imx335.c ****       }
 609:../Drivers/cmw_camera/sensors/imx335/imx335.c ****     }
 610:../Drivers/cmw_camera/sensors/imx335/imx335.c ****   }
 611:../Drivers/cmw_camera/sensors/imx335/imx335.c **** 
 612:../Drivers/cmw_camera/sensors/imx335/imx335.c **** return ret;
 613:../Drivers/cmw_camera/sensors/imx335/imx335.c **** }
 763              		.loc 1 613 1 view .LVU220
 764 005a 04B0     		add	sp, sp, #16
 765              	.LCFI18:
 766              		.cfi_remember_state
 767              		.cfi_def_cfa_offset 8
 768              		@ sp needed
 769 005c 10BD     		pop	{r4, pc}
 770              	.LVL64:
 771              	.L53:
 772              	.LCFI19:
 773              		.cfi_restore_state
 583:../Drivers/cmw_camera/sensors/imx335/imx335.c ****   }
 774              		.loc 1 583 9 view .LVU221
 775 005e 4FF0FF30 		mov	r0, #-1
 776 0062 FAE7     		b	.L50
 777              	.L56:
 606:../Drivers/cmw_camera/sensors/imx335/imx335.c ****         }
 778              		.loc 1 606 15 view .LVU222
 779 0064 4FF0FF30 		mov	r0, #-1
 780              	.LVL65:
 612:../Drivers/cmw_camera/sensors/imx335/imx335.c **** }
 781              		.loc 1 612 1 is_stmt 1 view .LVU223
 612:../Drivers/cmw_camera/sensors/imx335/imx335.c **** }
 782              		.loc 1 612 8 is_stmt 0 discriminator 1 view .LVU224
 783 0068 F7E7     		b	.L50
 784              	.L58:
 785 006a 00BF     		.align	2
 786              	.L57:
 787 006c 40190100 		.word	72000
 788 0070 B5814E1B 		.word	458129845
 789              		.cfi_endproc
ARM GAS  /tmp/ccF20hIi.s 			page 26


 790              	.LFE196:
 792              		.section	.text.IMX335_SetExposure,"ax",%progbits
 793              		.align	1
 794              		.global	IMX335_SetExposure
 795              		.syntax unified
 796              		.thumb
 797              		.thumb_func
 799              	IMX335_SetExposure:
 800              	.LVL66:
 801              	.LFB197:
 614:../Drivers/cmw_camera/sensors/imx335/imx335.c **** 
 615:../Drivers/cmw_camera/sensors/imx335/imx335.c **** /**
 616:../Drivers/cmw_camera/sensors/imx335/imx335.c ****   * @brief  Set the exposure
 617:../Drivers/cmw_camera/sensors/imx335/imx335.c ****   * @param  pObj  pointer to component object
 618:../Drivers/cmw_camera/sensors/imx335/imx335.c ****   * @param  Exposure Exposure in micro seconds
 619:../Drivers/cmw_camera/sensors/imx335/imx335.c ****   * @retval Component status
 620:../Drivers/cmw_camera/sensors/imx335/imx335.c ****   */
 621:../Drivers/cmw_camera/sensors/imx335/imx335.c **** int32_t IMX335_SetExposure(IMX335_Object_t *pObj, int32_t exposure)
 622:../Drivers/cmw_camera/sensors/imx335/imx335.c **** {
 802              		.loc 1 622 1 is_stmt 1 view -0
 803              		.cfi_startproc
 804              		@ args = 0, pretend = 0, frame = 16
 805              		@ frame_needed = 0, uses_anonymous_args = 0
 806              		.loc 1 622 1 is_stmt 0 view .LVU226
 807 0000 10B5     		push	{r4, lr}
 808              	.LCFI20:
 809              		.cfi_def_cfa_offset 8
 810              		.cfi_offset 4, -8
 811              		.cfi_offset 14, -4
 812 0002 2DED028B 		vpush.64	{d8}
 813              	.LCFI21:
 814              		.cfi_def_cfa_offset 16
 815              		.cfi_offset 80, -16
 816              		.cfi_offset 81, -12
 817 0006 84B0     		sub	sp, sp, #16
 818              	.LCFI22:
 819              		.cfi_def_cfa_offset 32
 820 0008 08EE101A 		vmov	s16, r1	@ int
 623:../Drivers/cmw_camera/sensors/imx335/imx335.c ****   int32_t ret = IMX335_OK;
 821              		.loc 1 623 3 is_stmt 1 view .LVU227
 822              	.LVL67:
 624:../Drivers/cmw_camera/sensors/imx335/imx335.c ****   uint32_t vmax, shutter;
 823              		.loc 1 624 3 view .LVU228
 625:../Drivers/cmw_camera/sensors/imx335/imx335.c ****   uint8_t hold;
 824              		.loc 1 625 3 view .LVU229
 626:../Drivers/cmw_camera/sensors/imx335/imx335.c **** 
 627:../Drivers/cmw_camera/sensors/imx335/imx335.c **** 
 628:../Drivers/cmw_camera/sensors/imx335/imx335.c ****   if (imx335_read_reg(&pObj->Ctx, IMX335_REG_VMAX, (uint8_t *)&vmax, 4) != IMX335_OK)
 825              		.loc 1 628 3 view .LVU230
 826              		.loc 1 628 7 is_stmt 0 view .LVU231
 827 000c 00F11804 		add	r4, r0, #24
 828 0010 0423     		movs	r3, #4
 829 0012 03AA     		add	r2, sp, #12
 830 0014 43F23001 		movw	r1, #12336
 831              	.LVL68:
 832              		.loc 1 628 7 view .LVU232
 833 0018 2046     		mov	r0, r4
ARM GAS  /tmp/ccF20hIi.s 			page 27


 834              	.LVL69:
 835              		.loc 1 628 7 view .LVU233
 836 001a FFF7FEFF 		bl	imx335_read_reg
 837              	.LVL70:
 838              		.loc 1 628 6 discriminator 1 view .LVU234
 839 001e A8BB     		cbnz	r0, .L62
 629:../Drivers/cmw_camera/sensors/imx335/imx335.c ****   {
 630:../Drivers/cmw_camera/sensors/imx335/imx335.c ****     ret = IMX335_ERROR;
 631:../Drivers/cmw_camera/sensors/imx335/imx335.c ****   }
 632:../Drivers/cmw_camera/sensors/imx335/imx335.c ****   else
 633:../Drivers/cmw_camera/sensors/imx335/imx335.c ****   {
 634:../Drivers/cmw_camera/sensors/imx335/imx335.c ****     shutter = (uint32_t) (vmax - (exposure / IMX335_1H_PERIOD_USEC));
 840              		.loc 1 634 5 is_stmt 1 view .LVU235
 841              		.loc 1 634 44 is_stmt 0 view .LVU236
 842 0020 F8EEC87A 		vcvt.f32.s32	s15, s16
 843 0024 DFED1C6A 		vldr.32	s13, .L66
 844 0028 87EEA67A 		vdiv.f32	s14, s15, s13
 845              		.loc 1 634 32 view .LVU237
 846 002c DDED037A 		vldr.32	s15, [sp, #12]	@ int
 847 0030 F8EE677A 		vcvt.f32.u32	s15, s15
 848 0034 77EEC77A 		vsub.f32	s15, s15, s14
 849              		.loc 1 634 15 view .LVU238
 850 0038 FCEEE77A 		vcvt.u32.f32	s15, s15
 851 003c 17EE903A 		vmov	r3, s15	@ int
 852              		.loc 1 634 13 view .LVU239
 853 0040 CDED027A 		vstr.32	s15, [sp, #8]	@ int
 635:../Drivers/cmw_camera/sensors/imx335/imx335.c **** 
 636:../Drivers/cmw_camera/sensors/imx335/imx335.c ****     if (shutter < IMX335_SHUTTER_MIN)
 854              		.loc 1 636 5 is_stmt 1 view .LVU240
 855              		.loc 1 636 8 is_stmt 0 view .LVU241
 856 0044 082B     		cmp	r3, #8
 857 0046 21D9     		bls	.L62
 637:../Drivers/cmw_camera/sensors/imx335/imx335.c ****     {
 638:../Drivers/cmw_camera/sensors/imx335/imx335.c ****       ret = IMX335_ERROR;
 639:../Drivers/cmw_camera/sensors/imx335/imx335.c ****     }
 640:../Drivers/cmw_camera/sensors/imx335/imx335.c ****     else
 641:../Drivers/cmw_camera/sensors/imx335/imx335.c ****     {
 642:../Drivers/cmw_camera/sensors/imx335/imx335.c ****       hold = 1;
 858              		.loc 1 642 7 is_stmt 1 view .LVU242
 859              		.loc 1 642 12 is_stmt 0 view .LVU243
 860 0048 0123     		movs	r3, #1
 861 004a 8DF80730 		strb	r3, [sp, #7]
 643:../Drivers/cmw_camera/sensors/imx335/imx335.c ****       if(imx335_write_reg(&pObj->Ctx, IMX335_REG_HOLD, &hold, 1) != IMX335_OK)
 862              		.loc 1 643 7 is_stmt 1 view .LVU244
 863              		.loc 1 643 10 is_stmt 0 view .LVU245
 864 004e 0DF10702 		add	r2, sp, #7
 865 0052 43F20101 		movw	r1, #12289
 866 0056 2046     		mov	r0, r4
 867 0058 FFF7FEFF 		bl	imx335_write_reg
 868              	.LVL71:
 869              		.loc 1 643 9 discriminator 1 view .LVU246
 870 005c B0B9     		cbnz	r0, .L62
 644:../Drivers/cmw_camera/sensors/imx335/imx335.c ****       {
 645:../Drivers/cmw_camera/sensors/imx335/imx335.c ****         ret = IMX335_ERROR;
 646:../Drivers/cmw_camera/sensors/imx335/imx335.c ****       }
 647:../Drivers/cmw_camera/sensors/imx335/imx335.c ****       else
 648:../Drivers/cmw_camera/sensors/imx335/imx335.c ****       {
ARM GAS  /tmp/ccF20hIi.s 			page 28


 649:../Drivers/cmw_camera/sensors/imx335/imx335.c ****         if(imx335_write_reg(&pObj->Ctx, IMX335_REG_SHUTTER, (uint8_t *)&shutter, 3) != IMX335_OK)
 871              		.loc 1 649 9 is_stmt 1 view .LVU247
 872              		.loc 1 649 12 is_stmt 0 view .LVU248
 873 005e 0323     		movs	r3, #3
 874 0060 02AA     		add	r2, sp, #8
 875 0062 43F25801 		movw	r1, #12376
 876 0066 2046     		mov	r0, r4
 877 0068 FFF7FEFF 		bl	imx335_write_reg
 878              	.LVL72:
 879              		.loc 1 649 11 discriminator 1 view .LVU249
 880 006c 70B9     		cbnz	r0, .L62
 650:../Drivers/cmw_camera/sensors/imx335/imx335.c ****         {
 651:../Drivers/cmw_camera/sensors/imx335/imx335.c ****           ret = IMX335_ERROR;
 652:../Drivers/cmw_camera/sensors/imx335/imx335.c ****         }
 653:../Drivers/cmw_camera/sensors/imx335/imx335.c ****         else
 654:../Drivers/cmw_camera/sensors/imx335/imx335.c ****         {
 655:../Drivers/cmw_camera/sensors/imx335/imx335.c ****           hold = 0;
 881              		.loc 1 655 11 is_stmt 1 view .LVU250
 882              		.loc 1 655 16 is_stmt 0 view .LVU251
 883 006e 8DF80700 		strb	r0, [sp, #7]
 656:../Drivers/cmw_camera/sensors/imx335/imx335.c ****           if(imx335_write_reg(&pObj->Ctx, IMX335_REG_HOLD, &hold, 1) != IMX335_OK)
 884              		.loc 1 656 11 is_stmt 1 view .LVU252
 885              		.loc 1 656 14 is_stmt 0 view .LVU253
 886 0072 0123     		movs	r3, #1
 887 0074 0DF10702 		add	r2, sp, #7
 888 0078 43F20101 		movw	r1, #12289
 889 007c 2046     		mov	r0, r4
 890 007e FFF7FEFF 		bl	imx335_write_reg
 891              	.LVL73:
 892              		.loc 1 656 13 discriminator 1 view .LVU254
 893 0082 30B9     		cbnz	r0, .L65
 894              	.LVL74:
 895              	.L59:
 657:../Drivers/cmw_camera/sensors/imx335/imx335.c ****           {
 658:../Drivers/cmw_camera/sensors/imx335/imx335.c ****             ret = IMX335_ERROR;
 659:../Drivers/cmw_camera/sensors/imx335/imx335.c ****           }
 660:../Drivers/cmw_camera/sensors/imx335/imx335.c ****         }
 661:../Drivers/cmw_camera/sensors/imx335/imx335.c ****       }
 662:../Drivers/cmw_camera/sensors/imx335/imx335.c ****     }
 663:../Drivers/cmw_camera/sensors/imx335/imx335.c ****   }
 664:../Drivers/cmw_camera/sensors/imx335/imx335.c **** 
 665:../Drivers/cmw_camera/sensors/imx335/imx335.c ****   return ret;
 666:../Drivers/cmw_camera/sensors/imx335/imx335.c **** }
 896              		.loc 1 666 1 view .LVU255
 897 0084 04B0     		add	sp, sp, #16
 898              	.LCFI23:
 899              		.cfi_remember_state
 900              		.cfi_def_cfa_offset 16
 901              		@ sp needed
 902 0086 BDEC028B 		vldm	sp!, {d8}
 903              	.LCFI24:
 904              		.cfi_restore 80
 905              		.cfi_restore 81
 906              		.cfi_def_cfa_offset 8
 907              	.LVL75:
 908              		.loc 1 666 1 view .LVU256
 909 008a 10BD     		pop	{r4, pc}
ARM GAS  /tmp/ccF20hIi.s 			page 29


 910              	.LVL76:
 911              	.L62:
 912              	.LCFI25:
 913              		.cfi_restore_state
 630:../Drivers/cmw_camera/sensors/imx335/imx335.c ****   }
 914              		.loc 1 630 9 view .LVU257
 915 008c 4FF0FF30 		mov	r0, #-1
 916 0090 F8E7     		b	.L59
 917              	.L65:
 658:../Drivers/cmw_camera/sensors/imx335/imx335.c ****           }
 918              		.loc 1 658 17 view .LVU258
 919 0092 4FF0FF30 		mov	r0, #-1
 920              	.LVL77:
 665:../Drivers/cmw_camera/sensors/imx335/imx335.c **** }
 921              		.loc 1 665 3 is_stmt 1 view .LVU259
 665:../Drivers/cmw_camera/sensors/imx335/imx335.c **** }
 922              		.loc 1 665 10 is_stmt 0 discriminator 1 view .LVU260
 923 0096 F5E7     		b	.L59
 924              	.L67:
 925              		.align	2
 926              	.L66:
 927 0098 7C09ED40 		.word	1089276284
 928              		.cfi_endproc
 929              	.LFE197:
 931              		.section	.text.IMX335_SetFrequency,"ax",%progbits
 932              		.align	1
 933              		.global	IMX335_SetFrequency
 934              		.syntax unified
 935              		.thumb
 936              		.thumb_func
 938              	IMX335_SetFrequency:
 939              	.LVL78:
 940              	.LFB198:
 667:../Drivers/cmw_camera/sensors/imx335/imx335.c **** 
 668:../Drivers/cmw_camera/sensors/imx335/imx335.c **** /**
 669:../Drivers/cmw_camera/sensors/imx335/imx335.c ****   * @brief  Set the Frequency
 670:../Drivers/cmw_camera/sensors/imx335/imx335.c ****   * @param  pObj  pointer to component object
 671:../Drivers/cmw_camera/sensors/imx335/imx335.c ****   * @param  frequency in Mhz
 672:../Drivers/cmw_camera/sensors/imx335/imx335.c ****   * @retval Component status
 673:../Drivers/cmw_camera/sensors/imx335/imx335.c ****   */
 674:../Drivers/cmw_camera/sensors/imx335/imx335.c **** int32_t IMX335_SetFrequency(IMX335_Object_t *pObj, int32_t frequency)
 675:../Drivers/cmw_camera/sensors/imx335/imx335.c **** {
 941              		.loc 1 675 1 is_stmt 1 view -0
 942              		.cfi_startproc
 943              		@ args = 0, pretend = 0, frame = 0
 944              		@ frame_needed = 0, uses_anonymous_args = 0
 945              		.loc 1 675 1 is_stmt 0 view .LVU262
 946 0000 08B5     		push	{r3, lr}
 947              	.LCFI26:
 948              		.cfi_def_cfa_offset 8
 949              		.cfi_offset 3, -8
 950              		.cfi_offset 14, -4
 676:../Drivers/cmw_camera/sensors/imx335/imx335.c ****   uint32_t ret = IMX335_OK;
 951              		.loc 1 676 3 is_stmt 1 view .LVU263
 952              	.LVL79:
 677:../Drivers/cmw_camera/sensors/imx335/imx335.c **** 
 678:../Drivers/cmw_camera/sensors/imx335/imx335.c ****   switch (frequency)
ARM GAS  /tmp/ccF20hIi.s 			page 30


 953              		.loc 1 678 3 view .LVU264
 954 0002 0139     		subs	r1, r1, #1
 955              	.LVL80:
 956              		.loc 1 678 3 is_stmt 0 view .LVU265
 957 0004 0329     		cmp	r1, #3
 958 0006 24D8     		bhi	.L69
 959 0008 DFE801F0 		tbb	[pc, r1]
 960              	.L71:
 961 000c 1A       		.byte	(.L74-.L71)/2
 962 000d 11       		.byte	(.L73-.L71)/2
 963 000e 08       		.byte	(.L72-.L71)/2
 964 000f 02       		.byte	(.L70-.L71)/2
 965              		.p2align 1
 966              	.L70:
 679:../Drivers/cmw_camera/sensors/imx335/imx335.c ****   {
 680:../Drivers/cmw_camera/sensors/imx335/imx335.c ****     case IMX335_INCK_74MHZ:
 681:../Drivers/cmw_camera/sensors/imx335/imx335.c ****       if(IMX335_WriteTable(pObj, inck_74Mhz_regs, ARRAY_SIZE(inck_74Mhz_regs)) != IMX335_OK)
 967              		.loc 1 681 7 is_stmt 1 view .LVU266
 968              		.loc 1 681 10 is_stmt 0 view .LVU267
 969 0010 0722     		movs	r2, #7
 970 0012 1649     		ldr	r1, .L82
 971              	.LVL81:
 972              		.loc 1 681 10 view .LVU268
 973 0014 FFF7FEFF 		bl	IMX335_WriteTable
 974              	.LVL82:
 975              		.loc 1 681 9 discriminator 1 view .LVU269
 976 0018 20BB     		cbnz	r0, .L76
 977              	.L75:
 978              	.LVL83:
 682:../Drivers/cmw_camera/sensors/imx335/imx335.c ****       {
 683:../Drivers/cmw_camera/sensors/imx335/imx335.c ****         ret = IMX335_ERROR;
 684:../Drivers/cmw_camera/sensors/imx335/imx335.c ****       }
 685:../Drivers/cmw_camera/sensors/imx335/imx335.c ****       break;
 686:../Drivers/cmw_camera/sensors/imx335/imx335.c ****     case IMX335_INCK_27MHZ:
 687:../Drivers/cmw_camera/sensors/imx335/imx335.c ****       if(IMX335_WriteTable(pObj, inck_27Mhz_regs, ARRAY_SIZE(inck_27Mhz_regs)) != IMX335_OK)
 688:../Drivers/cmw_camera/sensors/imx335/imx335.c ****       {
 689:../Drivers/cmw_camera/sensors/imx335/imx335.c ****         ret = IMX335_ERROR;
 690:../Drivers/cmw_camera/sensors/imx335/imx335.c ****       }
 691:../Drivers/cmw_camera/sensors/imx335/imx335.c ****       break;
 692:../Drivers/cmw_camera/sensors/imx335/imx335.c ****     case IMX335_INCK_24MHZ:
 693:../Drivers/cmw_camera/sensors/imx335/imx335.c ****       if(IMX335_WriteTable(pObj, inck_24Mhz_regs, ARRAY_SIZE(inck_24Mhz_regs)) != IMX335_OK)
 694:../Drivers/cmw_camera/sensors/imx335/imx335.c ****       {
 695:../Drivers/cmw_camera/sensors/imx335/imx335.c ****         ret = IMX335_ERROR;
 696:../Drivers/cmw_camera/sensors/imx335/imx335.c ****       }
 697:../Drivers/cmw_camera/sensors/imx335/imx335.c ****       break;
 698:../Drivers/cmw_camera/sensors/imx335/imx335.c ****     case IMX335_INCK_18MHZ:
 699:../Drivers/cmw_camera/sensors/imx335/imx335.c ****       if(IMX335_WriteTable(pObj, inck_18Mhz_regs, ARRAY_SIZE(inck_18Mhz_regs)) != IMX335_OK)
 700:../Drivers/cmw_camera/sensors/imx335/imx335.c ****       {
 701:../Drivers/cmw_camera/sensors/imx335/imx335.c ****         ret = IMX335_ERROR;
 702:../Drivers/cmw_camera/sensors/imx335/imx335.c ****       }
 703:../Drivers/cmw_camera/sensors/imx335/imx335.c ****       break;
 704:../Drivers/cmw_camera/sensors/imx335/imx335.c ****     default:
 705:../Drivers/cmw_camera/sensors/imx335/imx335.c ****       /* IMX335_INCK_6MHZ */
 706:../Drivers/cmw_camera/sensors/imx335/imx335.c ****       if(IMX335_WriteTable(pObj, inck_6Mhz_regs, ARRAY_SIZE(inck_6Mhz_regs)) != IMX335_OK)
 707:../Drivers/cmw_camera/sensors/imx335/imx335.c ****       {
 708:../Drivers/cmw_camera/sensors/imx335/imx335.c ****         ret = IMX335_ERROR;
 709:../Drivers/cmw_camera/sensors/imx335/imx335.c ****       }
ARM GAS  /tmp/ccF20hIi.s 			page 31


 710:../Drivers/cmw_camera/sensors/imx335/imx335.c ****       break;
 711:../Drivers/cmw_camera/sensors/imx335/imx335.c ****   };
 979              		.loc 1 711 4 is_stmt 1 view .LVU270
 712:../Drivers/cmw_camera/sensors/imx335/imx335.c **** 
 713:../Drivers/cmw_camera/sensors/imx335/imx335.c ****   return ret;
 980              		.loc 1 713 3 view .LVU271
 714:../Drivers/cmw_camera/sensors/imx335/imx335.c **** }
 981              		.loc 1 714 1 is_stmt 0 view .LVU272
 982 001a 08BD     		pop	{r3, pc}
 983              	.LVL84:
 984              	.L72:
 687:../Drivers/cmw_camera/sensors/imx335/imx335.c ****       {
 985              		.loc 1 687 7 is_stmt 1 view .LVU273
 687:../Drivers/cmw_camera/sensors/imx335/imx335.c ****       {
 986              		.loc 1 687 10 is_stmt 0 view .LVU274
 987 001c 0722     		movs	r2, #7
 988 001e 1449     		ldr	r1, .L82+4
 989 0020 FFF7FEFF 		bl	IMX335_WriteTable
 990              	.LVL85:
 687:../Drivers/cmw_camera/sensors/imx335/imx335.c ****       {
 991              		.loc 1 687 9 discriminator 1 view .LVU275
 992 0024 0028     		cmp	r0, #0
 993 0026 F8D0     		beq	.L75
 689:../Drivers/cmw_camera/sensors/imx335/imx335.c ****       }
 994              		.loc 1 689 13 view .LVU276
 995 0028 4FF0FF30 		mov	r0, #-1
 996 002c F5E7     		b	.L75
 997              	.LVL86:
 998              	.L73:
 693:../Drivers/cmw_camera/sensors/imx335/imx335.c ****       {
 999              		.loc 1 693 7 is_stmt 1 view .LVU277
 693:../Drivers/cmw_camera/sensors/imx335/imx335.c ****       {
 1000              		.loc 1 693 10 is_stmt 0 view .LVU278
 1001 002e 0722     		movs	r2, #7
 1002 0030 1049     		ldr	r1, .L82+8
 1003 0032 FFF7FEFF 		bl	IMX335_WriteTable
 1004              	.LVL87:
 693:../Drivers/cmw_camera/sensors/imx335/imx335.c ****       {
 1005              		.loc 1 693 9 discriminator 1 view .LVU279
 1006 0036 0028     		cmp	r0, #0
 1007 0038 EFD0     		beq	.L75
 695:../Drivers/cmw_camera/sensors/imx335/imx335.c ****       }
 1008              		.loc 1 695 13 view .LVU280
 1009 003a 4FF0FF30 		mov	r0, #-1
 1010 003e ECE7     		b	.L75
 1011              	.LVL88:
 1012              	.L74:
 699:../Drivers/cmw_camera/sensors/imx335/imx335.c ****       {
 1013              		.loc 1 699 7 is_stmt 1 view .LVU281
 699:../Drivers/cmw_camera/sensors/imx335/imx335.c ****       {
 1014              		.loc 1 699 10 is_stmt 0 view .LVU282
 1015 0040 0722     		movs	r2, #7
 1016 0042 0D49     		ldr	r1, .L82+12
 1017 0044 FFF7FEFF 		bl	IMX335_WriteTable
 1018              	.LVL89:
 699:../Drivers/cmw_camera/sensors/imx335/imx335.c ****       {
 1019              		.loc 1 699 9 discriminator 1 view .LVU283
ARM GAS  /tmp/ccF20hIi.s 			page 32


 1020 0048 0028     		cmp	r0, #0
 1021 004a E6D0     		beq	.L75
 701:../Drivers/cmw_camera/sensors/imx335/imx335.c ****       }
 1022              		.loc 1 701 13 view .LVU284
 1023 004c 4FF0FF30 		mov	r0, #-1
 1024 0050 E3E7     		b	.L75
 1025              	.LVL90:
 1026              	.L69:
 706:../Drivers/cmw_camera/sensors/imx335/imx335.c ****       {
 1027              		.loc 1 706 7 is_stmt 1 view .LVU285
 706:../Drivers/cmw_camera/sensors/imx335/imx335.c ****       {
 1028              		.loc 1 706 10 is_stmt 0 view .LVU286
 1029 0052 0722     		movs	r2, #7
 1030 0054 0949     		ldr	r1, .L82+16
 1031 0056 FFF7FEFF 		bl	IMX335_WriteTable
 1032              	.LVL91:
 706:../Drivers/cmw_camera/sensors/imx335/imx335.c ****       {
 1033              		.loc 1 706 9 discriminator 1 view .LVU287
 1034 005a 0028     		cmp	r0, #0
 1035 005c DDD0     		beq	.L75
 708:../Drivers/cmw_camera/sensors/imx335/imx335.c ****       }
 1036              		.loc 1 708 13 view .LVU288
 1037 005e 4FF0FF30 		mov	r0, #-1
 1038 0062 DAE7     		b	.L75
 1039              	.L76:
 683:../Drivers/cmw_camera/sensors/imx335/imx335.c ****       }
 1040              		.loc 1 683 13 view .LVU289
 1041 0064 4FF0FF30 		mov	r0, #-1
 1042 0068 D7E7     		b	.L75
 1043              	.L83:
 1044 006a 00BF     		.align	2
 1045              	.L82:
 1046 006c 00000000 		.word	inck_74Mhz_regs
 1047 0070 00000000 		.word	inck_27Mhz_regs
 1048 0074 00000000 		.word	inck_24Mhz_regs
 1049 0078 00000000 		.word	inck_18Mhz_regs
 1050 007c 00000000 		.word	inck_6Mhz_regs
 1051              		.cfi_endproc
 1052              	.LFE198:
 1054              		.section	.text.IMX335_SetFramerate,"ax",%progbits
 1055              		.align	1
 1056              		.global	IMX335_SetFramerate
 1057              		.syntax unified
 1058              		.thumb
 1059              		.thumb_func
 1061              	IMX335_SetFramerate:
 1062              	.LVL92:
 1063              	.LFB199:
 715:../Drivers/cmw_camera/sensors/imx335/imx335.c **** 
 716:../Drivers/cmw_camera/sensors/imx335/imx335.c **** /**
 717:../Drivers/cmw_camera/sensors/imx335/imx335.c ****   * @brief  Set the Framerate
 718:../Drivers/cmw_camera/sensors/imx335/imx335.c ****   * @param  pObj  pointer to component object
 719:../Drivers/cmw_camera/sensors/imx335/imx335.c ****   * @param  framerate 10, 15, 20, 25 or 30fps
 720:../Drivers/cmw_camera/sensors/imx335/imx335.c ****   * @retval Component status
 721:../Drivers/cmw_camera/sensors/imx335/imx335.c ****   */
 722:../Drivers/cmw_camera/sensors/imx335/imx335.c **** int32_t IMX335_SetFramerate(IMX335_Object_t *pObj, int32_t framerate)
 723:../Drivers/cmw_camera/sensors/imx335/imx335.c **** {
ARM GAS  /tmp/ccF20hIi.s 			page 33


 1064              		.loc 1 723 1 is_stmt 1 view -0
 1065              		.cfi_startproc
 1066              		@ args = 0, pretend = 0, frame = 0
 1067              		@ frame_needed = 0, uses_anonymous_args = 0
 1068              		.loc 1 723 1 is_stmt 0 view .LVU291
 1069 0000 08B5     		push	{r3, lr}
 1070              	.LCFI27:
 1071              		.cfi_def_cfa_offset 8
 1072              		.cfi_offset 3, -8
 1073              		.cfi_offset 14, -4
 724:../Drivers/cmw_camera/sensors/imx335/imx335.c ****   uint32_t ret = IMX335_OK;
 1074              		.loc 1 724 3 is_stmt 1 view .LVU292
 1075              	.LVL93:
 725:../Drivers/cmw_camera/sensors/imx335/imx335.c ****   switch (framerate)
 1076              		.loc 1 725 3 view .LVU293
 1077 0002 0A39     		subs	r1, r1, #10
 1078              	.LVL94:
 1079              		.loc 1 725 3 is_stmt 0 view .LVU294
 1080 0004 0F29     		cmp	r1, #15
 1081 0006 29D8     		bhi	.L85
 1082 0008 DFE801F0 		tbb	[pc, r1]
 1083              	.L87:
 1084 000c 08       		.byte	(.L90-.L87)/2
 1085 000d 28       		.byte	(.L85-.L87)/2
 1086 000e 28       		.byte	(.L85-.L87)/2
 1087 000f 28       		.byte	(.L85-.L87)/2
 1088 0010 28       		.byte	(.L85-.L87)/2
 1089 0011 10       		.byte	(.L89-.L87)/2
 1090 0012 28       		.byte	(.L85-.L87)/2
 1091 0013 28       		.byte	(.L85-.L87)/2
 1092 0014 28       		.byte	(.L85-.L87)/2
 1093 0015 28       		.byte	(.L85-.L87)/2
 1094 0016 18       		.byte	(.L88-.L87)/2
 1095 0017 28       		.byte	(.L85-.L87)/2
 1096 0018 28       		.byte	(.L85-.L87)/2
 1097 0019 28       		.byte	(.L85-.L87)/2
 1098 001a 28       		.byte	(.L85-.L87)/2
 1099 001b 20       		.byte	(.L86-.L87)/2
 1100              		.p2align 1
 1101              	.L90:
 726:../Drivers/cmw_camera/sensors/imx335/imx335.c ****   {
 727:../Drivers/cmw_camera/sensors/imx335/imx335.c ****     case 10:
 728:../Drivers/cmw_camera/sensors/imx335/imx335.c ****       if(IMX335_WriteTable(pObj, framerate_10fps_regs, ARRAY_SIZE(framerate_10fps_regs)) != IMX335_
 1102              		.loc 1 728 7 is_stmt 1 view .LVU295
 1103              		.loc 1 728 10 is_stmt 0 view .LVU296
 1104 001c 0222     		movs	r2, #2
 1105 001e 1449     		ldr	r1, .L98
 1106              	.LVL95:
 1107              		.loc 1 728 10 view .LVU297
 1108 0020 FFF7FEFF 		bl	IMX335_WriteTable
 1109              	.LVL96:
 1110              		.loc 1 728 9 discriminator 1 view .LVU298
 1111 0024 F8B1     		cbz	r0, .L91
 729:../Drivers/cmw_camera/sensors/imx335/imx335.c ****       {
 730:../Drivers/cmw_camera/sensors/imx335/imx335.c ****         ret = IMX335_ERROR;
 1112              		.loc 1 730 13 view .LVU299
 1113 0026 4FF0FF30 		mov	r0, #-1
ARM GAS  /tmp/ccF20hIi.s 			page 34


 1114 002a 1CE0     		b	.L91
 1115              	.LVL97:
 1116              	.L89:
 731:../Drivers/cmw_camera/sensors/imx335/imx335.c ****       }
 732:../Drivers/cmw_camera/sensors/imx335/imx335.c ****       break;
 733:../Drivers/cmw_camera/sensors/imx335/imx335.c ****     case 15:
 734:../Drivers/cmw_camera/sensors/imx335/imx335.c ****       if(IMX335_WriteTable(pObj, framerate_15fps_regs, ARRAY_SIZE(framerate_15fps_regs)) != IMX335_
 1117              		.loc 1 734 7 is_stmt 1 view .LVU300
 1118              		.loc 1 734 10 is_stmt 0 view .LVU301
 1119 002c 0222     		movs	r2, #2
 1120 002e 1149     		ldr	r1, .L98+4
 1121 0030 FFF7FEFF 		bl	IMX335_WriteTable
 1122              	.LVL98:
 1123              		.loc 1 734 9 discriminator 1 view .LVU302
 1124 0034 B8B1     		cbz	r0, .L91
 735:../Drivers/cmw_camera/sensors/imx335/imx335.c ****       {
 736:../Drivers/cmw_camera/sensors/imx335/imx335.c ****         ret = IMX335_ERROR;
 1125              		.loc 1 736 13 view .LVU303
 1126 0036 4FF0FF30 		mov	r0, #-1
 1127 003a 14E0     		b	.L91
 1128              	.LVL99:
 1129              	.L88:
 737:../Drivers/cmw_camera/sensors/imx335/imx335.c ****       }
 738:../Drivers/cmw_camera/sensors/imx335/imx335.c ****       break;
 739:../Drivers/cmw_camera/sensors/imx335/imx335.c ****     case 20:
 740:../Drivers/cmw_camera/sensors/imx335/imx335.c ****       if(IMX335_WriteTable(pObj, framerate_20fps_regs, ARRAY_SIZE(framerate_20fps_regs)) != IMX335_
 1130              		.loc 1 740 7 is_stmt 1 view .LVU304
 1131              		.loc 1 740 10 is_stmt 0 view .LVU305
 1132 003c 0222     		movs	r2, #2
 1133 003e 0E49     		ldr	r1, .L98+8
 1134 0040 FFF7FEFF 		bl	IMX335_WriteTable
 1135              	.LVL100:
 1136              		.loc 1 740 9 discriminator 1 view .LVU306
 1137 0044 78B1     		cbz	r0, .L91
 741:../Drivers/cmw_camera/sensors/imx335/imx335.c ****       {
 742:../Drivers/cmw_camera/sensors/imx335/imx335.c ****        ret = IMX335_ERROR;
 1138              		.loc 1 742 12 view .LVU307
 1139 0046 4FF0FF30 		mov	r0, #-1
 1140 004a 0CE0     		b	.L91
 1141              	.LVL101:
 1142              	.L86:
 743:../Drivers/cmw_camera/sensors/imx335/imx335.c ****       }
 744:../Drivers/cmw_camera/sensors/imx335/imx335.c ****       break;
 745:../Drivers/cmw_camera/sensors/imx335/imx335.c ****     case 25:
 746:../Drivers/cmw_camera/sensors/imx335/imx335.c ****       if(IMX335_WriteTable(pObj, framerate_25fps_regs, ARRAY_SIZE(framerate_25fps_regs)) != IMX335_
 1143              		.loc 1 746 7 is_stmt 1 view .LVU308
 1144              		.loc 1 746 10 is_stmt 0 view .LVU309
 1145 004c 0222     		movs	r2, #2
 1146 004e 0B49     		ldr	r1, .L98+12
 1147 0050 FFF7FEFF 		bl	IMX335_WriteTable
 1148              	.LVL102:
 1149              		.loc 1 746 9 discriminator 1 view .LVU310
 1150 0054 38B1     		cbz	r0, .L91
 747:../Drivers/cmw_camera/sensors/imx335/imx335.c ****       {
 748:../Drivers/cmw_camera/sensors/imx335/imx335.c ****         ret = IMX335_ERROR;
 1151              		.loc 1 748 13 view .LVU311
 1152 0056 4FF0FF30 		mov	r0, #-1
ARM GAS  /tmp/ccF20hIi.s 			page 35


 1153 005a 04E0     		b	.L91
 1154              	.LVL103:
 1155              	.L85:
 749:../Drivers/cmw_camera/sensors/imx335/imx335.c ****       }
 750:../Drivers/cmw_camera/sensors/imx335/imx335.c ****       break;
 751:../Drivers/cmw_camera/sensors/imx335/imx335.c ****     default:
 752:../Drivers/cmw_camera/sensors/imx335/imx335.c ****       /* 30fps */
 753:../Drivers/cmw_camera/sensors/imx335/imx335.c ****       if(IMX335_WriteTable(pObj, framerate_30fps_regs, ARRAY_SIZE(framerate_30fps_regs)) != IMX335_
 1156              		.loc 1 753 7 is_stmt 1 view .LVU312
 1157              		.loc 1 753 10 is_stmt 0 view .LVU313
 1158 005c 0222     		movs	r2, #2
 1159 005e 0849     		ldr	r1, .L98+16
 1160 0060 FFF7FEFF 		bl	IMX335_WriteTable
 1161              	.LVL104:
 1162              		.loc 1 753 9 discriminator 1 view .LVU314
 1163 0064 00B9     		cbnz	r0, .L96
 1164              	.L91:
 1165              	.LVL105:
 754:../Drivers/cmw_camera/sensors/imx335/imx335.c ****       {
 755:../Drivers/cmw_camera/sensors/imx335/imx335.c ****         ret = IMX335_ERROR;
 756:../Drivers/cmw_camera/sensors/imx335/imx335.c ****       }
 757:../Drivers/cmw_camera/sensors/imx335/imx335.c ****       break;
 758:../Drivers/cmw_camera/sensors/imx335/imx335.c ****   };
 1166              		.loc 1 758 4 is_stmt 1 view .LVU315
 759:../Drivers/cmw_camera/sensors/imx335/imx335.c **** 
 760:../Drivers/cmw_camera/sensors/imx335/imx335.c ****   return ret;
 1167              		.loc 1 760 3 view .LVU316
 761:../Drivers/cmw_camera/sensors/imx335/imx335.c **** }
 1168              		.loc 1 761 1 is_stmt 0 view .LVU317
 1169 0066 08BD     		pop	{r3, pc}
 1170              	.LVL106:
 1171              	.L96:
 755:../Drivers/cmw_camera/sensors/imx335/imx335.c ****       }
 1172              		.loc 1 755 13 view .LVU318
 1173 0068 4FF0FF30 		mov	r0, #-1
 1174 006c FBE7     		b	.L91
 1175              	.L99:
 1176 006e 00BF     		.align	2
 1177              	.L98:
 1178 0070 00000000 		.word	framerate_10fps_regs
 1179 0074 00000000 		.word	framerate_15fps_regs
 1180 0078 00000000 		.word	framerate_20fps_regs
 1181 007c 00000000 		.word	framerate_25fps_regs
 1182 0080 00000000 		.word	framerate_30fps_regs
 1183              		.cfi_endproc
 1184              	.LFE199:
 1186              		.section	.text.IMX335_MirrorFlipConfig,"ax",%progbits
 1187              		.align	1
 1188              		.global	IMX335_MirrorFlipConfig
 1189              		.syntax unified
 1190              		.thumb
 1191              		.thumb_func
 1193              	IMX335_MirrorFlipConfig:
 1194              	.LVL107:
 1195              	.LFB200:
 762:../Drivers/cmw_camera/sensors/imx335/imx335.c **** 
 763:../Drivers/cmw_camera/sensors/imx335/imx335.c **** /**
ARM GAS  /tmp/ccF20hIi.s 			page 36


 764:../Drivers/cmw_camera/sensors/imx335/imx335.c ****   * @brief  Control imx335 camera mirror/vflip.
 765:../Drivers/cmw_camera/sensors/imx335/imx335.c ****   * @param  pObj  pointer to component object
 766:../Drivers/cmw_camera/sensors/imx335/imx335.c ****   * @param  Config To configure mirror, flip, both or none
 767:../Drivers/cmw_camera/sensors/imx335/imx335.c ****   * @retval Component status
 768:../Drivers/cmw_camera/sensors/imx335/imx335.c ****   */
 769:../Drivers/cmw_camera/sensors/imx335/imx335.c **** int32_t IMX335_MirrorFlipConfig(IMX335_Object_t *pObj, uint32_t Config)
 770:../Drivers/cmw_camera/sensors/imx335/imx335.c **** {
 1196              		.loc 1 770 1 is_stmt 1 view -0
 1197              		.cfi_startproc
 1198              		@ args = 0, pretend = 0, frame = 0
 1199              		@ frame_needed = 0, uses_anonymous_args = 0
 1200              		.loc 1 770 1 is_stmt 0 view .LVU320
 1201 0000 08B5     		push	{r3, lr}
 1202              	.LCFI28:
 1203              		.cfi_def_cfa_offset 8
 1204              		.cfi_offset 3, -8
 1205              		.cfi_offset 14, -4
 771:../Drivers/cmw_camera/sensors/imx335/imx335.c ****   int32_t ret = IMX335_OK;
 1206              		.loc 1 771 3 is_stmt 1 view .LVU321
 1207              	.LVL108:
 772:../Drivers/cmw_camera/sensors/imx335/imx335.c **** 
 773:../Drivers/cmw_camera/sensors/imx335/imx335.c ****   switch (Config)
 1208              		.loc 1 773 3 view .LVU322
 1209 0002 0229     		cmp	r1, #2
 1210 0004 08D0     		beq	.L101
 1211 0006 0329     		cmp	r1, #3
 1212 0008 0BD0     		beq	.L102
 1213 000a 0129     		cmp	r1, #1
 1214 000c 0ED1     		bne	.L103
 774:../Drivers/cmw_camera/sensors/imx335/imx335.c ****   {
 775:../Drivers/cmw_camera/sensors/imx335/imx335.c ****     case IMX335_FLIP:
 776:../Drivers/cmw_camera/sensors/imx335/imx335.c ****       ret = IMX335_WriteTable(pObj, mirrorflip_mode_regs[1], ARRAY_SIZE(mirrorflip_mode_regs[1]));
 1215              		.loc 1 776 7 view .LVU323
 1216              		.loc 1 776 13 is_stmt 0 view .LVU324
 1217 000e 0A22     		movs	r2, #10
 1218 0010 0949     		ldr	r1, .L106
 1219              	.LVL109:
 1220              		.loc 1 776 13 view .LVU325
 1221 0012 FFF7FEFF 		bl	IMX335_WriteTable
 1222              	.LVL110:
 777:../Drivers/cmw_camera/sensors/imx335/imx335.c ****       break;
 1223              		.loc 1 777 7 is_stmt 1 view .LVU326
 1224              	.L100:
 778:../Drivers/cmw_camera/sensors/imx335/imx335.c ****     case IMX335_MIRROR:
 779:../Drivers/cmw_camera/sensors/imx335/imx335.c ****       ret = IMX335_WriteTable(pObj, mirrorflip_mode_regs[2], ARRAY_SIZE(mirrorflip_mode_regs[2]));
 780:../Drivers/cmw_camera/sensors/imx335/imx335.c ****       break;
 781:../Drivers/cmw_camera/sensors/imx335/imx335.c ****     case IMX335_MIRROR_FLIP:
 782:../Drivers/cmw_camera/sensors/imx335/imx335.c ****       ret = IMX335_WriteTable(pObj, mirrorflip_mode_regs[3], ARRAY_SIZE(mirrorflip_mode_regs[3]));
 783:../Drivers/cmw_camera/sensors/imx335/imx335.c ****       break;
 784:../Drivers/cmw_camera/sensors/imx335/imx335.c ****     case IMX335_MIRROR_FLIP_NONE:
 785:../Drivers/cmw_camera/sensors/imx335/imx335.c ****     default:
 786:../Drivers/cmw_camera/sensors/imx335/imx335.c ****       ret = IMX335_WriteTable(pObj, mirrorflip_mode_regs[0], ARRAY_SIZE(mirrorflip_mode_regs[0]));
 787:../Drivers/cmw_camera/sensors/imx335/imx335.c ****       break;
 788:../Drivers/cmw_camera/sensors/imx335/imx335.c ****   }
 789:../Drivers/cmw_camera/sensors/imx335/imx335.c ****   return ret;
 790:../Drivers/cmw_camera/sensors/imx335/imx335.c **** }
 1225              		.loc 1 790 1 is_stmt 0 view .LVU327
ARM GAS  /tmp/ccF20hIi.s 			page 37


 1226 0016 08BD     		pop	{r3, pc}
 1227              	.LVL111:
 1228              	.L101:
 779:../Drivers/cmw_camera/sensors/imx335/imx335.c ****       break;
 1229              		.loc 1 779 7 is_stmt 1 view .LVU328
 779:../Drivers/cmw_camera/sensors/imx335/imx335.c ****       break;
 1230              		.loc 1 779 13 is_stmt 0 view .LVU329
 1231 0018 0A22     		movs	r2, #10
 1232 001a 0849     		ldr	r1, .L106+4
 1233              	.LVL112:
 779:../Drivers/cmw_camera/sensors/imx335/imx335.c ****       break;
 1234              		.loc 1 779 13 view .LVU330
 1235 001c FFF7FEFF 		bl	IMX335_WriteTable
 1236              	.LVL113:
 780:../Drivers/cmw_camera/sensors/imx335/imx335.c ****     case IMX335_MIRROR_FLIP:
 1237              		.loc 1 780 7 is_stmt 1 view .LVU331
 1238 0020 F9E7     		b	.L100
 1239              	.LVL114:
 1240              	.L102:
 782:../Drivers/cmw_camera/sensors/imx335/imx335.c ****       break;
 1241              		.loc 1 782 7 view .LVU332
 782:../Drivers/cmw_camera/sensors/imx335/imx335.c ****       break;
 1242              		.loc 1 782 13 is_stmt 0 view .LVU333
 1243 0022 0A22     		movs	r2, #10
 1244 0024 0649     		ldr	r1, .L106+8
 1245              	.LVL115:
 782:../Drivers/cmw_camera/sensors/imx335/imx335.c ****       break;
 1246              		.loc 1 782 13 view .LVU334
 1247 0026 FFF7FEFF 		bl	IMX335_WriteTable
 1248              	.LVL116:
 783:../Drivers/cmw_camera/sensors/imx335/imx335.c ****     case IMX335_MIRROR_FLIP_NONE:
 1249              		.loc 1 783 7 is_stmt 1 view .LVU335
 1250 002a F4E7     		b	.L100
 1251              	.LVL117:
 1252              	.L103:
 786:../Drivers/cmw_camera/sensors/imx335/imx335.c ****       break;
 1253              		.loc 1 786 7 view .LVU336
 786:../Drivers/cmw_camera/sensors/imx335/imx335.c ****       break;
 1254              		.loc 1 786 13 is_stmt 0 view .LVU337
 1255 002c 0A22     		movs	r2, #10
 1256 002e 0549     		ldr	r1, .L106+12
 1257              	.LVL118:
 786:../Drivers/cmw_camera/sensors/imx335/imx335.c ****       break;
 1258              		.loc 1 786 13 view .LVU338
 1259 0030 FFF7FEFF 		bl	IMX335_WriteTable
 1260              	.LVL119:
 787:../Drivers/cmw_camera/sensors/imx335/imx335.c ****   }
 1261              		.loc 1 787 7 is_stmt 1 view .LVU339
 789:../Drivers/cmw_camera/sensors/imx335/imx335.c **** }
 1262              		.loc 1 789 3 view .LVU340
 789:../Drivers/cmw_camera/sensors/imx335/imx335.c **** }
 1263              		.loc 1 789 10 is_stmt 0 discriminator 1 view .LVU341
 1264 0034 EFE7     		b	.L100
 1265              	.L107:
 1266 0036 00BF     		.align	2
 1267              	.L106:
 1268 0038 28000000 		.word	mirrorflip_mode_regs+40
ARM GAS  /tmp/ccF20hIi.s 			page 38


 1269 003c 50000000 		.word	mirrorflip_mode_regs+80
 1270 0040 78000000 		.word	mirrorflip_mode_regs+120
 1271 0044 00000000 		.word	mirrorflip_mode_regs
 1272              		.cfi_endproc
 1273              	.LFE200:
 1275              		.section	.text.IMX335_SetTestPattern,"ax",%progbits
 1276              		.align	1
 1277              		.global	IMX335_SetTestPattern
 1278              		.syntax unified
 1279              		.thumb
 1280              		.thumb_func
 1282              	IMX335_SetTestPattern:
 1283              	.LVL120:
 1284              	.LFB201:
 791:../Drivers/cmw_camera/sensors/imx335/imx335.c **** 
 792:../Drivers/cmw_camera/sensors/imx335/imx335.c **** /**
 793:../Drivers/cmw_camera/sensors/imx335/imx335.c ****   * @brief  Set the Test Pattern Generator
 794:../Drivers/cmw_camera/sensors/imx335/imx335.c ****   * @param  pObj  pointer to component object
 795:../Drivers/cmw_camera/sensors/imx335/imx335.c ****   * @param  mode Pattern mode:
 796:../Drivers/cmw_camera/sensors/imx335/imx335.c ****   *              -1 : Disable
 797:../Drivers/cmw_camera/sensors/imx335/imx335.c ****   *               0 : All 000h
 798:../Drivers/cmw_camera/sensors/imx335/imx335.c ****   *               1 : All FFFh
 799:../Drivers/cmw_camera/sensors/imx335/imx335.c ****   *               2 : All 555h
 800:../Drivers/cmw_camera/sensors/imx335/imx335.c ****   *               3 : All AAAh
 801:../Drivers/cmw_camera/sensors/imx335/imx335.c ****   *               4 : Toggle 555/AAAh
 802:../Drivers/cmw_camera/sensors/imx335/imx335.c ****   *               5 : Toggle AAA/555h
 803:../Drivers/cmw_camera/sensors/imx335/imx335.c ****   *               6 : Toggle 000/555h
 804:../Drivers/cmw_camera/sensors/imx335/imx335.c ****   *               7 : Toggle 555/000h
 805:../Drivers/cmw_camera/sensors/imx335/imx335.c ****   *               8 : Toggle 000/FFFh
 806:../Drivers/cmw_camera/sensors/imx335/imx335.c ****   *               9 : Toggle FFF/000h
 807:../Drivers/cmw_camera/sensors/imx335/imx335.c ****   *               10: Horizontal color bars
 808:../Drivers/cmw_camera/sensors/imx335/imx335.c ****   *               11: Vertical color bars
 809:../Drivers/cmw_camera/sensors/imx335/imx335.c ****   * @retval Component status
 810:../Drivers/cmw_camera/sensors/imx335/imx335.c ****   */
 811:../Drivers/cmw_camera/sensors/imx335/imx335.c **** int32_t IMX335_SetTestPattern(IMX335_Object_t *pObj, int32_t mode)
 812:../Drivers/cmw_camera/sensors/imx335/imx335.c **** {
 1285              		.loc 1 812 1 is_stmt 1 view -0
 1286              		.cfi_startproc
 1287              		@ args = 0, pretend = 0, frame = 8
 1288              		@ frame_needed = 0, uses_anonymous_args = 0
 1289              		.loc 1 812 1 is_stmt 0 view .LVU343
 1290 0000 10B5     		push	{r4, lr}
 1291              	.LCFI29:
 1292              		.cfi_def_cfa_offset 8
 1293              		.cfi_offset 4, -8
 1294              		.cfi_offset 14, -4
 1295 0002 82B0     		sub	sp, sp, #8
 1296              	.LCFI30:
 1297              		.cfi_def_cfa_offset 16
 813:../Drivers/cmw_camera/sensors/imx335/imx335.c ****   int32_t ret = IMX335_OK;
 1298              		.loc 1 813 3 is_stmt 1 view .LVU344
 1299              	.LVL121:
 814:../Drivers/cmw_camera/sensors/imx335/imx335.c ****   uint8_t val;
 1300              		.loc 1 814 3 view .LVU345
 815:../Drivers/cmw_camera/sensors/imx335/imx335.c **** 
 816:../Drivers/cmw_camera/sensors/imx335/imx335.c ****   if (mode >= 0)
 1301              		.loc 1 816 3 view .LVU346
ARM GAS  /tmp/ccF20hIi.s 			page 39


 1302              		.loc 1 816 6 is_stmt 0 view .LVU347
 1303 0004 0029     		cmp	r1, #0
 1304              		.loc 1 816 6 view .LVU348
 1305 0006 13DB     		blt	.L109
 1306 0008 0446     		mov	r4, r0
 817:../Drivers/cmw_camera/sensors/imx335/imx335.c ****   {
 818:../Drivers/cmw_camera/sensors/imx335/imx335.c ****     /* Enable Test Pattern #mode */
 819:../Drivers/cmw_camera/sensors/imx335/imx335.c ****     val = mode;
 1307              		.loc 1 819 5 is_stmt 1 view .LVU349
 1308              		.loc 1 819 9 is_stmt 0 view .LVU350
 1309 000a 8DF80710 		strb	r1, [sp, #7]
 820:../Drivers/cmw_camera/sensors/imx335/imx335.c ****     if (imx335_write_reg(&pObj->Ctx, IMX335_REG_TPG, &val, 1) != IMX335_OK)
 1310              		.loc 1 820 5 is_stmt 1 view .LVU351
 1311              		.loc 1 820 9 is_stmt 0 view .LVU352
 1312 000e 0123     		movs	r3, #1
 1313 0010 0DF10702 		add	r2, sp, #7
 1314 0014 43F29E21 		movw	r1, #12958
 1315              	.LVL122:
 1316              		.loc 1 820 9 view .LVU353
 1317 0018 1830     		adds	r0, r0, #24
 1318              	.LVL123:
 1319              		.loc 1 820 9 view .LVU354
 1320 001a FFF7FEFF 		bl	imx335_write_reg
 1321              	.LVL124:
 1322              		.loc 1 820 8 discriminator 1 view .LVU355
 1323 001e 80B9     		cbnz	r0, .L111
 821:../Drivers/cmw_camera/sensors/imx335/imx335.c ****     {
 822:../Drivers/cmw_camera/sensors/imx335/imx335.c ****       return IMX335_ERROR;
 823:../Drivers/cmw_camera/sensors/imx335/imx335.c ****     }
 824:../Drivers/cmw_camera/sensors/imx335/imx335.c ****     if (IMX335_WriteTable(pObj, test_pattern_enable_regs, ARRAY_SIZE(test_pattern_enable_regs)) != 
 1324              		.loc 1 824 5 is_stmt 1 view .LVU356
 1325              		.loc 1 824 9 is_stmt 0 view .LVU357
 1326 0020 0722     		movs	r2, #7
 1327 0022 0B49     		ldr	r1, .L116
 1328 0024 2046     		mov	r0, r4
 1329 0026 FFF7FEFF 		bl	IMX335_WriteTable
 1330              	.LVL125:
 1331              		.loc 1 824 8 discriminator 1 view .LVU358
 1332 002a 68B9     		cbnz	r0, .L115
 1333              	.LVL126:
 1334              	.L108:
 825:../Drivers/cmw_camera/sensors/imx335/imx335.c ****     {
 826:../Drivers/cmw_camera/sensors/imx335/imx335.c ****       return IMX335_ERROR;
 827:../Drivers/cmw_camera/sensors/imx335/imx335.c ****     }
 828:../Drivers/cmw_camera/sensors/imx335/imx335.c ****   }
 829:../Drivers/cmw_camera/sensors/imx335/imx335.c ****   else
 830:../Drivers/cmw_camera/sensors/imx335/imx335.c ****   {
 831:../Drivers/cmw_camera/sensors/imx335/imx335.c ****     /* Disable Test Pattern */
 832:../Drivers/cmw_camera/sensors/imx335/imx335.c ****     if (IMX335_WriteTable(pObj, test_pattern_disable_regs, ARRAY_SIZE(test_pattern_disable_regs)) !
 833:../Drivers/cmw_camera/sensors/imx335/imx335.c ****     {
 834:../Drivers/cmw_camera/sensors/imx335/imx335.c ****       return IMX335_ERROR;
 835:../Drivers/cmw_camera/sensors/imx335/imx335.c ****     }
 836:../Drivers/cmw_camera/sensors/imx335/imx335.c ****   }
 837:../Drivers/cmw_camera/sensors/imx335/imx335.c **** 
 838:../Drivers/cmw_camera/sensors/imx335/imx335.c ****   return ret;
 839:../Drivers/cmw_camera/sensors/imx335/imx335.c **** }
 1335              		.loc 1 839 1 view .LVU359
ARM GAS  /tmp/ccF20hIi.s 			page 40


 1336 002c 02B0     		add	sp, sp, #8
 1337              	.LCFI31:
 1338              		.cfi_remember_state
 1339              		.cfi_def_cfa_offset 8
 1340              		@ sp needed
 1341 002e 10BD     		pop	{r4, pc}
 1342              	.LVL127:
 1343              	.L109:
 1344              	.LCFI32:
 1345              		.cfi_restore_state
 832:../Drivers/cmw_camera/sensors/imx335/imx335.c ****     {
 1346              		.loc 1 832 5 is_stmt 1 view .LVU360
 832:../Drivers/cmw_camera/sensors/imx335/imx335.c ****     {
 1347              		.loc 1 832 9 is_stmt 0 view .LVU361
 1348 0030 0722     		movs	r2, #7
 1349 0032 0849     		ldr	r1, .L116+4
 1350              	.LVL128:
 832:../Drivers/cmw_camera/sensors/imx335/imx335.c ****     {
 1351              		.loc 1 832 9 view .LVU362
 1352 0034 FFF7FEFF 		bl	IMX335_WriteTable
 1353              	.LVL129:
 832:../Drivers/cmw_camera/sensors/imx335/imx335.c ****     {
 1354              		.loc 1 832 8 discriminator 1 view .LVU363
 1355 0038 0028     		cmp	r0, #0
 1356 003a F7D0     		beq	.L108
 834:../Drivers/cmw_camera/sensors/imx335/imx335.c ****     }
 1357              		.loc 1 834 14 view .LVU364
 1358 003c 4FF0FF30 		mov	r0, #-1
 1359 0040 F4E7     		b	.L108
 1360              	.LVL130:
 1361              	.L111:
 822:../Drivers/cmw_camera/sensors/imx335/imx335.c ****     }
 1362              		.loc 1 822 14 view .LVU365
 1363 0042 4FF0FF30 		mov	r0, #-1
 1364 0046 F1E7     		b	.L108
 1365              	.L115:
 826:../Drivers/cmw_camera/sensors/imx335/imx335.c ****     }
 1366              		.loc 1 826 14 view .LVU366
 1367 0048 4FF0FF30 		mov	r0, #-1
 1368 004c EEE7     		b	.L108
 1369              	.L117:
 1370 004e 00BF     		.align	2
 1371              	.L116:
 1372 0050 00000000 		.word	test_pattern_enable_regs
 1373 0054 00000000 		.word	test_pattern_disable_regs
 1374              		.cfi_endproc
 1375              	.LFE201:
 1377              		.section	.rodata.test_pattern_disable_regs,"a"
 1378              		.align	2
 1381              	test_pattern_disable_regs:
 1382 0000 4831     		.short	12616
 1383 0002 00       		.byte	0
 1384 0003 00       		.space	1
 1385 0004 8032     		.short	12928
 1386 0006 01       		.byte	1
 1387 0007 00       		.space	1
 1388 0008 9C32     		.short	12956
ARM GAS  /tmp/ccF20hIi.s 			page 41


 1389 000a 00       		.byte	0
 1390 000b 00       		.space	1
 1391 000c A032     		.short	12960
 1392 000e 10       		.byte	16
 1393 000f 00       		.space	1
 1394 0010 0233     		.short	13058
 1395 0012 32       		.byte	50
 1396 0013 00       		.space	1
 1397 0014 0333     		.short	13059
 1398 0016 00       		.byte	0
 1399 0017 00       		.space	1
 1400 0018 6C33     		.short	13164
 1401 001a 01       		.byte	1
 1402 001b 00       		.space	1
 1403              		.section	.rodata.test_pattern_enable_regs,"a"
 1404              		.align	2
 1407              	test_pattern_enable_regs:
 1408 0000 4831     		.short	12616
 1409 0002 10       		.byte	16
 1410 0003 00       		.space	1
 1411 0004 8032     		.short	12928
 1412 0006 00       		.byte	0
 1413 0007 00       		.space	1
 1414 0008 9C32     		.short	12956
 1415 000a 01       		.byte	1
 1416 000b 00       		.space	1
 1417 000c A032     		.short	12960
 1418 000e 11       		.byte	17
 1419 000f 00       		.space	1
 1420 0010 0233     		.short	13058
 1421 0012 00       		.byte	0
 1422 0013 00       		.space	1
 1423 0014 0333     		.short	13059
 1424 0016 00       		.byte	0
 1425 0017 00       		.space	1
 1426 0018 6C33     		.short	13164
 1427 001a 00       		.byte	0
 1428 001b 00       		.space	1
 1429              		.section	.rodata.mirrorflip_mode_regs,"a"
 1430              		.align	2
 1433              	mirrorflip_mode_regs:
 1434 0000 7430     		.short	12404
 1435 0002 C8       		.byte	-56
 1436 0003 00       		.space	1
 1437 0004 7530     		.short	12405
 1438 0006 00       		.byte	0
 1439 0007 00       		.space	1
 1440 0008 4E30     		.short	12366
 1441 000a 00       		.byte	0
 1442 000b 00       		.space	1
 1443 000c 4F30     		.short	12367
 1444 000e 00       		.byte	0
 1445 000f 00       		.space	1
 1446 0010 8130     		.short	12417
 1447 0012 02       		.byte	2
 1448 0013 00       		.space	1
 1449 0014 8330     		.short	12419
ARM GAS  /tmp/ccF20hIi.s 			page 42


 1450 0016 02       		.byte	2
 1451 0017 00       		.space	1
 1452 0018 B630     		.short	12470
 1453 001a 00       		.byte	0
 1454 001b 00       		.space	1
 1455 001c B730     		.short	12471
 1456 001e 00       		.byte	0
 1457 001f 00       		.space	1
 1458 0020 1631     		.short	12566
 1459 0022 08       		.byte	8
 1460 0023 00       		.space	1
 1461 0024 1731     		.short	12567
 1462 0026 00       		.byte	0
 1463 0027 00       		.space	1
 1464 0028 7430     		.short	12404
 1465 002a F8       		.byte	-8
 1466 002b 00       		.space	1
 1467 002c 7530     		.short	12405
 1468 002e 0F       		.byte	15
 1469 002f 00       		.space	1
 1470 0030 4E30     		.short	12366
 1471 0032 00       		.byte	0
 1472 0033 00       		.space	1
 1473 0034 4F30     		.short	12367
 1474 0036 01       		.byte	1
 1475 0037 00       		.space	1
 1476 0038 8130     		.short	12417
 1477 003a FE       		.byte	-2
 1478 003b 00       		.space	1
 1479 003c 8330     		.short	12419
 1480 003e FE       		.byte	-2
 1481 003f 00       		.space	1
 1482 0040 B630     		.short	12470
 1483 0042 FA       		.byte	-6
 1484 0043 00       		.space	1
 1485 0044 B730     		.short	12471
 1486 0046 01       		.byte	1
 1487 0047 00       		.space	1
 1488 0048 1631     		.short	12566
 1489 004a 02       		.byte	2
 1490 004b 00       		.space	1
 1491 004c 1731     		.short	12567
 1492 004e 00       		.byte	0
 1493 004f 00       		.space	1
 1494 0050 7430     		.short	12404
 1495 0052 C8       		.byte	-56
 1496 0053 00       		.space	1
 1497 0054 7530     		.short	12405
 1498 0056 00       		.byte	0
 1499 0057 00       		.space	1
 1500 0058 4E30     		.short	12366
 1501 005a 01       		.byte	1
 1502 005b 00       		.space	1
 1503 005c 4F30     		.short	12367
 1504 005e 00       		.byte	0
 1505 005f 00       		.space	1
 1506 0060 8130     		.short	12417
ARM GAS  /tmp/ccF20hIi.s 			page 43


 1507 0062 02       		.byte	2
 1508 0063 00       		.space	1
 1509 0064 8330     		.short	12419
 1510 0066 02       		.byte	2
 1511 0067 00       		.space	1
 1512 0068 B630     		.short	12470
 1513 006a 00       		.byte	0
 1514 006b 00       		.space	1
 1515 006c B730     		.short	12471
 1516 006e 00       		.byte	0
 1517 006f 00       		.space	1
 1518 0070 1631     		.short	12566
 1519 0072 08       		.byte	8
 1520 0073 00       		.space	1
 1521 0074 1731     		.short	12567
 1522 0076 00       		.byte	0
 1523 0077 00       		.space	1
 1524 0078 7430     		.short	12404
 1525 007a F8       		.byte	-8
 1526 007b 00       		.space	1
 1527 007c 7530     		.short	12405
 1528 007e 0F       		.byte	15
 1529 007f 00       		.space	1
 1530 0080 4E30     		.short	12366
 1531 0082 01       		.byte	1
 1532 0083 00       		.space	1
 1533 0084 4F30     		.short	12367
 1534 0086 01       		.byte	1
 1535 0087 00       		.space	1
 1536 0088 8130     		.short	12417
 1537 008a FE       		.byte	-2
 1538 008b 00       		.space	1
 1539 008c 8330     		.short	12419
 1540 008e FE       		.byte	-2
 1541 008f 00       		.space	1
 1542 0090 B630     		.short	12470
 1543 0092 FA       		.byte	-6
 1544 0093 00       		.space	1
 1545 0094 B730     		.short	12471
 1546 0096 01       		.byte	1
 1547 0097 00       		.space	1
 1548 0098 1631     		.short	12566
 1549 009a 02       		.byte	2
 1550 009b 00       		.space	1
 1551 009c 1731     		.short	12567
 1552 009e 00       		.byte	0
 1553 009f 00       		.space	1
 1554              		.section	.rodata.framerate_30fps_regs,"a"
 1555              		.align	2
 1558              	framerate_30fps_regs:
 1559 0000 3030     		.short	12336
 1560 0002 94       		.byte	-108
 1561 0003 00       		.space	1
 1562 0004 3130     		.short	12337
 1563 0006 11       		.byte	17
 1564 0007 00       		.space	1
 1565              		.section	.rodata.framerate_25fps_regs,"a"
ARM GAS  /tmp/ccF20hIi.s 			page 44


 1566              		.align	2
 1569              	framerate_25fps_regs:
 1570 0000 3030     		.short	12336
 1571 0002 1A       		.byte	26
 1572 0003 00       		.space	1
 1573 0004 3130     		.short	12337
 1574 0006 15       		.byte	21
 1575 0007 00       		.space	1
 1576              		.section	.rodata.framerate_20fps_regs,"a"
 1577              		.align	2
 1580              	framerate_20fps_regs:
 1581 0000 3030     		.short	12336
 1582 0002 60       		.byte	96
 1583 0003 00       		.space	1
 1584 0004 3130     		.short	12337
 1585 0006 1A       		.byte	26
 1586 0007 00       		.space	1
 1587              		.section	.rodata.framerate_15fps_regs,"a"
 1588              		.align	2
 1591              	framerate_15fps_regs:
 1592 0000 3030     		.short	12336
 1593 0002 2A       		.byte	42
 1594 0003 00       		.space	1
 1595 0004 3130     		.short	12337
 1596 0006 23       		.byte	35
 1597 0007 00       		.space	1
 1598              		.section	.rodata.framerate_10fps_regs,"a"
 1599              		.align	2
 1602              	framerate_10fps_regs:
 1603 0000 3030     		.short	12336
 1604 0002 C0       		.byte	-64
 1605 0003 00       		.space	1
 1606 0004 3130     		.short	12337
 1607 0006 34       		.byte	52
 1608 0007 00       		.space	1
 1609              		.section	.rodata.inck_6Mhz_regs,"a"
 1610              		.align	2
 1613              	inck_6Mhz_regs:
 1614 0000 0C30     		.short	12300
 1615 0002 0F       		.byte	15
 1616 0003 00       		.space	1
 1617 0004 0D30     		.short	12301
 1618 0006 0B       		.byte	11
 1619 0007 00       		.space	1
 1620 0008 4C31     		.short	12620
 1621 000a C6       		.byte	-58
 1622 000b 00       		.space	1
 1623 000c 4D31     		.short	12621
 1624 000e 00       		.byte	0
 1625 000f 00       		.space	1
 1626 0010 5A31     		.short	12634
 1627 0012 00       		.byte	0
 1628 0013 00       		.space	1
 1629 0014 6831     		.short	12648
 1630 0016 A0       		.byte	-96
 1631 0017 00       		.space	1
 1632 0018 6A31     		.short	12650
ARM GAS  /tmp/ccF20hIi.s 			page 45


 1633 001a 7C       		.byte	124
 1634 001b 00       		.space	1
 1635              		.section	.rodata.inck_18Mhz_regs,"a"
 1636              		.align	2
 1639              	inck_18Mhz_regs:
 1640 0000 0C30     		.short	12300
 1641 0002 2D       		.byte	45
 1642 0003 00       		.space	1
 1643 0004 0D30     		.short	12301
 1644 0006 1F       		.byte	31
 1645 0007 00       		.space	1
 1646 0008 4C31     		.short	12620
 1647 000a 84       		.byte	-124
 1648 000b 00       		.space	1
 1649 000c 4D31     		.short	12621
 1650 000e 00       		.byte	0
 1651 000f 00       		.space	1
 1652 0010 5A31     		.short	12634
 1653 0012 01       		.byte	1
 1654 0013 00       		.space	1
 1655 0014 6831     		.short	12648
 1656 0016 6B       		.byte	107
 1657 0017 00       		.space	1
 1658 0018 6A31     		.short	12650
 1659 001a 7D       		.byte	125
 1660 001b 00       		.space	1
 1661              		.section	.rodata.inck_24Mhz_regs,"a"
 1662              		.align	2
 1665              	inck_24Mhz_regs:
 1666 0000 0C30     		.short	12300
 1667 0002 3B       		.byte	59
 1668 0003 00       		.space	1
 1669 0004 0D30     		.short	12301
 1670 0006 2A       		.byte	42
 1671 0007 00       		.space	1
 1672 0008 4C31     		.short	12620
 1673 000a C6       		.byte	-58
 1674 000b 00       		.space	1
 1675 000c 4D31     		.short	12621
 1676 000e 00       		.byte	0
 1677 000f 00       		.space	1
 1678 0010 5A31     		.short	12634
 1679 0012 02       		.byte	2
 1680 0013 00       		.space	1
 1681 0014 6831     		.short	12648
 1682 0016 A0       		.byte	-96
 1683 0017 00       		.space	1
 1684 0018 6A31     		.short	12650
 1685 001a 7E       		.byte	126
 1686 001b 00       		.space	1
 1687              		.section	.rodata.inck_27Mhz_regs,"a"
 1688              		.align	2
 1691              	inck_27Mhz_regs:
 1692 0000 0C30     		.short	12300
 1693 0002 42       		.byte	66
 1694 0003 00       		.space	1
 1695 0004 0D30     		.short	12301
ARM GAS  /tmp/ccF20hIi.s 			page 46


 1696 0006 2E       		.byte	46
 1697 0007 00       		.space	1
 1698 0008 4C31     		.short	12620
 1699 000a B0       		.byte	-80
 1700 000b 00       		.space	1
 1701 000c 4D31     		.short	12621
 1702 000e 00       		.byte	0
 1703 000f 00       		.space	1
 1704 0010 5A31     		.short	12634
 1705 0012 02       		.byte	2
 1706 0013 00       		.space	1
 1707 0014 6831     		.short	12648
 1708 0016 8F       		.byte	-113
 1709 0017 00       		.space	1
 1710 0018 6A31     		.short	12650
 1711 001a 7E       		.byte	126
 1712 001b 00       		.space	1
 1713              		.section	.rodata.inck_74Mhz_regs,"a"
 1714              		.align	2
 1717              	inck_74Mhz_regs:
 1718 0000 0C30     		.short	12300
 1719 0002 B6       		.byte	-74
 1720 0003 00       		.space	1
 1721 0004 0D30     		.short	12301
 1722 0006 7F       		.byte	127
 1723 0007 00       		.space	1
 1724 0008 4C31     		.short	12620
 1725 000a 80       		.byte	-128
 1726 000b 00       		.space	1
 1727 000c 4D31     		.short	12621
 1728 000e 00       		.byte	0
 1729 000f 00       		.space	1
 1730 0010 5A31     		.short	12634
 1731 0012 03       		.byte	3
 1732 0013 00       		.space	1
 1733 0014 6831     		.short	12648
 1734 0016 68       		.byte	104
 1735 0017 00       		.space	1
 1736 0018 6A31     		.short	12650
 1737 001a 7F       		.byte	127
 1738 001b 00       		.space	1
 1739              		.section	.rodata.mode_2l_10b_regs,"a"
 1740              		.align	2
 1743              	mode_2l_10b_regs:
 1744 0000 5030     		.short	12368
 1745 0002 00       		.byte	0
 1746 0003 00       		.space	1
 1747 0004 9D31     		.short	12701
 1748 0006 00       		.byte	0
 1749 0007 00       		.space	1
 1750 0008 1C34     		.short	13340
 1751 000a FF       		.byte	-1
 1752 000b 00       		.space	1
 1753 000c 1D34     		.short	13341
 1754 000e 01       		.byte	1
 1755 000f 00       		.space	1
 1756 0010 013A     		.short	14849
ARM GAS  /tmp/ccF20hIi.s 			page 47


 1757 0012 01       		.byte	1
 1758 0013 00       		.space	1
 1759              		.section	.rodata.res_2592_1944_regs,"a"
 1760              		.align	2
 1763              	res_2592_1944_regs:
 1764 0000 0030     		.short	12288
 1765 0002 01       		.byte	1
 1766 0003 00       		.space	1
 1767 0004 0230     		.short	12290
 1768 0006 00       		.byte	0
 1769 0007 00       		.space	1
 1770 0008 0C30     		.short	12300
 1771 000a 3B       		.byte	59
 1772 000b 00       		.space	1
 1773 000c 0D30     		.short	12301
 1774 000e 2A       		.byte	42
 1775 000f 00       		.space	1
 1776 0010 1830     		.short	12312
 1777 0012 04       		.byte	4
 1778 0013 00       		.space	1
 1779 0014 2C30     		.short	12332
 1780 0016 3C       		.byte	60
 1781 0017 00       		.space	1
 1782 0018 2E30     		.short	12334
 1783 001a 20       		.byte	32
 1784 001b 00       		.space	1
 1785 001c 5630     		.short	12374
 1786 001e 98       		.byte	-104
 1787 001f 00       		.space	1
 1788 0020 7430     		.short	12404
 1789 0022 C8       		.byte	-56
 1790 0023 00       		.space	1
 1791 0024 7630     		.short	12406
 1792 0026 30       		.byte	48
 1793 0027 00       		.space	1
 1794 0028 4C30     		.short	12364
 1795 002a 00       		.byte	0
 1796 002b 00       		.space	1
 1797 002c 4C31     		.short	12620
 1798 002e C6       		.byte	-58
 1799 002f 00       		.space	1
 1800 0030 5A31     		.short	12634
 1801 0032 02       		.byte	2
 1802 0033 00       		.space	1
 1803 0034 6831     		.short	12648
 1804 0036 A0       		.byte	-96
 1805 0037 00       		.space	1
 1806 0038 6A31     		.short	12650
 1807 003a 7E       		.byte	126
 1808 003b 00       		.space	1
 1809 003c A131     		.short	12705
 1810 003e 00       		.byte	0
 1811 003f 00       		.space	1
 1812 0040 8832     		.short	12936
 1813 0042 21       		.byte	33
 1814 0043 00       		.space	1
 1815 0044 8A32     		.short	12938
ARM GAS  /tmp/ccF20hIi.s 			page 48


 1816 0046 02       		.byte	2
 1817 0047 00       		.space	1
 1818 0048 1434     		.short	13332
 1819 004a 05       		.byte	5
 1820 004b 00       		.space	1
 1821 004c 1634     		.short	13334
 1822 004e 18       		.byte	24
 1823 004f 00       		.space	1
 1824 0050 4836     		.short	13896
 1825 0052 01       		.byte	1
 1826 0053 00       		.space	1
 1827 0054 4A36     		.short	13898
 1828 0056 04       		.byte	4
 1829 0057 00       		.space	1
 1830 0058 4C36     		.short	13900
 1831 005a 04       		.byte	4
 1832 005b 00       		.space	1
 1833 005c 7836     		.short	13944
 1834 005e 01       		.byte	1
 1835 005f 00       		.space	1
 1836 0060 7C36     		.short	13948
 1837 0062 31       		.byte	49
 1838 0063 00       		.space	1
 1839 0064 7E36     		.short	13950
 1840 0066 31       		.byte	49
 1841 0067 00       		.space	1
 1842 0068 0637     		.short	14086
 1843 006a 10       		.byte	16
 1844 006b 00       		.space	1
 1845 006c 0837     		.short	14088
 1846 006e 03       		.byte	3
 1847 006f 00       		.space	1
 1848 0070 1437     		.short	14100
 1849 0072 02       		.byte	2
 1850 0073 00       		.space	1
 1851 0074 1537     		.short	14101
 1852 0076 02       		.byte	2
 1853 0077 00       		.space	1
 1854 0078 1637     		.short	14102
 1855 007a 01       		.byte	1
 1856 007b 00       		.space	1
 1857 007c 1737     		.short	14103
 1858 007e 03       		.byte	3
 1859 007f 00       		.space	1
 1860 0080 1C37     		.short	14108
 1861 0082 3D       		.byte	61
 1862 0083 00       		.space	1
 1863 0084 1D37     		.short	14109
 1864 0086 3F       		.byte	63
 1865 0087 00       		.space	1
 1866 0088 2C37     		.short	14124
 1867 008a 00       		.byte	0
 1868 008b 00       		.space	1
 1869 008c 2D37     		.short	14125
 1870 008e 00       		.byte	0
 1871 008f 00       		.space	1
 1872 0090 2E37     		.short	14126
ARM GAS  /tmp/ccF20hIi.s 			page 49


 1873 0092 46       		.byte	70
 1874 0093 00       		.space	1
 1875 0094 2F37     		.short	14127
 1876 0096 00       		.byte	0
 1877 0097 00       		.space	1
 1878 0098 3037     		.short	14128
 1879 009a 89       		.byte	-119
 1880 009b 00       		.space	1
 1881 009c 3137     		.short	14129
 1882 009e 00       		.byte	0
 1883 009f 00       		.space	1
 1884 00a0 3237     		.short	14130
 1885 00a2 08       		.byte	8
 1886 00a3 00       		.space	1
 1887 00a4 3337     		.short	14131
 1888 00a6 01       		.byte	1
 1889 00a7 00       		.space	1
 1890 00a8 3437     		.short	14132
 1891 00aa FE       		.byte	-2
 1892 00ab 00       		.space	1
 1893 00ac 3537     		.short	14133
 1894 00ae 05       		.byte	5
 1895 00af 00       		.space	1
 1896 00b0 4037     		.short	14144
 1897 00b2 02       		.byte	2
 1898 00b3 00       		.space	1
 1899 00b4 5D37     		.short	14173
 1900 00b6 00       		.byte	0
 1901 00b7 00       		.space	1
 1902 00b8 5E37     		.short	14174
 1903 00ba 00       		.byte	0
 1904 00bb 00       		.space	1
 1905 00bc 5F37     		.short	14175
 1906 00be 11       		.byte	17
 1907 00bf 00       		.space	1
 1908 00c0 6037     		.short	14176
 1909 00c2 01       		.byte	1
 1910 00c3 00       		.space	1
 1911 00c4 6837     		.short	14184
 1912 00c6 1B       		.byte	27
 1913 00c7 00       		.space	1
 1914 00c8 6937     		.short	14185
 1915 00ca 1B       		.byte	27
 1916 00cb 00       		.space	1
 1917 00cc 6A37     		.short	14186
 1918 00ce 1B       		.byte	27
 1919 00cf 00       		.space	1
 1920 00d0 6B37     		.short	14187
 1921 00d2 1B       		.byte	27
 1922 00d3 00       		.space	1
 1923 00d4 6C37     		.short	14188
 1924 00d6 1A       		.byte	26
 1925 00d7 00       		.space	1
 1926 00d8 6D37     		.short	14189
 1927 00da 17       		.byte	23
 1928 00db 00       		.space	1
 1929 00dc 6E37     		.short	14190
ARM GAS  /tmp/ccF20hIi.s 			page 50


 1930 00de 0F       		.byte	15
 1931 00df 00       		.space	1
 1932 00e0 7637     		.short	14198
 1933 00e2 00       		.byte	0
 1934 00e3 00       		.space	1
 1935 00e4 7737     		.short	14199
 1936 00e6 00       		.byte	0
 1937 00e7 00       		.space	1
 1938 00e8 7837     		.short	14200
 1939 00ea 46       		.byte	70
 1940 00eb 00       		.space	1
 1941 00ec 7937     		.short	14201
 1942 00ee 00       		.byte	0
 1943 00ef 00       		.space	1
 1944 00f0 7A37     		.short	14202
 1945 00f2 89       		.byte	-119
 1946 00f3 00       		.space	1
 1947 00f4 7B37     		.short	14203
 1948 00f6 00       		.byte	0
 1949 00f7 00       		.space	1
 1950 00f8 7C37     		.short	14204
 1951 00fa 08       		.byte	8
 1952 00fb 00       		.space	1
 1953 00fc 7D37     		.short	14205
 1954 00fe 01       		.byte	1
 1955 00ff 00       		.space	1
 1956 0100 7E37     		.short	14206
 1957 0102 23       		.byte	35
 1958 0103 00       		.space	1
 1959 0104 7F37     		.short	14207
 1960 0106 02       		.byte	2
 1961 0107 00       		.space	1
 1962 0108 8037     		.short	14208
 1963 010a D9       		.byte	-39
 1964 010b 00       		.space	1
 1965 010c 8137     		.short	14209
 1966 010e 03       		.byte	3
 1967 010f 00       		.space	1
 1968 0110 8237     		.short	14210
 1969 0112 F5       		.byte	-11
 1970 0113 00       		.space	1
 1971 0114 8337     		.short	14211
 1972 0116 06       		.byte	6
 1973 0117 00       		.space	1
 1974 0118 8437     		.short	14212
 1975 011a A5       		.byte	-91
 1976 011b 00       		.space	1
 1977 011c 8837     		.short	14216
 1978 011e 0F       		.byte	15
 1979 011f 00       		.space	1
 1980 0120 8A37     		.short	14218
 1981 0122 D9       		.byte	-39
 1982 0123 00       		.space	1
 1983 0124 8B37     		.short	14219
 1984 0126 03       		.byte	3
 1985 0127 00       		.space	1
 1986 0128 8C37     		.short	14220
ARM GAS  /tmp/ccF20hIi.s 			page 51


 1987 012a EB       		.byte	-21
 1988 012b 00       		.space	1
 1989 012c 8D37     		.short	14221
 1990 012e 05       		.byte	5
 1991 012f 00       		.space	1
 1992 0130 8E37     		.short	14222
 1993 0132 87       		.byte	-121
 1994 0133 00       		.space	1
 1995 0134 8F37     		.short	14223
 1996 0136 06       		.byte	6
 1997 0137 00       		.space	1
 1998 0138 9037     		.short	14224
 1999 013a F5       		.byte	-11
 2000 013b 00       		.space	1
 2001 013c 9237     		.short	14226
 2002 013e 43       		.byte	67
 2003 013f 00       		.space	1
 2004 0140 9437     		.short	14228
 2005 0142 7A       		.byte	122
 2006 0143 00       		.space	1
 2007 0144 9637     		.short	14230
 2008 0146 A1       		.byte	-95
 2009 0147 00       		.space	1
 2010 0148 B037     		.short	14256
 2011 014a 36       		.byte	54
 2012 014b 00       		.space	1
 2013 014c 003A     		.short	14848
 2014 014e 01       		.byte	1
 2015 014f 00       		.space	1
 2016              		.text
 2017              	.Letext0:
 2018              		.file 2 "/usr/arm-none-eabi/include/machine/_default_types.h"
 2019              		.file 3 "/usr/arm-none-eabi/include/sys/_stdint.h"
 2020              		.file 4 "../Drivers/cmw_camera/sensors/imx335/imx335_reg.h"
 2021              		.file 5 "../Drivers/cmw_camera/sensors/imx335/imx335.h"
ARM GAS  /tmp/ccF20hIi.s 			page 52

