ARM GAS  /tmp/ccAu1Zkx.s 			page 1


   1              		.arch armv8.1-m.main
   2              		.fpu fpv5-d16
   3              		.arch_extension dsp
   4              		.arch_extension fp
   5              		.arch_extension fp.dp
   6              		.arch_extension mve
   7              		.arch_extension mve.fp
   8              		.eabi_attribute 5, "cortex-m55"
   9              		.eabi_attribute 28, 1
  10              		.eabi_attribute 20, 1
  11              		.eabi_attribute 21, 1
  12              		.eabi_attribute 23, 3
  13              		.eabi_attribute 24, 1
  14              		.eabi_attribute 25, 1
  15              		.eabi_attribute 26, 1
  16              		.eabi_attribute 30, 1
  17              		.eabi_attribute 34, 1
  18              		.eabi_attribute 38, 1
  19              		.eabi_attribute 18, 4
  20              		.file	"isp_services.c"
  21              		.text
  22              	.Ltext0:
  23              		.cfi_sections	.debug_frame
  24              		.file 1 "../Drivers/ISP/isp/Src/isp_services.c"
  25              		.section	.text.To_Shift_Multiplier,"ax",%progbits
  26              		.align	1
  27              		.syntax unified
  28              		.thumb
  29              		.thumb_func
  31              	To_Shift_Multiplier:
  32              	.LVL0:
  33              	.LFB884:
   1:../Drivers/ISP/isp/Src/isp_services.c **** /**
   2:../Drivers/ISP/isp/Src/isp_services.c ****  ******************************************************************************
   3:../Drivers/ISP/isp/Src/isp_services.c ****  * @file    isp_services.c
   4:../Drivers/ISP/isp/Src/isp_services.c ****  * @author  AIS Application Team
   5:../Drivers/ISP/isp/Src/isp_services.c ****  * @brief   Services of the ISP middleware
   6:../Drivers/ISP/isp/Src/isp_services.c ****  ******************************************************************************
   7:../Drivers/ISP/isp/Src/isp_services.c ****  * @attention
   8:../Drivers/ISP/isp/Src/isp_services.c ****  *
   9:../Drivers/ISP/isp/Src/isp_services.c ****  * Copyright (c) 2023 STMicroelectronics.
  10:../Drivers/ISP/isp/Src/isp_services.c ****  * All rights reserved.
  11:../Drivers/ISP/isp/Src/isp_services.c ****  *
  12:../Drivers/ISP/isp/Src/isp_services.c ****  * This software is licensed under terms that can be found in the LICENSE file
  13:../Drivers/ISP/isp/Src/isp_services.c ****  * in the root directory of this software component.
  14:../Drivers/ISP/isp/Src/isp_services.c ****  * If no LICENSE file comes with this software, it is provided AS-IS.
  15:../Drivers/ISP/isp/Src/isp_services.c ****  *
  16:../Drivers/ISP/isp/Src/isp_services.c ****  ******************************************************************************
  17:../Drivers/ISP/isp/Src/isp_services.c ****  */
  18:../Drivers/ISP/isp/Src/isp_services.c **** 
  19:../Drivers/ISP/isp/Src/isp_services.c **** /* Includes ------------------------------------------------------------------*/
  20:../Drivers/ISP/isp/Src/isp_services.c **** #include "isp_core.h"
  21:../Drivers/ISP/isp/Src/isp_services.c **** #include "isp_services.h"
  22:../Drivers/ISP/isp/Src/isp_services.c **** #ifdef ISP_MW_TUNING_TOOL_SUPPORT
  23:../Drivers/ISP/isp/Src/isp_services.c **** #include "isp_cmd_parser.h"
  24:../Drivers/ISP/isp/Src/isp_services.c **** #endif
  25:../Drivers/ISP/isp/Src/isp_services.c **** 
ARM GAS  /tmp/ccAu1Zkx.s 			page 2


  26:../Drivers/ISP/isp/Src/isp_services.c **** /* Private types -------------------------------------------------------------*/
  27:../Drivers/ISP/isp/Src/isp_services.c **** typedef enum {
  28:../Drivers/ISP/isp/Src/isp_services.c ****   ISP_STAT_CFG_UP_AVG = 0,      /* Configure @Up   for average    */
  29:../Drivers/ISP/isp/Src/isp_services.c ****   ISP_STAT_CFG_UP_BINS_0_2,     /* Configure @Up   for bins[0:2]  */
  30:../Drivers/ISP/isp/Src/isp_services.c ****   ISP_STAT_CFG_UP_BINS_3_5,     /* Configure @Up   for bins[3:5]  */
  31:../Drivers/ISP/isp/Src/isp_services.c ****   ISP_STAT_CFG_UP_BINS_6_8,     /* Configure @Up   for bins[6:8]  */
  32:../Drivers/ISP/isp/Src/isp_services.c ****   ISP_STAT_CFG_UP_BINS_9_11,    /* Configure @Up   for bins[9:11] */
  33:../Drivers/ISP/isp/Src/isp_services.c ****   ISP_STAT_CFG_DOWN_AVG,        /* Configure @Down for average    */
  34:../Drivers/ISP/isp/Src/isp_services.c ****   ISP_STAT_CFG_DOWN_BINS_0_2,   /* Configure @Down for bins[0:2]  */
  35:../Drivers/ISP/isp/Src/isp_services.c ****   ISP_STAT_CFG_DOWN_BINS_3_5,   /* Configure @Down for bins[3:5]  */
  36:../Drivers/ISP/isp/Src/isp_services.c ****   ISP_STAT_CFG_DOWN_BINS_6_8,   /* Configure @Down for bins[6:8]  */
  37:../Drivers/ISP/isp/Src/isp_services.c ****   ISP_STAT_CFG_DOWN_BINS_9_11,  /* Configure @Down for bins[9:11] */
  38:../Drivers/ISP/isp/Src/isp_services.c ****   ISP_STAT_CFG_LAST = ISP_STAT_CFG_DOWN_BINS_9_11,
  39:../Drivers/ISP/isp/Src/isp_services.c ****   ISP_STAT_CFG_CYCLE_SIZE,
  40:../Drivers/ISP/isp/Src/isp_services.c **** } ISP_SVC_StatEngineStage;
  41:../Drivers/ISP/isp/Src/isp_services.c **** 
  42:../Drivers/ISP/isp/Src/isp_services.c **** typedef enum {
  43:../Drivers/ISP/isp/Src/isp_services.c ****   ISP_RED,
  44:../Drivers/ISP/isp/Src/isp_services.c ****   ISP_GREEN,
  45:../Drivers/ISP/isp/Src/isp_services.c ****   ISP_BLUE,
  46:../Drivers/ISP/isp/Src/isp_services.c **** } ISP_SVC_Component;
  47:../Drivers/ISP/isp/Src/isp_services.c **** 
  48:../Drivers/ISP/isp/Src/isp_services.c **** typedef struct {
  49:../Drivers/ISP/isp/Src/isp_services.c ****   ISP_stat_ready_cb callback;           /* Callback to inform that stats are ready */
  50:../Drivers/ISP/isp/Src/isp_services.c ****   ISP_AlgoTypeDef *pAlgo;               /* Callback context parameter */
  51:../Drivers/ISP/isp/Src/isp_services.c ****   ISP_SVC_StatStateTypeDef *pStats;     /* Output statistics */
  52:../Drivers/ISP/isp/Src/isp_services.c ****   uint32_t refFrameId;                  /* Frame reference for which stats are requested */
  53:../Drivers/ISP/isp/Src/isp_services.c ****   ISP_SVC_StatLocation location;        /* Location where stats are requested */
  54:../Drivers/ISP/isp/Src/isp_services.c ****   ISP_SVC_StatType type;                /* Type of requested stats */
  55:../Drivers/ISP/isp/Src/isp_services.c **** } ISP_SVC_StatRegisteredClient;
  56:../Drivers/ISP/isp/Src/isp_services.c **** 
  57:../Drivers/ISP/isp/Src/isp_services.c **** #define ISP_SVC_STAT_MAX_CB       (5U)
  58:../Drivers/ISP/isp/Src/isp_services.c **** typedef struct {
  59:../Drivers/ISP/isp/Src/isp_services.c ****   ISP_SVC_StatEngineStage stage;        /* Internal processing stage */
  60:../Drivers/ISP/isp/Src/isp_services.c ****   ISP_SVC_StatStateTypeDef last;        /* Last available statistics */
  61:../Drivers/ISP/isp/Src/isp_services.c ****   ISP_SVC_StatStateTypeDef ongoing;     /* Statistics being updated */
  62:../Drivers/ISP/isp/Src/isp_services.c ****   ISP_SVC_StatRegisteredClient client[ISP_SVC_STAT_MAX_CB]; /* Client waiting for stats */
  63:../Drivers/ISP/isp/Src/isp_services.c ****   ISP_SVC_StatType upRequest;           /* Type of statistics request at Up location */
  64:../Drivers/ISP/isp/Src/isp_services.c ****   ISP_SVC_StatType downRequest;         /* Type of statistics request at Down location */
  65:../Drivers/ISP/isp/Src/isp_services.c ****   uint32_t requestAllCounter;           /* Counter for the temporary "request all stats" mode */
  66:../Drivers/ISP/isp/Src/isp_services.c ****   ISP_StatAreaTypeDef upStatArea;       /* Stat area configured at upRequest */
  67:../Drivers/ISP/isp/Src/isp_services.c ****   ISP_StatAreaTypeDef downStatArea;     /* Stat area configured at downRequest */
  68:../Drivers/ISP/isp/Src/isp_services.c **** } ISP_SVC_StatEngineTypeDef;
  69:../Drivers/ISP/isp/Src/isp_services.c **** 
  70:../Drivers/ISP/isp/Src/isp_services.c **** /* Private constants ---------------------------------------------------------*/
  71:../Drivers/ISP/isp/Src/isp_services.c **** #define ISP_SVC_CONFIG_ORDER_RGB      0
  72:../Drivers/ISP/isp/Src/isp_services.c **** #define ISP_SVC_CONFIG_ORDER_BGR      1
  73:../Drivers/ISP/isp/Src/isp_services.c **** 
  74:../Drivers/ISP/isp/Src/isp_services.c **** #define ISP_SVC_CONFIG_DEVICE_N6      0x00000000
  75:../Drivers/ISP/isp/Src/isp_services.c **** #define ISP_SVC_CONFIG_DEVICE_MP25    0x00000001
  76:../Drivers/ISP/isp/Src/isp_services.c **** #define ISP_SVC_CONFIG_DEVICE_UNKNOWN 0xFFFFFFFF
  77:../Drivers/ISP/isp/Src/isp_services.c **** 
  78:../Drivers/ISP/isp/Src/isp_services.c **** /* Private macro -------------------------------------------------------------*/
  79:../Drivers/ISP/isp/Src/isp_services.c **** /* Private function prototypes -----------------------------------------------*/
  80:../Drivers/ISP/isp/Src/isp_services.c **** static void To_Shift_Multiplier(uint32_t Factor, uint8_t *pShift, uint8_t *pMultiplier);
  81:../Drivers/ISP/isp/Src/isp_services.c **** static uint32_t From_Shift_Multiplier(uint8_t Shift, uint8_t Multiplier);
  82:../Drivers/ISP/isp/Src/isp_services.c **** static int16_t To_CConv_Reg(int32_t Coeff);
ARM GAS  /tmp/ccAu1Zkx.s 			page 3


  83:../Drivers/ISP/isp/Src/isp_services.c **** static int32_t From_CConv_Reg(int16_t Reg);
  84:../Drivers/ISP/isp/Src/isp_services.c **** 
  85:../Drivers/ISP/isp/Src/isp_services.c **** /* Private variables ---------------------------------------------------------*/
  86:../Drivers/ISP/isp/Src/isp_services.c **** static uint32_t ISP_ManualWBRefColorTemp = 0;
  87:../Drivers/ISP/isp/Src/isp_services.c **** static ISP_DecimationTypeDef ISP_DecimationValue = {ISP_DECIM_FACTOR_1};
  88:../Drivers/ISP/isp/Src/isp_services.c **** static ISP_IQParamTypeDef ISP_IQParamCache;
  89:../Drivers/ISP/isp/Src/isp_services.c **** static ISP_SVC_StatEngineTypeDef ISP_SVC_StatEngine;
  90:../Drivers/ISP/isp/Src/isp_services.c **** static bool ISP_SensorDelayMeasureRun;
  91:../Drivers/ISP/isp/Src/isp_services.c **** static ISP_RestartStateTypeDef *pISP_RestartState;
  92:../Drivers/ISP/isp/Src/isp_services.c **** 
  93:../Drivers/ISP/isp/Src/isp_services.c **** static const uint32_t avgRGBUp[] = {
  94:../Drivers/ISP/isp/Src/isp_services.c ****     DCMIPP_STAT_EXT_SOURCE_PRE_BLKLVL_R, DCMIPP_STAT_EXT_SOURCE_PRE_BLKLVL_G, DCMIPP_STAT_EXT_SOURC
  95:../Drivers/ISP/isp/Src/isp_services.c **** };
  96:../Drivers/ISP/isp/Src/isp_services.c **** 
  97:../Drivers/ISP/isp/Src/isp_services.c **** static const uint32_t avgRGBDown[] = {
  98:../Drivers/ISP/isp/Src/isp_services.c ****     DCMIPP_STAT_EXT_SOURCE_POST_DEMOS_R, DCMIPP_STAT_EXT_SOURCE_POST_DEMOS_G, DCMIPP_STAT_EXT_SOURC
  99:../Drivers/ISP/isp/Src/isp_services.c **** };
 100:../Drivers/ISP/isp/Src/isp_services.c **** 
 101:../Drivers/ISP/isp/Src/isp_services.c **** static const DCMIPP_StatisticExtractionConfTypeDef statConfUpBins_0_2 = {
 102:../Drivers/ISP/isp/Src/isp_services.c ****     .Mode = DCMIPP_STAT_EXT_MODE_BINS,
 103:../Drivers/ISP/isp/Src/isp_services.c ****     .Source = DCMIPP_STAT_EXT_SOURCE_PRE_BLKLVL_L,
 104:../Drivers/ISP/isp/Src/isp_services.c ****     .Bins = DCMIPP_STAT_EXT_BINS_MODE_LOWER_BINS
 105:../Drivers/ISP/isp/Src/isp_services.c **** };
 106:../Drivers/ISP/isp/Src/isp_services.c **** 
 107:../Drivers/ISP/isp/Src/isp_services.c **** static const DCMIPP_StatisticExtractionConfTypeDef statConfUpBins_3_5 = {
 108:../Drivers/ISP/isp/Src/isp_services.c ****     .Mode = DCMIPP_STAT_EXT_MODE_BINS,
 109:../Drivers/ISP/isp/Src/isp_services.c ****     .Source = DCMIPP_STAT_EXT_SOURCE_PRE_BLKLVL_L,
 110:../Drivers/ISP/isp/Src/isp_services.c ****     .Bins = DCMIPP_STAT_EXT_BINS_MODE_LOWMID_BINS
 111:../Drivers/ISP/isp/Src/isp_services.c **** };
 112:../Drivers/ISP/isp/Src/isp_services.c **** 
 113:../Drivers/ISP/isp/Src/isp_services.c **** static const DCMIPP_StatisticExtractionConfTypeDef statConfUpBins_6_8 = {
 114:../Drivers/ISP/isp/Src/isp_services.c ****     .Mode = DCMIPP_STAT_EXT_MODE_BINS,
 115:../Drivers/ISP/isp/Src/isp_services.c ****     .Source = DCMIPP_STAT_EXT_SOURCE_PRE_BLKLVL_L,
 116:../Drivers/ISP/isp/Src/isp_services.c ****     .Bins = DCMIPP_STAT_EXT_BINS_MODE_UPMID_BINS
 117:../Drivers/ISP/isp/Src/isp_services.c **** };
 118:../Drivers/ISP/isp/Src/isp_services.c **** 
 119:../Drivers/ISP/isp/Src/isp_services.c **** static const DCMIPP_StatisticExtractionConfTypeDef statConfUpBins_9_11 = {
 120:../Drivers/ISP/isp/Src/isp_services.c ****     .Mode = DCMIPP_STAT_EXT_MODE_BINS,
 121:../Drivers/ISP/isp/Src/isp_services.c ****     .Source = DCMIPP_STAT_EXT_SOURCE_PRE_BLKLVL_L,
 122:../Drivers/ISP/isp/Src/isp_services.c ****     .Bins = DCMIPP_STAT_EXT_BINS_MODE_UP_BINS
 123:../Drivers/ISP/isp/Src/isp_services.c **** };
 124:../Drivers/ISP/isp/Src/isp_services.c **** 
 125:../Drivers/ISP/isp/Src/isp_services.c **** static const DCMIPP_StatisticExtractionConfTypeDef statConfDownBins_0_2 = {
 126:../Drivers/ISP/isp/Src/isp_services.c ****     .Mode = DCMIPP_STAT_EXT_MODE_BINS,
 127:../Drivers/ISP/isp/Src/isp_services.c ****     .Source = DCMIPP_STAT_EXT_SOURCE_POST_DEMOS_L,
 128:../Drivers/ISP/isp/Src/isp_services.c ****     .Bins = DCMIPP_STAT_EXT_BINS_MODE_LOWER_BINS
 129:../Drivers/ISP/isp/Src/isp_services.c **** };
 130:../Drivers/ISP/isp/Src/isp_services.c **** 
 131:../Drivers/ISP/isp/Src/isp_services.c **** static const DCMIPP_StatisticExtractionConfTypeDef statConfDownBins_3_5 = {
 132:../Drivers/ISP/isp/Src/isp_services.c ****     .Mode = DCMIPP_STAT_EXT_MODE_BINS,
 133:../Drivers/ISP/isp/Src/isp_services.c ****     .Source = DCMIPP_STAT_EXT_SOURCE_POST_DEMOS_L,
 134:../Drivers/ISP/isp/Src/isp_services.c ****     .Bins = DCMIPP_STAT_EXT_BINS_MODE_LOWMID_BINS
 135:../Drivers/ISP/isp/Src/isp_services.c **** };
 136:../Drivers/ISP/isp/Src/isp_services.c **** 
 137:../Drivers/ISP/isp/Src/isp_services.c **** static const DCMIPP_StatisticExtractionConfTypeDef statConfDownBins_6_8 = {
 138:../Drivers/ISP/isp/Src/isp_services.c ****     .Mode = DCMIPP_STAT_EXT_MODE_BINS,
 139:../Drivers/ISP/isp/Src/isp_services.c ****     .Source = DCMIPP_STAT_EXT_SOURCE_POST_DEMOS_L,
ARM GAS  /tmp/ccAu1Zkx.s 			page 4


 140:../Drivers/ISP/isp/Src/isp_services.c ****     .Bins = DCMIPP_STAT_EXT_BINS_MODE_UPMID_BINS
 141:../Drivers/ISP/isp/Src/isp_services.c **** };
 142:../Drivers/ISP/isp/Src/isp_services.c **** 
 143:../Drivers/ISP/isp/Src/isp_services.c **** static const DCMIPP_StatisticExtractionConfTypeDef statConfDownBins_9_11 = {
 144:../Drivers/ISP/isp/Src/isp_services.c ****     .Mode = DCMIPP_STAT_EXT_MODE_BINS,
 145:../Drivers/ISP/isp/Src/isp_services.c ****     .Source = DCMIPP_STAT_EXT_SOURCE_POST_DEMOS_L,
 146:../Drivers/ISP/isp/Src/isp_services.c ****     .Bins = DCMIPP_STAT_EXT_BINS_MODE_UP_BINS
 147:../Drivers/ISP/isp/Src/isp_services.c **** };
 148:../Drivers/ISP/isp/Src/isp_services.c **** 
 149:../Drivers/ISP/isp/Src/isp_services.c **** /* Exported variables --------------------------------------------------------*/
 150:../Drivers/ISP/isp/Src/isp_services.c **** extern ISP_MetaTypeDef Meta;
 151:../Drivers/ISP/isp/Src/isp_services.c **** 
 152:../Drivers/ISP/isp/Src/isp_services.c **** /* Private functions ---------------------------------------------------------*/
 153:../Drivers/ISP/isp/Src/isp_services.c **** static void To_Shift_Multiplier(uint32_t Factor, uint8_t *pShift, uint8_t *pMultiplier)
 154:../Drivers/ISP/isp/Src/isp_services.c **** {
  34              		.loc 1 154 1 view -0
  35              		.cfi_startproc
  36              		@ args = 0, pretend = 0, frame = 0
  37              		@ frame_needed = 0, uses_anonymous_args = 0
  38              		.loc 1 154 1 is_stmt 0 view .LVU1
  39 0000 38B5     		push	{r3, r4, r5, lr}
  40              	.LCFI0:
  41              		.cfi_def_cfa_offset 16
  42              		.cfi_offset 3, -16
  43              		.cfi_offset 4, -12
  44              		.cfi_offset 5, -8
  45              		.cfi_offset 14, -4
  46 0002 0C46     		mov	r4, r1
  47 0004 1546     		mov	r5, r2
 155:../Drivers/ISP/isp/Src/isp_services.c ****   /* Convert Factor (Unit = 100000000 for "x1.0") to Multiplier (where 128 means "x1.0") */
 156:../Drivers/ISP/isp/Src/isp_services.c ****   uint64_t Val = Factor;
  48              		.loc 1 156 3 is_stmt 1 view .LVU2
  49              		.loc 1 156 12 is_stmt 0 view .LVU3
  50 0006 0021     		movs	r1, #0
  51              	.LVL1:
 157:../Drivers/ISP/isp/Src/isp_services.c ****   Val = (Val * 128) / ISP_GAIN_PRECISION_FACTOR;
  52              		.loc 1 157 3 is_stmt 1 view .LVU4
  53              		.loc 1 157 7 is_stmt 0 view .LVU5
  54 0008 0BA3     		adr	r3, .L5
  55 000a D3E90023 		ldrd	r2, [r3]
  56              	.LVL2:
  57              		.loc 1 157 7 view .LVU6
  58 000e 50EACF11 		lsll	r0, r1, #7
  59              	.LVL3:
  60              		.loc 1 157 7 view .LVU7
  61 0012 FFF7FEFF 		bl	__aeabi_uldivmod
  62              	.LVL4:
  63 0016 0246     		mov	r2, r0
  64 0018 0B46     		mov	r3, r1
  65              	.LVL5:
 158:../Drivers/ISP/isp/Src/isp_services.c **** 
 159:../Drivers/ISP/isp/Src/isp_services.c ****   /* Get Shift + Multiplier where Multiplier < 256 */
 160:../Drivers/ISP/isp/Src/isp_services.c ****   *pShift = 0;
  66              		.loc 1 160 3 is_stmt 1 view .LVU8
  67              		.loc 1 160 11 is_stmt 0 view .LVU9
  68 001a 0021     		movs	r1, #0
  69 001c 2170     		strb	r1, [r4]
ARM GAS  /tmp/ccAu1Zkx.s 			page 5


 161:../Drivers/ISP/isp/Src/isp_services.c ****   while (Val >= 256)
  70              		.loc 1 161 3 is_stmt 1 view .LVU10
  71              		.loc 1 161 9 is_stmt 0 view .LVU11
  72 001e 04E0     		b	.L2
  73              	.L3:
 162:../Drivers/ISP/isp/Src/isp_services.c ****   {
 163:../Drivers/ISP/isp/Src/isp_services.c ****     Val /= 2;
  74              		.loc 1 163 5 is_stmt 1 view .LVU12
  75              		.loc 1 163 9 is_stmt 0 view .LVU13
  76 0020 52EA5F03 		lsrl	r2, r3, #1
  77              	.LVL6:
 164:../Drivers/ISP/isp/Src/isp_services.c ****     (*pShift)++;
  78              		.loc 1 164 5 is_stmt 1 view .LVU14
  79              		.loc 1 164 6 is_stmt 0 view .LVU15
  80 0024 2078     		ldrb	r0, [r4]	@ zero_extendqisi2
  81              		.loc 1 164 14 view .LVU16
  82 0026 0130     		adds	r0, r0, #1
  83 0028 2070     		strb	r0, [r4]
  84              	.L2:
 161:../Drivers/ISP/isp/Src/isp_services.c ****   while (Val >= 256)
  85              		.loc 1 161 14 is_stmt 1 discriminator 1 view .LVU17
  86 002a B2F5807F 		cmp	r2, #256
  87 002e 73F10001 		sbcs	r1, r3, #0
  88 0032 F5D2     		bcs	.L3
 165:../Drivers/ISP/isp/Src/isp_services.c ****   }
 166:../Drivers/ISP/isp/Src/isp_services.c **** 
 167:../Drivers/ISP/isp/Src/isp_services.c ****   *pMultiplier = (uint8_t)Val;
  89              		.loc 1 167 3 view .LVU18
  90              		.loc 1 167 16 is_stmt 0 view .LVU19
  91 0034 2A70     		strb	r2, [r5]
 168:../Drivers/ISP/isp/Src/isp_services.c **** }
  92              		.loc 1 168 1 view .LVU20
  93 0036 38BD     		pop	{r3, r4, r5, pc}
  94              	.LVL7:
  95              	.L6:
  96              		.loc 1 168 1 view .LVU21
  97              		.align	3
  98              	.L5:
  99 0038 00E1F505 		.word	100000000
 100 003c 00000000 		.word	0
 101              		.cfi_endproc
 102              	.LFE884:
 104              		.section	.text.From_Shift_Multiplier,"ax",%progbits
 105              		.align	1
 106              		.syntax unified
 107              		.thumb
 108              		.thumb_func
 110              	From_Shift_Multiplier:
 111              	.LVL8:
 112              	.LFB885:
 169:../Drivers/ISP/isp/Src/isp_services.c **** 
 170:../Drivers/ISP/isp/Src/isp_services.c **** static uint32_t From_Shift_Multiplier(uint8_t Shift, uint8_t Multiplier)
 171:../Drivers/ISP/isp/Src/isp_services.c **** {
 113              		.loc 1 171 1 is_stmt 1 view -0
 114              		.cfi_startproc
 115              		@ args = 0, pretend = 0, frame = 0
 116              		@ frame_needed = 0, uses_anonymous_args = 0
ARM GAS  /tmp/ccAu1Zkx.s 			page 6


 117              		@ link register save eliminated.
 172:../Drivers/ISP/isp/Src/isp_services.c ****   /* Convert Shift + Multiplier to Factor (Unit = 100000000 for "x1.0") */
 173:../Drivers/ISP/isp/Src/isp_services.c ****   uint64_t Val = (1 << Shift);
 118              		.loc 1 173 3 view .LVU23
 119              		.loc 1 173 21 is_stmt 0 view .LVU24
 120 0000 0123     		movs	r3, #1
 121 0002 03FA00F0 		lsl	r0, r3, r0
 122              	.LVL9:
 123              		.loc 1 173 12 view .LVU25
 124 0006 4FEAE07C 		asr	ip, r0, #31
 125              	.LVL10:
 174:../Drivers/ISP/isp/Src/isp_services.c ****   Val = (Val * Multiplier * ISP_GAIN_PRECISION_FACTOR) / 128;
 126              		.loc 1 174 3 is_stmt 1 view .LVU26
 127              		.loc 1 174 14 is_stmt 0 view .LVU27
 128 000a A1FB0032 		umull	r3, r2, r1, r0
 129 000e 01FB0C22 		mla	r2, r1, ip, r2
 130              		.loc 1 174 27 view .LVU28
 131 0012 DFF810C0 		ldr	ip, .L8
 132              	.LVL11:
 133              		.loc 1 174 27 view .LVU29
 134 0016 A3FB0C01 		umull	r0, r1, r3, ip
 135              	.LVL12:
 136              		.loc 1 174 27 view .LVU30
 137 001a 0CFB0211 		mla	r1, ip, r2, r1
 138              		.loc 1 174 7 view .LVU31
 139 001e 50EADF11 		lsrl	r0, r1, #7
 140              	.LVL13:
 175:../Drivers/ISP/isp/Src/isp_services.c ****   return (uint32_t) Val;
 141              		.loc 1 175 3 is_stmt 1 view .LVU32
 176:../Drivers/ISP/isp/Src/isp_services.c **** }
 142              		.loc 1 176 1 is_stmt 0 view .LVU33
 143 0022 7047     		bx	lr
 144              	.L9:
 145              		.align	2
 146              	.L8:
 147 0024 00E1F505 		.word	100000000
 148              		.cfi_endproc
 149              	.LFE885:
 151              		.section	.text.To_CConv_Reg,"ax",%progbits
 152              		.align	1
 153              		.syntax unified
 154              		.thumb
 155              		.thumb_func
 157              	To_CConv_Reg:
 158              	.LVL14:
 159              	.LFB886:
 177:../Drivers/ISP/isp/Src/isp_services.c **** 
 178:../Drivers/ISP/isp/Src/isp_services.c **** static int16_t To_CConv_Reg(int32_t Coeff)
 179:../Drivers/ISP/isp/Src/isp_services.c **** {
 160              		.loc 1 179 1 is_stmt 1 view -0
 161              		.cfi_startproc
 162              		@ args = 0, pretend = 0, frame = 0
 163              		@ frame_needed = 0, uses_anonymous_args = 0
 164              		.loc 1 179 1 is_stmt 0 view .LVU35
 165 0000 08B5     		push	{r3, lr}
 166              	.LCFI1:
 167              		.cfi_def_cfa_offset 8
ARM GAS  /tmp/ccAu1Zkx.s 			page 7


 168              		.cfi_offset 3, -8
 169              		.cfi_offset 14, -4
 180:../Drivers/ISP/isp/Src/isp_services.c ****   /* Convert Coefficient (Unit = 100000000 for "x1.0") to register format */
 181:../Drivers/ISP/isp/Src/isp_services.c ****   int64_t Val = Coeff;
 170              		.loc 1 181 3 is_stmt 1 view .LVU36
 171              	.LVL15:
 182:../Drivers/ISP/isp/Src/isp_services.c **** 
 183:../Drivers/ISP/isp/Src/isp_services.c ****   Val = (Val * 256) / ISP_CCM_PRECISION_FACTOR;
 172              		.loc 1 183 3 view .LVU37
 173              		.loc 1 183 7 is_stmt 0 view .LVU38
 174 0002 034A     		ldr	r2, .L12
 175 0004 0023     		movs	r3, #0
 176 0006 C117     		asrs	r1, r0, #31
 177 0008 FFF7FEFF 		bl	__aeabi_ldivmod
 178              	.LVL16:
 184:../Drivers/ISP/isp/Src/isp_services.c **** 
 185:../Drivers/ISP/isp/Src/isp_services.c ****   return (int16_t) Val;
 179              		.loc 1 185 3 is_stmt 1 view .LVU39
 186:../Drivers/ISP/isp/Src/isp_services.c **** }
 180              		.loc 1 186 1 is_stmt 0 view .LVU40
 181 000c 00B2     		sxth	r0, r0
 182              	.LVL17:
 183              		.loc 1 186 1 view .LVU41
 184 000e 08BD     		pop	{r3, pc}
 185              	.L13:
 186              		.align	2
 187              	.L12:
 188 0010 E1F50500 		.word	390625
 189              		.cfi_endproc
 190              	.LFE886:
 192              		.section	.text.From_CConv_Reg,"ax",%progbits
 193              		.align	1
 194              		.syntax unified
 195              		.thumb
 196              		.thumb_func
 198              	From_CConv_Reg:
 199              	.LVL18:
 200              	.LFB887:
 187:../Drivers/ISP/isp/Src/isp_services.c **** 
 188:../Drivers/ISP/isp/Src/isp_services.c **** static int32_t From_CConv_Reg(int16_t Reg)
 189:../Drivers/ISP/isp/Src/isp_services.c **** {
 201              		.loc 1 189 1 is_stmt 1 view -0
 202              		.cfi_startproc
 203              		@ args = 0, pretend = 0, frame = 0
 204              		@ frame_needed = 0, uses_anonymous_args = 0
 205              		@ link register save eliminated.
 190:../Drivers/ISP/isp/Src/isp_services.c ****   /* Convert from register format to Coefficient (Unit = 100000000 for "x1.0") */
 191:../Drivers/ISP/isp/Src/isp_services.c ****   int64_t Val = Reg;
 206              		.loc 1 191 3 view .LVU43
 192:../Drivers/ISP/isp/Src/isp_services.c **** 
 193:../Drivers/ISP/isp/Src/isp_services.c ****   Val = (Val * ISP_CCM_PRECISION_FACTOR) / 256;
 207              		.loc 1 193 3 view .LVU44
 194:../Drivers/ISP/isp/Src/isp_services.c **** 
 195:../Drivers/ISP/isp/Src/isp_services.c ****   return (int32_t) Val;
 208              		.loc 1 195 3 view .LVU45
 196:../Drivers/ISP/isp/Src/isp_services.c **** }
 209              		.loc 1 196 1 is_stmt 0 view .LVU46
ARM GAS  /tmp/ccAu1Zkx.s 			page 8


 210 0000 014B     		ldr	r3, .L15
 211 0002 03FB00F0 		mul	r0, r3, r0
 212              	.LVL19:
 213              		.loc 1 196 1 view .LVU47
 214 0006 7047     		bx	lr
 215              	.L16:
 216              		.align	2
 217              	.L15:
 218 0008 E1F50500 		.word	390625
 219              		.cfi_endproc
 220              	.LFE887:
 222              		.section	.text.GetAvgStats,"ax",%progbits
 223              		.align	1
 224              		.syntax unified
 225              		.thumb
 226              		.thumb_func
 228              	GetAvgStats:
 229              	.LVL20:
 230              	.LFB888:
 197:../Drivers/ISP/isp/Src/isp_services.c **** 
 198:../Drivers/ISP/isp/Src/isp_services.c **** static uint8_t GetAvgStats(ISP_StatAreaTypeDef *pStatArea, ISP_SVC_StatLocation location, ISP_SVC_C
 199:../Drivers/ISP/isp/Src/isp_services.c **** {
 231              		.loc 1 199 1 is_stmt 1 view -0
 232              		.cfi_startproc
 233              		@ args = 0, pretend = 0, frame = 0
 234              		@ frame_needed = 0, uses_anonymous_args = 0
 235              		@ link register save eliminated.
 236              		.loc 1 199 1 is_stmt 0 view .LVU49
 237 0000 8446     		mov	ip, r0
 200:../Drivers/ISP/isp/Src/isp_services.c ****   uint32_t nb_comp_pix, comp_divider;
 238              		.loc 1 200 3 is_stmt 1 view .LVU50
 201:../Drivers/ISP/isp/Src/isp_services.c **** 
 202:../Drivers/ISP/isp/Src/isp_services.c ****   /* Number of pixels computed from Stat Area and considering decimation */
 203:../Drivers/ISP/isp/Src/isp_services.c ****   nb_comp_pix = pStatArea->XSize * pStatArea->YSize;
 239              		.loc 1 203 3 view .LVU51
 240              		.loc 1 203 26 is_stmt 0 view .LVU52
 241 0002 8068     		ldr	r0, [r0, #8]
 242              	.LVL21:
 243              		.loc 1 203 45 view .LVU53
 244 0004 DCF80CC0 		ldr	ip, [ip, #12]
 245              	.LVL22:
 246              		.loc 1 203 15 view .LVU54
 247 0008 0CFB00F0 		mul	r0, ip, r0
 248              	.LVL23:
 204:../Drivers/ISP/isp/Src/isp_services.c ****   nb_comp_pix /= ISP_DecimationValue.factor * ISP_DecimationValue.factor;
 249              		.loc 1 204 3 is_stmt 1 view .LVU55
 250              		.loc 1 204 37 is_stmt 0 view .LVU56
 251 000c DFF838C0 		ldr	ip, .L24
 252 0010 9CF800C0 		ldrb	ip, [ip]	@ zero_extendqisi2
 253              		.loc 1 204 45 view .LVU57
 254 0014 0CFB0CFC 		mul	ip, ip, ip
 255              		.loc 1 204 15 view .LVU58
 256 0018 B0FBFCF0 		udiv	r0, r0, ip
 257              	.LVL24:
 205:../Drivers/ISP/isp/Src/isp_services.c **** 
 206:../Drivers/ISP/isp/Src/isp_services.c ****   if (location == ISP_STAT_LOC_DOWN)
 258              		.loc 1 206 3 is_stmt 1 view .LVU59
ARM GAS  /tmp/ccAu1Zkx.s 			page 9


 259              		.loc 1 206 6 is_stmt 0 view .LVU60
 260 001c 0229     		cmp	r1, #2
 261 001e 0FD0     		beq	.L20
 207:../Drivers/ISP/isp/Src/isp_services.c ****   {
 208:../Drivers/ISP/isp/Src/isp_services.c ****     /* RGB format after demosaicing : 1 component per pixel */
 209:../Drivers/ISP/isp/Src/isp_services.c ****     comp_divider = 1;
 210:../Drivers/ISP/isp/Src/isp_services.c ****   }
 211:../Drivers/ISP/isp/Src/isp_services.c ****   else
 212:../Drivers/ISP/isp/Src/isp_services.c ****   {
 213:../Drivers/ISP/isp/Src/isp_services.c ****     /* Only raw bayer sensor expected */
 214:../Drivers/ISP/isp/Src/isp_services.c ****     /* raw bayer: RGB component not present for all pixels */
 215:../Drivers/ISP/isp/Src/isp_services.c ****     comp_divider = (component == ISP_GREEN) ? 2 : 4;
 262              		.loc 1 215 5 is_stmt 1 view .LVU61
 263              		.loc 1 215 49 is_stmt 0 view .LVU62
 264 0020 012A     		cmp	r2, #1
 265 0022 0BD0     		beq	.L23
 266              		.loc 1 215 18 discriminator 2 view .LVU63
 267 0024 0422     		movs	r2, #4
 268              	.LVL25:
 269              	.L18:
 216:../Drivers/ISP/isp/Src/isp_services.c ****   }
 217:../Drivers/ISP/isp/Src/isp_services.c **** 
 218:../Drivers/ISP/isp/Src/isp_services.c ****   /* Number of pixels per component */
 219:../Drivers/ISP/isp/Src/isp_services.c ****   nb_comp_pix /= comp_divider;
 270              		.loc 1 219 3 is_stmt 1 view .LVU64
 271              		.loc 1 219 15 is_stmt 0 view .LVU65
 272 0026 B0FBF2F1 		udiv	r1, r0, r2
 273              	.LVL26:
 220:../Drivers/ISP/isp/Src/isp_services.c **** 
 221:../Drivers/ISP/isp/Src/isp_services.c ****   /* Compute average (rounding to closest integer) */
 222:../Drivers/ISP/isp/Src/isp_services.c ****   if (nb_comp_pix == 0)
 274              		.loc 1 222 3 is_stmt 1 view .LVU66
 275              		.loc 1 222 6 is_stmt 0 view .LVU67
 276 002a 8242     		cmp	r2, r0
 277 002c 0AD8     		bhi	.L22
 223:../Drivers/ISP/isp/Src/isp_services.c ****   {
 224:../Drivers/ISP/isp/Src/isp_services.c ****     return 0;
 225:../Drivers/ISP/isp/Src/isp_services.c ****   }
 226:../Drivers/ISP/isp/Src/isp_services.c **** 
 227:../Drivers/ISP/isp/Src/isp_services.c ****   return (uint8_t)(((accu * 256) + (nb_comp_pix / 2)) / nb_comp_pix);
 278              		.loc 1 227 3 is_stmt 1 view .LVU68
 279              		.loc 1 227 49 is_stmt 0 view .LVU69
 280 002e 4808     		lsrs	r0, r1, #1
 281              		.loc 1 227 34 view .LVU70
 282 0030 00EB0320 		add	r0, r0, r3, lsl #8
 283              		.loc 1 227 55 view .LVU71
 284 0034 B0FBF1F0 		udiv	r0, r0, r1
 285              		.loc 1 227 10 view .LVU72
 286 0038 C0B2     		uxtb	r0, r0
 287 003a 7047     		bx	lr
 288              	.LVL27:
 289              	.L23:
 215:../Drivers/ISP/isp/Src/isp_services.c ****   }
 290              		.loc 1 215 18 discriminator 1 view .LVU73
 291 003c 0222     		movs	r2, #2
 292              	.LVL28:
 215:../Drivers/ISP/isp/Src/isp_services.c ****   }
ARM GAS  /tmp/ccAu1Zkx.s 			page 10


 293              		.loc 1 215 18 discriminator 1 view .LVU74
 294 003e F2E7     		b	.L18
 295              	.LVL29:
 296              	.L20:
 209:../Drivers/ISP/isp/Src/isp_services.c ****   }
 297              		.loc 1 209 18 view .LVU75
 298 0040 0122     		movs	r2, #1
 299              	.LVL30:
 209:../Drivers/ISP/isp/Src/isp_services.c ****   }
 300              		.loc 1 209 18 view .LVU76
 301 0042 F0E7     		b	.L18
 302              	.LVL31:
 303              	.L22:
 224:../Drivers/ISP/isp/Src/isp_services.c ****   }
 304              		.loc 1 224 12 view .LVU77
 305 0044 0020     		movs	r0, #0
 228:../Drivers/ISP/isp/Src/isp_services.c **** }
 306              		.loc 1 228 1 view .LVU78
 307 0046 7047     		bx	lr
 308              	.L25:
 309              		.align	2
 310              	.L24:
 311 0048 00000000 		.word	ISP_DecimationValue
 312              		.cfi_endproc
 313              	.LFE888:
 315              		.section	.text.SetStatConfig,"ax",%progbits
 316              		.align	1
 317              		.syntax unified
 318              		.thumb
 319              		.thumb_func
 321              	SetStatConfig:
 322              	.LVL32:
 323              	.LFB890:
 229:../Drivers/ISP/isp/Src/isp_services.c **** 
 230:../Drivers/ISP/isp/Src/isp_services.c **** static void ReadStatHistogram(ISP_HandleTypeDef *hIsp, uint32_t *histogram)
 231:../Drivers/ISP/isp/Src/isp_services.c **** {
 232:../Drivers/ISP/isp/Src/isp_services.c ****   for (uint8_t i = DCMIPP_STATEXT_MODULE1; i <= DCMIPP_STATEXT_MODULE3; i++)
 233:../Drivers/ISP/isp/Src/isp_services.c ****   {
 234:../Drivers/ISP/isp/Src/isp_services.c ****     HAL_DCMIPP_PIPE_GetISPAccumulatedStatisticsCounter(hIsp->hDcmipp, DCMIPP_PIPE1, i, &(histogram[
 235:../Drivers/ISP/isp/Src/isp_services.c ****   }
 236:../Drivers/ISP/isp/Src/isp_services.c **** }
 237:../Drivers/ISP/isp/Src/isp_services.c **** 
 238:../Drivers/ISP/isp/Src/isp_services.c **** static void SetStatConfig(DCMIPP_StatisticExtractionConfTypeDef *statConf, const DCMIPP_StatisticEx
 239:../Drivers/ISP/isp/Src/isp_services.c **** {
 324              		.loc 1 239 1 is_stmt 1 view -0
 325              		.cfi_startproc
 326              		@ args = 0, pretend = 0, frame = 0
 327              		@ frame_needed = 0, uses_anonymous_args = 0
 328              		.loc 1 239 1 is_stmt 0 view .LVU80
 329 0000 10B5     		push	{r4, lr}
 330              	.LCFI2:
 331              		.cfi_def_cfa_offset 8
 332              		.cfi_offset 4, -8
 333              		.cfi_offset 14, -4
 334 0002 0446     		mov	r4, r0
 335 0004 8E46     		mov	lr, r1
 240:../Drivers/ISP/isp/Src/isp_services.c ****   for (int i = 0; i < 3; i++)
ARM GAS  /tmp/ccAu1Zkx.s 			page 11


 336              		.loc 1 240 3 is_stmt 1 view .LVU81
 337              	.LBB2:
 338              		.loc 1 240 8 view .LVU82
 339              	.LVL33:
 340              		.loc 1 240 12 is_stmt 0 view .LVU83
 341 0006 4FF0000C 		mov	ip, #0
 342              		.loc 1 240 3 view .LVU84
 343 000a 09E0     		b	.L27
 344              	.LVL34:
 345              	.L28:
 241:../Drivers/ISP/isp/Src/isp_services.c ****   {
 242:../Drivers/ISP/isp/Src/isp_services.c ****     statConf[i] = *refConfig;
 346              		.loc 1 242 5 is_stmt 1 view .LVU85
 347              		.loc 1 242 13 is_stmt 0 view .LVU86
 348 000c 0CEB4C03 		add	r3, ip, ip, lsl #1
 349 0010 04EB8303 		add	r3, r4, r3, lsl #2
 350              		.loc 1 242 17 view .LVU87
 351 0014 9EE80700 		ldm	lr, {r0, r1, r2}
 352 0018 83E80700 		stm	r3, {r0, r1, r2}
 240:../Drivers/ISP/isp/Src/isp_services.c ****   for (int i = 0; i < 3; i++)
 353              		.loc 1 240 27 is_stmt 1 discriminator 1 view .LVU88
 354 001c 0CF1010C 		add	ip, ip, #1
 355              	.LVL35:
 356              	.L27:
 240:../Drivers/ISP/isp/Src/isp_services.c ****   for (int i = 0; i < 3; i++)
 357              		.loc 1 240 21 discriminator 2 view .LVU89
 358 0020 BCF1020F 		cmp	ip, #2
 359 0024 F2DD     		ble	.L28
 360              	.LBE2:
 243:../Drivers/ISP/isp/Src/isp_services.c ****   }
 244:../Drivers/ISP/isp/Src/isp_services.c **** }
 361              		.loc 1 244 1 is_stmt 0 view .LVU90
 362 0026 10BD     		pop	{r4, pc}
 363              		.loc 1 244 1 view .LVU91
 364              		.cfi_endproc
 365              	.LFE890:
 367              		.section	.text.GetNextStatStage,"ax",%progbits
 368              		.align	1
 369              		.syntax unified
 370              		.thumb
 371              		.thumb_func
 373              	GetNextStatStage:
 374              	.LVL36:
 375              	.LFB891:
 245:../Drivers/ISP/isp/Src/isp_services.c **** 
 246:../Drivers/ISP/isp/Src/isp_services.c **** static ISP_SVC_StatEngineStage GetNextStatStage(ISP_SVC_StatEngineStage current)
 247:../Drivers/ISP/isp/Src/isp_services.c **** {
 376              		.loc 1 247 1 is_stmt 1 view -0
 377              		.cfi_startproc
 378              		@ args = 0, pretend = 0, frame = 0
 379              		@ frame_needed = 0, uses_anonymous_args = 0
 380              		@ link register save eliminated.
 381              		.loc 1 247 1 is_stmt 0 view .LVU93
 382 0000 0346     		mov	r3, r0
 248:../Drivers/ISP/isp/Src/isp_services.c ****   ISP_SVC_StatEngineStage next = ISP_STAT_CFG_LAST;
 383              		.loc 1 248 3 is_stmt 1 view .LVU94
 384              	.LVL37:
ARM GAS  /tmp/ccAu1Zkx.s 			page 12


 249:../Drivers/ISP/isp/Src/isp_services.c **** 
 250:../Drivers/ISP/isp/Src/isp_services.c ****   /* Special mode for IQ tuning tool asking for all stats : go the the next step, no skip */
 251:../Drivers/ISP/isp/Src/isp_services.c ****   if ((ISP_SVC_StatEngine.upRequest & ISP_STAT_TYPE_ALL_TMP) ||
 385              		.loc 1 251 3 view .LVU95
 386              		.loc 1 251 26 is_stmt 0 view .LVU96
 387 0002 334A     		ldr	r2, .L53
 388 0004 92F88011 		ldrb	r1, [r2, #384]	@ zero_extendqisi2
 389              		.loc 1 251 6 view .LVU97
 390 0008 11F0040F 		tst	r1, #4
 391 000c 0ED1     		bne	.L31
 252:../Drivers/ISP/isp/Src/isp_services.c ****       (ISP_SVC_StatEngine.downRequest & ISP_STAT_TYPE_ALL_TMP))
 392              		.loc 1 252 26 view .LVU98
 393 000e 92F88121 		ldrb	r2, [r2, #385]	@ zero_extendqisi2
 251:../Drivers/ISP/isp/Src/isp_services.c ****       (ISP_SVC_StatEngine.downRequest & ISP_STAT_TYPE_ALL_TMP))
 394              		.loc 1 251 62 discriminator 1 view .LVU99
 395 0012 12F00400 		ands	r0, r2, #4
 396              	.LVL38:
 251:../Drivers/ISP/isp/Src/isp_services.c ****       (ISP_SVC_StatEngine.downRequest & ISP_STAT_TYPE_ALL_TMP))
 397              		.loc 1 251 62 discriminator 1 view .LVU100
 398 0016 09D1     		bne	.L31
 253:../Drivers/ISP/isp/Src/isp_services.c ****   {
 254:../Drivers/ISP/isp/Src/isp_services.c ****     next = (ISP_SVC_StatEngineStage) ((current < ISP_STAT_CFG_LAST) ? current + 1 : ISP_STAT_CFG_UP
 255:../Drivers/ISP/isp/Src/isp_services.c ****     return next;
 256:../Drivers/ISP/isp/Src/isp_services.c ****   }
 257:../Drivers/ISP/isp/Src/isp_services.c **** 
 258:../Drivers/ISP/isp/Src/isp_services.c ****   /* Follow the below stage cycle, skipping steps where stats are not requested:
 259:../Drivers/ISP/isp/Src/isp_services.c ****    * - ISP_STAT_CFG_UP_AVG
 260:../Drivers/ISP/isp/Src/isp_services.c ****    * - ISP_STAT_CFG_UP_BINS_0_2 + BINS_3_5 + BINS_6_8 + BINS_9_11
 261:../Drivers/ISP/isp/Src/isp_services.c ****    * - ISP_STAT_CFG_DOWN_AVG
 262:../Drivers/ISP/isp/Src/isp_services.c ****    * - ISP_STAT_CFG_DOWN_BINS_0_2 + BINS_3_5 + BINS_6_8 + BINS_9_11
 263:../Drivers/ISP/isp/Src/isp_services.c ****   */
 264:../Drivers/ISP/isp/Src/isp_services.c ****   switch (current)
 399              		.loc 1 264 3 is_stmt 1 view .LVU101
 400 0018 0A2B     		cmp	r3, #10
 401 001a 4DD8     		bhi	.L34
 402 001c DFE803F0 		tbb	[pc, r3]
 403              	.L35:
 404 0020 0B       		.byte	(.L39-.L35)/2
 405 0021 4C       		.byte	(.L34-.L35)/2
 406 0022 4C       		.byte	(.L34-.L35)/2
 407 0023 4C       		.byte	(.L34-.L35)/2
 408 0024 1C       		.byte	(.L38-.L35)/2
 409 0025 2E       		.byte	(.L37-.L35)/2
 410 0026 4C       		.byte	(.L34-.L35)/2
 411 0027 4C       		.byte	(.L34-.L35)/2
 412 0028 4C       		.byte	(.L34-.L35)/2
 413 0029 3E       		.byte	(.L36-.L35)/2
 414 002a 51       		.byte	(.L47-.L35)/2
 415 002b 00       		.p2align 1
 416              	.L31:
 254:../Drivers/ISP/isp/Src/isp_services.c ****     return next;
 417              		.loc 1 254 5 view .LVU102
 254:../Drivers/ISP/isp/Src/isp_services.c ****     return next;
 418              		.loc 1 254 12 is_stmt 0 view .LVU103
 419 002c 082B     		cmp	r3, #8
 420 002e 46D8     		bhi	.L46
 254:../Drivers/ISP/isp/Src/isp_services.c ****     return next;
ARM GAS  /tmp/ccAu1Zkx.s 			page 13


 421              		.loc 1 254 10 discriminator 1 view .LVU104
 422 0030 0133     		adds	r3, r3, #1
 423              	.LVL39:
 254:../Drivers/ISP/isp/Src/isp_services.c ****     return next;
 424              		.loc 1 254 10 discriminator 1 view .LVU105
 425 0032 D8B2     		uxtb	r0, r3
 426              	.LVL40:
 254:../Drivers/ISP/isp/Src/isp_services.c ****     return next;
 427              		.loc 1 254 10 discriminator 1 view .LVU106
 428 0034 7047     		bx	lr
 429              	.LVL41:
 430              	.L39:
 265:../Drivers/ISP/isp/Src/isp_services.c ****   {
 266:../Drivers/ISP/isp/Src/isp_services.c ****   case ISP_STAT_CFG_UP_AVG:
 267:../Drivers/ISP/isp/Src/isp_services.c ****     /* Try Up Bins */
 268:../Drivers/ISP/isp/Src/isp_services.c ****     if (ISP_SVC_StatEngine.upRequest & ISP_STAT_TYPE_BINS)
 431              		.loc 1 268 5 is_stmt 1 view .LVU107
 432              		.loc 1 268 8 is_stmt 0 view .LVU108
 433 0036 11F0020F 		tst	r1, #2
 434 003a 28D1     		bne	.L40
 269:../Drivers/ISP/isp/Src/isp_services.c ****     {
 270:../Drivers/ISP/isp/Src/isp_services.c ****       next = ISP_STAT_CFG_UP_BINS_0_2;
 271:../Drivers/ISP/isp/Src/isp_services.c ****     }
 272:../Drivers/ISP/isp/Src/isp_services.c ****     /* Skip Up Bins : try Down Avg */
 273:../Drivers/ISP/isp/Src/isp_services.c ****     else if (ISP_SVC_StatEngine.downRequest & ISP_STAT_TYPE_AVG)
 435              		.loc 1 273 10 is_stmt 1 view .LVU109
 436              		.loc 1 273 13 is_stmt 0 view .LVU110
 437 003c 12F0010F 		tst	r2, #1
 438 0040 06D1     		bne	.L43
 274:../Drivers/ISP/isp/Src/isp_services.c ****     {
 275:../Drivers/ISP/isp/Src/isp_services.c ****       next = ISP_STAT_CFG_DOWN_AVG;
 276:../Drivers/ISP/isp/Src/isp_services.c ****     }
 277:../Drivers/ISP/isp/Src/isp_services.c ****     /* Skip Down Avg : try Down Bins */
 278:../Drivers/ISP/isp/Src/isp_services.c ****     else if (ISP_SVC_StatEngine.downRequest & ISP_STAT_TYPE_BINS)
 439              		.loc 1 278 10 is_stmt 1 view .LVU111
 440              		.loc 1 278 13 is_stmt 0 view .LVU112
 441 0042 12F00200 		ands	r0, r2, #2
 442 0046 15D1     		bne	.L42
 279:../Drivers/ISP/isp/Src/isp_services.c ****     {
 280:../Drivers/ISP/isp/Src/isp_services.c ****       next = ISP_STAT_CFG_DOWN_BINS_0_2;
 281:../Drivers/ISP/isp/Src/isp_services.c ****     }
 282:../Drivers/ISP/isp/Src/isp_services.c ****     /* Skip Down Bins : try Up Avg */
 283:../Drivers/ISP/isp/Src/isp_services.c ****     else if (ISP_SVC_StatEngine.upRequest & ISP_STAT_TYPE_AVG)
 443              		.loc 1 283 10 is_stmt 1 view .LVU113
 444              		.loc 1 283 13 is_stmt 0 view .LVU114
 445 0048 11F0010F 		tst	r1, #1
 446 004c 02D0     		beq	.L51
 447              	.L33:
 448              	.LVL42:
 284:../Drivers/ISP/isp/Src/isp_services.c ****     {
 285:../Drivers/ISP/isp/Src/isp_services.c ****       next = ISP_STAT_CFG_UP_AVG;
 286:../Drivers/ISP/isp/Src/isp_services.c ****     }
 287:../Drivers/ISP/isp/Src/isp_services.c ****     break;
 288:../Drivers/ISP/isp/Src/isp_services.c **** 
 289:../Drivers/ISP/isp/Src/isp_services.c ****   case ISP_STAT_CFG_UP_BINS_9_11:
 290:../Drivers/ISP/isp/Src/isp_services.c ****     /* Try Down Avg */
 291:../Drivers/ISP/isp/Src/isp_services.c ****     if (ISP_SVC_StatEngine.downRequest & ISP_STAT_TYPE_AVG)
ARM GAS  /tmp/ccAu1Zkx.s 			page 14


 292:../Drivers/ISP/isp/Src/isp_services.c ****     {
 293:../Drivers/ISP/isp/Src/isp_services.c ****       next = ISP_STAT_CFG_DOWN_AVG;
 294:../Drivers/ISP/isp/Src/isp_services.c ****     }
 295:../Drivers/ISP/isp/Src/isp_services.c ****     /* Skip Down Avg : try Down Bins */
 296:../Drivers/ISP/isp/Src/isp_services.c ****     else if (ISP_SVC_StatEngine.downRequest & ISP_STAT_TYPE_BINS)
 297:../Drivers/ISP/isp/Src/isp_services.c ****     {
 298:../Drivers/ISP/isp/Src/isp_services.c ****       next = ISP_STAT_CFG_DOWN_BINS_0_2;
 299:../Drivers/ISP/isp/Src/isp_services.c ****     }
 300:../Drivers/ISP/isp/Src/isp_services.c ****     /* Skip Down Bins : try Up Avg */
 301:../Drivers/ISP/isp/Src/isp_services.c ****     else if (ISP_SVC_StatEngine.upRequest & ISP_STAT_TYPE_AVG)
 302:../Drivers/ISP/isp/Src/isp_services.c ****     {
 303:../Drivers/ISP/isp/Src/isp_services.c ****       next = ISP_STAT_CFG_UP_AVG;
 304:../Drivers/ISP/isp/Src/isp_services.c ****     }
 305:../Drivers/ISP/isp/Src/isp_services.c ****     /* Skip Up Avg : try on Up Bins */
 306:../Drivers/ISP/isp/Src/isp_services.c ****     else if (ISP_SVC_StatEngine.upRequest & ISP_STAT_TYPE_BINS)
 307:../Drivers/ISP/isp/Src/isp_services.c ****     {
 308:../Drivers/ISP/isp/Src/isp_services.c ****       next = ISP_STAT_CFG_UP_BINS_0_2;
 309:../Drivers/ISP/isp/Src/isp_services.c ****     }
 310:../Drivers/ISP/isp/Src/isp_services.c ****     break;
 311:../Drivers/ISP/isp/Src/isp_services.c **** 
 312:../Drivers/ISP/isp/Src/isp_services.c ****   case ISP_STAT_CFG_DOWN_AVG:
 313:../Drivers/ISP/isp/Src/isp_services.c ****     /* Try Down Bins */
 314:../Drivers/ISP/isp/Src/isp_services.c ****     if (ISP_SVC_StatEngine.downRequest & ISP_STAT_TYPE_BINS)
 315:../Drivers/ISP/isp/Src/isp_services.c ****     {
 316:../Drivers/ISP/isp/Src/isp_services.c ****       next = ISP_STAT_CFG_DOWN_BINS_0_2;
 317:../Drivers/ISP/isp/Src/isp_services.c ****     }
 318:../Drivers/ISP/isp/Src/isp_services.c ****     /* Skip Down Bins : try Up Avg */
 319:../Drivers/ISP/isp/Src/isp_services.c ****     else if (ISP_SVC_StatEngine.upRequest & ISP_STAT_TYPE_AVG)
 320:../Drivers/ISP/isp/Src/isp_services.c ****     {
 321:../Drivers/ISP/isp/Src/isp_services.c ****       next = ISP_STAT_CFG_UP_AVG;
 322:../Drivers/ISP/isp/Src/isp_services.c ****     }
 323:../Drivers/ISP/isp/Src/isp_services.c ****     /* Skip Up Avg : try Up Bins */
 324:../Drivers/ISP/isp/Src/isp_services.c ****     else if (ISP_SVC_StatEngine.upRequest & ISP_STAT_TYPE_BINS)
 325:../Drivers/ISP/isp/Src/isp_services.c ****     {
 326:../Drivers/ISP/isp/Src/isp_services.c ****       next = ISP_STAT_CFG_UP_BINS_0_2;
 327:../Drivers/ISP/isp/Src/isp_services.c ****     }
 328:../Drivers/ISP/isp/Src/isp_services.c ****     /* Skip Up Bins : try Down Avg */
 329:../Drivers/ISP/isp/Src/isp_services.c ****     else if (ISP_SVC_StatEngine.downRequest & ISP_STAT_TYPE_AVG)
 330:../Drivers/ISP/isp/Src/isp_services.c ****     {
 331:../Drivers/ISP/isp/Src/isp_services.c ****       next = ISP_STAT_CFG_DOWN_AVG;
 332:../Drivers/ISP/isp/Src/isp_services.c ****     }
 333:../Drivers/ISP/isp/Src/isp_services.c ****     break;
 334:../Drivers/ISP/isp/Src/isp_services.c **** 
 335:../Drivers/ISP/isp/Src/isp_services.c ****   case ISP_STAT_CFG_DOWN_BINS_9_11:
 336:../Drivers/ISP/isp/Src/isp_services.c ****     /* Try Up Avg */
 337:../Drivers/ISP/isp/Src/isp_services.c ****     if (ISP_SVC_StatEngine.upRequest & ISP_STAT_TYPE_AVG)
 338:../Drivers/ISP/isp/Src/isp_services.c ****     {
 339:../Drivers/ISP/isp/Src/isp_services.c ****       next = ISP_STAT_CFG_UP_AVG;
 340:../Drivers/ISP/isp/Src/isp_services.c ****     }
 341:../Drivers/ISP/isp/Src/isp_services.c ****     /* Skip Up Avg : try Up Bins */
 342:../Drivers/ISP/isp/Src/isp_services.c ****     else if (ISP_SVC_StatEngine.upRequest & ISP_STAT_TYPE_BINS)
 343:../Drivers/ISP/isp/Src/isp_services.c ****     {
 344:../Drivers/ISP/isp/Src/isp_services.c ****       next = ISP_STAT_CFG_UP_BINS_0_2;
 345:../Drivers/ISP/isp/Src/isp_services.c ****     }
 346:../Drivers/ISP/isp/Src/isp_services.c ****     /* Skip Up Bins : try Down Avg */
 347:../Drivers/ISP/isp/Src/isp_services.c ****     else if (ISP_SVC_StatEngine.downRequest & ISP_STAT_TYPE_AVG)
 348:../Drivers/ISP/isp/Src/isp_services.c ****     {
ARM GAS  /tmp/ccAu1Zkx.s 			page 15


 349:../Drivers/ISP/isp/Src/isp_services.c ****       next = ISP_STAT_CFG_DOWN_AVG;
 350:../Drivers/ISP/isp/Src/isp_services.c ****     }
 351:../Drivers/ISP/isp/Src/isp_services.c ****     /* Skip Down Avg : try Down Bins */
 352:../Drivers/ISP/isp/Src/isp_services.c ****     else if (ISP_SVC_StatEngine.downRequest & ISP_STAT_TYPE_BINS)
 353:../Drivers/ISP/isp/Src/isp_services.c ****     {
 354:../Drivers/ISP/isp/Src/isp_services.c ****       next = ISP_STAT_CFG_DOWN_BINS_0_2;
 355:../Drivers/ISP/isp/Src/isp_services.c ****     }
 356:../Drivers/ISP/isp/Src/isp_services.c ****     break;
 357:../Drivers/ISP/isp/Src/isp_services.c **** 
 358:../Drivers/ISP/isp/Src/isp_services.c ****   case ISP_STAT_CFG_CYCLE_SIZE:
 359:../Drivers/ISP/isp/Src/isp_services.c ****     /* Shall not happen, just add this case to silence a Wswitch-enum warning */
 360:../Drivers/ISP/isp/Src/isp_services.c ****     break;
 361:../Drivers/ISP/isp/Src/isp_services.c **** 
 362:../Drivers/ISP/isp/Src/isp_services.c ****   case ISP_STAT_CFG_UP_BINS_0_2:
 363:../Drivers/ISP/isp/Src/isp_services.c ****   case ISP_STAT_CFG_UP_BINS_3_5:
 364:../Drivers/ISP/isp/Src/isp_services.c ****   case ISP_STAT_CFG_UP_BINS_6_8:
 365:../Drivers/ISP/isp/Src/isp_services.c ****   case ISP_STAT_CFG_DOWN_BINS_0_2:
 366:../Drivers/ISP/isp/Src/isp_services.c ****   case ISP_STAT_CFG_DOWN_BINS_3_5:
 367:../Drivers/ISP/isp/Src/isp_services.c ****   case ISP_STAT_CFG_DOWN_BINS_6_8:
 368:../Drivers/ISP/isp/Src/isp_services.c ****   default:
 369:../Drivers/ISP/isp/Src/isp_services.c ****     /* In the middle of the bins measurement: continue with the next bins part */
 370:../Drivers/ISP/isp/Src/isp_services.c ****     next = (ISP_SVC_StatEngineStage) (current + 1);
 371:../Drivers/ISP/isp/Src/isp_services.c ****     break;
 372:../Drivers/ISP/isp/Src/isp_services.c ****   }
 373:../Drivers/ISP/isp/Src/isp_services.c **** 
 374:../Drivers/ISP/isp/Src/isp_services.c ****   return next;
 375:../Drivers/ISP/isp/Src/isp_services.c **** }
 449              		.loc 1 375 1 view .LVU115
 450 004e 7047     		bx	lr
 451              	.LVL43:
 452              	.L43:
 275:../Drivers/ISP/isp/Src/isp_services.c ****     }
 453              		.loc 1 275 12 view .LVU116
 454 0050 0520     		movs	r0, #5
 455 0052 7047     		bx	lr
 456              	.L51:
 248:../Drivers/ISP/isp/Src/isp_services.c **** 
 457              		.loc 1 248 27 view .LVU117
 458 0054 0920     		movs	r0, #9
 459 0056 7047     		bx	lr
 460              	.L38:
 291:../Drivers/ISP/isp/Src/isp_services.c ****     {
 461              		.loc 1 291 5 is_stmt 1 view .LVU118
 291:../Drivers/ISP/isp/Src/isp_services.c ****     {
 462              		.loc 1 291 8 is_stmt 0 view .LVU119
 463 0058 12F0010F 		tst	r2, #1
 464 005c F8D1     		bne	.L43
 296:../Drivers/ISP/isp/Src/isp_services.c ****     {
 465              		.loc 1 296 10 is_stmt 1 view .LVU120
 296:../Drivers/ISP/isp/Src/isp_services.c ****     {
 466              		.loc 1 296 13 is_stmt 0 view .LVU121
 467 005e 12F00200 		ands	r0, r2, #2
 468 0062 07D1     		bne	.L42
 301:../Drivers/ISP/isp/Src/isp_services.c ****     {
 469              		.loc 1 301 10 is_stmt 1 view .LVU122
 301:../Drivers/ISP/isp/Src/isp_services.c ****     {
 470              		.loc 1 301 13 is_stmt 0 view .LVU123
ARM GAS  /tmp/ccAu1Zkx.s 			page 16


 471 0064 11F0010F 		tst	r1, #1
 472 0068 F1D1     		bne	.L33
 306:../Drivers/ISP/isp/Src/isp_services.c ****     {
 473              		.loc 1 306 10 is_stmt 1 view .LVU124
 306:../Drivers/ISP/isp/Src/isp_services.c ****     {
 474              		.loc 1 306 13 is_stmt 0 view .LVU125
 475 006a 11F0020F 		tst	r1, #2
 476 006e 03D0     		beq	.L52
 308:../Drivers/ISP/isp/Src/isp_services.c ****     }
 477              		.loc 1 308 12 view .LVU126
 478 0070 0120     		movs	r0, #1
 479 0072 7047     		bx	lr
 480              	.L42:
 298:../Drivers/ISP/isp/Src/isp_services.c ****     }
 481              		.loc 1 298 12 view .LVU127
 482 0074 0620     		movs	r0, #6
 483 0076 7047     		bx	lr
 484              	.L52:
 248:../Drivers/ISP/isp/Src/isp_services.c **** 
 485              		.loc 1 248 27 view .LVU128
 486 0078 0920     		movs	r0, #9
 487 007a 7047     		bx	lr
 488              	.L37:
 314:../Drivers/ISP/isp/Src/isp_services.c ****     {
 489              		.loc 1 314 5 is_stmt 1 view .LVU129
 314:../Drivers/ISP/isp/Src/isp_services.c ****     {
 490              		.loc 1 314 8 is_stmt 0 view .LVU130
 491 007c 12F00200 		ands	r0, r2, #2
 492 0080 F8D1     		bne	.L42
 319:../Drivers/ISP/isp/Src/isp_services.c ****     {
 493              		.loc 1 319 10 is_stmt 1 view .LVU131
 319:../Drivers/ISP/isp/Src/isp_services.c ****     {
 494              		.loc 1 319 13 is_stmt 0 view .LVU132
 495 0082 11F0010F 		tst	r1, #1
 496 0086 E2D1     		bne	.L33
 324:../Drivers/ISP/isp/Src/isp_services.c ****     {
 497              		.loc 1 324 10 is_stmt 1 view .LVU133
 324:../Drivers/ISP/isp/Src/isp_services.c ****     {
 498              		.loc 1 324 13 is_stmt 0 view .LVU134
 499 0088 11F0020F 		tst	r1, #2
 500 008c 01D0     		beq	.L45
 501              	.L40:
 326:../Drivers/ISP/isp/Src/isp_services.c ****     }
 502              		.loc 1 326 12 view .LVU135
 503 008e 0120     		movs	r0, #1
 504 0090 7047     		bx	lr
 505              	.L45:
 329:../Drivers/ISP/isp/Src/isp_services.c ****     {
 506              		.loc 1 329 10 is_stmt 1 view .LVU136
 329:../Drivers/ISP/isp/Src/isp_services.c ****     {
 507              		.loc 1 329 13 is_stmt 0 view .LVU137
 508 0092 12F0010F 		tst	r2, #1
 509 0096 16D1     		bne	.L49
 248:../Drivers/ISP/isp/Src/isp_services.c **** 
 510              		.loc 1 248 27 view .LVU138
 511 0098 0920     		movs	r0, #9
 512 009a 7047     		bx	lr
ARM GAS  /tmp/ccAu1Zkx.s 			page 17


 513              	.L36:
 337:../Drivers/ISP/isp/Src/isp_services.c ****     {
 514              		.loc 1 337 5 is_stmt 1 view .LVU139
 337:../Drivers/ISP/isp/Src/isp_services.c ****     {
 515              		.loc 1 337 8 is_stmt 0 view .LVU140
 516 009c 11F0010F 		tst	r1, #1
 517 00a0 D5D1     		bne	.L33
 342:../Drivers/ISP/isp/Src/isp_services.c ****     {
 518              		.loc 1 342 10 is_stmt 1 view .LVU141
 342:../Drivers/ISP/isp/Src/isp_services.c ****     {
 519              		.loc 1 342 13 is_stmt 0 view .LVU142
 520 00a2 11F0020F 		tst	r1, #2
 521 00a6 F2D1     		bne	.L40
 347:../Drivers/ISP/isp/Src/isp_services.c ****     {
 522              		.loc 1 347 10 is_stmt 1 view .LVU143
 347:../Drivers/ISP/isp/Src/isp_services.c ****     {
 523              		.loc 1 347 13 is_stmt 0 view .LVU144
 524 00a8 12F0010F 		tst	r2, #1
 525 00ac D0D1     		bne	.L43
 352:../Drivers/ISP/isp/Src/isp_services.c ****     {
 526              		.loc 1 352 10 is_stmt 1 view .LVU145
 352:../Drivers/ISP/isp/Src/isp_services.c ****     {
 527              		.loc 1 352 13 is_stmt 0 view .LVU146
 528 00ae 12F0020F 		tst	r2, #2
 529 00b2 0AD1     		bne	.L50
 248:../Drivers/ISP/isp/Src/isp_services.c **** 
 530              		.loc 1 248 27 view .LVU147
 531 00b4 1846     		mov	r0, r3
 532 00b6 7047     		bx	lr
 533              	.L34:
 370:../Drivers/ISP/isp/Src/isp_services.c ****     break;
 534              		.loc 1 370 5 is_stmt 1 view .LVU148
 370:../Drivers/ISP/isp/Src/isp_services.c ****     break;
 535              		.loc 1 370 10 is_stmt 0 view .LVU149
 536 00b8 0133     		adds	r3, r3, #1
 537              	.LVL44:
 370:../Drivers/ISP/isp/Src/isp_services.c ****     break;
 538              		.loc 1 370 10 view .LVU150
 539 00ba D8B2     		uxtb	r0, r3
 540              	.LVL45:
 371:../Drivers/ISP/isp/Src/isp_services.c ****   }
 541              		.loc 1 371 5 is_stmt 1 view .LVU151
 542 00bc 7047     		bx	lr
 543              	.LVL46:
 544              	.L46:
 254:../Drivers/ISP/isp/Src/isp_services.c ****     return next;
 545              		.loc 1 254 10 is_stmt 0 discriminator 2 view .LVU152
 546 00be 0020     		movs	r0, #0
 547 00c0 7047     		bx	lr
 548              	.L47:
 264:../Drivers/ISP/isp/Src/isp_services.c ****   {
 549              		.loc 1 264 3 view .LVU153
 550 00c2 0920     		movs	r0, #9
 551 00c4 7047     		bx	lr
 552              	.L49:
 331:../Drivers/ISP/isp/Src/isp_services.c ****     }
 553              		.loc 1 331 12 view .LVU154
ARM GAS  /tmp/ccAu1Zkx.s 			page 18


 554 00c6 1846     		mov	r0, r3
 555 00c8 7047     		bx	lr
 556              	.L50:
 354:../Drivers/ISP/isp/Src/isp_services.c ****     }
 557              		.loc 1 354 12 view .LVU155
 558 00ca 0620     		movs	r0, #6
 559 00cc BFE7     		b	.L33
 560              	.L54:
 561 00ce 00BF     		.align	2
 562              	.L53:
 563 00d0 00000000 		.word	ISP_SVC_StatEngine
 564              		.cfi_endproc
 565              	.LFE891:
 567              		.section	.text.GetStatCycleStart,"ax",%progbits
 568              		.align	1
 569              		.syntax unified
 570              		.thumb
 571              		.thumb_func
 573              	GetStatCycleStart:
 574              	.LVL47:
 575              	.LFB892:
 376:../Drivers/ISP/isp/Src/isp_services.c **** 
 377:../Drivers/ISP/isp/Src/isp_services.c **** static ISP_SVC_StatEngineStage GetStatCycleStart(ISP_SVC_StatLocation location)
 378:../Drivers/ISP/isp/Src/isp_services.c **** {
 576              		.loc 1 378 1 is_stmt 1 view -0
 577              		.cfi_startproc
 578              		@ args = 0, pretend = 0, frame = 0
 579              		@ frame_needed = 0, uses_anonymous_args = 0
 580              		@ link register save eliminated.
 581              		.loc 1 378 1 is_stmt 0 view .LVU157
 582 0000 0346     		mov	r3, r0
 379:../Drivers/ISP/isp/Src/isp_services.c ****   ISP_SVC_StatEngineStage stage;
 583              		.loc 1 379 3 is_stmt 1 view .LVU158
 380:../Drivers/ISP/isp/Src/isp_services.c **** 
 381:../Drivers/ISP/isp/Src/isp_services.c ****   if (location == ISP_STAT_LOC_UP)
 584              		.loc 1 381 3 view .LVU159
 585              		.loc 1 381 6 is_stmt 0 view .LVU160
 586 0002 0128     		cmp	r0, #1
 587 0004 0AD0     		beq	.L62
 382:../Drivers/ISP/isp/Src/isp_services.c ****   {
 383:../Drivers/ISP/isp/Src/isp_services.c ****     if ((ISP_SVC_StatEngine.upRequest & ISP_STAT_TYPE_AVG) ||
 384:../Drivers/ISP/isp/Src/isp_services.c ****         (ISP_SVC_StatEngine.upRequest & ISP_STAT_TYPE_ALL_TMP))
 385:../Drivers/ISP/isp/Src/isp_services.c ****     {
 386:../Drivers/ISP/isp/Src/isp_services.c ****       /* Stat up cycle starts with AVG measurement */
 387:../Drivers/ISP/isp/Src/isp_services.c ****       stage = ISP_STAT_CFG_UP_AVG;
 388:../Drivers/ISP/isp/Src/isp_services.c ****     }
 389:../Drivers/ISP/isp/Src/isp_services.c ****     else
 390:../Drivers/ISP/isp/Src/isp_services.c ****     {
 391:../Drivers/ISP/isp/Src/isp_services.c ****       /* Stat up cycle starts with 1st BIN measurement */
 392:../Drivers/ISP/isp/Src/isp_services.c ****       stage = ISP_STAT_CFG_UP_BINS_0_2;
 393:../Drivers/ISP/isp/Src/isp_services.c ****     }
 394:../Drivers/ISP/isp/Src/isp_services.c ****   }
 395:../Drivers/ISP/isp/Src/isp_services.c ****   else
 396:../Drivers/ISP/isp/Src/isp_services.c ****   {
 397:../Drivers/ISP/isp/Src/isp_services.c ****     if ((ISP_SVC_StatEngine.downRequest & ISP_STAT_TYPE_AVG) ||
 588              		.loc 1 397 5 is_stmt 1 view .LVU161
 589              		.loc 1 397 28 is_stmt 0 view .LVU162
ARM GAS  /tmp/ccAu1Zkx.s 			page 19


 590 0006 0E4B     		ldr	r3, .L63
 591 0008 93F88131 		ldrb	r3, [r3, #385]	@ zero_extendqisi2
 592              		.loc 1 397 8 view .LVU163
 593 000c 13F0010F 		tst	r3, #1
 594 0010 12D1     		bne	.L60
 595              		.loc 1 397 62 discriminator 1 view .LVU164
 596 0012 13F0040F 		tst	r3, #4
 597 0016 11D0     		beq	.L61
 398:../Drivers/ISP/isp/Src/isp_services.c ****         (ISP_SVC_StatEngine.downRequest & ISP_STAT_TYPE_ALL_TMP))
 399:../Drivers/ISP/isp/Src/isp_services.c ****     {
 400:../Drivers/ISP/isp/Src/isp_services.c ****       /* Stat down cycle starts with AVG measurement */
 401:../Drivers/ISP/isp/Src/isp_services.c ****       stage = ISP_STAT_CFG_DOWN_AVG;
 598              		.loc 1 401 13 view .LVU165
 599 0018 0520     		movs	r0, #5
 600              	.LVL48:
 601              		.loc 1 401 13 view .LVU166
 602 001a 7047     		bx	lr
 603              	.LVL49:
 604              	.L62:
 383:../Drivers/ISP/isp/Src/isp_services.c ****         (ISP_SVC_StatEngine.upRequest & ISP_STAT_TYPE_ALL_TMP))
 605              		.loc 1 383 5 is_stmt 1 view .LVU167
 383:../Drivers/ISP/isp/Src/isp_services.c ****         (ISP_SVC_StatEngine.upRequest & ISP_STAT_TYPE_ALL_TMP))
 606              		.loc 1 383 28 is_stmt 0 view .LVU168
 607 001c 084A     		ldr	r2, .L63
 608 001e 92F88021 		ldrb	r2, [r2, #384]	@ zero_extendqisi2
 383:../Drivers/ISP/isp/Src/isp_services.c ****         (ISP_SVC_StatEngine.upRequest & ISP_STAT_TYPE_ALL_TMP))
 609              		.loc 1 383 8 view .LVU169
 610 0022 12F00100 		ands	r0, r2, #1
 611              	.LVL50:
 383:../Drivers/ISP/isp/Src/isp_services.c ****         (ISP_SVC_StatEngine.upRequest & ISP_STAT_TYPE_ALL_TMP))
 612              		.loc 1 383 8 view .LVU170
 613 0026 03D1     		bne	.L58
 383:../Drivers/ISP/isp/Src/isp_services.c ****         (ISP_SVC_StatEngine.upRequest & ISP_STAT_TYPE_ALL_TMP))
 614              		.loc 1 383 60 discriminator 1 view .LVU171
 615 0028 12F0040F 		tst	r2, #4
 616 002c 02D0     		beq	.L59
 617 002e 7047     		bx	lr
 618              	.L58:
 387:../Drivers/ISP/isp/Src/isp_services.c ****     }
 619              		.loc 1 387 13 view .LVU172
 620 0030 0020     		movs	r0, #0
 621 0032 7047     		bx	lr
 622              	.L59:
 392:../Drivers/ISP/isp/Src/isp_services.c ****     }
 623              		.loc 1 392 13 view .LVU173
 624 0034 1846     		mov	r0, r3
 625 0036 7047     		bx	lr
 626              	.LVL51:
 627              	.L60:
 628              		.loc 1 401 13 view .LVU174
 629 0038 0520     		movs	r0, #5
 630              	.LVL52:
 631              		.loc 1 401 13 view .LVU175
 632 003a 7047     		bx	lr
 633              	.LVL53:
 634              	.L61:
 402:../Drivers/ISP/isp/Src/isp_services.c ****     }
ARM GAS  /tmp/ccAu1Zkx.s 			page 20


 403:../Drivers/ISP/isp/Src/isp_services.c ****     else
 404:../Drivers/ISP/isp/Src/isp_services.c ****     {
 405:../Drivers/ISP/isp/Src/isp_services.c ****       /* Stat down cycle starts with 1st BIN measurement */
 406:../Drivers/ISP/isp/Src/isp_services.c ****       stage = ISP_STAT_CFG_DOWN_BINS_0_2;
 635              		.loc 1 406 13 view .LVU176
 636 003c 0620     		movs	r0, #6
 637              	.LVL54:
 407:../Drivers/ISP/isp/Src/isp_services.c ****     }
 408:../Drivers/ISP/isp/Src/isp_services.c ****   }
 409:../Drivers/ISP/isp/Src/isp_services.c ****   return stage;
 638              		.loc 1 409 3 is_stmt 1 view .LVU177
 410:../Drivers/ISP/isp/Src/isp_services.c **** }
 639              		.loc 1 410 1 is_stmt 0 view .LVU178
 640 003e 7047     		bx	lr
 641              	.L64:
 642              		.align	2
 643              	.L63:
 644 0040 00000000 		.word	ISP_SVC_StatEngine
 645              		.cfi_endproc
 646              	.LFE892:
 648              		.section	.text.GetStatCycleEnd,"ax",%progbits
 649              		.align	1
 650              		.syntax unified
 651              		.thumb
 652              		.thumb_func
 654              	GetStatCycleEnd:
 655              	.LVL55:
 656              	.LFB893:
 411:../Drivers/ISP/isp/Src/isp_services.c **** 
 412:../Drivers/ISP/isp/Src/isp_services.c **** static ISP_SVC_StatEngineStage GetStatCycleEnd(ISP_SVC_StatLocation location)
 413:../Drivers/ISP/isp/Src/isp_services.c **** {
 657              		.loc 1 413 1 is_stmt 1 view -0
 658              		.cfi_startproc
 659              		@ args = 0, pretend = 0, frame = 0
 660              		@ frame_needed = 0, uses_anonymous_args = 0
 661              		@ link register save eliminated.
 414:../Drivers/ISP/isp/Src/isp_services.c ****   ISP_SVC_StatEngineStage stage;
 662              		.loc 1 414 3 view .LVU180
 415:../Drivers/ISP/isp/Src/isp_services.c **** 
 416:../Drivers/ISP/isp/Src/isp_services.c ****   if (location == ISP_STAT_LOC_UP)
 663              		.loc 1 416 3 view .LVU181
 664              		.loc 1 416 6 is_stmt 0 view .LVU182
 665 0000 0128     		cmp	r0, #1
 666 0002 0AD0     		beq	.L71
 417:../Drivers/ISP/isp/Src/isp_services.c ****   {
 418:../Drivers/ISP/isp/Src/isp_services.c ****     if ((ISP_SVC_StatEngine.upRequest & ISP_STAT_TYPE_BINS) ||
 419:../Drivers/ISP/isp/Src/isp_services.c ****         (ISP_SVC_StatEngine.upRequest & ISP_STAT_TYPE_ALL_TMP))
 420:../Drivers/ISP/isp/Src/isp_services.c ****     {
 421:../Drivers/ISP/isp/Src/isp_services.c ****       /* Stat up cycle ends with last BINS measurement */
 422:../Drivers/ISP/isp/Src/isp_services.c ****       stage = ISP_STAT_CFG_UP_BINS_9_11;
 423:../Drivers/ISP/isp/Src/isp_services.c ****     }
 424:../Drivers/ISP/isp/Src/isp_services.c ****     else
 425:../Drivers/ISP/isp/Src/isp_services.c ****     {
 426:../Drivers/ISP/isp/Src/isp_services.c ****       /* Stat up cycle ends with AVG measurement */
 427:../Drivers/ISP/isp/Src/isp_services.c ****       stage = ISP_STAT_CFG_UP_AVG;
 428:../Drivers/ISP/isp/Src/isp_services.c ****     }
 429:../Drivers/ISP/isp/Src/isp_services.c ****   }
ARM GAS  /tmp/ccAu1Zkx.s 			page 21


 430:../Drivers/ISP/isp/Src/isp_services.c ****   else
 431:../Drivers/ISP/isp/Src/isp_services.c ****   {
 432:../Drivers/ISP/isp/Src/isp_services.c ****     if ((ISP_SVC_StatEngine.downRequest & ISP_STAT_TYPE_BINS) ||
 667              		.loc 1 432 5 is_stmt 1 view .LVU183
 668              		.loc 1 432 28 is_stmt 0 view .LVU184
 669 0004 0D4B     		ldr	r3, .L72
 670 0006 93F88131 		ldrb	r3, [r3, #385]	@ zero_extendqisi2
 671              		.loc 1 432 8 view .LVU185
 672 000a 13F0020F 		tst	r3, #2
 673 000e 11D1     		bne	.L69
 674              		.loc 1 432 63 discriminator 1 view .LVU186
 675 0010 13F0040F 		tst	r3, #4
 676 0014 10D0     		beq	.L70
 433:../Drivers/ISP/isp/Src/isp_services.c ****         (ISP_SVC_StatEngine.downRequest & ISP_STAT_TYPE_ALL_TMP))
 434:../Drivers/ISP/isp/Src/isp_services.c ****     {
 435:../Drivers/ISP/isp/Src/isp_services.c ****       /* Stat down cycle ends with last BINS measurement */
 436:../Drivers/ISP/isp/Src/isp_services.c ****       stage = ISP_STAT_CFG_DOWN_BINS_9_11;
 677              		.loc 1 436 13 view .LVU187
 678 0016 0920     		movs	r0, #9
 679              	.LVL56:
 680              		.loc 1 436 13 view .LVU188
 681 0018 7047     		bx	lr
 682              	.LVL57:
 683              	.L71:
 418:../Drivers/ISP/isp/Src/isp_services.c ****         (ISP_SVC_StatEngine.upRequest & ISP_STAT_TYPE_ALL_TMP))
 684              		.loc 1 418 5 is_stmt 1 view .LVU189
 418:../Drivers/ISP/isp/Src/isp_services.c ****         (ISP_SVC_StatEngine.upRequest & ISP_STAT_TYPE_ALL_TMP))
 685              		.loc 1 418 28 is_stmt 0 view .LVU190
 686 001a 084B     		ldr	r3, .L72
 687 001c 93F88001 		ldrb	r0, [r3, #384]	@ zero_extendqisi2
 688              	.LVL58:
 418:../Drivers/ISP/isp/Src/isp_services.c ****         (ISP_SVC_StatEngine.upRequest & ISP_STAT_TYPE_ALL_TMP))
 689              		.loc 1 418 8 view .LVU191
 690 0020 10F0020F 		tst	r0, #2
 691 0024 04D1     		bne	.L68
 418:../Drivers/ISP/isp/Src/isp_services.c ****         (ISP_SVC_StatEngine.upRequest & ISP_STAT_TYPE_ALL_TMP))
 692              		.loc 1 418 61 discriminator 1 view .LVU192
 693 0026 10F00400 		ands	r0, r0, #4
 694 002a 06D0     		beq	.L67
 422:../Drivers/ISP/isp/Src/isp_services.c ****     }
 695              		.loc 1 422 13 view .LVU193
 696 002c 0420     		movs	r0, #4
 697 002e 7047     		bx	lr
 698              	.L68:
 699 0030 0420     		movs	r0, #4
 700 0032 7047     		bx	lr
 701              	.LVL59:
 702              	.L69:
 703              		.loc 1 436 13 view .LVU194
 704 0034 0920     		movs	r0, #9
 705              	.LVL60:
 706              		.loc 1 436 13 view .LVU195
 707 0036 7047     		bx	lr
 708              	.LVL61:
 709              	.L70:
 437:../Drivers/ISP/isp/Src/isp_services.c ****     }
 438:../Drivers/ISP/isp/Src/isp_services.c ****     else
ARM GAS  /tmp/ccAu1Zkx.s 			page 22


 439:../Drivers/ISP/isp/Src/isp_services.c ****     {
 440:../Drivers/ISP/isp/Src/isp_services.c ****       /* Stat down cycle ends with AVG measurement */
 441:../Drivers/ISP/isp/Src/isp_services.c ****       stage = ISP_STAT_CFG_DOWN_AVG;
 710              		.loc 1 441 13 view .LVU196
 711 0038 0520     		movs	r0, #5
 712              	.LVL62:
 713              	.L67:
 442:../Drivers/ISP/isp/Src/isp_services.c ****     }
 443:../Drivers/ISP/isp/Src/isp_services.c ****   }
 444:../Drivers/ISP/isp/Src/isp_services.c ****   return stage;
 714              		.loc 1 444 3 is_stmt 1 view .LVU197
 445:../Drivers/ISP/isp/Src/isp_services.c **** }
 715              		.loc 1 445 1 is_stmt 0 view .LVU198
 716 003a 7047     		bx	lr
 717              	.L73:
 718              		.align	2
 719              	.L72:
 720 003c 00000000 		.word	ISP_SVC_StatEngine
 721              		.cfi_endproc
 722              	.LFE893:
 724              		.section	.text.ReadStatHistogram,"ax",%progbits
 725              		.align	1
 726              		.syntax unified
 727              		.thumb
 728              		.thumb_func
 730              	ReadStatHistogram:
 731              	.LVL63:
 732              	.LFB889:
 231:../Drivers/ISP/isp/Src/isp_services.c ****   for (uint8_t i = DCMIPP_STATEXT_MODULE1; i <= DCMIPP_STATEXT_MODULE3; i++)
 733              		.loc 1 231 1 is_stmt 1 view -0
 734              		.cfi_startproc
 735              		@ args = 0, pretend = 0, frame = 0
 736              		@ frame_needed = 0, uses_anonymous_args = 0
 231:../Drivers/ISP/isp/Src/isp_services.c ****   for (uint8_t i = DCMIPP_STATEXT_MODULE1; i <= DCMIPP_STATEXT_MODULE3; i++)
 737              		.loc 1 231 1 is_stmt 0 view .LVU200
 738 0000 70B5     		push	{r4, r5, r6, lr}
 739              	.LCFI3:
 740              		.cfi_def_cfa_offset 16
 741              		.cfi_offset 4, -16
 742              		.cfi_offset 5, -12
 743              		.cfi_offset 6, -8
 744              		.cfi_offset 14, -4
 745 0002 0646     		mov	r6, r0
 746 0004 0D46     		mov	r5, r1
 232:../Drivers/ISP/isp/Src/isp_services.c ****   {
 747              		.loc 1 232 3 is_stmt 1 view .LVU201
 748              	.LBB3:
 232:../Drivers/ISP/isp/Src/isp_services.c ****   {
 749              		.loc 1 232 8 view .LVU202
 750              	.LVL64:
 232:../Drivers/ISP/isp/Src/isp_services.c ****   {
 751              		.loc 1 232 16 is_stmt 0 view .LVU203
 752 0006 0124     		movs	r4, #1
 232:../Drivers/ISP/isp/Src/isp_services.c ****   {
 753              		.loc 1 232 3 view .LVU204
 754 0008 0BE0     		b	.L75
 755              	.LVL65:
ARM GAS  /tmp/ccAu1Zkx.s 			page 23


 756              	.L76:
 234:../Drivers/ISP/isp/Src/isp_services.c ****   }
 757              		.loc 1 234 5 is_stmt 1 view .LVU205
 234:../Drivers/ISP/isp/Src/isp_services.c ****   }
 758              		.loc 1 234 102 is_stmt 0 view .LVU206
 759 000a 04F18043 		add	r3, r4, #1073741824
 760 000e 013B     		subs	r3, r3, #1
 234:../Drivers/ISP/isp/Src/isp_services.c ****   }
 761              		.loc 1 234 5 view .LVU207
 762 0010 05EB8303 		add	r3, r5, r3, lsl #2
 763 0014 2246     		mov	r2, r4
 764 0016 0121     		movs	r1, #1
 765 0018 3068     		ldr	r0, [r6]
 766 001a FFF7FEFF 		bl	HAL_DCMIPP_PIPE_GetISPAccumulatedStatisticsCounter
 767              	.LVL66:
 232:../Drivers/ISP/isp/Src/isp_services.c ****   {
 768              		.loc 1 232 74 is_stmt 1 discriminator 1 view .LVU208
 769 001e 0134     		adds	r4, r4, #1
 770              	.LVL67:
 232:../Drivers/ISP/isp/Src/isp_services.c ****   {
 771              		.loc 1 232 74 is_stmt 0 discriminator 1 view .LVU209
 772 0020 E4B2     		uxtb	r4, r4
 773              	.LVL68:
 774              	.L75:
 232:../Drivers/ISP/isp/Src/isp_services.c ****   {
 775              		.loc 1 232 46 is_stmt 1 discriminator 2 view .LVU210
 776 0022 032C     		cmp	r4, #3
 777 0024 F1D9     		bls	.L76
 778              	.LBE3:
 236:../Drivers/ISP/isp/Src/isp_services.c **** 
 779              		.loc 1 236 1 is_stmt 0 view .LVU211
 780 0026 70BD     		pop	{r4, r5, r6, pc}
 236:../Drivers/ISP/isp/Src/isp_services.c **** 
 781              		.loc 1 236 1 view .LVU212
 782              		.cfi_endproc
 783              	.LFE889:
 785              		.section	.text.LuminanceFromRGB,"ax",%progbits
 786              		.align	1
 787              		.global	LuminanceFromRGB
 788              		.syntax unified
 789              		.thumb
 790              		.thumb_func
 792              	LuminanceFromRGB:
 793              	.LVL69:
 794              	.LFB894:
 446:../Drivers/ISP/isp/Src/isp_services.c **** 
 447:../Drivers/ISP/isp/Src/isp_services.c **** uint8_t LuminanceFromRGB(uint8_t r, uint8_t g, uint8_t b)
 448:../Drivers/ISP/isp/Src/isp_services.c **** {
 795              		.loc 1 448 1 is_stmt 1 view -0
 796              		.cfi_startproc
 797              		@ args = 0, pretend = 0, frame = 8
 798              		@ frame_needed = 0, uses_anonymous_args = 0
 799              		@ link register save eliminated.
 800              		.loc 1 448 1 is_stmt 0 view .LVU214
 801 0000 82B0     		sub	sp, sp, #8
 802              	.LCFI4:
 803              		.cfi_def_cfa_offset 8
ARM GAS  /tmp/ccAu1Zkx.s 			page 24


 804 0002 05EE100A 		vmov	s10, r0	@ int
 805 0006 07EE101A 		vmov	s14, r1	@ int
 806 000a 06EE102A 		vmov	s12, r2	@ int
 449:../Drivers/ISP/isp/Src/isp_services.c ****   /* Compute luminance from RGB components (BT.601) */
 450:../Drivers/ISP/isp/Src/isp_services.c ****   return (uint8_t) (r * 0.299 + g * 0.587 + b * 0.114);
 807              		.loc 1 450 3 is_stmt 1 view .LVU215
 808              		.loc 1 450 23 is_stmt 0 view .LVU216
 809 000e B8EEC55B 		vcvt.f64.s32	d5, s10
 810              		.loc 1 450 35 view .LVU217
 811 0012 B8EEC77B 		vcvt.f64.s32	d7, s14
 812 0016 9FED0C4B 		vldr.64	d4, .L80
 813 001a 27EE047B 		vmul.f64	d7, d7, d4
 814              		.loc 1 450 31 view .LVU218
 815 001e 9FED0C4B 		vldr.64	d4, .L80+8
 816 0022 05EE047B 		vmla.f64	d7, d5, d4
 817              		.loc 1 450 47 view .LVU219
 818 0026 B8EEC66B 		vcvt.f64.s32	d6, s12
 819              		.loc 1 450 43 view .LVU220
 820 002a 9FED0B5B 		vldr.64	d5, .L80+16
 821 002e 06EE057B 		vmla.f64	d7, d6, d5
 822              		.loc 1 450 10 view .LVU221
 823 0032 FCEEC77B 		vcvt.u32.f64	s15, d7
 824 0036 CDED017A 		vstr.32	s15, [sp, #4]	@ int
 451:../Drivers/ISP/isp/Src/isp_services.c **** }
 825              		.loc 1 451 1 view .LVU222
 826 003a 9DF80400 		ldrb	r0, [sp, #4]	@ zero_extendqisi2
 827              	.LVL70:
 828              		.loc 1 451 1 view .LVU223
 829 003e 02B0     		add	sp, sp, #8
 830              	.LCFI5:
 831              		.cfi_def_cfa_offset 0
 832              		@ sp needed
 833 0040 7047     		bx	lr
 834              	.L81:
 835 0042 00BFAFF3 		.align	3
 835      0080
 836              	.L80:
 837 0048 62105839 		.word	962072674
 838 004c B4C8E23F 		.word	1071827124
 839 0050 894160E5 		.word	-446676599
 840 0054 D022D33F 		.word	1070801616
 841 0058 C976BE9F 		.word	-1614907703
 842 005c 1A2FBD3F 		.word	1069362970
 843              		.cfi_endproc
 844              	.LFE894:
 846              		.section	.text.LuminanceFromRGBMono,"ax",%progbits
 847              		.align	1
 848              		.global	LuminanceFromRGBMono
 849              		.syntax unified
 850              		.thumb
 851              		.thumb_func
 853              	LuminanceFromRGBMono:
 854              	.LVL71:
 855              	.LFB895:
 452:../Drivers/ISP/isp/Src/isp_services.c **** 
 453:../Drivers/ISP/isp/Src/isp_services.c **** uint8_t LuminanceFromRGBMono(uint8_t r, uint8_t g, uint8_t b)
 454:../Drivers/ISP/isp/Src/isp_services.c **** {
ARM GAS  /tmp/ccAu1Zkx.s 			page 25


 856              		.loc 1 454 1 is_stmt 1 view -0
 857              		.cfi_startproc
 858              		@ args = 0, pretend = 0, frame = 0
 859              		@ frame_needed = 0, uses_anonymous_args = 0
 860              		@ link register save eliminated.
 455:../Drivers/ISP/isp/Src/isp_services.c ****   /* Compute luminance from RGB components
 456:../Drivers/ISP/isp/Src/isp_services.c ****    * by adding together R, G, B components for monochrome sensor */
 457:../Drivers/ISP/isp/Src/isp_services.c ****   uint32_t lum = (uint32_t)r + g + b;
 861              		.loc 1 457 3 view .LVU225
 862              		.loc 1 457 30 is_stmt 0 view .LVU226
 863 0000 0844     		add	r0, r0, r1
 864              	.LVL72:
 865              		.loc 1 457 12 view .LVU227
 866 0002 1044     		add	r0, r0, r2
 867              	.LVL73:
 458:../Drivers/ISP/isp/Src/isp_services.c ****   return (uint8_t)((lum > 255)? 255 : lum);
 868              		.loc 1 458 3 is_stmt 1 view .LVU228
 869              		.loc 1 458 10 is_stmt 0 view .LVU229
 870 0004 FF28     		cmp	r0, #255
 871 0006 01D8     		bhi	.L84
 872              		.loc 1 458 10 discriminator 1 view .LVU230
 873 0008 C0B2     		uxtb	r0, r0
 874              	.LVL74:
 875              		.loc 1 458 10 discriminator 1 view .LVU231
 876 000a 7047     		bx	lr
 877              	.LVL75:
 878              	.L84:
 879              		.loc 1 458 10 discriminator 2 view .LVU232
 880 000c FF20     		movs	r0, #255
 881              	.LVL76:
 459:../Drivers/ISP/isp/Src/isp_services.c **** }
 882              		.loc 1 459 1 view .LVU233
 883 000e 7047     		bx	lr
 884              		.cfi_endproc
 885              	.LFE895:
 887              		.section	.text.ISP_SVC_ISP_SetDemosaicing,"ax",%progbits
 888              		.align	1
 889              		.global	ISP_SVC_ISP_SetDemosaicing
 890              		.syntax unified
 891              		.thumb
 892              		.thumb_func
 894              	ISP_SVC_ISP_SetDemosaicing:
 895              	.LVL77:
 896              	.LFB896:
 460:../Drivers/ISP/isp/Src/isp_services.c **** 
 461:../Drivers/ISP/isp/Src/isp_services.c **** /* Exported functions --------------------------------------------------------*/
 462:../Drivers/ISP/isp/Src/isp_services.c **** /**
 463:../Drivers/ISP/isp/Src/isp_services.c ****   * @brief  ISP_SVC_ISP_SetDemosaicing
 464:../Drivers/ISP/isp/Src/isp_services.c ****   *         Set the ISP demosaicing configuration
 465:../Drivers/ISP/isp/Src/isp_services.c ****   * @param  hIsp: ISP device handle
 466:../Drivers/ISP/isp/Src/isp_services.c ****   * @param  pConfig: Pointer to the demosaicing configuration
 467:../Drivers/ISP/isp/Src/isp_services.c ****   * @retval operation result
 468:../Drivers/ISP/isp/Src/isp_services.c ****   */
 469:../Drivers/ISP/isp/Src/isp_services.c **** ISP_StatusTypeDef ISP_SVC_ISP_SetDemosaicing(ISP_HandleTypeDef *hIsp, ISP_DemosaicingTypeDef *pConf
 470:../Drivers/ISP/isp/Src/isp_services.c **** {
 897              		.loc 1 470 1 is_stmt 1 view -0
 898              		.cfi_startproc
ARM GAS  /tmp/ccAu1Zkx.s 			page 26


 899              		@ args = 0, pretend = 0, frame = 24
 900              		@ frame_needed = 0, uses_anonymous_args = 0
 471:../Drivers/ISP/isp/Src/isp_services.c ****   HAL_StatusTypeDef halStatus;
 901              		.loc 1 471 3 view .LVU235
 472:../Drivers/ISP/isp/Src/isp_services.c ****   DCMIPP_RawBayer2RGBConfTypeDef rawBayerCfg;
 902              		.loc 1 472 3 view .LVU236
 473:../Drivers/ISP/isp/Src/isp_services.c **** 
 474:../Drivers/ISP/isp/Src/isp_services.c ****   if ((hIsp == NULL) || (pConfig == NULL) ||
 903              		.loc 1 474 3 view .LVU237
 904              		.loc 1 474 6 is_stmt 0 view .LVU238
 905 0000 0028     		cmp	r0, #0
 906 0002 49D0     		beq	.L103
 470:../Drivers/ISP/isp/Src/isp_services.c ****   HAL_StatusTypeDef halStatus;
 907              		.loc 1 470 1 view .LVU239
 908 0004 10B5     		push	{r4, lr}
 909              	.LCFI6:
 910              		.cfi_def_cfa_offset 8
 911              		.cfi_offset 4, -8
 912              		.cfi_offset 14, -4
 913 0006 86B0     		sub	sp, sp, #24
 914              	.LCFI7:
 915              		.cfi_def_cfa_offset 32
 916 0008 0446     		mov	r4, r0
 917              		.loc 1 474 22 discriminator 1 view .LVU240
 918 000a B9B1     		cbz	r1, .L86
 475:../Drivers/ISP/isp/Src/isp_services.c ****       (pConfig->peak > ISP_DEMOS_STRENGTH_MAX) || (pConfig->lineV > ISP_DEMOS_STRENGTH_MAX) ||
 919              		.loc 1 475 15 view .LVU241
 920 000c 8B78     		ldrb	r3, [r1, #2]	@ zero_extendqisi2
 474:../Drivers/ISP/isp/Src/isp_services.c ****       (pConfig->peak > ISP_DEMOS_STRENGTH_MAX) || (pConfig->lineV > ISP_DEMOS_STRENGTH_MAX) ||
 921              		.loc 1 474 43 discriminator 2 view .LVU242
 922 000e 072B     		cmp	r3, #7
 923 0010 14D8     		bhi	.L86
 924              		.loc 1 475 59 discriminator 1 view .LVU243
 925 0012 CB78     		ldrb	r3, [r1, #3]	@ zero_extendqisi2
 926              		.loc 1 475 48 discriminator 1 view .LVU244
 927 0014 072B     		cmp	r3, #7
 928 0016 11D8     		bhi	.L86
 476:../Drivers/ISP/isp/Src/isp_services.c ****       (pConfig->lineH > ISP_DEMOS_STRENGTH_MAX) || (pConfig->edge > ISP_DEMOS_STRENGTH_MAX))
 929              		.loc 1 476 15 view .LVU245
 930 0018 0B79     		ldrb	r3, [r1, #4]	@ zero_extendqisi2
 475:../Drivers/ISP/isp/Src/isp_services.c ****       (pConfig->peak > ISP_DEMOS_STRENGTH_MAX) || (pConfig->lineV > ISP_DEMOS_STRENGTH_MAX) ||
 931              		.loc 1 475 93 discriminator 2 view .LVU246
 932 001a 072B     		cmp	r3, #7
 933 001c 0ED8     		bhi	.L86
 934              		.loc 1 476 60 discriminator 1 view .LVU247
 935 001e 4B79     		ldrb	r3, [r1, #5]	@ zero_extendqisi2
 936              		.loc 1 476 49 discriminator 1 view .LVU248
 937 0020 072B     		cmp	r3, #7
 938 0022 0BD8     		bhi	.L86
 477:../Drivers/ISP/isp/Src/isp_services.c ****   {
 478:../Drivers/ISP/isp/Src/isp_services.c ****     return ISP_ERR_DEMOSAICING_EINVAL;
 479:../Drivers/ISP/isp/Src/isp_services.c ****   }
 480:../Drivers/ISP/isp/Src/isp_services.c **** 
 481:../Drivers/ISP/isp/Src/isp_services.c ****   /* Do not enable demosaicing if the camera sensor is a monochrome sensor */
 482:../Drivers/ISP/isp/Src/isp_services.c ****   if ((pConfig->enable == 0) || (pConfig->type == ISP_DEMOS_TYPE_MONO))
 939              		.loc 1 482 3 is_stmt 1 view .LVU249
 940              		.loc 1 482 15 is_stmt 0 view .LVU250
ARM GAS  /tmp/ccAu1Zkx.s 			page 27


 941 0024 0B78     		ldrb	r3, [r1]	@ zero_extendqisi2
 942              		.loc 1 482 6 view .LVU251
 943 0026 63B1     		cbz	r3, .L89
 944              		.loc 1 482 41 discriminator 1 view .LVU252
 945 0028 4B78     		ldrb	r3, [r1, #1]	@ zero_extendqisi2
 946              		.loc 1 482 30 discriminator 1 view .LVU253
 947 002a 042B     		cmp	r3, #4
 948 002c 09D0     		beq	.L89
 483:../Drivers/ISP/isp/Src/isp_services.c ****   {
 484:../Drivers/ISP/isp/Src/isp_services.c ****     halStatus = HAL_DCMIPP_PIPE_DisableISPRawBayer2RGB(hIsp->hDcmipp, DCMIPP_PIPE1);
 485:../Drivers/ISP/isp/Src/isp_services.c ****   }
 486:../Drivers/ISP/isp/Src/isp_services.c ****   else
 487:../Drivers/ISP/isp/Src/isp_services.c ****   {
 488:../Drivers/ISP/isp/Src/isp_services.c ****     switch(pConfig->type)
 949              		.loc 1 488 5 is_stmt 1 view .LVU254
 950 002e 042B     		cmp	r3, #4
 951 0030 2DD8     		bhi	.L92
 952 0032 DFE803F0 		tbb	[pc, r3]
 953              	.L94:
 954 0036 0E       		.byte	(.L98-.L94)/2
 955 0037 23       		.byte	(.L97-.L94)/2
 956 0038 26       		.byte	(.L96-.L94)/2
 957 0039 29       		.byte	(.L95-.L94)/2
 958 003a 10       		.byte	(.L93-.L94)/2
 959 003b 00       		.p2align 1
 960              	.L86:
 478:../Drivers/ISP/isp/Src/isp_services.c ****   }
 961              		.loc 1 478 12 is_stmt 0 view .LVU255
 962 003c 0A20     		movs	r0, #10
 963              	.LVL78:
 964              	.L88:
 489:../Drivers/ISP/isp/Src/isp_services.c ****     {
 490:../Drivers/ISP/isp/Src/isp_services.c ****       case ISP_DEMOS_TYPE_RGGB:
 491:../Drivers/ISP/isp/Src/isp_services.c ****         rawBayerCfg.RawBayerType = DCMIPP_RAWBAYER_RGGB;
 492:../Drivers/ISP/isp/Src/isp_services.c ****         break;
 493:../Drivers/ISP/isp/Src/isp_services.c ****       case ISP_DEMOS_TYPE_GRBG:
 494:../Drivers/ISP/isp/Src/isp_services.c ****         rawBayerCfg.RawBayerType = DCMIPP_RAWBAYER_GRBG;
 495:../Drivers/ISP/isp/Src/isp_services.c ****         break;
 496:../Drivers/ISP/isp/Src/isp_services.c ****       case ISP_DEMOS_TYPE_GBRG:
 497:../Drivers/ISP/isp/Src/isp_services.c ****         rawBayerCfg.RawBayerType = DCMIPP_RAWBAYER_GBRG;
 498:../Drivers/ISP/isp/Src/isp_services.c ****         break;
 499:../Drivers/ISP/isp/Src/isp_services.c ****       case ISP_DEMOS_TYPE_BGGR:
 500:../Drivers/ISP/isp/Src/isp_services.c ****         rawBayerCfg.RawBayerType = DCMIPP_RAWBAYER_BGGR;
 501:../Drivers/ISP/isp/Src/isp_services.c ****         break;
 502:../Drivers/ISP/isp/Src/isp_services.c ****       case ISP_DEMOS_TYPE_MONO:
 503:../Drivers/ISP/isp/Src/isp_services.c ****         /* Shall not happen, just add this case to silence a Wswitch-enum warning */
 504:../Drivers/ISP/isp/Src/isp_services.c ****         break;
 505:../Drivers/ISP/isp/Src/isp_services.c ****       default:
 506:../Drivers/ISP/isp/Src/isp_services.c ****         rawBayerCfg.RawBayerType = DCMIPP_RAWBAYER_RGGB;
 507:../Drivers/ISP/isp/Src/isp_services.c ****         break;
 508:../Drivers/ISP/isp/Src/isp_services.c ****     }
 509:../Drivers/ISP/isp/Src/isp_services.c **** 
 510:../Drivers/ISP/isp/Src/isp_services.c ****     rawBayerCfg.PeakStrength = (uint32_t) pConfig->peak;
 511:../Drivers/ISP/isp/Src/isp_services.c ****     rawBayerCfg.VLineStrength = (uint32_t) pConfig->lineV;
 512:../Drivers/ISP/isp/Src/isp_services.c ****     rawBayerCfg.HLineStrength = (uint32_t) pConfig->lineH;
 513:../Drivers/ISP/isp/Src/isp_services.c ****     rawBayerCfg.EdgeStrength = (uint32_t) pConfig->edge;
 514:../Drivers/ISP/isp/Src/isp_services.c ****     halStatus = HAL_DCMIPP_PIPE_SetISPRawBayer2RGBConfig(hIsp->hDcmipp, DCMIPP_PIPE1, &rawBayerCfg)
ARM GAS  /tmp/ccAu1Zkx.s 			page 28


 515:../Drivers/ISP/isp/Src/isp_services.c **** 
 516:../Drivers/ISP/isp/Src/isp_services.c ****     if (halStatus == HAL_OK)
 517:../Drivers/ISP/isp/Src/isp_services.c ****     {
 518:../Drivers/ISP/isp/Src/isp_services.c ****       halStatus = HAL_DCMIPP_PIPE_EnableISPRawBayer2RGB(hIsp->hDcmipp, DCMIPP_PIPE1);
 519:../Drivers/ISP/isp/Src/isp_services.c ****     }
 520:../Drivers/ISP/isp/Src/isp_services.c ****   }
 521:../Drivers/ISP/isp/Src/isp_services.c **** 
 522:../Drivers/ISP/isp/Src/isp_services.c ****   if (halStatus != HAL_OK)
 523:../Drivers/ISP/isp/Src/isp_services.c ****   {
 524:../Drivers/ISP/isp/Src/isp_services.c ****     return ISP_ERR_DEMOSAICING_HAL;
 525:../Drivers/ISP/isp/Src/isp_services.c ****   }
 526:../Drivers/ISP/isp/Src/isp_services.c **** 
 527:../Drivers/ISP/isp/Src/isp_services.c ****   return ISP_OK;
 528:../Drivers/ISP/isp/Src/isp_services.c **** }
 965              		.loc 1 528 1 view .LVU256
 966 003e 06B0     		add	sp, sp, #24
 967              	.LCFI8:
 968              		.cfi_remember_state
 969              		.cfi_def_cfa_offset 8
 970              		@ sp needed
 971 0040 10BD     		pop	{r4, pc}
 972              	.LVL79:
 973              	.L89:
 974              	.LCFI9:
 975              		.cfi_restore_state
 484:../Drivers/ISP/isp/Src/isp_services.c ****   }
 976              		.loc 1 484 5 is_stmt 1 view .LVU257
 484:../Drivers/ISP/isp/Src/isp_services.c ****   }
 977              		.loc 1 484 17 is_stmt 0 view .LVU258
 978 0042 0121     		movs	r1, #1
 979              	.LVL80:
 484:../Drivers/ISP/isp/Src/isp_services.c ****   }
 980              		.loc 1 484 17 view .LVU259
 981 0044 2068     		ldr	r0, [r4]
 982              	.LVL81:
 484:../Drivers/ISP/isp/Src/isp_services.c ****   }
 983              		.loc 1 484 17 view .LVU260
 984 0046 FFF7FEFF 		bl	HAL_DCMIPP_PIPE_DisableISPRawBayer2RGB
 985              	.LVL82:
 986              	.L91:
 522:../Drivers/ISP/isp/Src/isp_services.c ****   {
 987              		.loc 1 522 3 is_stmt 1 view .LVU261
 522:../Drivers/ISP/isp/Src/isp_services.c ****   {
 988              		.loc 1 522 6 is_stmt 0 view .LVU262
 989 004a 0028     		cmp	r0, #0
 990 004c F7D0     		beq	.L88
 524:../Drivers/ISP/isp/Src/isp_services.c ****   }
 991              		.loc 1 524 12 view .LVU263
 992 004e 0B20     		movs	r0, #11
 993              	.LVL83:
 524:../Drivers/ISP/isp/Src/isp_services.c ****   }
 994              		.loc 1 524 12 view .LVU264
 995 0050 F5E7     		b	.L88
 996              	.LVL84:
 997              	.L98:
 491:../Drivers/ISP/isp/Src/isp_services.c ****         break;
 998              		.loc 1 491 9 is_stmt 1 view .LVU265
ARM GAS  /tmp/ccAu1Zkx.s 			page 29


 491:../Drivers/ISP/isp/Src/isp_services.c ****         break;
 999              		.loc 1 491 34 is_stmt 0 view .LVU266
 1000 0052 0023     		movs	r3, #0
 1001 0054 0393     		str	r3, [sp, #12]
 492:../Drivers/ISP/isp/Src/isp_services.c ****       case ISP_DEMOS_TYPE_GRBG:
 1002              		.loc 1 492 9 is_stmt 1 view .LVU267
 1003              	.L93:
 510:../Drivers/ISP/isp/Src/isp_services.c ****     rawBayerCfg.VLineStrength = (uint32_t) pConfig->lineV;
 1004              		.loc 1 510 5 view .LVU268
 510:../Drivers/ISP/isp/Src/isp_services.c ****     rawBayerCfg.VLineStrength = (uint32_t) pConfig->lineV;
 1005              		.loc 1 510 50 is_stmt 0 view .LVU269
 1006 0056 8B78     		ldrb	r3, [r1, #2]	@ zero_extendqisi2
 510:../Drivers/ISP/isp/Src/isp_services.c ****     rawBayerCfg.VLineStrength = (uint32_t) pConfig->lineV;
 1007              		.loc 1 510 30 view .LVU270
 1008 0058 0493     		str	r3, [sp, #16]
 511:../Drivers/ISP/isp/Src/isp_services.c ****     rawBayerCfg.HLineStrength = (uint32_t) pConfig->lineH;
 1009              		.loc 1 511 5 is_stmt 1 view .LVU271
 511:../Drivers/ISP/isp/Src/isp_services.c ****     rawBayerCfg.HLineStrength = (uint32_t) pConfig->lineH;
 1010              		.loc 1 511 51 is_stmt 0 view .LVU272
 1011 005a CB78     		ldrb	r3, [r1, #3]	@ zero_extendqisi2
 511:../Drivers/ISP/isp/Src/isp_services.c ****     rawBayerCfg.HLineStrength = (uint32_t) pConfig->lineH;
 1012              		.loc 1 511 31 view .LVU273
 1013 005c 0193     		str	r3, [sp, #4]
 512:../Drivers/ISP/isp/Src/isp_services.c ****     rawBayerCfg.EdgeStrength = (uint32_t) pConfig->edge;
 1014              		.loc 1 512 5 is_stmt 1 view .LVU274
 512:../Drivers/ISP/isp/Src/isp_services.c ****     rawBayerCfg.EdgeStrength = (uint32_t) pConfig->edge;
 1015              		.loc 1 512 51 is_stmt 0 view .LVU275
 1016 005e 0B79     		ldrb	r3, [r1, #4]	@ zero_extendqisi2
 512:../Drivers/ISP/isp/Src/isp_services.c ****     rawBayerCfg.EdgeStrength = (uint32_t) pConfig->edge;
 1017              		.loc 1 512 31 view .LVU276
 1018 0060 0293     		str	r3, [sp, #8]
 513:../Drivers/ISP/isp/Src/isp_services.c ****     halStatus = HAL_DCMIPP_PIPE_SetISPRawBayer2RGBConfig(hIsp->hDcmipp, DCMIPP_PIPE1, &rawBayerCfg)
 1019              		.loc 1 513 5 is_stmt 1 view .LVU277
 513:../Drivers/ISP/isp/Src/isp_services.c ****     halStatus = HAL_DCMIPP_PIPE_SetISPRawBayer2RGBConfig(hIsp->hDcmipp, DCMIPP_PIPE1, &rawBayerCfg)
 1020              		.loc 1 513 50 is_stmt 0 view .LVU278
 1021 0062 4B79     		ldrb	r3, [r1, #5]	@ zero_extendqisi2
 513:../Drivers/ISP/isp/Src/isp_services.c ****     halStatus = HAL_DCMIPP_PIPE_SetISPRawBayer2RGBConfig(hIsp->hDcmipp, DCMIPP_PIPE1, &rawBayerCfg)
 1022              		.loc 1 513 30 view .LVU279
 1023 0064 0593     		str	r3, [sp, #20]
 514:../Drivers/ISP/isp/Src/isp_services.c **** 
 1024              		.loc 1 514 5 is_stmt 1 view .LVU280
 514:../Drivers/ISP/isp/Src/isp_services.c **** 
 1025              		.loc 1 514 17 is_stmt 0 view .LVU281
 1026 0066 01AA     		add	r2, sp, #4
 1027 0068 0121     		movs	r1, #1
 1028              	.LVL85:
 514:../Drivers/ISP/isp/Src/isp_services.c **** 
 1029              		.loc 1 514 17 view .LVU282
 1030 006a 2068     		ldr	r0, [r4]
 1031              	.LVL86:
 514:../Drivers/ISP/isp/Src/isp_services.c **** 
 1032              		.loc 1 514 17 view .LVU283
 1033 006c FFF7FEFF 		bl	HAL_DCMIPP_PIPE_SetISPRawBayer2RGBConfig
 1034              	.LVL87:
 516:../Drivers/ISP/isp/Src/isp_services.c ****     {
 1035              		.loc 1 516 5 is_stmt 1 view .LVU284
 516:../Drivers/ISP/isp/Src/isp_services.c ****     {
ARM GAS  /tmp/ccAu1Zkx.s 			page 30


 1036              		.loc 1 516 8 is_stmt 0 view .LVU285
 1037 0070 80B9     		cbnz	r0, .L99
 518:../Drivers/ISP/isp/Src/isp_services.c ****     }
 1038              		.loc 1 518 7 is_stmt 1 view .LVU286
 518:../Drivers/ISP/isp/Src/isp_services.c ****     }
 1039              		.loc 1 518 19 is_stmt 0 view .LVU287
 1040 0072 0121     		movs	r1, #1
 1041 0074 2068     		ldr	r0, [r4]
 1042              	.LVL88:
 518:../Drivers/ISP/isp/Src/isp_services.c ****     }
 1043              		.loc 1 518 19 view .LVU288
 1044 0076 FFF7FEFF 		bl	HAL_DCMIPP_PIPE_EnableISPRawBayer2RGB
 1045              	.LVL89:
 1046 007a E6E7     		b	.L91
 1047              	.LVL90:
 1048              	.L97:
 494:../Drivers/ISP/isp/Src/isp_services.c ****         break;
 1049              		.loc 1 494 9 is_stmt 1 view .LVU289
 494:../Drivers/ISP/isp/Src/isp_services.c ****         break;
 1050              		.loc 1 494 34 is_stmt 0 view .LVU290
 1051 007c 0223     		movs	r3, #2
 1052 007e 0393     		str	r3, [sp, #12]
 495:../Drivers/ISP/isp/Src/isp_services.c ****       case ISP_DEMOS_TYPE_GBRG:
 1053              		.loc 1 495 9 is_stmt 1 view .LVU291
 1054 0080 E9E7     		b	.L93
 1055              	.L96:
 497:../Drivers/ISP/isp/Src/isp_services.c ****         break;
 1056              		.loc 1 497 9 view .LVU292
 497:../Drivers/ISP/isp/Src/isp_services.c ****         break;
 1057              		.loc 1 497 34 is_stmt 0 view .LVU293
 1058 0082 0423     		movs	r3, #4
 1059 0084 0393     		str	r3, [sp, #12]
 498:../Drivers/ISP/isp/Src/isp_services.c ****       case ISP_DEMOS_TYPE_BGGR:
 1060              		.loc 1 498 9 is_stmt 1 view .LVU294
 1061 0086 E6E7     		b	.L93
 1062              	.L95:
 500:../Drivers/ISP/isp/Src/isp_services.c ****         break;
 1063              		.loc 1 500 9 view .LVU295
 500:../Drivers/ISP/isp/Src/isp_services.c ****         break;
 1064              		.loc 1 500 34 is_stmt 0 view .LVU296
 1065 0088 0623     		movs	r3, #6
 1066 008a 0393     		str	r3, [sp, #12]
 501:../Drivers/ISP/isp/Src/isp_services.c ****       case ISP_DEMOS_TYPE_MONO:
 1067              		.loc 1 501 9 is_stmt 1 view .LVU297
 1068 008c E3E7     		b	.L93
 1069              	.L92:
 506:../Drivers/ISP/isp/Src/isp_services.c ****         break;
 1070              		.loc 1 506 9 view .LVU298
 506:../Drivers/ISP/isp/Src/isp_services.c ****         break;
 1071              		.loc 1 506 34 is_stmt 0 view .LVU299
 1072 008e 0023     		movs	r3, #0
 1073 0090 0393     		str	r3, [sp, #12]
 507:../Drivers/ISP/isp/Src/isp_services.c ****     }
 1074              		.loc 1 507 9 is_stmt 1 view .LVU300
 1075 0092 E0E7     		b	.L93
 1076              	.LVL91:
 1077              	.L99:
ARM GAS  /tmp/ccAu1Zkx.s 			page 31


 524:../Drivers/ISP/isp/Src/isp_services.c ****   }
 1078              		.loc 1 524 12 is_stmt 0 view .LVU301
 1079 0094 0B20     		movs	r0, #11
 1080              	.LVL92:
 524:../Drivers/ISP/isp/Src/isp_services.c ****   }
 1081              		.loc 1 524 12 view .LVU302
 1082 0096 D2E7     		b	.L88
 1083              	.LVL93:
 1084              	.L103:
 1085              	.LCFI10:
 1086              		.cfi_def_cfa_offset 0
 1087              		.cfi_restore 4
 1088              		.cfi_restore 14
 478:../Drivers/ISP/isp/Src/isp_services.c ****   }
 1089              		.loc 1 478 12 view .LVU303
 1090 0098 0A20     		movs	r0, #10
 1091              	.LVL94:
 1092              		.loc 1 528 1 view .LVU304
 1093 009a 7047     		bx	lr
 1094              		.cfi_endproc
 1095              	.LFE896:
 1097              		.section	.text.ISP_SVC_ISP_SetStatRemoval,"ax",%progbits
 1098              		.align	1
 1099              		.global	ISP_SVC_ISP_SetStatRemoval
 1100              		.syntax unified
 1101              		.thumb
 1102              		.thumb_func
 1104              	ISP_SVC_ISP_SetStatRemoval:
 1105              	.LVL95:
 1106              	.LFB897:
 529:../Drivers/ISP/isp/Src/isp_services.c **** 
 530:../Drivers/ISP/isp/Src/isp_services.c **** /**
 531:../Drivers/ISP/isp/Src/isp_services.c ****   * @brief  ISP_SVC_ISP_SetStatRemoval
 532:../Drivers/ISP/isp/Src/isp_services.c ****   *         Set the ISP Stat Removal configuration
 533:../Drivers/ISP/isp/Src/isp_services.c ****   * @param  hIsp: ISP device handle
 534:../Drivers/ISP/isp/Src/isp_services.c ****   * @param  pConfig: Pointer to the Stat Removal configuration
 535:../Drivers/ISP/isp/Src/isp_services.c ****   * @retval operation result
 536:../Drivers/ISP/isp/Src/isp_services.c ****   */
 537:../Drivers/ISP/isp/Src/isp_services.c **** ISP_StatusTypeDef ISP_SVC_ISP_SetStatRemoval(ISP_HandleTypeDef *hIsp, ISP_StatRemovalTypeDef *pConf
 538:../Drivers/ISP/isp/Src/isp_services.c **** {
 1107              		.loc 1 538 1 is_stmt 1 view -0
 1108              		.cfi_startproc
 1109              		@ args = 0, pretend = 0, frame = 0
 1110              		@ frame_needed = 0, uses_anonymous_args = 0
 539:../Drivers/ISP/isp/Src/isp_services.c ****   HAL_StatusTypeDef halStatus;
 1111              		.loc 1 539 3 view .LVU306
 540:../Drivers/ISP/isp/Src/isp_services.c **** 
 541:../Drivers/ISP/isp/Src/isp_services.c ****   if ((hIsp == NULL) || (pConfig == NULL) ||
 1112              		.loc 1 541 3 view .LVU307
 1113              		.loc 1 541 6 is_stmt 0 view .LVU308
 1114 0000 08B3     		cbz	r0, .L115
 538:../Drivers/ISP/isp/Src/isp_services.c ****   HAL_StatusTypeDef halStatus;
 1115              		.loc 1 538 1 view .LVU309
 1116 0002 10B5     		push	{r4, lr}
 1117              	.LCFI11:
 1118              		.cfi_def_cfa_offset 8
 1119              		.cfi_offset 4, -8
ARM GAS  /tmp/ccAu1Zkx.s 			page 32


 1120              		.cfi_offset 14, -4
 1121 0004 0446     		mov	r4, r0
 1122              		.loc 1 541 22 discriminator 1 view .LVU310
 1123 0006 81B1     		cbz	r1, .L107
 542:../Drivers/ISP/isp/Src/isp_services.c ****       (pConfig->nbHeadLines > ISP_STATREMOVAL_HEADLINES_MAX) || (pConfig->nbValidLines > ISP_STATRE
 1124              		.loc 1 542 15 view .LVU311
 1125 0008 4A68     		ldr	r2, [r1, #4]
 541:../Drivers/ISP/isp/Src/isp_services.c ****       (pConfig->nbHeadLines > ISP_STATREMOVAL_HEADLINES_MAX) || (pConfig->nbValidLines > ISP_STATRE
 1126              		.loc 1 541 43 discriminator 2 view .LVU312
 1127 000a 072A     		cmp	r2, #7
 1128 000c 0DD8     		bhi	.L107
 1129              		.loc 1 542 73 discriminator 1 view .LVU313
 1130 000e 8B68     		ldr	r3, [r1, #8]
 1131              		.loc 1 542 62 discriminator 1 view .LVU314
 1132 0010 40F6FE70 		movw	r0, #4094
 1133              	.LVL96:
 1134              		.loc 1 542 62 discriminator 1 view .LVU315
 1135 0014 8342     		cmp	r3, r0
 1136 0016 08D8     		bhi	.L107
 543:../Drivers/ISP/isp/Src/isp_services.c ****   {
 544:../Drivers/ISP/isp/Src/isp_services.c ****     return ISP_ERR_STATREMOVAL_EINVAL;
 545:../Drivers/ISP/isp/Src/isp_services.c ****   }
 546:../Drivers/ISP/isp/Src/isp_services.c **** 
 547:../Drivers/ISP/isp/Src/isp_services.c ****   if (pConfig->enable == 0)
 1137              		.loc 1 547 3 is_stmt 1 view .LVU316
 1138              		.loc 1 547 14 is_stmt 0 view .LVU317
 1139 0018 0978     		ldrb	r1, [r1]	@ zero_extendqisi2
 1140              	.LVL97:
 1141              		.loc 1 547 6 view .LVU318
 1142 001a 41B9     		cbnz	r1, .L110
 548:../Drivers/ISP/isp/Src/isp_services.c ****   {
 549:../Drivers/ISP/isp/Src/isp_services.c ****     halStatus = HAL_DCMIPP_PIPE_DisableISPRemovalStatistic(hIsp->hDcmipp, DCMIPP_PIPE1);
 1143              		.loc 1 549 5 is_stmt 1 view .LVU319
 1144              		.loc 1 549 17 is_stmt 0 view .LVU320
 1145 001c 0121     		movs	r1, #1
 1146 001e 2068     		ldr	r0, [r4]
 1147 0020 FFF7FEFF 		bl	HAL_DCMIPP_PIPE_DisableISPRemovalStatistic
 1148              	.LVL98:
 1149              	.L111:
 550:../Drivers/ISP/isp/Src/isp_services.c ****   }
 551:../Drivers/ISP/isp/Src/isp_services.c ****   else
 552:../Drivers/ISP/isp/Src/isp_services.c ****   {
 553:../Drivers/ISP/isp/Src/isp_services.c ****     halStatus = HAL_DCMIPP_PIPE_SetISPRemovalStatisticConfig(hIsp->hDcmipp, DCMIPP_PIPE1, pConfig->
 554:../Drivers/ISP/isp/Src/isp_services.c **** 
 555:../Drivers/ISP/isp/Src/isp_services.c ****     if (halStatus == HAL_OK)
 556:../Drivers/ISP/isp/Src/isp_services.c ****     {
 557:../Drivers/ISP/isp/Src/isp_services.c ****       halStatus = HAL_DCMIPP_PIPE_EnableISPRemovalStatistic(hIsp->hDcmipp, DCMIPP_PIPE1);
 558:../Drivers/ISP/isp/Src/isp_services.c ****     }
 559:../Drivers/ISP/isp/Src/isp_services.c ****   }
 560:../Drivers/ISP/isp/Src/isp_services.c **** 
 561:../Drivers/ISP/isp/Src/isp_services.c ****   if (halStatus != HAL_OK)
 1150              		.loc 1 561 3 is_stmt 1 view .LVU321
 1151              		.loc 1 561 6 is_stmt 0 view .LVU322
 1152 0024 10B1     		cbz	r0, .L109
 562:../Drivers/ISP/isp/Src/isp_services.c ****   {
 563:../Drivers/ISP/isp/Src/isp_services.c ****     return ISP_ERR_STATREMOVAL_HAL;
 1153              		.loc 1 563 12 view .LVU323
ARM GAS  /tmp/ccAu1Zkx.s 			page 33


 1154 0026 1520     		movs	r0, #21
 1155              	.LVL99:
 1156              		.loc 1 563 12 view .LVU324
 1157 0028 00E0     		b	.L109
 1158              	.LVL100:
 1159              	.L107:
 544:../Drivers/ISP/isp/Src/isp_services.c ****   }
 1160              		.loc 1 544 12 view .LVU325
 1161 002a 1420     		movs	r0, #20
 1162              	.LVL101:
 1163              	.L109:
 564:../Drivers/ISP/isp/Src/isp_services.c ****   }
 565:../Drivers/ISP/isp/Src/isp_services.c **** 
 566:../Drivers/ISP/isp/Src/isp_services.c ****   return ISP_OK;
 567:../Drivers/ISP/isp/Src/isp_services.c **** }
 1164              		.loc 1 567 1 view .LVU326
 1165 002c 10BD     		pop	{r4, pc}
 1166              	.LVL102:
 1167              	.L110:
 553:../Drivers/ISP/isp/Src/isp_services.c **** 
 1168              		.loc 1 553 5 is_stmt 1 view .LVU327
 553:../Drivers/ISP/isp/Src/isp_services.c **** 
 1169              		.loc 1 553 17 is_stmt 0 view .LVU328
 1170 002e 0121     		movs	r1, #1
 1171 0030 2068     		ldr	r0, [r4]
 1172 0032 FFF7FEFF 		bl	HAL_DCMIPP_PIPE_SetISPRemovalStatisticConfig
 1173              	.LVL103:
 555:../Drivers/ISP/isp/Src/isp_services.c ****     {
 1174              		.loc 1 555 5 is_stmt 1 view .LVU329
 555:../Drivers/ISP/isp/Src/isp_services.c ****     {
 1175              		.loc 1 555 8 is_stmt 0 view .LVU330
 1176 0036 20B9     		cbnz	r0, .L112
 557:../Drivers/ISP/isp/Src/isp_services.c ****     }
 1177              		.loc 1 557 7 is_stmt 1 view .LVU331
 557:../Drivers/ISP/isp/Src/isp_services.c ****     }
 1178              		.loc 1 557 19 is_stmt 0 view .LVU332
 1179 0038 0121     		movs	r1, #1
 1180 003a 2068     		ldr	r0, [r4]
 1181              	.LVL104:
 557:../Drivers/ISP/isp/Src/isp_services.c ****     }
 1182              		.loc 1 557 19 view .LVU333
 1183 003c FFF7FEFF 		bl	HAL_DCMIPP_PIPE_EnableISPRemovalStatistic
 1184              	.LVL105:
 1185 0040 F0E7     		b	.L111
 1186              	.LVL106:
 1187              	.L112:
 563:../Drivers/ISP/isp/Src/isp_services.c ****   }
 1188              		.loc 1 563 12 view .LVU334
 1189 0042 1520     		movs	r0, #21
 1190              	.LVL107:
 563:../Drivers/ISP/isp/Src/isp_services.c ****   }
 1191              		.loc 1 563 12 view .LVU335
 1192 0044 F2E7     		b	.L109
 1193              	.LVL108:
 1194              	.L115:
 1195              	.LCFI12:
 1196              		.cfi_def_cfa_offset 0
ARM GAS  /tmp/ccAu1Zkx.s 			page 34


 1197              		.cfi_restore 4
 1198              		.cfi_restore 14
 544:../Drivers/ISP/isp/Src/isp_services.c ****   }
 1199              		.loc 1 544 12 view .LVU336
 1200 0046 1420     		movs	r0, #20
 1201              	.LVL109:
 1202              		.loc 1 567 1 view .LVU337
 1203 0048 7047     		bx	lr
 1204              		.cfi_endproc
 1205              	.LFE897:
 1207              		.section	.text.ISP_SVC_ISP_SetDecimation,"ax",%progbits
 1208              		.align	1
 1209              		.global	ISP_SVC_ISP_SetDecimation
 1210              		.syntax unified
 1211              		.thumb
 1212              		.thumb_func
 1214              	ISP_SVC_ISP_SetDecimation:
 1215              	.LVL110:
 1216              	.LFB898:
 568:../Drivers/ISP/isp/Src/isp_services.c **** 
 569:../Drivers/ISP/isp/Src/isp_services.c **** /**
 570:../Drivers/ISP/isp/Src/isp_services.c ****   * @brief  ISP_SVC_ISP_SetDecimation
 571:../Drivers/ISP/isp/Src/isp_services.c ****   *         Set the ISP Decimation configuration
 572:../Drivers/ISP/isp/Src/isp_services.c ****   * @param  hIsp: ISP device handle
 573:../Drivers/ISP/isp/Src/isp_services.c ****   * @param  pConfig: Pointer to the decimation configuration
 574:../Drivers/ISP/isp/Src/isp_services.c ****   * @retval operation result
 575:../Drivers/ISP/isp/Src/isp_services.c ****   */
 576:../Drivers/ISP/isp/Src/isp_services.c **** ISP_StatusTypeDef ISP_SVC_ISP_SetDecimation(ISP_HandleTypeDef *hIsp, ISP_DecimationTypeDef *pConfig
 577:../Drivers/ISP/isp/Src/isp_services.c **** {
 1217              		.loc 1 577 1 is_stmt 1 view -0
 1218              		.cfi_startproc
 1219              		@ args = 0, pretend = 0, frame = 8
 1220              		@ frame_needed = 0, uses_anonymous_args = 0
 578:../Drivers/ISP/isp/Src/isp_services.c ****   DCMIPP_DecimationConfTypeDef decimationCfg;
 1221              		.loc 1 578 3 view .LVU339
 579:../Drivers/ISP/isp/Src/isp_services.c ****   ISP_StatusTypeDef ret = ISP_OK;
 1222              		.loc 1 579 3 view .LVU340
 580:../Drivers/ISP/isp/Src/isp_services.c **** 
 581:../Drivers/ISP/isp/Src/isp_services.c ****   /* Check handles validity */
 582:../Drivers/ISP/isp/Src/isp_services.c ****   if ((hIsp == NULL) || (pConfig == NULL))
 1223              		.loc 1 582 3 view .LVU341
 1224              		.loc 1 582 6 is_stmt 0 view .LVU342
 1225 0000 0028     		cmp	r0, #0
 1226 0002 34D0     		beq	.L132
 577:../Drivers/ISP/isp/Src/isp_services.c ****   DCMIPP_DecimationConfTypeDef decimationCfg;
 1227              		.loc 1 577 1 view .LVU343
 1228 0004 30B5     		push	{r4, r5, lr}
 1229              	.LCFI13:
 1230              		.cfi_def_cfa_offset 12
 1231              		.cfi_offset 4, -12
 1232              		.cfi_offset 5, -8
 1233              		.cfi_offset 14, -4
 1234 0006 83B0     		sub	sp, sp, #12
 1235              	.LCFI14:
 1236              		.cfi_def_cfa_offset 24
 1237 0008 0C46     		mov	r4, r1
 1238 000a 0546     		mov	r5, r0
ARM GAS  /tmp/ccAu1Zkx.s 			page 35


 1239              		.loc 1 582 22 discriminator 1 view .LVU344
 1240 000c 49B1     		cbz	r1, .L119
 583:../Drivers/ISP/isp/Src/isp_services.c ****   {
 584:../Drivers/ISP/isp/Src/isp_services.c ****     return ISP_ERR_DECIMATION_EINVAL;
 585:../Drivers/ISP/isp/Src/isp_services.c ****   }
 586:../Drivers/ISP/isp/Src/isp_services.c **** 
 587:../Drivers/ISP/isp/Src/isp_services.c ****   switch (pConfig->factor)
 1241              		.loc 1 587 3 is_stmt 1 view .LVU345
 1242              		.loc 1 587 18 is_stmt 0 view .LVU346
 1243 000e 0B78     		ldrb	r3, [r1]	@ zero_extendqisi2
 1244              		.loc 1 587 3 view .LVU347
 1245 0010 013B     		subs	r3, r3, #1
 1246 0012 072B     		cmp	r3, #7
 1247 0014 05D8     		bhi	.L119
 1248 0016 DFE803F0 		tbb	[pc, r3]
 1249              	.L123:
 1250 001a 07       		.byte	(.L126-.L123)/2
 1251 001b 19       		.byte	(.L125-.L123)/2
 1252 001c 04       		.byte	(.L119-.L123)/2
 1253 001d 1E       		.byte	(.L124-.L123)/2
 1254 001e 04       		.byte	(.L119-.L123)/2
 1255 001f 04       		.byte	(.L119-.L123)/2
 1256 0020 04       		.byte	(.L119-.L123)/2
 1257 0021 23       		.byte	(.L122-.L123)/2
 1258              		.p2align 1
 1259              	.L119:
 584:../Drivers/ISP/isp/Src/isp_services.c ****   }
 1260              		.loc 1 584 12 view .LVU348
 1261 0022 1E20     		movs	r0, #30
 1262              	.LVL111:
 1263              	.L121:
 588:../Drivers/ISP/isp/Src/isp_services.c ****   {
 589:../Drivers/ISP/isp/Src/isp_services.c ****   case ISP_DECIM_FACTOR_1:
 590:../Drivers/ISP/isp/Src/isp_services.c ****     decimationCfg.VRatio = DCMIPP_VDEC_ALL;
 591:../Drivers/ISP/isp/Src/isp_services.c ****     decimationCfg.HRatio = DCMIPP_HDEC_ALL;
 592:../Drivers/ISP/isp/Src/isp_services.c ****     break;
 593:../Drivers/ISP/isp/Src/isp_services.c **** 
 594:../Drivers/ISP/isp/Src/isp_services.c ****   case ISP_DECIM_FACTOR_2:
 595:../Drivers/ISP/isp/Src/isp_services.c ****     decimationCfg.VRatio = DCMIPP_VDEC_1_OUT_2;
 596:../Drivers/ISP/isp/Src/isp_services.c ****     decimationCfg.HRatio = DCMIPP_HDEC_1_OUT_2;
 597:../Drivers/ISP/isp/Src/isp_services.c ****     break;
 598:../Drivers/ISP/isp/Src/isp_services.c **** 
 599:../Drivers/ISP/isp/Src/isp_services.c ****   case ISP_DECIM_FACTOR_4:
 600:../Drivers/ISP/isp/Src/isp_services.c ****     decimationCfg.VRatio = DCMIPP_VDEC_1_OUT_4;
 601:../Drivers/ISP/isp/Src/isp_services.c ****     decimationCfg.HRatio = DCMIPP_HDEC_1_OUT_4;
 602:../Drivers/ISP/isp/Src/isp_services.c ****     break;
 603:../Drivers/ISP/isp/Src/isp_services.c **** 
 604:../Drivers/ISP/isp/Src/isp_services.c ****   case ISP_DECIM_FACTOR_8:
 605:../Drivers/ISP/isp/Src/isp_services.c ****     decimationCfg.VRatio = DCMIPP_VDEC_1_OUT_8;
 606:../Drivers/ISP/isp/Src/isp_services.c ****     decimationCfg.HRatio = DCMIPP_HDEC_1_OUT_8;
 607:../Drivers/ISP/isp/Src/isp_services.c ****     break;
 608:../Drivers/ISP/isp/Src/isp_services.c **** 
 609:../Drivers/ISP/isp/Src/isp_services.c ****   default:
 610:../Drivers/ISP/isp/Src/isp_services.c ****     return ISP_ERR_DECIMATION_EINVAL;
 611:../Drivers/ISP/isp/Src/isp_services.c ****   }
 612:../Drivers/ISP/isp/Src/isp_services.c **** 
 613:../Drivers/ISP/isp/Src/isp_services.c ****   if (HAL_DCMIPP_PIPE_SetISPDecimationConfig(hIsp->hDcmipp, DCMIPP_PIPE1, &decimationCfg) != HAL_OK
ARM GAS  /tmp/ccAu1Zkx.s 			page 36


 614:../Drivers/ISP/isp/Src/isp_services.c ****   {
 615:../Drivers/ISP/isp/Src/isp_services.c ****     return ISP_ERR_DECIMATION_HAL;
 616:../Drivers/ISP/isp/Src/isp_services.c ****   }
 617:../Drivers/ISP/isp/Src/isp_services.c **** 
 618:../Drivers/ISP/isp/Src/isp_services.c ****   if (HAL_DCMIPP_PIPE_EnableISPDecimation(hIsp->hDcmipp, DCMIPP_PIPE1) != HAL_OK)
 619:../Drivers/ISP/isp/Src/isp_services.c ****   {
 620:../Drivers/ISP/isp/Src/isp_services.c ****     return ISP_ERR_DECIMATION_HAL;
 621:../Drivers/ISP/isp/Src/isp_services.c ****   }
 622:../Drivers/ISP/isp/Src/isp_services.c **** 
 623:../Drivers/ISP/isp/Src/isp_services.c ****   /* Save decimation value */
 624:../Drivers/ISP/isp/Src/isp_services.c ****   ISP_DecimationValue.factor = pConfig->factor;
 625:../Drivers/ISP/isp/Src/isp_services.c **** 
 626:../Drivers/ISP/isp/Src/isp_services.c ****   return ret;
 627:../Drivers/ISP/isp/Src/isp_services.c **** }
 1264              		.loc 1 627 1 view .LVU349
 1265 0024 03B0     		add	sp, sp, #12
 1266              	.LCFI15:
 1267              		.cfi_remember_state
 1268              		.cfi_def_cfa_offset 12
 1269              		@ sp needed
 1270 0026 30BD     		pop	{r4, r5, pc}
 1271              	.LVL112:
 1272              	.L126:
 1273              	.LCFI16:
 1274              		.cfi_restore_state
 590:../Drivers/ISP/isp/Src/isp_services.c ****     decimationCfg.HRatio = DCMIPP_HDEC_ALL;
 1275              		.loc 1 590 5 is_stmt 1 view .LVU350
 590:../Drivers/ISP/isp/Src/isp_services.c ****     decimationCfg.HRatio = DCMIPP_HDEC_ALL;
 1276              		.loc 1 590 26 is_stmt 0 view .LVU351
 1277 0028 0023     		movs	r3, #0
 1278 002a 0093     		str	r3, [sp]
 591:../Drivers/ISP/isp/Src/isp_services.c ****     break;
 1279              		.loc 1 591 5 is_stmt 1 view .LVU352
 591:../Drivers/ISP/isp/Src/isp_services.c ****     break;
 1280              		.loc 1 591 26 is_stmt 0 view .LVU353
 1281 002c 0193     		str	r3, [sp, #4]
 592:../Drivers/ISP/isp/Src/isp_services.c **** 
 1282              		.loc 1 592 5 is_stmt 1 view .LVU354
 1283              	.L127:
 613:../Drivers/ISP/isp/Src/isp_services.c ****   {
 1284              		.loc 1 613 3 view .LVU355
 613:../Drivers/ISP/isp/Src/isp_services.c ****   {
 1285              		.loc 1 613 7 is_stmt 0 view .LVU356
 1286 002e 6A46     		mov	r2, sp
 1287 0030 0121     		movs	r1, #1
 1288              	.LVL113:
 613:../Drivers/ISP/isp/Src/isp_services.c ****   {
 1289              		.loc 1 613 7 view .LVU357
 1290 0032 2868     		ldr	r0, [r5]
 1291              	.LVL114:
 613:../Drivers/ISP/isp/Src/isp_services.c ****   {
 1292              		.loc 1 613 7 view .LVU358
 1293 0034 FFF7FEFF 		bl	HAL_DCMIPP_PIPE_SetISPDecimationConfig
 1294              	.LVL115:
 613:../Drivers/ISP/isp/Src/isp_services.c ****   {
 1295              		.loc 1 613 6 discriminator 1 view .LVU359
 1296 0038 B8B9     		cbnz	r0, .L129
ARM GAS  /tmp/ccAu1Zkx.s 			page 37


 618:../Drivers/ISP/isp/Src/isp_services.c ****   {
 1297              		.loc 1 618 3 is_stmt 1 view .LVU360
 618:../Drivers/ISP/isp/Src/isp_services.c ****   {
 1298              		.loc 1 618 7 is_stmt 0 view .LVU361
 1299 003a 0121     		movs	r1, #1
 1300 003c 2868     		ldr	r0, [r5]
 1301 003e FFF7FEFF 		bl	HAL_DCMIPP_PIPE_EnableISPDecimation
 1302              	.LVL116:
 618:../Drivers/ISP/isp/Src/isp_services.c ****   {
 1303              		.loc 1 618 6 discriminator 1 view .LVU362
 1304 0042 90B9     		cbnz	r0, .L129
 624:../Drivers/ISP/isp/Src/isp_services.c **** 
 1305              		.loc 1 624 3 is_stmt 1 view .LVU363
 624:../Drivers/ISP/isp/Src/isp_services.c **** 
 1306              		.loc 1 624 39 is_stmt 0 view .LVU364
 1307 0044 2278     		ldrb	r2, [r4]	@ zero_extendqisi2
 624:../Drivers/ISP/isp/Src/isp_services.c **** 
 1308              		.loc 1 624 30 view .LVU365
 1309 0046 0B4B     		ldr	r3, .L135
 1310 0048 1A70     		strb	r2, [r3]
 626:../Drivers/ISP/isp/Src/isp_services.c **** }
 1311              		.loc 1 626 3 is_stmt 1 view .LVU366
 626:../Drivers/ISP/isp/Src/isp_services.c **** }
 1312              		.loc 1 626 10 is_stmt 0 view .LVU367
 1313 004a EBE7     		b	.L121
 1314              	.LVL117:
 1315              	.L125:
 595:../Drivers/ISP/isp/Src/isp_services.c ****     decimationCfg.HRatio = DCMIPP_HDEC_1_OUT_2;
 1316              		.loc 1 595 5 is_stmt 1 view .LVU368
 595:../Drivers/ISP/isp/Src/isp_services.c ****     decimationCfg.HRatio = DCMIPP_HDEC_1_OUT_2;
 1317              		.loc 1 595 26 is_stmt 0 view .LVU369
 1318 004c 0823     		movs	r3, #8
 1319 004e 0093     		str	r3, [sp]
 596:../Drivers/ISP/isp/Src/isp_services.c ****     break;
 1320              		.loc 1 596 5 is_stmt 1 view .LVU370
 596:../Drivers/ISP/isp/Src/isp_services.c ****     break;
 1321              		.loc 1 596 26 is_stmt 0 view .LVU371
 1322 0050 0223     		movs	r3, #2
 1323 0052 0193     		str	r3, [sp, #4]
 597:../Drivers/ISP/isp/Src/isp_services.c **** 
 1324              		.loc 1 597 5 is_stmt 1 view .LVU372
 1325 0054 EBE7     		b	.L127
 1326              	.L124:
 600:../Drivers/ISP/isp/Src/isp_services.c ****     decimationCfg.HRatio = DCMIPP_HDEC_1_OUT_4;
 1327              		.loc 1 600 5 view .LVU373
 600:../Drivers/ISP/isp/Src/isp_services.c ****     decimationCfg.HRatio = DCMIPP_HDEC_1_OUT_4;
 1328              		.loc 1 600 26 is_stmt 0 view .LVU374
 1329 0056 1023     		movs	r3, #16
 1330 0058 0093     		str	r3, [sp]
 601:../Drivers/ISP/isp/Src/isp_services.c ****     break;
 1331              		.loc 1 601 5 is_stmt 1 view .LVU375
 601:../Drivers/ISP/isp/Src/isp_services.c ****     break;
 1332              		.loc 1 601 26 is_stmt 0 view .LVU376
 1333 005a 0423     		movs	r3, #4
 1334 005c 0193     		str	r3, [sp, #4]
 602:../Drivers/ISP/isp/Src/isp_services.c **** 
 1335              		.loc 1 602 5 is_stmt 1 view .LVU377
ARM GAS  /tmp/ccAu1Zkx.s 			page 38


 1336 005e E6E7     		b	.L127
 1337              	.L122:
 605:../Drivers/ISP/isp/Src/isp_services.c ****     decimationCfg.HRatio = DCMIPP_HDEC_1_OUT_8;
 1338              		.loc 1 605 5 view .LVU378
 605:../Drivers/ISP/isp/Src/isp_services.c ****     decimationCfg.HRatio = DCMIPP_HDEC_1_OUT_8;
 1339              		.loc 1 605 26 is_stmt 0 view .LVU379
 1340 0060 1823     		movs	r3, #24
 1341 0062 0093     		str	r3, [sp]
 606:../Drivers/ISP/isp/Src/isp_services.c ****     break;
 1342              		.loc 1 606 5 is_stmt 1 view .LVU380
 606:../Drivers/ISP/isp/Src/isp_services.c ****     break;
 1343              		.loc 1 606 26 is_stmt 0 view .LVU381
 1344 0064 0623     		movs	r3, #6
 1345 0066 0193     		str	r3, [sp, #4]
 607:../Drivers/ISP/isp/Src/isp_services.c **** 
 1346              		.loc 1 607 5 is_stmt 1 view .LVU382
 1347 0068 E1E7     		b	.L127
 1348              	.LVL118:
 1349              	.L129:
 615:../Drivers/ISP/isp/Src/isp_services.c ****   }
 1350              		.loc 1 615 12 is_stmt 0 view .LVU383
 1351 006a 1F20     		movs	r0, #31
 1352 006c DAE7     		b	.L121
 1353              	.LVL119:
 1354              	.L132:
 1355              	.LCFI17:
 1356              		.cfi_def_cfa_offset 0
 1357              		.cfi_restore 4
 1358              		.cfi_restore 5
 1359              		.cfi_restore 14
 584:../Drivers/ISP/isp/Src/isp_services.c ****   }
 1360              		.loc 1 584 12 view .LVU384
 1361 006e 1E20     		movs	r0, #30
 1362              	.LVL120:
 1363              		.loc 1 627 1 view .LVU385
 1364 0070 7047     		bx	lr
 1365              	.L136:
 1366 0072 00BF     		.align	2
 1367              	.L135:
 1368 0074 00000000 		.word	ISP_DecimationValue
 1369              		.cfi_endproc
 1370              	.LFE898:
 1372              		.section	.text.ISP_SVC_ISP_GetDecimation,"ax",%progbits
 1373              		.align	1
 1374              		.global	ISP_SVC_ISP_GetDecimation
 1375              		.syntax unified
 1376              		.thumb
 1377              		.thumb_func
 1379              	ISP_SVC_ISP_GetDecimation:
 1380              	.LVL121:
 1381              	.LFB899:
 628:../Drivers/ISP/isp/Src/isp_services.c **** 
 629:../Drivers/ISP/isp/Src/isp_services.c **** /**
 630:../Drivers/ISP/isp/Src/isp_services.c ****   * @brief  ISP_SVC_ISP_GetDecimation
 631:../Drivers/ISP/isp/Src/isp_services.c ****   *         Get the ISP Decimation configuration
 632:../Drivers/ISP/isp/Src/isp_services.c ****   * @param  hIsp: ISP device handle
 633:../Drivers/ISP/isp/Src/isp_services.c ****   * @param  pConfig: Pointer to the decimation configuration
ARM GAS  /tmp/ccAu1Zkx.s 			page 39


 634:../Drivers/ISP/isp/Src/isp_services.c ****   * @retval operation result
 635:../Drivers/ISP/isp/Src/isp_services.c ****   */
 636:../Drivers/ISP/isp/Src/isp_services.c **** ISP_StatusTypeDef ISP_SVC_ISP_GetDecimation(ISP_HandleTypeDef *hIsp, ISP_DecimationTypeDef *pConfig
 637:../Drivers/ISP/isp/Src/isp_services.c **** {
 1382              		.loc 1 637 1 is_stmt 1 view -0
 1383              		.cfi_startproc
 1384              		@ args = 0, pretend = 0, frame = 0
 1385              		@ frame_needed = 0, uses_anonymous_args = 0
 1386              		@ link register save eliminated.
 638:../Drivers/ISP/isp/Src/isp_services.c ****   UNUSED(hIsp);
 1387              		.loc 1 638 3 view .LVU387
 639:../Drivers/ISP/isp/Src/isp_services.c ****   pConfig->factor = ISP_DecimationValue.factor;
 1388              		.loc 1 639 3 view .LVU388
 1389              		.loc 1 639 40 is_stmt 0 view .LVU389
 1390 0000 024B     		ldr	r3, .L138
 1391 0002 1B78     		ldrb	r3, [r3]	@ zero_extendqisi2
 1392              		.loc 1 639 19 view .LVU390
 1393 0004 0B70     		strb	r3, [r1]
 640:../Drivers/ISP/isp/Src/isp_services.c **** 
 641:../Drivers/ISP/isp/Src/isp_services.c ****   return ISP_OK;
 1394              		.loc 1 641 3 is_stmt 1 view .LVU391
 642:../Drivers/ISP/isp/Src/isp_services.c **** }
 1395              		.loc 1 642 1 is_stmt 0 view .LVU392
 1396 0006 0020     		movs	r0, #0
 1397              	.LVL122:
 1398              		.loc 1 642 1 view .LVU393
 1399 0008 7047     		bx	lr
 1400              	.L139:
 1401 000a 00BF     		.align	2
 1402              	.L138:
 1403 000c 00000000 		.word	ISP_DecimationValue
 1404              		.cfi_endproc
 1405              	.LFE899:
 1407              		.section	.text.ISP_SVC_ISP_SetContrast,"ax",%progbits
 1408              		.align	1
 1409              		.global	ISP_SVC_ISP_SetContrast
 1410              		.syntax unified
 1411              		.thumb
 1412              		.thumb_func
 1414              	ISP_SVC_ISP_SetContrast:
 1415              	.LVL123:
 1416              	.LFB900:
 643:../Drivers/ISP/isp/Src/isp_services.c **** 
 644:../Drivers/ISP/isp/Src/isp_services.c **** /**
 645:../Drivers/ISP/isp/Src/isp_services.c ****   * @brief  ISP_SVC_ISP_SetContrast
 646:../Drivers/ISP/isp/Src/isp_services.c ****   *         Set the ISP Contrast luminance coefficients
 647:../Drivers/ISP/isp/Src/isp_services.c ****   * @param  hIsp: ISP device handle
 648:../Drivers/ISP/isp/Src/isp_services.c ****   * @param  pConfig: Pointer to the contrast configuration
 649:../Drivers/ISP/isp/Src/isp_services.c ****   * @retval operation result
 650:../Drivers/ISP/isp/Src/isp_services.c ****   */
 651:../Drivers/ISP/isp/Src/isp_services.c **** ISP_StatusTypeDef ISP_SVC_ISP_SetContrast(ISP_HandleTypeDef *hIsp, ISP_ContrastTypeDef *pConfig)
 652:../Drivers/ISP/isp/Src/isp_services.c **** {
 1417              		.loc 1 652 1 is_stmt 1 view -0
 1418              		.cfi_startproc
 1419              		@ args = 0, pretend = 0, frame = 16
 1420              		@ frame_needed = 0, uses_anonymous_args = 0
 653:../Drivers/ISP/isp/Src/isp_services.c ****   HAL_StatusTypeDef halStatus;
ARM GAS  /tmp/ccAu1Zkx.s 			page 40


 1421              		.loc 1 653 3 view .LVU395
 654:../Drivers/ISP/isp/Src/isp_services.c ****   DCMIPP_ContrastConfTypeDef contrast;
 1422              		.loc 1 654 3 view .LVU396
 655:../Drivers/ISP/isp/Src/isp_services.c **** 
 656:../Drivers/ISP/isp/Src/isp_services.c ****   if ((hIsp == NULL) || (pConfig == NULL) ||
 1423              		.loc 1 656 3 view .LVU397
 1424              		.loc 1 656 6 is_stmt 0 view .LVU398
 1425 0000 0028     		cmp	r0, #0
 1426 0002 00F08D80 		beq	.L149
 652:../Drivers/ISP/isp/Src/isp_services.c ****   HAL_StatusTypeDef halStatus;
 1427              		.loc 1 652 1 view .LVU399
 1428 0006 2DE9F043 		push	{r4, r5, r6, r7, r8, r9, lr}
 1429              	.LCFI18:
 1430              		.cfi_def_cfa_offset 28
 1431              		.cfi_offset 4, -28
 1432              		.cfi_offset 5, -24
 1433              		.cfi_offset 6, -20
 1434              		.cfi_offset 7, -16
 1435              		.cfi_offset 8, -12
 1436              		.cfi_offset 9, -8
 1437              		.cfi_offset 14, -4
 1438 000a 85B0     		sub	sp, sp, #20
 1439              	.LCFI19:
 1440              		.cfi_def_cfa_offset 48
 1441 000c 0546     		mov	r5, r0
 1442              		.loc 1 656 22 discriminator 1 view .LVU400
 1443 000e 91B3     		cbz	r1, .L141
 657:../Drivers/ISP/isp/Src/isp_services.c ****       (pConfig->coeff.LUM_0 > ISP_CONTRAST_LUMCOEFF_MAX) || (pConfig->coeff.LUM_32 > ISP_CONTRAST_L
 1444              		.loc 1 657 22 view .LVU401
 1445 0010 4B68     		ldr	r3, [r1, #4]
 656:../Drivers/ISP/isp/Src/isp_services.c ****       (pConfig->coeff.LUM_0 > ISP_CONTRAST_LUMCOEFF_MAX) || (pConfig->coeff.LUM_32 > ISP_CONTRAST_L
 1446              		.loc 1 656 43 discriminator 2 view .LVU402
 1447 0012 B3F5C57F 		cmp	r3, #394
 1448 0016 2ED8     		bhi	.L141
 1449              		.loc 1 657 76 discriminator 1 view .LVU403
 1450 0018 8A68     		ldr	r2, [r1, #8]
 1451              		.loc 1 657 58 discriminator 1 view .LVU404
 1452 001a B2F5C57F 		cmp	r2, #394
 1453 001e 2AD8     		bhi	.L141
 658:../Drivers/ISP/isp/Src/isp_services.c ****       (pConfig->coeff.LUM_64 > ISP_CONTRAST_LUMCOEFF_MAX) || (pConfig->coeff.LUM_96 > ISP_CONTRAST_
 1454              		.loc 1 658 22 view .LVU405
 1455 0020 C868     		ldr	r0, [r1, #12]
 1456              	.LVL124:
 657:../Drivers/ISP/isp/Src/isp_services.c ****       (pConfig->coeff.LUM_0 > ISP_CONTRAST_LUMCOEFF_MAX) || (pConfig->coeff.LUM_32 > ISP_CONTRAST_L
 1457              		.loc 1 657 113 discriminator 2 view .LVU406
 1458 0022 B0F5C57F 		cmp	r0, #394
 1459 0026 26D8     		bhi	.L141
 1460              		.loc 1 658 77 discriminator 1 view .LVU407
 1461 0028 D1F810C0 		ldr	ip, [r1, #16]
 1462              		.loc 1 658 59 discriminator 1 view .LVU408
 1463 002c BCF5C57F 		cmp	ip, #394
 1464 0030 21D8     		bhi	.L141
 659:../Drivers/ISP/isp/Src/isp_services.c ****       (pConfig->coeff.LUM_128 > ISP_CONTRAST_LUMCOEFF_MAX) || (pConfig->coeff.LUM_160 > ISP_CONTRAS
 1465              		.loc 1 659 22 view .LVU409
 1466 0032 D1F814E0 		ldr	lr, [r1, #20]
 658:../Drivers/ISP/isp/Src/isp_services.c ****       (pConfig->coeff.LUM_64 > ISP_CONTRAST_LUMCOEFF_MAX) || (pConfig->coeff.LUM_96 > ISP_CONTRAST_
 1467              		.loc 1 658 114 discriminator 2 view .LVU410
ARM GAS  /tmp/ccAu1Zkx.s 			page 41


 1468 0036 BEF5C57F 		cmp	lr, #394
 1469 003a 1CD8     		bhi	.L141
 1470              		.loc 1 659 78 discriminator 1 view .LVU411
 1471 003c 8C69     		ldr	r4, [r1, #24]
 1472 003e 2646     		mov	r6, r4
 1473              		.loc 1 659 60 discriminator 1 view .LVU412
 1474 0040 B4F5C57F 		cmp	r4, #394
 1475 0044 17D8     		bhi	.L141
 660:../Drivers/ISP/isp/Src/isp_services.c ****       (pConfig->coeff.LUM_192 > ISP_CONTRAST_LUMCOEFF_MAX) || (pConfig->coeff.LUM_224 > ISP_CONTRAS
 1476              		.loc 1 660 22 view .LVU413
 1477 0046 CC69     		ldr	r4, [r1, #28]
 1478 0048 2746     		mov	r7, r4
 659:../Drivers/ISP/isp/Src/isp_services.c ****       (pConfig->coeff.LUM_128 > ISP_CONTRAST_LUMCOEFF_MAX) || (pConfig->coeff.LUM_160 > ISP_CONTRAS
 1479              		.loc 1 659 116 discriminator 2 view .LVU414
 1480 004a B4F5C57F 		cmp	r4, #394
 1481 004e 12D8     		bhi	.L141
 1482              		.loc 1 660 78 discriminator 1 view .LVU415
 1483 0050 0C6A     		ldr	r4, [r1, #32]
 1484 0052 A046     		mov	r8, r4
 1485              		.loc 1 660 60 discriminator 1 view .LVU416
 1486 0054 B4F5C57F 		cmp	r4, #394
 1487 0058 0DD8     		bhi	.L141
 661:../Drivers/ISP/isp/Src/isp_services.c ****       (pConfig->coeff.LUM_256 > ISP_CONTRAST_LUMCOEFF_MAX))
 1488              		.loc 1 661 22 view .LVU417
 1489 005a 4C6A     		ldr	r4, [r1, #36]
 1490 005c A146     		mov	r9, r4
 660:../Drivers/ISP/isp/Src/isp_services.c ****       (pConfig->coeff.LUM_192 > ISP_CONTRAST_LUMCOEFF_MAX) || (pConfig->coeff.LUM_224 > ISP_CONTRAS
 1491              		.loc 1 660 116 discriminator 2 view .LVU418
 1492 005e B4F5C57F 		cmp	r4, #394
 1493 0062 08D8     		bhi	.L141
 662:../Drivers/ISP/isp/Src/isp_services.c ****   {
 663:../Drivers/ISP/isp/Src/isp_services.c ****     return ISP_ERR_CONTRAST_EINVAL;
 664:../Drivers/ISP/isp/Src/isp_services.c ****   }
 665:../Drivers/ISP/isp/Src/isp_services.c **** 
 666:../Drivers/ISP/isp/Src/isp_services.c ****   if (pConfig->enable == 0)
 1494              		.loc 1 666 3 is_stmt 1 view .LVU419
 1495              		.loc 1 666 14 is_stmt 0 view .LVU420
 1496 0064 0978     		ldrb	r1, [r1]	@ zero_extendqisi2
 1497              	.LVL125:
 1498              		.loc 1 666 6 view .LVU421
 1499 0066 51B9     		cbnz	r1, .L144
 667:../Drivers/ISP/isp/Src/isp_services.c ****   {
 668:../Drivers/ISP/isp/Src/isp_services.c ****     halStatus = HAL_DCMIPP_PIPE_DisableISPCtrlContrast(hIsp->hDcmipp, DCMIPP_PIPE1);
 1500              		.loc 1 668 5 is_stmt 1 view .LVU422
 1501              		.loc 1 668 17 is_stmt 0 view .LVU423
 1502 0068 0121     		movs	r1, #1
 1503 006a 2868     		ldr	r0, [r5]
 1504 006c FFF7FEFF 		bl	HAL_DCMIPP_PIPE_DisableISPCtrlContrast
 1505              	.LVL126:
 1506              	.L145:
 669:../Drivers/ISP/isp/Src/isp_services.c ****   }
 670:../Drivers/ISP/isp/Src/isp_services.c ****   else
 671:../Drivers/ISP/isp/Src/isp_services.c ****   {
 672:../Drivers/ISP/isp/Src/isp_services.c ****     /* Convert coefficient unit from "percentage" to "6 bit" */
 673:../Drivers/ISP/isp/Src/isp_services.c ****     contrast.LUM_0 = (uint8_t)((pConfig->coeff.LUM_0 * 16) / 100);
 674:../Drivers/ISP/isp/Src/isp_services.c ****     contrast.LUM_32 = (uint8_t)((pConfig->coeff.LUM_32 * 16) / 100);
 675:../Drivers/ISP/isp/Src/isp_services.c ****     contrast.LUM_64 = (uint8_t)((pConfig->coeff.LUM_64 * 16) / 100);
ARM GAS  /tmp/ccAu1Zkx.s 			page 42


 676:../Drivers/ISP/isp/Src/isp_services.c ****     contrast.LUM_96 = (uint8_t)((pConfig->coeff.LUM_96 * 16) / 100);
 677:../Drivers/ISP/isp/Src/isp_services.c ****     contrast.LUM_128 = (uint8_t)((pConfig->coeff.LUM_128 * 16) / 100);
 678:../Drivers/ISP/isp/Src/isp_services.c ****     contrast.LUM_160 = (uint8_t)((pConfig->coeff.LUM_160 * 16) / 100);
 679:../Drivers/ISP/isp/Src/isp_services.c ****     contrast.LUM_192 = (uint8_t)((pConfig->coeff.LUM_192 * 16) / 100);
 680:../Drivers/ISP/isp/Src/isp_services.c ****     contrast.LUM_224 = (uint8_t)((pConfig->coeff.LUM_224 * 16) / 100);
 681:../Drivers/ISP/isp/Src/isp_services.c ****     contrast.LUM_256 = (uint8_t)((pConfig->coeff.LUM_256 * 16) / 100);
 682:../Drivers/ISP/isp/Src/isp_services.c ****     halStatus = HAL_DCMIPP_PIPE_SetISPCtrlContrastConfig(hIsp->hDcmipp, DCMIPP_PIPE1, &contrast);
 683:../Drivers/ISP/isp/Src/isp_services.c **** 
 684:../Drivers/ISP/isp/Src/isp_services.c ****     if (halStatus == HAL_OK)
 685:../Drivers/ISP/isp/Src/isp_services.c ****     {
 686:../Drivers/ISP/isp/Src/isp_services.c ****       halStatus = HAL_DCMIPP_PIPE_EnableISPCtrlContrast(hIsp->hDcmipp, DCMIPP_PIPE1);
 687:../Drivers/ISP/isp/Src/isp_services.c ****     }
 688:../Drivers/ISP/isp/Src/isp_services.c ****   }
 689:../Drivers/ISP/isp/Src/isp_services.c **** 
 690:../Drivers/ISP/isp/Src/isp_services.c ****   if (halStatus != HAL_OK)
 1507              		.loc 1 690 3 is_stmt 1 view .LVU424
 1508              		.loc 1 690 6 is_stmt 0 view .LVU425
 1509 0070 10B1     		cbz	r0, .L143
 691:../Drivers/ISP/isp/Src/isp_services.c ****   {
 692:../Drivers/ISP/isp/Src/isp_services.c ****     return ISP_ERR_CONTRAST_HAL;
 1510              		.loc 1 692 12 view .LVU426
 1511 0072 2920     		movs	r0, #41
 1512              	.LVL127:
 1513              		.loc 1 692 12 view .LVU427
 1514 0074 00E0     		b	.L143
 1515              	.LVL128:
 1516              	.L141:
 663:../Drivers/ISP/isp/Src/isp_services.c ****   }
 1517              		.loc 1 663 12 view .LVU428
 1518 0076 2820     		movs	r0, #40
 1519              	.LVL129:
 1520              	.L143:
 693:../Drivers/ISP/isp/Src/isp_services.c ****   }
 694:../Drivers/ISP/isp/Src/isp_services.c **** 
 695:../Drivers/ISP/isp/Src/isp_services.c ****   return ISP_OK;
 696:../Drivers/ISP/isp/Src/isp_services.c **** }
 1521              		.loc 1 696 1 view .LVU429
 1522 0078 05B0     		add	sp, sp, #20
 1523              	.LCFI20:
 1524              		.cfi_remember_state
 1525              		.cfi_def_cfa_offset 28
 1526              		@ sp needed
 1527 007a BDE8F083 		pop	{r4, r5, r6, r7, r8, r9, pc}
 1528              	.LVL130:
 1529              	.L144:
 1530              	.LCFI21:
 1531              		.cfi_restore_state
 673:../Drivers/ISP/isp/Src/isp_services.c ****     contrast.LUM_32 = (uint8_t)((pConfig->coeff.LUM_32 * 16) / 100);
 1532              		.loc 1 673 5 is_stmt 1 view .LVU430
 673:../Drivers/ISP/isp/Src/isp_services.c ****     contrast.LUM_32 = (uint8_t)((pConfig->coeff.LUM_32 * 16) / 100);
 1533              		.loc 1 673 54 is_stmt 0 view .LVU431
 1534 007e 1B01     		lsls	r3, r3, #4
 673:../Drivers/ISP/isp/Src/isp_services.c ****     contrast.LUM_32 = (uint8_t)((pConfig->coeff.LUM_32 * 16) / 100);
 1535              		.loc 1 673 60 view .LVU432
 1536 0080 2849     		ldr	r1, .L152
 1537 0082 A1FB0343 		umull	r4, r3, r1, r3
 673:../Drivers/ISP/isp/Src/isp_services.c ****     contrast.LUM_32 = (uint8_t)((pConfig->coeff.LUM_32 * 16) / 100);
ARM GAS  /tmp/ccAu1Zkx.s 			page 43


 1538              		.loc 1 673 22 view .LVU433
 1539 0086 C3F34713 		ubfx	r3, r3, #5, #8
 673:../Drivers/ISP/isp/Src/isp_services.c ****     contrast.LUM_32 = (uint8_t)((pConfig->coeff.LUM_32 * 16) / 100);
 1540              		.loc 1 673 20 view .LVU434
 1541 008a 8DF80430 		strb	r3, [sp, #4]
 674:../Drivers/ISP/isp/Src/isp_services.c ****     contrast.LUM_64 = (uint8_t)((pConfig->coeff.LUM_64 * 16) / 100);
 1542              		.loc 1 674 5 is_stmt 1 view .LVU435
 674:../Drivers/ISP/isp/Src/isp_services.c ****     contrast.LUM_64 = (uint8_t)((pConfig->coeff.LUM_64 * 16) / 100);
 1543              		.loc 1 674 56 is_stmt 0 view .LVU436
 1544 008e 1301     		lsls	r3, r2, #4
 674:../Drivers/ISP/isp/Src/isp_services.c ****     contrast.LUM_64 = (uint8_t)((pConfig->coeff.LUM_64 * 16) / 100);
 1545              		.loc 1 674 62 view .LVU437
 1546 0090 A1FB0323 		umull	r2, r3, r1, r3
 674:../Drivers/ISP/isp/Src/isp_services.c ****     contrast.LUM_64 = (uint8_t)((pConfig->coeff.LUM_64 * 16) / 100);
 1547              		.loc 1 674 23 view .LVU438
 1548 0094 C3F34713 		ubfx	r3, r3, #5, #8
 674:../Drivers/ISP/isp/Src/isp_services.c ****     contrast.LUM_64 = (uint8_t)((pConfig->coeff.LUM_64 * 16) / 100);
 1549              		.loc 1 674 21 view .LVU439
 1550 0098 8DF80530 		strb	r3, [sp, #5]
 675:../Drivers/ISP/isp/Src/isp_services.c ****     contrast.LUM_96 = (uint8_t)((pConfig->coeff.LUM_96 * 16) / 100);
 1551              		.loc 1 675 5 is_stmt 1 view .LVU440
 675:../Drivers/ISP/isp/Src/isp_services.c ****     contrast.LUM_96 = (uint8_t)((pConfig->coeff.LUM_96 * 16) / 100);
 1552              		.loc 1 675 56 is_stmt 0 view .LVU441
 1553 009c 0301     		lsls	r3, r0, #4
 675:../Drivers/ISP/isp/Src/isp_services.c ****     contrast.LUM_96 = (uint8_t)((pConfig->coeff.LUM_96 * 16) / 100);
 1554              		.loc 1 675 62 view .LVU442
 1555 009e A1FB0323 		umull	r2, r3, r1, r3
 675:../Drivers/ISP/isp/Src/isp_services.c ****     contrast.LUM_96 = (uint8_t)((pConfig->coeff.LUM_96 * 16) / 100);
 1556              		.loc 1 675 23 view .LVU443
 1557 00a2 C3F34713 		ubfx	r3, r3, #5, #8
 675:../Drivers/ISP/isp/Src/isp_services.c ****     contrast.LUM_96 = (uint8_t)((pConfig->coeff.LUM_96 * 16) / 100);
 1558              		.loc 1 675 21 view .LVU444
 1559 00a6 8DF80630 		strb	r3, [sp, #6]
 676:../Drivers/ISP/isp/Src/isp_services.c ****     contrast.LUM_128 = (uint8_t)((pConfig->coeff.LUM_128 * 16) / 100);
 1560              		.loc 1 676 5 is_stmt 1 view .LVU445
 676:../Drivers/ISP/isp/Src/isp_services.c ****     contrast.LUM_128 = (uint8_t)((pConfig->coeff.LUM_128 * 16) / 100);
 1561              		.loc 1 676 56 is_stmt 0 view .LVU446
 1562 00aa 4FEA0C13 		lsl	r3, ip, #4
 676:../Drivers/ISP/isp/Src/isp_services.c ****     contrast.LUM_128 = (uint8_t)((pConfig->coeff.LUM_128 * 16) / 100);
 1563              		.loc 1 676 62 view .LVU447
 1564 00ae A1FB0323 		umull	r2, r3, r1, r3
 676:../Drivers/ISP/isp/Src/isp_services.c ****     contrast.LUM_128 = (uint8_t)((pConfig->coeff.LUM_128 * 16) / 100);
 1565              		.loc 1 676 23 view .LVU448
 1566 00b2 C3F34713 		ubfx	r3, r3, #5, #8
 676:../Drivers/ISP/isp/Src/isp_services.c ****     contrast.LUM_128 = (uint8_t)((pConfig->coeff.LUM_128 * 16) / 100);
 1567              		.loc 1 676 21 view .LVU449
 1568 00b6 8DF80730 		strb	r3, [sp, #7]
 677:../Drivers/ISP/isp/Src/isp_services.c ****     contrast.LUM_160 = (uint8_t)((pConfig->coeff.LUM_160 * 16) / 100);
 1569              		.loc 1 677 5 is_stmt 1 view .LVU450
 677:../Drivers/ISP/isp/Src/isp_services.c ****     contrast.LUM_160 = (uint8_t)((pConfig->coeff.LUM_160 * 16) / 100);
 1570              		.loc 1 677 58 is_stmt 0 view .LVU451
 1571 00ba 4FEA0E13 		lsl	r3, lr, #4
 677:../Drivers/ISP/isp/Src/isp_services.c ****     contrast.LUM_160 = (uint8_t)((pConfig->coeff.LUM_160 * 16) / 100);
 1572              		.loc 1 677 64 view .LVU452
 1573 00be A1FB0323 		umull	r2, r3, r1, r3
 677:../Drivers/ISP/isp/Src/isp_services.c ****     contrast.LUM_160 = (uint8_t)((pConfig->coeff.LUM_160 * 16) / 100);
 1574              		.loc 1 677 24 view .LVU453
ARM GAS  /tmp/ccAu1Zkx.s 			page 44


 1575 00c2 C3F34713 		ubfx	r3, r3, #5, #8
 677:../Drivers/ISP/isp/Src/isp_services.c ****     contrast.LUM_160 = (uint8_t)((pConfig->coeff.LUM_160 * 16) / 100);
 1576              		.loc 1 677 22 view .LVU454
 1577 00c6 8DF80830 		strb	r3, [sp, #8]
 678:../Drivers/ISP/isp/Src/isp_services.c ****     contrast.LUM_192 = (uint8_t)((pConfig->coeff.LUM_192 * 16) / 100);
 1578              		.loc 1 678 5 is_stmt 1 view .LVU455
 678:../Drivers/ISP/isp/Src/isp_services.c ****     contrast.LUM_192 = (uint8_t)((pConfig->coeff.LUM_192 * 16) / 100);
 1579              		.loc 1 678 58 is_stmt 0 view .LVU456
 1580 00ca 3301     		lsls	r3, r6, #4
 678:../Drivers/ISP/isp/Src/isp_services.c ****     contrast.LUM_192 = (uint8_t)((pConfig->coeff.LUM_192 * 16) / 100);
 1581              		.loc 1 678 64 view .LVU457
 1582 00cc A1FB0323 		umull	r2, r3, r1, r3
 678:../Drivers/ISP/isp/Src/isp_services.c ****     contrast.LUM_192 = (uint8_t)((pConfig->coeff.LUM_192 * 16) / 100);
 1583              		.loc 1 678 24 view .LVU458
 1584 00d0 C3F34713 		ubfx	r3, r3, #5, #8
 678:../Drivers/ISP/isp/Src/isp_services.c ****     contrast.LUM_192 = (uint8_t)((pConfig->coeff.LUM_192 * 16) / 100);
 1585              		.loc 1 678 22 view .LVU459
 1586 00d4 8DF80930 		strb	r3, [sp, #9]
 679:../Drivers/ISP/isp/Src/isp_services.c ****     contrast.LUM_224 = (uint8_t)((pConfig->coeff.LUM_224 * 16) / 100);
 1587              		.loc 1 679 5 is_stmt 1 view .LVU460
 679:../Drivers/ISP/isp/Src/isp_services.c ****     contrast.LUM_224 = (uint8_t)((pConfig->coeff.LUM_224 * 16) / 100);
 1588              		.loc 1 679 58 is_stmt 0 view .LVU461
 1589 00d8 3B01     		lsls	r3, r7, #4
 679:../Drivers/ISP/isp/Src/isp_services.c ****     contrast.LUM_224 = (uint8_t)((pConfig->coeff.LUM_224 * 16) / 100);
 1590              		.loc 1 679 64 view .LVU462
 1591 00da A1FB0323 		umull	r2, r3, r1, r3
 679:../Drivers/ISP/isp/Src/isp_services.c ****     contrast.LUM_224 = (uint8_t)((pConfig->coeff.LUM_224 * 16) / 100);
 1592              		.loc 1 679 24 view .LVU463
 1593 00de C3F34713 		ubfx	r3, r3, #5, #8
 679:../Drivers/ISP/isp/Src/isp_services.c ****     contrast.LUM_224 = (uint8_t)((pConfig->coeff.LUM_224 * 16) / 100);
 1594              		.loc 1 679 22 view .LVU464
 1595 00e2 8DF80A30 		strb	r3, [sp, #10]
 680:../Drivers/ISP/isp/Src/isp_services.c ****     contrast.LUM_256 = (uint8_t)((pConfig->coeff.LUM_256 * 16) / 100);
 1596              		.loc 1 680 5 is_stmt 1 view .LVU465
 680:../Drivers/ISP/isp/Src/isp_services.c ****     contrast.LUM_256 = (uint8_t)((pConfig->coeff.LUM_256 * 16) / 100);
 1597              		.loc 1 680 58 is_stmt 0 view .LVU466
 1598 00e6 4346     		mov	r3, r8
 1599 00e8 1B01     		lsls	r3, r3, #4
 680:../Drivers/ISP/isp/Src/isp_services.c ****     contrast.LUM_256 = (uint8_t)((pConfig->coeff.LUM_256 * 16) / 100);
 1600              		.loc 1 680 64 view .LVU467
 1601 00ea A1FB0323 		umull	r2, r3, r1, r3
 680:../Drivers/ISP/isp/Src/isp_services.c ****     contrast.LUM_256 = (uint8_t)((pConfig->coeff.LUM_256 * 16) / 100);
 1602              		.loc 1 680 24 view .LVU468
 1603 00ee C3F34713 		ubfx	r3, r3, #5, #8
 680:../Drivers/ISP/isp/Src/isp_services.c ****     contrast.LUM_256 = (uint8_t)((pConfig->coeff.LUM_256 * 16) / 100);
 1604              		.loc 1 680 22 view .LVU469
 1605 00f2 8DF80B30 		strb	r3, [sp, #11]
 681:../Drivers/ISP/isp/Src/isp_services.c ****     halStatus = HAL_DCMIPP_PIPE_SetISPCtrlContrastConfig(hIsp->hDcmipp, DCMIPP_PIPE1, &contrast);
 1606              		.loc 1 681 5 is_stmt 1 view .LVU470
 681:../Drivers/ISP/isp/Src/isp_services.c ****     halStatus = HAL_DCMIPP_PIPE_SetISPCtrlContrastConfig(hIsp->hDcmipp, DCMIPP_PIPE1, &contrast);
 1607              		.loc 1 681 58 is_stmt 0 view .LVU471
 1608 00f6 4B46     		mov	r3, r9
 1609 00f8 1B01     		lsls	r3, r3, #4
 681:../Drivers/ISP/isp/Src/isp_services.c ****     halStatus = HAL_DCMIPP_PIPE_SetISPCtrlContrastConfig(hIsp->hDcmipp, DCMIPP_PIPE1, &contrast);
 1610              		.loc 1 681 64 view .LVU472
 1611 00fa A1FB0313 		umull	r1, r3, r1, r3
 681:../Drivers/ISP/isp/Src/isp_services.c ****     halStatus = HAL_DCMIPP_PIPE_SetISPCtrlContrastConfig(hIsp->hDcmipp, DCMIPP_PIPE1, &contrast);
ARM GAS  /tmp/ccAu1Zkx.s 			page 45


 1612              		.loc 1 681 24 view .LVU473
 1613 00fe C3F34713 		ubfx	r3, r3, #5, #8
 681:../Drivers/ISP/isp/Src/isp_services.c ****     halStatus = HAL_DCMIPP_PIPE_SetISPCtrlContrastConfig(hIsp->hDcmipp, DCMIPP_PIPE1, &contrast);
 1614              		.loc 1 681 22 view .LVU474
 1615 0102 8DF80C30 		strb	r3, [sp, #12]
 682:../Drivers/ISP/isp/Src/isp_services.c **** 
 1616              		.loc 1 682 5 is_stmt 1 view .LVU475
 682:../Drivers/ISP/isp/Src/isp_services.c **** 
 1617              		.loc 1 682 17 is_stmt 0 view .LVU476
 1618 0106 01AA     		add	r2, sp, #4
 1619 0108 0121     		movs	r1, #1
 1620 010a 2868     		ldr	r0, [r5]
 1621 010c FFF7FEFF 		bl	HAL_DCMIPP_PIPE_SetISPCtrlContrastConfig
 1622              	.LVL131:
 684:../Drivers/ISP/isp/Src/isp_services.c ****     {
 1623              		.loc 1 684 5 is_stmt 1 view .LVU477
 684:../Drivers/ISP/isp/Src/isp_services.c ****     {
 1624              		.loc 1 684 8 is_stmt 0 view .LVU478
 1625 0110 20B9     		cbnz	r0, .L146
 686:../Drivers/ISP/isp/Src/isp_services.c ****     }
 1626              		.loc 1 686 7 is_stmt 1 view .LVU479
 686:../Drivers/ISP/isp/Src/isp_services.c ****     }
 1627              		.loc 1 686 19 is_stmt 0 view .LVU480
 1628 0112 0121     		movs	r1, #1
 1629 0114 2868     		ldr	r0, [r5]
 1630              	.LVL132:
 686:../Drivers/ISP/isp/Src/isp_services.c ****     }
 1631              		.loc 1 686 19 view .LVU481
 1632 0116 FFF7FEFF 		bl	HAL_DCMIPP_PIPE_EnableISPCtrlContrast
 1633              	.LVL133:
 1634 011a A9E7     		b	.L145
 1635              	.LVL134:
 1636              	.L146:
 692:../Drivers/ISP/isp/Src/isp_services.c ****   }
 1637              		.loc 1 692 12 view .LVU482
 1638 011c 2920     		movs	r0, #41
 1639              	.LVL135:
 692:../Drivers/ISP/isp/Src/isp_services.c ****   }
 1640              		.loc 1 692 12 view .LVU483
 1641 011e ABE7     		b	.L143
 1642              	.LVL136:
 1643              	.L149:
 1644              	.LCFI22:
 1645              		.cfi_def_cfa_offset 0
 1646              		.cfi_restore 4
 1647              		.cfi_restore 5
 1648              		.cfi_restore 6
 1649              		.cfi_restore 7
 1650              		.cfi_restore 8
 1651              		.cfi_restore 9
 1652              		.cfi_restore 14
 663:../Drivers/ISP/isp/Src/isp_services.c ****   }
 1653              		.loc 1 663 12 view .LVU484
 1654 0120 2820     		movs	r0, #40
 1655              	.LVL137:
 1656              		.loc 1 696 1 view .LVU485
 1657 0122 7047     		bx	lr
ARM GAS  /tmp/ccAu1Zkx.s 			page 46


 1658              	.L153:
 1659              		.align	2
 1660              	.L152:
 1661 0124 1F85EB51 		.word	1374389535
 1662              		.cfi_endproc
 1663              	.LFE900:
 1665              		.section	.text.ISP_SVC_ISP_SetStatArea,"ax",%progbits
 1666              		.align	1
 1667              		.global	ISP_SVC_ISP_SetStatArea
 1668              		.syntax unified
 1669              		.thumb
 1670              		.thumb_func
 1672              	ISP_SVC_ISP_SetStatArea:
 1673              	.LVL138:
 1674              	.LFB901:
 697:../Drivers/ISP/isp/Src/isp_services.c **** 
 698:../Drivers/ISP/isp/Src/isp_services.c **** /**
 699:../Drivers/ISP/isp/Src/isp_services.c ****   * @brief  ISP_SVC_ISP_SetStatArea
 700:../Drivers/ISP/isp/Src/isp_services.c ****   *         Set the ISP Statistic area
 701:../Drivers/ISP/isp/Src/isp_services.c ****   * @param  hIsp: ISP device handle
 702:../Drivers/ISP/isp/Src/isp_services.c ****   * @param  pConfig: Pointer to statistic area used by the IQ algorithms
 703:../Drivers/ISP/isp/Src/isp_services.c ****   * @retval operation result
 704:../Drivers/ISP/isp/Src/isp_services.c ****   */
 705:../Drivers/ISP/isp/Src/isp_services.c **** ISP_StatusTypeDef ISP_SVC_ISP_SetStatArea(ISP_HandleTypeDef *hIsp, ISP_StatAreaTypeDef *pConfig)
 706:../Drivers/ISP/isp/Src/isp_services.c **** {
 1675              		.loc 1 706 1 is_stmt 1 view -0
 1676              		.cfi_startproc
 1677              		@ args = 0, pretend = 0, frame = 16
 1678              		@ frame_needed = 0, uses_anonymous_args = 0
 707:../Drivers/ISP/isp/Src/isp_services.c ****   HAL_StatusTypeDef halStatus;
 1679              		.loc 1 707 3 view .LVU487
 708:../Drivers/ISP/isp/Src/isp_services.c ****   DCMIPP_StatisticExtractionAreaConfTypeDef currentStatAreaCfg;
 1680              		.loc 1 708 3 view .LVU488
 709:../Drivers/ISP/isp/Src/isp_services.c ****   ISP_StatusTypeDef ret = ISP_OK;
 1681              		.loc 1 709 3 view .LVU489
 710:../Drivers/ISP/isp/Src/isp_services.c **** 
 711:../Drivers/ISP/isp/Src/isp_services.c ****   if ((hIsp == NULL) || (pConfig == NULL) ||
 1682              		.loc 1 711 3 view .LVU490
 1683              		.loc 1 711 6 is_stmt 0 view .LVU491
 1684 0000 0028     		cmp	r0, #0
 1685 0002 4FD0     		beq	.L161
 706:../Drivers/ISP/isp/Src/isp_services.c ****   HAL_StatusTypeDef halStatus;
 1686              		.loc 1 706 1 view .LVU492
 1687 0004 70B5     		push	{r4, r5, r6, lr}
 1688              	.LCFI23:
 1689              		.cfi_def_cfa_offset 16
 1690              		.cfi_offset 4, -16
 1691              		.cfi_offset 5, -12
 1692              		.cfi_offset 6, -8
 1693              		.cfi_offset 14, -4
 1694 0006 84B0     		sub	sp, sp, #16
 1695              	.LCFI24:
 1696              		.cfi_def_cfa_offset 32
 1697 0008 0C46     		mov	r4, r1
 1698 000a 0546     		mov	r5, r0
 1699              		.loc 1 711 22 discriminator 1 view .LVU493
 1700 000c 0029     		cmp	r1, #0
ARM GAS  /tmp/ccAu1Zkx.s 			page 47


 1701 000e 41D0     		beq	.L155
 712:../Drivers/ISP/isp/Src/isp_services.c ****       (pConfig->X0 > ISP_STATWINDOW_MAX) ||
 1702              		.loc 1 712 15 view .LVU494
 1703 0010 0B68     		ldr	r3, [r1]
 711:../Drivers/ISP/isp/Src/isp_services.c ****       (pConfig->X0 > ISP_STATWINDOW_MAX) ||
 1704              		.loc 1 711 43 discriminator 2 view .LVU495
 1705 0012 40F6FE72 		movw	r2, #4094
 1706 0016 9342     		cmp	r3, r2
 1707 0018 3CD8     		bhi	.L155
 713:../Drivers/ISP/isp/Src/isp_services.c ****       (pConfig->Y0 > ISP_STATWINDOW_MAX) ||
 1708              		.loc 1 713 15 view .LVU496
 1709 001a 4968     		ldr	r1, [r1, #4]
 1710              	.LVL139:
 712:../Drivers/ISP/isp/Src/isp_services.c ****       (pConfig->X0 > ISP_STATWINDOW_MAX) ||
 1711              		.loc 1 712 42 discriminator 1 view .LVU497
 1712 001c 9142     		cmp	r1, r2
 1713 001e 39D8     		bhi	.L155
 714:../Drivers/ISP/isp/Src/isp_services.c ****       (pConfig->XSize > ISP_STATWINDOW_MAX) ||
 1714              		.loc 1 714 15 view .LVU498
 1715 0020 A268     		ldr	r2, [r4, #8]
 713:../Drivers/ISP/isp/Src/isp_services.c ****       (pConfig->Y0 > ISP_STATWINDOW_MAX) ||
 1716              		.loc 1 713 42 discriminator 1 view .LVU499
 1717 0022 40F6FE70 		movw	r0, #4094
 1718              	.LVL140:
 713:../Drivers/ISP/isp/Src/isp_services.c ****       (pConfig->Y0 > ISP_STATWINDOW_MAX) ||
 1719              		.loc 1 713 42 discriminator 1 view .LVU500
 1720 0026 8242     		cmp	r2, r0
 1721 0028 34D8     		bhi	.L155
 715:../Drivers/ISP/isp/Src/isp_services.c ****       (pConfig->YSize > ISP_STATWINDOW_MAX) ||
 1722              		.loc 1 715 15 view .LVU501
 1723 002a E068     		ldr	r0, [r4, #12]
 714:../Drivers/ISP/isp/Src/isp_services.c ****       (pConfig->XSize > ISP_STATWINDOW_MAX) ||
 1724              		.loc 1 714 45 discriminator 1 view .LVU502
 1725 002c 40F6FE7C 		movw	ip, #4094
 1726 0030 6045     		cmp	r0, ip
 1727 0032 2FD8     		bhi	.L155
 1728              		.loc 1 715 45 discriminator 1 view .LVU503
 1729 0034 032A     		cmp	r2, #3
 1730 0036 2DD9     		bls	.L155
 716:../Drivers/ISP/isp/Src/isp_services.c ****       (pConfig->XSize < ISP_STATWINDOW_MIN) ||
 1731              		.loc 1 716 45 discriminator 1 view .LVU504
 1732 0038 0328     		cmp	r0, #3
 1733 003a 2BD9     		bls	.L155
 717:../Drivers/ISP/isp/Src/isp_services.c ****       (pConfig->YSize < ISP_STATWINDOW_MIN) ||
 718:../Drivers/ISP/isp/Src/isp_services.c ****       (pConfig->X0 + pConfig->XSize > hIsp->sensorInfo.width) ||
 1734              		.loc 1 718 20 view .LVU505
 1735 003c 03EB020C 		add	ip, r3, r2
 1736              		.loc 1 718 55 view .LVU506
 1737 0040 6E6F     		ldr	r6, [r5, #116]
 717:../Drivers/ISP/isp/Src/isp_services.c ****       (pConfig->YSize < ISP_STATWINDOW_MIN) ||
 1738              		.loc 1 717 45 discriminator 1 view .LVU507
 1739 0042 B445     		cmp	ip, r6
 1740 0044 26D8     		bhi	.L155
 719:../Drivers/ISP/isp/Src/isp_services.c ****       (pConfig->Y0 + pConfig->YSize > hIsp->sensorInfo.height))
 1741              		.loc 1 719 20 view .LVU508
 1742 0046 0144     		add	r1, r1, r0
 1743              		.loc 1 719 55 view .LVU509
ARM GAS  /tmp/ccAu1Zkx.s 			page 48


 1744 0048 A86F     		ldr	r0, [r5, #120]
 718:../Drivers/ISP/isp/Src/isp_services.c ****       (pConfig->Y0 + pConfig->YSize > hIsp->sensorInfo.height))
 1745              		.loc 1 718 63 discriminator 1 view .LVU510
 1746 004a 8142     		cmp	r1, r0
 1747 004c 22D8     		bhi	.L155
 720:../Drivers/ISP/isp/Src/isp_services.c ****   {
 721:../Drivers/ISP/isp/Src/isp_services.c ****     return ISP_ERR_STATAREA_EINVAL;
 722:../Drivers/ISP/isp/Src/isp_services.c ****   }
 723:../Drivers/ISP/isp/Src/isp_services.c **** 
 724:../Drivers/ISP/isp/Src/isp_services.c ****   /* Set coordinates in the 'decimated' referential */
 725:../Drivers/ISP/isp/Src/isp_services.c ****   currentStatAreaCfg.HStart = pConfig->X0 / ISP_DecimationValue.factor;
 1748              		.loc 1 725 3 is_stmt 1 view .LVU511
 1749              		.loc 1 725 64 is_stmt 0 view .LVU512
 1750 004e 1749     		ldr	r1, .L164
 1751 0050 0978     		ldrb	r1, [r1]	@ zero_extendqisi2
 1752              		.loc 1 725 43 view .LVU513
 1753 0052 B3FBF1F3 		udiv	r3, r3, r1
 1754              		.loc 1 725 29 view .LVU514
 1755 0056 0193     		str	r3, [sp, #4]
 726:../Drivers/ISP/isp/Src/isp_services.c ****   currentStatAreaCfg.VStart = pConfig->Y0 / ISP_DecimationValue.factor;
 1756              		.loc 1 726 3 is_stmt 1 view .LVU515
 1757              		.loc 1 726 38 is_stmt 0 view .LVU516
 1758 0058 6368     		ldr	r3, [r4, #4]
 1759              		.loc 1 726 43 view .LVU517
 1760 005a B3FBF1F3 		udiv	r3, r3, r1
 1761              		.loc 1 726 29 view .LVU518
 1762 005e 0093     		str	r3, [sp]
 727:../Drivers/ISP/isp/Src/isp_services.c ****   currentStatAreaCfg.HSize = pConfig->XSize / ISP_DecimationValue.factor;
 1763              		.loc 1 727 3 is_stmt 1 view .LVU519
 1764              		.loc 1 727 45 is_stmt 0 view .LVU520
 1765 0060 B2FBF1F2 		udiv	r2, r2, r1
 1766              		.loc 1 727 28 view .LVU521
 1767 0064 0392     		str	r2, [sp, #12]
 728:../Drivers/ISP/isp/Src/isp_services.c ****   currentStatAreaCfg.VSize = pConfig->YSize / ISP_DecimationValue.factor;
 1768              		.loc 1 728 3 is_stmt 1 view .LVU522
 1769              		.loc 1 728 37 is_stmt 0 view .LVU523
 1770 0066 E368     		ldr	r3, [r4, #12]
 1771              		.loc 1 728 45 view .LVU524
 1772 0068 B3FBF1F3 		udiv	r3, r3, r1
 1773              		.loc 1 728 28 view .LVU525
 1774 006c 0293     		str	r3, [sp, #8]
 729:../Drivers/ISP/isp/Src/isp_services.c **** 
 730:../Drivers/ISP/isp/Src/isp_services.c ****   if (HAL_DCMIPP_PIPE_SetISPAreaStatisticExtractionConfig(hIsp->hDcmipp, DCMIPP_PIPE1,
 1775              		.loc 1 730 3 is_stmt 1 view .LVU526
 1776              		.loc 1 730 7 is_stmt 0 view .LVU527
 1777 006e 6A46     		mov	r2, sp
 1778 0070 0121     		movs	r1, #1
 1779 0072 2868     		ldr	r0, [r5]
 1780 0074 FFF7FEFF 		bl	HAL_DCMIPP_PIPE_SetISPAreaStatisticExtractionConfig
 1781              	.LVL141:
 1782              		.loc 1 730 6 discriminator 1 view .LVU528
 1783 0078 88B9     		cbnz	r0, .L159
 731:../Drivers/ISP/isp/Src/isp_services.c ****                                                           &currentStatAreaCfg) != HAL_OK)
 732:../Drivers/ISP/isp/Src/isp_services.c ****   {
 733:../Drivers/ISP/isp/Src/isp_services.c ****     return ISP_ERR_STATAREA_HAL;
 734:../Drivers/ISP/isp/Src/isp_services.c ****   }
 735:../Drivers/ISP/isp/Src/isp_services.c ****   else
ARM GAS  /tmp/ccAu1Zkx.s 			page 49


 736:../Drivers/ISP/isp/Src/isp_services.c ****   {
 737:../Drivers/ISP/isp/Src/isp_services.c ****     halStatus = HAL_DCMIPP_PIPE_EnableISPAreaStatisticExtraction(hIsp->hDcmipp, DCMIPP_PIPE1);
 1784              		.loc 1 737 5 is_stmt 1 view .LVU529
 1785              		.loc 1 737 17 is_stmt 0 view .LVU530
 1786 007a 0121     		movs	r1, #1
 1787 007c 2868     		ldr	r0, [r5]
 1788 007e FFF7FEFF 		bl	HAL_DCMIPP_PIPE_EnableISPAreaStatisticExtraction
 1789              	.LVL142:
 738:../Drivers/ISP/isp/Src/isp_services.c ****   }
 739:../Drivers/ISP/isp/Src/isp_services.c **** 
 740:../Drivers/ISP/isp/Src/isp_services.c ****   if (halStatus != HAL_OK)
 1790              		.loc 1 740 3 is_stmt 1 view .LVU531
 1791              		.loc 1 740 6 is_stmt 0 view .LVU532
 1792 0082 8446     		mov	ip, r0
 1793 0084 58B9     		cbnz	r0, .L159
 741:../Drivers/ISP/isp/Src/isp_services.c ****   {
 742:../Drivers/ISP/isp/Src/isp_services.c ****     return ISP_ERR_STATAREA_HAL;
 743:../Drivers/ISP/isp/Src/isp_services.c ****   }
 744:../Drivers/ISP/isp/Src/isp_services.c **** 
 745:../Drivers/ISP/isp/Src/isp_services.c ****   /* Update internal state */
 746:../Drivers/ISP/isp/Src/isp_services.c ****   hIsp->statArea = *pConfig;
 1794              		.loc 1 746 3 is_stmt 1 view .LVU533
 1795              		.loc 1 746 18 is_stmt 0 view .LVU534
 1796 0086 05F1080E 		add	lr, r5, #8
 1797 008a 94E80F00 		ldm	r4, {r0, r1, r2, r3}
 1798              	.LVL143:
 1799              		.loc 1 746 18 view .LVU535
 1800 008e 8EE80F00 		stm	lr, {r0, r1, r2, r3}
 747:../Drivers/ISP/isp/Src/isp_services.c **** 
 748:../Drivers/ISP/isp/Src/isp_services.c ****   return ret;
 1801              		.loc 1 748 3 is_stmt 1 view .LVU536
 1802              		.loc 1 748 10 is_stmt 0 view .LVU537
 1803 0092 01E0     		b	.L157
 1804              	.LVL144:
 1805              	.L155:
 721:../Drivers/ISP/isp/Src/isp_services.c ****   }
 1806              		.loc 1 721 12 view .LVU538
 1807 0094 4FF0320C 		mov	ip, #50
 1808              	.L157:
 749:../Drivers/ISP/isp/Src/isp_services.c **** }
 1809              		.loc 1 749 1 view .LVU539
 1810 0098 6046     		mov	r0, ip
 1811 009a 04B0     		add	sp, sp, #16
 1812              	.LCFI25:
 1813              		.cfi_remember_state
 1814              		.cfi_def_cfa_offset 16
 1815              		@ sp needed
 1816 009c 70BD     		pop	{r4, r5, r6, pc}
 1817              	.LVL145:
 1818              	.L159:
 1819              	.LCFI26:
 1820              		.cfi_restore_state
 733:../Drivers/ISP/isp/Src/isp_services.c ****   }
 1821              		.loc 1 733 12 view .LVU540
 1822 009e 4FF0330C 		mov	ip, #51
 1823 00a2 F9E7     		b	.L157
 1824              	.LVL146:
ARM GAS  /tmp/ccAu1Zkx.s 			page 50


 1825              	.L161:
 1826              	.LCFI27:
 1827              		.cfi_def_cfa_offset 0
 1828              		.cfi_restore 4
 1829              		.cfi_restore 5
 1830              		.cfi_restore 6
 1831              		.cfi_restore 14
 721:../Drivers/ISP/isp/Src/isp_services.c ****   }
 1832              		.loc 1 721 12 view .LVU541
 1833 00a4 4FF0320C 		mov	ip, #50
 1834              		.loc 1 749 1 view .LVU542
 1835 00a8 6046     		mov	r0, ip
 1836              	.LVL147:
 1837              		.loc 1 749 1 view .LVU543
 1838 00aa 7047     		bx	lr
 1839              	.L165:
 1840              		.align	2
 1841              	.L164:
 1842 00ac 00000000 		.word	ISP_DecimationValue
 1843              		.cfi_endproc
 1844              	.LFE901:
 1846              		.section	.text.ISP_SVC_ISP_GetStatArea,"ax",%progbits
 1847              		.align	1
 1848              		.global	ISP_SVC_ISP_GetStatArea
 1849              		.syntax unified
 1850              		.thumb
 1851              		.thumb_func
 1853              	ISP_SVC_ISP_GetStatArea:
 1854              	.LVL148:
 1855              	.LFB902:
 750:../Drivers/ISP/isp/Src/isp_services.c **** 
 751:../Drivers/ISP/isp/Src/isp_services.c **** /**
 752:../Drivers/ISP/isp/Src/isp_services.c ****   * @brief  ISP_SVC_ISP_GetStatArea
 753:../Drivers/ISP/isp/Src/isp_services.c ****   *         Get the ISP Statistic area
 754:../Drivers/ISP/isp/Src/isp_services.c ****   * @param  hIsp: ISP device handle
 755:../Drivers/ISP/isp/Src/isp_services.c ****   * @param  pConfig: Pointer to statistic area used by the IQ algorithms
 756:../Drivers/ISP/isp/Src/isp_services.c ****   * @retval operation result
 757:../Drivers/ISP/isp/Src/isp_services.c ****   */
 758:../Drivers/ISP/isp/Src/isp_services.c **** ISP_StatusTypeDef ISP_SVC_ISP_GetStatArea(ISP_HandleTypeDef *hIsp, ISP_StatAreaTypeDef *pConfig)
 759:../Drivers/ISP/isp/Src/isp_services.c **** {
 1856              		.loc 1 759 1 is_stmt 1 view -0
 1857              		.cfi_startproc
 1858              		@ args = 0, pretend = 0, frame = 16
 1859              		@ frame_needed = 0, uses_anonymous_args = 0
 760:../Drivers/ISP/isp/Src/isp_services.c ****   DCMIPP_StatisticExtractionAreaConfTypeDef currentStatAreaCfg;
 1860              		.loc 1 760 3 view .LVU545
 761:../Drivers/ISP/isp/Src/isp_services.c **** 
 762:../Drivers/ISP/isp/Src/isp_services.c ****   /* Check handles validity */
 763:../Drivers/ISP/isp/Src/isp_services.c ****   if ((hIsp == NULL) || (pConfig == NULL))
 1861              		.loc 1 763 3 view .LVU546
 1862              		.loc 1 763 6 is_stmt 0 view .LVU547
 1863 0000 50B3     		cbz	r0, .L173
 759:../Drivers/ISP/isp/Src/isp_services.c ****   DCMIPP_StatisticExtractionAreaConfTypeDef currentStatAreaCfg;
 1864              		.loc 1 759 1 view .LVU548
 1865 0002 30B5     		push	{r4, r5, lr}
 1866              	.LCFI28:
 1867              		.cfi_def_cfa_offset 12
ARM GAS  /tmp/ccAu1Zkx.s 			page 51


 1868              		.cfi_offset 4, -12
 1869              		.cfi_offset 5, -8
 1870              		.cfi_offset 14, -4
 1871 0004 85B0     		sub	sp, sp, #20
 1872              	.LCFI29:
 1873              		.cfi_def_cfa_offset 32
 1874 0006 0C46     		mov	r4, r1
 1875 0008 0546     		mov	r5, r0
 1876              		.loc 1 763 22 discriminator 1 view .LVU549
 1877 000a 59B1     		cbz	r1, .L176
 764:../Drivers/ISP/isp/Src/isp_services.c ****   {
 765:../Drivers/ISP/isp/Src/isp_services.c ****     return ISP_ERR_STATAREA_EINVAL;
 766:../Drivers/ISP/isp/Src/isp_services.c ****   }
 767:../Drivers/ISP/isp/Src/isp_services.c **** 
 768:../Drivers/ISP/isp/Src/isp_services.c ****   if (HAL_DCMIPP_PIPE_IsEnabledISPAreaStatisticExtraction(hIsp->hDcmipp, DCMIPP_PIPE1) == 0)
 1878              		.loc 1 768 3 is_stmt 1 view .LVU550
 1879              		.loc 1 768 7 is_stmt 0 view .LVU551
 1880 000c 0121     		movs	r1, #1
 1881              	.LVL149:
 1882              		.loc 1 768 7 view .LVU552
 1883 000e 0068     		ldr	r0, [r0]
 1884              	.LVL150:
 1885              		.loc 1 768 7 view .LVU553
 1886 0010 FFF7FEFF 		bl	HAL_DCMIPP_PIPE_IsEnabledISPAreaStatisticExtraction
 1887              	.LVL151:
 1888              		.loc 1 768 6 discriminator 1 view .LVU554
 1889 0014 40B9     		cbnz	r0, .L170
 769:../Drivers/ISP/isp/Src/isp_services.c ****   {
 770:../Drivers/ISP/isp/Src/isp_services.c ****     pConfig->X0 = 0;
 1890              		.loc 1 770 5 is_stmt 1 view .LVU555
 1891              		.loc 1 770 17 is_stmt 0 view .LVU556
 1892 0016 2060     		str	r0, [r4]
 771:../Drivers/ISP/isp/Src/isp_services.c ****     pConfig->Y0 = 0;
 1893              		.loc 1 771 5 is_stmt 1 view .LVU557
 1894              		.loc 1 771 17 is_stmt 0 view .LVU558
 1895 0018 6060     		str	r0, [r4, #4]
 772:../Drivers/ISP/isp/Src/isp_services.c ****     pConfig->XSize = 0;
 1896              		.loc 1 772 5 is_stmt 1 view .LVU559
 1897              		.loc 1 772 20 is_stmt 0 view .LVU560
 1898 001a A060     		str	r0, [r4, #8]
 773:../Drivers/ISP/isp/Src/isp_services.c ****     pConfig->YSize = 0;
 1899              		.loc 1 773 5 is_stmt 1 view .LVU561
 1900              		.loc 1 773 20 is_stmt 0 view .LVU562
 1901 001c E060     		str	r0, [r4, #12]
 1902              	.L171:
 774:../Drivers/ISP/isp/Src/isp_services.c ****   }
 775:../Drivers/ISP/isp/Src/isp_services.c ****   else
 776:../Drivers/ISP/isp/Src/isp_services.c ****   {
 777:../Drivers/ISP/isp/Src/isp_services.c ****     HAL_DCMIPP_PIPE_GetISPAreaStatisticExtractionConfig(hIsp->hDcmipp, DCMIPP_PIPE1,
 778:../Drivers/ISP/isp/Src/isp_services.c ****                                                         &currentStatAreaCfg);
 779:../Drivers/ISP/isp/Src/isp_services.c **** 
 780:../Drivers/ISP/isp/Src/isp_services.c ****     /* Consider decimation */
 781:../Drivers/ISP/isp/Src/isp_services.c ****     pConfig->X0 = currentStatAreaCfg.HStart * ISP_DecimationValue.factor;
 782:../Drivers/ISP/isp/Src/isp_services.c ****     pConfig->Y0 = currentStatAreaCfg.VStart * ISP_DecimationValue.factor;
 783:../Drivers/ISP/isp/Src/isp_services.c ****     pConfig->XSize = currentStatAreaCfg.HSize * ISP_DecimationValue.factor;
 784:../Drivers/ISP/isp/Src/isp_services.c ****     pConfig->YSize = currentStatAreaCfg.VSize * ISP_DecimationValue.factor;
 785:../Drivers/ISP/isp/Src/isp_services.c ****   }
ARM GAS  /tmp/ccAu1Zkx.s 			page 52


 786:../Drivers/ISP/isp/Src/isp_services.c **** 
 787:../Drivers/ISP/isp/Src/isp_services.c ****   return ISP_OK;
 1903              		.loc 1 787 10 view .LVU563
 1904 001e 0020     		movs	r0, #0
 1905              	.L169:
 788:../Drivers/ISP/isp/Src/isp_services.c **** }
 1906              		.loc 1 788 1 view .LVU564
 1907 0020 05B0     		add	sp, sp, #20
 1908              	.LCFI30:
 1909              		.cfi_remember_state
 1910              		.cfi_def_cfa_offset 12
 1911              		@ sp needed
 1912 0022 30BD     		pop	{r4, r5, pc}
 1913              	.LVL152:
 1914              	.L176:
 1915              	.LCFI31:
 1916              		.cfi_restore_state
 765:../Drivers/ISP/isp/Src/isp_services.c ****   }
 1917              		.loc 1 765 12 view .LVU565
 1918 0024 3220     		movs	r0, #50
 1919              	.LVL153:
 765:../Drivers/ISP/isp/Src/isp_services.c ****   }
 1920              		.loc 1 765 12 view .LVU566
 1921 0026 FBE7     		b	.L169
 1922              	.LVL154:
 1923              	.L170:
 777:../Drivers/ISP/isp/Src/isp_services.c ****                                                         &currentStatAreaCfg);
 1924              		.loc 1 777 5 is_stmt 1 view .LVU567
 1925 0028 6A46     		mov	r2, sp
 1926 002a 0121     		movs	r1, #1
 1927 002c 2868     		ldr	r0, [r5]
 1928 002e FFF7FEFF 		bl	HAL_DCMIPP_PIPE_GetISPAreaStatisticExtractionConfig
 1929              	.LVL155:
 781:../Drivers/ISP/isp/Src/isp_services.c ****     pConfig->Y0 = currentStatAreaCfg.VStart * ISP_DecimationValue.factor;
 1930              		.loc 1 781 5 view .LVU568
 781:../Drivers/ISP/isp/Src/isp_services.c ****     pConfig->Y0 = currentStatAreaCfg.VStart * ISP_DecimationValue.factor;
 1931              		.loc 1 781 66 is_stmt 0 view .LVU569
 1932 0032 0A4B     		ldr	r3, .L177
 1933 0034 1B78     		ldrb	r3, [r3]	@ zero_extendqisi2
 781:../Drivers/ISP/isp/Src/isp_services.c ****     pConfig->Y0 = currentStatAreaCfg.VStart * ISP_DecimationValue.factor;
 1934              		.loc 1 781 45 view .LVU570
 1935 0036 019A     		ldr	r2, [sp, #4]
 1936 0038 03FB02F2 		mul	r2, r3, r2
 781:../Drivers/ISP/isp/Src/isp_services.c ****     pConfig->Y0 = currentStatAreaCfg.VStart * ISP_DecimationValue.factor;
 1937              		.loc 1 781 17 view .LVU571
 1938 003c 2260     		str	r2, [r4]
 782:../Drivers/ISP/isp/Src/isp_services.c ****     pConfig->XSize = currentStatAreaCfg.HSize * ISP_DecimationValue.factor;
 1939              		.loc 1 782 5 is_stmt 1 view .LVU572
 782:../Drivers/ISP/isp/Src/isp_services.c ****     pConfig->XSize = currentStatAreaCfg.HSize * ISP_DecimationValue.factor;
 1940              		.loc 1 782 37 is_stmt 0 view .LVU573
 1941 003e 009A     		ldr	r2, [sp]
 782:../Drivers/ISP/isp/Src/isp_services.c ****     pConfig->XSize = currentStatAreaCfg.HSize * ISP_DecimationValue.factor;
 1942              		.loc 1 782 45 view .LVU574
 1943 0040 03FB02F2 		mul	r2, r3, r2
 782:../Drivers/ISP/isp/Src/isp_services.c ****     pConfig->XSize = currentStatAreaCfg.HSize * ISP_DecimationValue.factor;
 1944              		.loc 1 782 17 view .LVU575
 1945 0044 6260     		str	r2, [r4, #4]
ARM GAS  /tmp/ccAu1Zkx.s 			page 53


 783:../Drivers/ISP/isp/Src/isp_services.c ****     pConfig->YSize = currentStatAreaCfg.VSize * ISP_DecimationValue.factor;
 1946              		.loc 1 783 5 is_stmt 1 view .LVU576
 783:../Drivers/ISP/isp/Src/isp_services.c ****     pConfig->YSize = currentStatAreaCfg.VSize * ISP_DecimationValue.factor;
 1947              		.loc 1 783 40 is_stmt 0 view .LVU577
 1948 0046 039A     		ldr	r2, [sp, #12]
 783:../Drivers/ISP/isp/Src/isp_services.c ****     pConfig->YSize = currentStatAreaCfg.VSize * ISP_DecimationValue.factor;
 1949              		.loc 1 783 47 view .LVU578
 1950 0048 03FB02F2 		mul	r2, r3, r2
 783:../Drivers/ISP/isp/Src/isp_services.c ****     pConfig->YSize = currentStatAreaCfg.VSize * ISP_DecimationValue.factor;
 1951              		.loc 1 783 20 view .LVU579
 1952 004c A260     		str	r2, [r4, #8]
 784:../Drivers/ISP/isp/Src/isp_services.c ****   }
 1953              		.loc 1 784 5 is_stmt 1 view .LVU580
 784:../Drivers/ISP/isp/Src/isp_services.c ****   }
 1954              		.loc 1 784 40 is_stmt 0 view .LVU581
 1955 004e 029A     		ldr	r2, [sp, #8]
 784:../Drivers/ISP/isp/Src/isp_services.c ****   }
 1956              		.loc 1 784 47 view .LVU582
 1957 0050 02FB03F3 		mul	r3, r2, r3
 784:../Drivers/ISP/isp/Src/isp_services.c ****   }
 1958              		.loc 1 784 20 view .LVU583
 1959 0054 E360     		str	r3, [r4, #12]
 1960 0056 E2E7     		b	.L171
 1961              	.LVL156:
 1962              	.L173:
 1963              	.LCFI32:
 1964              		.cfi_def_cfa_offset 0
 1965              		.cfi_restore 4
 1966              		.cfi_restore 5
 1967              		.cfi_restore 14
 765:../Drivers/ISP/isp/Src/isp_services.c ****   }
 1968              		.loc 1 765 12 view .LVU584
 1969 0058 3220     		movs	r0, #50
 1970              	.LVL157:
 1971              		.loc 1 788 1 view .LVU585
 1972 005a 7047     		bx	lr
 1973              	.L178:
 1974              		.align	2
 1975              	.L177:
 1976 005c 00000000 		.word	ISP_DecimationValue
 1977              		.cfi_endproc
 1978              	.LFE902:
 1980              		.section	.text.ISP_SVC_ISP_SetBadPixel,"ax",%progbits
 1981              		.align	1
 1982              		.global	ISP_SVC_ISP_SetBadPixel
 1983              		.syntax unified
 1984              		.thumb
 1985              		.thumb_func
 1987              	ISP_SVC_ISP_SetBadPixel:
 1988              	.LVL158:
 1989              	.LFB903:
 789:../Drivers/ISP/isp/Src/isp_services.c **** 
 790:../Drivers/ISP/isp/Src/isp_services.c **** /**
 791:../Drivers/ISP/isp/Src/isp_services.c ****   * @brief  ISP_SVC_ISP_SetBadPixel
 792:../Drivers/ISP/isp/Src/isp_services.c ****   *         Set the ISP Bad pixel control configuration
 793:../Drivers/ISP/isp/Src/isp_services.c ****   * @param  hIsp: ISP device handle
 794:../Drivers/ISP/isp/Src/isp_services.c ****   * @param  pConfig: Pointer to the bad pixel configuration
ARM GAS  /tmp/ccAu1Zkx.s 			page 54


 795:../Drivers/ISP/isp/Src/isp_services.c ****   * @retval operation result
 796:../Drivers/ISP/isp/Src/isp_services.c ****   */
 797:../Drivers/ISP/isp/Src/isp_services.c **** ISP_StatusTypeDef ISP_SVC_ISP_SetBadPixel(ISP_HandleTypeDef *hIsp, ISP_BadPixelTypeDef *pConfig)
 798:../Drivers/ISP/isp/Src/isp_services.c **** {
 1990              		.loc 1 798 1 is_stmt 1 view -0
 1991              		.cfi_startproc
 1992              		@ args = 0, pretend = 0, frame = 0
 1993              		@ frame_needed = 0, uses_anonymous_args = 0
 799:../Drivers/ISP/isp/Src/isp_services.c ****   HAL_StatusTypeDef halStatus;
 1994              		.loc 1 799 3 view .LVU587
 800:../Drivers/ISP/isp/Src/isp_services.c **** 
 801:../Drivers/ISP/isp/Src/isp_services.c ****   if ((hIsp == NULL) || (pConfig == NULL) || (pConfig->strength > ISP_BADPIXEL_STRENGTH_MAX))
 1995              		.loc 1 801 3 view .LVU588
 1996              		.loc 1 801 6 is_stmt 0 view .LVU589
 1997 0000 E8B1     		cbz	r0, .L188
 798:../Drivers/ISP/isp/Src/isp_services.c ****   HAL_StatusTypeDef halStatus;
 1998              		.loc 1 798 1 view .LVU590
 1999 0002 10B5     		push	{r4, lr}
 2000              	.LCFI33:
 2001              		.cfi_def_cfa_offset 8
 2002              		.cfi_offset 4, -8
 2003              		.cfi_offset 14, -4
 2004 0004 0446     		mov	r4, r0
 2005              		.loc 1 801 22 discriminator 1 view .LVU591
 2006 0006 51B1     		cbz	r1, .L180
 2007              		.loc 1 801 54 discriminator 2 view .LVU592
 2008 0008 4A78     		ldrb	r2, [r1, #1]	@ zero_extendqisi2
 2009              		.loc 1 801 43 discriminator 2 view .LVU593
 2010 000a 072A     		cmp	r2, #7
 2011 000c 07D8     		bhi	.L180
 802:../Drivers/ISP/isp/Src/isp_services.c ****   {
 803:../Drivers/ISP/isp/Src/isp_services.c ****     return ISP_ERR_BADPIXEL_EINVAL;
 804:../Drivers/ISP/isp/Src/isp_services.c ****   }
 805:../Drivers/ISP/isp/Src/isp_services.c **** 
 806:../Drivers/ISP/isp/Src/isp_services.c ****   if (pConfig->enable == 0)
 2012              		.loc 1 806 3 is_stmt 1 view .LVU594
 2013              		.loc 1 806 14 is_stmt 0 view .LVU595
 2014 000e 0B78     		ldrb	r3, [r1]	@ zero_extendqisi2
 2015              		.loc 1 806 6 view .LVU596
 2016 0010 3BB9     		cbnz	r3, .L183
 807:../Drivers/ISP/isp/Src/isp_services.c ****   {
 808:../Drivers/ISP/isp/Src/isp_services.c ****     halStatus = HAL_DCMIPP_PIPE_DisableISPBadPixelRemoval(hIsp->hDcmipp, DCMIPP_PIPE1);
 2017              		.loc 1 808 5 is_stmt 1 view .LVU597
 2018              		.loc 1 808 17 is_stmt 0 view .LVU598
 2019 0012 0121     		movs	r1, #1
 2020              	.LVL159:
 2021              		.loc 1 808 17 view .LVU599
 2022 0014 0068     		ldr	r0, [r0]
 2023              	.LVL160:
 2024              		.loc 1 808 17 view .LVU600
 2025 0016 FFF7FEFF 		bl	HAL_DCMIPP_PIPE_DisableISPBadPixelRemoval
 2026              	.LVL161:
 2027              	.L184:
 809:../Drivers/ISP/isp/Src/isp_services.c ****   }
 810:../Drivers/ISP/isp/Src/isp_services.c ****   else
 811:../Drivers/ISP/isp/Src/isp_services.c ****   {
 812:../Drivers/ISP/isp/Src/isp_services.c ****     halStatus = HAL_DCMIPP_PIPE_SetISPBadPixelRemovalConfig(hIsp->hDcmipp, DCMIPP_PIPE1, pConfig->s
ARM GAS  /tmp/ccAu1Zkx.s 			page 55


 813:../Drivers/ISP/isp/Src/isp_services.c **** 
 814:../Drivers/ISP/isp/Src/isp_services.c ****     if (halStatus != HAL_OK)
 815:../Drivers/ISP/isp/Src/isp_services.c ****     {
 816:../Drivers/ISP/isp/Src/isp_services.c ****       return ISP_ERR_BADPIXEL_HAL;
 817:../Drivers/ISP/isp/Src/isp_services.c ****     }
 818:../Drivers/ISP/isp/Src/isp_services.c **** 
 819:../Drivers/ISP/isp/Src/isp_services.c ****     halStatus = HAL_DCMIPP_PIPE_EnableISPBadPixelRemoval(hIsp->hDcmipp, DCMIPP_PIPE1);
 820:../Drivers/ISP/isp/Src/isp_services.c ****   }
 821:../Drivers/ISP/isp/Src/isp_services.c **** 
 822:../Drivers/ISP/isp/Src/isp_services.c ****   if (halStatus != HAL_OK)
 2028              		.loc 1 822 3 is_stmt 1 view .LVU601
 2029              		.loc 1 822 6 is_stmt 0 view .LVU602
 2030 001a 70B9     		cbnz	r0, .L191
 2031              	.LVL162:
 2032              	.L182:
 823:../Drivers/ISP/isp/Src/isp_services.c ****   {
 824:../Drivers/ISP/isp/Src/isp_services.c ****     return ISP_ERR_BADPIXEL_HAL;
 825:../Drivers/ISP/isp/Src/isp_services.c ****   }
 826:../Drivers/ISP/isp/Src/isp_services.c **** 
 827:../Drivers/ISP/isp/Src/isp_services.c ****   return ISP_OK;
 828:../Drivers/ISP/isp/Src/isp_services.c **** }
 2033              		.loc 1 828 1 view .LVU603
 2034 001c 10BD     		pop	{r4, pc}
 2035              	.LVL163:
 2036              	.L180:
 803:../Drivers/ISP/isp/Src/isp_services.c ****   }
 2037              		.loc 1 803 12 view .LVU604
 2038 001e 3C20     		movs	r0, #60
 2039              	.LVL164:
 803:../Drivers/ISP/isp/Src/isp_services.c ****   }
 2040              		.loc 1 803 12 view .LVU605
 2041 0020 FCE7     		b	.L182
 2042              	.LVL165:
 2043              	.L183:
 812:../Drivers/ISP/isp/Src/isp_services.c **** 
 2044              		.loc 1 812 5 is_stmt 1 view .LVU606
 812:../Drivers/ISP/isp/Src/isp_services.c **** 
 2045              		.loc 1 812 17 is_stmt 0 view .LVU607
 2046 0022 0121     		movs	r1, #1
 2047              	.LVL166:
 812:../Drivers/ISP/isp/Src/isp_services.c **** 
 2048              		.loc 1 812 17 view .LVU608
 2049 0024 0068     		ldr	r0, [r0]
 2050              	.LVL167:
 812:../Drivers/ISP/isp/Src/isp_services.c **** 
 2051              		.loc 1 812 17 view .LVU609
 2052 0026 FFF7FEFF 		bl	HAL_DCMIPP_PIPE_SetISPBadPixelRemovalConfig
 2053              	.LVL168:
 814:../Drivers/ISP/isp/Src/isp_services.c ****     {
 2054              		.loc 1 814 5 is_stmt 1 view .LVU610
 814:../Drivers/ISP/isp/Src/isp_services.c ****     {
 2055              		.loc 1 814 8 is_stmt 0 view .LVU611
 2056 002a 20B9     		cbnz	r0, .L185
 819:../Drivers/ISP/isp/Src/isp_services.c ****   }
 2057              		.loc 1 819 5 is_stmt 1 view .LVU612
 819:../Drivers/ISP/isp/Src/isp_services.c ****   }
 2058              		.loc 1 819 17 is_stmt 0 view .LVU613
ARM GAS  /tmp/ccAu1Zkx.s 			page 56


 2059 002c 0121     		movs	r1, #1
 2060 002e 2068     		ldr	r0, [r4]
 2061              	.LVL169:
 819:../Drivers/ISP/isp/Src/isp_services.c ****   }
 2062              		.loc 1 819 17 view .LVU614
 2063 0030 FFF7FEFF 		bl	HAL_DCMIPP_PIPE_EnableISPBadPixelRemoval
 2064              	.LVL170:
 2065 0034 F1E7     		b	.L184
 2066              	.LVL171:
 2067              	.L185:
 816:../Drivers/ISP/isp/Src/isp_services.c ****     }
 2068              		.loc 1 816 14 view .LVU615
 2069 0036 3D20     		movs	r0, #61
 2070              	.LVL172:
 816:../Drivers/ISP/isp/Src/isp_services.c ****     }
 2071              		.loc 1 816 14 view .LVU616
 2072 0038 F0E7     		b	.L182
 2073              	.LVL173:
 2074              	.L191:
 824:../Drivers/ISP/isp/Src/isp_services.c ****   }
 2075              		.loc 1 824 12 view .LVU617
 2076 003a 3D20     		movs	r0, #61
 2077              	.LVL174:
 824:../Drivers/ISP/isp/Src/isp_services.c ****   }
 2078              		.loc 1 824 12 view .LVU618
 2079 003c EEE7     		b	.L182
 2080              	.LVL175:
 2081              	.L188:
 2082              	.LCFI34:
 2083              		.cfi_def_cfa_offset 0
 2084              		.cfi_restore 4
 2085              		.cfi_restore 14
 803:../Drivers/ISP/isp/Src/isp_services.c ****   }
 2086              		.loc 1 803 12 view .LVU619
 2087 003e 3C20     		movs	r0, #60
 2088              	.LVL176:
 2089              		.loc 1 828 1 view .LVU620
 2090 0040 7047     		bx	lr
 2091              		.cfi_endproc
 2092              	.LFE903:
 2094              		.section	.text.ISP_SVC_ISP_GetBadPixel,"ax",%progbits
 2095              		.align	1
 2096              		.global	ISP_SVC_ISP_GetBadPixel
 2097              		.syntax unified
 2098              		.thumb
 2099              		.thumb_func
 2101              	ISP_SVC_ISP_GetBadPixel:
 2102              	.LVL177:
 2103              	.LFB904:
 829:../Drivers/ISP/isp/Src/isp_services.c **** 
 830:../Drivers/ISP/isp/Src/isp_services.c **** /**
 831:../Drivers/ISP/isp/Src/isp_services.c ****   * @brief  ISP_SVC_ISP_GetBadPixel
 832:../Drivers/ISP/isp/Src/isp_services.c ****   *         Get the ISP Bad pixel control configuration
 833:../Drivers/ISP/isp/Src/isp_services.c ****   * @param  hIsp: ISP device handle
 834:../Drivers/ISP/isp/Src/isp_services.c ****   * @param  pConfig: Pointer to the bad pixel configuration
 835:../Drivers/ISP/isp/Src/isp_services.c ****   * @retval operation result
 836:../Drivers/ISP/isp/Src/isp_services.c ****   */
ARM GAS  /tmp/ccAu1Zkx.s 			page 57


 837:../Drivers/ISP/isp/Src/isp_services.c **** ISP_StatusTypeDef ISP_SVC_ISP_GetBadPixel(ISP_HandleTypeDef *hIsp, ISP_BadPixelTypeDef *pConfig)
 838:../Drivers/ISP/isp/Src/isp_services.c **** {
 2104              		.loc 1 838 1 is_stmt 1 view -0
 2105              		.cfi_startproc
 2106              		@ args = 0, pretend = 0, frame = 0
 2107              		@ frame_needed = 0, uses_anonymous_args = 0
 839:../Drivers/ISP/isp/Src/isp_services.c ****   HAL_StatusTypeDef halStatus;
 2108              		.loc 1 839 3 view .LVU622
 840:../Drivers/ISP/isp/Src/isp_services.c **** 
 841:../Drivers/ISP/isp/Src/isp_services.c ****   /* Check handle validity */
 842:../Drivers/ISP/isp/Src/isp_services.c ****   if ((hIsp == NULL) || (pConfig == NULL))
 2109              		.loc 1 842 3 view .LVU623
 2110              		.loc 1 842 6 is_stmt 0 view .LVU624
 2111 0000 C0B1     		cbz	r0, .L198
 838:../Drivers/ISP/isp/Src/isp_services.c ****   HAL_StatusTypeDef halStatus;
 2112              		.loc 1 838 1 view .LVU625
 2113 0002 38B5     		push	{r3, r4, r5, lr}
 2114              	.LCFI35:
 2115              		.cfi_def_cfa_offset 16
 2116              		.cfi_offset 3, -16
 2117              		.cfi_offset 4, -12
 2118              		.cfi_offset 5, -8
 2119              		.cfi_offset 14, -4
 2120 0004 0C46     		mov	r4, r1
 2121 0006 0546     		mov	r5, r0
 2122              		.loc 1 842 22 discriminator 1 view .LVU626
 2123 0008 81B1     		cbz	r1, .L201
 843:../Drivers/ISP/isp/Src/isp_services.c ****   {
 844:../Drivers/ISP/isp/Src/isp_services.c ****     return ISP_ERR_BADPIXEL_EINVAL;
 845:../Drivers/ISP/isp/Src/isp_services.c ****   }
 846:../Drivers/ISP/isp/Src/isp_services.c **** 
 847:../Drivers/ISP/isp/Src/isp_services.c ****   pConfig->enable = (uint8_t) HAL_DCMIPP_PIPE_IsEnabledISPBadPixelRemoval(hIsp->hDcmipp, DCMIPP_PIP
 2124              		.loc 1 847 3 is_stmt 1 view .LVU627
 2125              		.loc 1 847 31 is_stmt 0 view .LVU628
 2126 000a 0121     		movs	r1, #1
 2127              	.LVL178:
 2128              		.loc 1 847 31 view .LVU629
 2129 000c 0068     		ldr	r0, [r0]
 2130              	.LVL179:
 2131              		.loc 1 847 31 view .LVU630
 2132 000e FFF7FEFF 		bl	HAL_DCMIPP_PIPE_IsEnabledISPBadPixelRemoval
 2133              	.LVL180:
 2134              		.loc 1 847 19 discriminator 1 view .LVU631
 2135 0012 2070     		strb	r0, [r4]
 848:../Drivers/ISP/isp/Src/isp_services.c ****   pConfig->strength = (uint8_t) HAL_DCMIPP_PIPE_GetISPBadPixelRemovalConfig(hIsp->hDcmipp, DCMIPP_P
 2136              		.loc 1 848 3 is_stmt 1 view .LVU632
 2137              		.loc 1 848 33 is_stmt 0 view .LVU633
 2138 0014 0121     		movs	r1, #1
 2139 0016 2868     		ldr	r0, [r5]
 2140 0018 FFF7FEFF 		bl	HAL_DCMIPP_PIPE_GetISPBadPixelRemovalConfig
 2141              	.LVL181:
 2142              		.loc 1 848 21 discriminator 1 view .LVU634
 2143 001c 6070     		strb	r0, [r4, #1]
 849:../Drivers/ISP/isp/Src/isp_services.c **** 
 850:../Drivers/ISP/isp/Src/isp_services.c ****   halStatus = HAL_DCMIPP_PIPE_GetISPRemovedBadPixelCounter(hIsp->hDcmipp, DCMIPP_PIPE1, &pConfig->c
 2144              		.loc 1 850 3 is_stmt 1 view .LVU635
 2145              		.loc 1 850 15 is_stmt 0 view .LVU636
ARM GAS  /tmp/ccAu1Zkx.s 			page 58


 2146 001e 221D     		adds	r2, r4, #4
 2147 0020 0121     		movs	r1, #1
 2148 0022 2868     		ldr	r0, [r5]
 2149 0024 FFF7FEFF 		bl	HAL_DCMIPP_PIPE_GetISPRemovedBadPixelCounter
 2150              	.LVL182:
 851:../Drivers/ISP/isp/Src/isp_services.c **** 
 852:../Drivers/ISP/isp/Src/isp_services.c ****   if (halStatus != HAL_OK)
 2151              		.loc 1 852 3 is_stmt 1 view .LVU637
 2152              		.loc 1 852 6 is_stmt 0 view .LVU638
 2153 0028 10B9     		cbnz	r0, .L202
 2154              	.LVL183:
 2155              	.L195:
 853:../Drivers/ISP/isp/Src/isp_services.c ****   {
 854:../Drivers/ISP/isp/Src/isp_services.c ****     return ISP_ERR_BADPIXEL_HAL;
 855:../Drivers/ISP/isp/Src/isp_services.c ****   }
 856:../Drivers/ISP/isp/Src/isp_services.c **** 
 857:../Drivers/ISP/isp/Src/isp_services.c ****   return ISP_OK;
 858:../Drivers/ISP/isp/Src/isp_services.c **** }
 2156              		.loc 1 858 1 view .LVU639
 2157 002a 38BD     		pop	{r3, r4, r5, pc}
 2158              	.LVL184:
 2159              	.L201:
 844:../Drivers/ISP/isp/Src/isp_services.c ****   }
 2160              		.loc 1 844 12 view .LVU640
 2161 002c 3C20     		movs	r0, #60
 2162              	.LVL185:
 844:../Drivers/ISP/isp/Src/isp_services.c ****   }
 2163              		.loc 1 844 12 view .LVU641
 2164 002e FCE7     		b	.L195
 2165              	.LVL186:
 2166              	.L202:
 854:../Drivers/ISP/isp/Src/isp_services.c ****   }
 2167              		.loc 1 854 12 view .LVU642
 2168 0030 3D20     		movs	r0, #61
 2169              	.LVL187:
 854:../Drivers/ISP/isp/Src/isp_services.c ****   }
 2170              		.loc 1 854 12 view .LVU643
 2171 0032 FAE7     		b	.L195
 2172              	.LVL188:
 2173              	.L198:
 2174              	.LCFI36:
 2175              		.cfi_def_cfa_offset 0
 2176              		.cfi_restore 3
 2177              		.cfi_restore 4
 2178              		.cfi_restore 5
 2179              		.cfi_restore 14
 844:../Drivers/ISP/isp/Src/isp_services.c ****   }
 2180              		.loc 1 844 12 view .LVU644
 2181 0034 3C20     		movs	r0, #60
 2182              	.LVL189:
 2183              		.loc 1 858 1 view .LVU645
 2184 0036 7047     		bx	lr
 2185              		.cfi_endproc
 2186              	.LFE904:
 2188              		.section	.text.ISP_SVC_ISP_SetBlackLevel,"ax",%progbits
 2189              		.align	1
 2190              		.global	ISP_SVC_ISP_SetBlackLevel
ARM GAS  /tmp/ccAu1Zkx.s 			page 59


 2191              		.syntax unified
 2192              		.thumb
 2193              		.thumb_func
 2195              	ISP_SVC_ISP_SetBlackLevel:
 2196              	.LVL190:
 2197              	.LFB905:
 859:../Drivers/ISP/isp/Src/isp_services.c **** 
 860:../Drivers/ISP/isp/Src/isp_services.c **** /**
 861:../Drivers/ISP/isp/Src/isp_services.c ****   * @brief  ISP_SVC_ISP_SetBlackLevel
 862:../Drivers/ISP/isp/Src/isp_services.c ****   *         Set the ISP Black Level calibration
 863:../Drivers/ISP/isp/Src/isp_services.c ****   * @param  hIsp: ISP device handle
 864:../Drivers/ISP/isp/Src/isp_services.c ****   * @param  pConfig: Pointer to the black level configuration
 865:../Drivers/ISP/isp/Src/isp_services.c ****   * @retval operation result
 866:../Drivers/ISP/isp/Src/isp_services.c ****   */
 867:../Drivers/ISP/isp/Src/isp_services.c **** ISP_StatusTypeDef ISP_SVC_ISP_SetBlackLevel(ISP_HandleTypeDef *hIsp, ISP_BlackLevelTypeDef *pConfig
 868:../Drivers/ISP/isp/Src/isp_services.c **** {
 2198              		.loc 1 868 1 is_stmt 1 view -0
 2199              		.cfi_startproc
 2200              		@ args = 0, pretend = 0, frame = 8
 2201              		@ frame_needed = 0, uses_anonymous_args = 0
 869:../Drivers/ISP/isp/Src/isp_services.c ****   HAL_StatusTypeDef halStatus;
 2202              		.loc 1 869 3 view .LVU647
 870:../Drivers/ISP/isp/Src/isp_services.c ****   DCMIPP_BlackLevelConfTypeDef blackLevelConfig;
 2203              		.loc 1 870 3 view .LVU648
 871:../Drivers/ISP/isp/Src/isp_services.c **** 
 872:../Drivers/ISP/isp/Src/isp_services.c ****   /* Check handle validity */
 873:../Drivers/ISP/isp/Src/isp_services.c ****   if ((hIsp == NULL) || (pConfig == NULL))
 2204              		.loc 1 873 3 view .LVU649
 2205              		.loc 1 873 6 is_stmt 0 view .LVU650
 2206 0000 30B3     		cbz	r0, .L212
 868:../Drivers/ISP/isp/Src/isp_services.c ****   HAL_StatusTypeDef halStatus;
 2207              		.loc 1 868 1 view .LVU651
 2208 0002 10B5     		push	{r4, lr}
 2209              	.LCFI37:
 2210              		.cfi_def_cfa_offset 8
 2211              		.cfi_offset 4, -8
 2212              		.cfi_offset 14, -4
 2213 0004 82B0     		sub	sp, sp, #8
 2214              	.LCFI38:
 2215              		.cfi_def_cfa_offset 16
 2216 0006 0446     		mov	r4, r0
 2217              		.loc 1 873 22 discriminator 1 view .LVU652
 2218 0008 41B1     		cbz	r1, .L215
 874:../Drivers/ISP/isp/Src/isp_services.c ****   {
 875:../Drivers/ISP/isp/Src/isp_services.c ****     return ISP_ERR_BLACKLEVEL_EINVAL;
 876:../Drivers/ISP/isp/Src/isp_services.c ****   }
 877:../Drivers/ISP/isp/Src/isp_services.c **** 
 878:../Drivers/ISP/isp/Src/isp_services.c ****   if (pConfig->enable == 0)
 2219              		.loc 1 878 3 is_stmt 1 view .LVU653
 2220              		.loc 1 878 14 is_stmt 0 view .LVU654
 2221 000a 0B78     		ldrb	r3, [r1]	@ zero_extendqisi2
 2222              		.loc 1 878 6 view .LVU655
 2223 000c 43B9     		cbnz	r3, .L207
 879:../Drivers/ISP/isp/Src/isp_services.c ****   {
 880:../Drivers/ISP/isp/Src/isp_services.c ****     halStatus = HAL_DCMIPP_PIPE_DisableISPBlackLevelCalibration(hIsp->hDcmipp, DCMIPP_PIPE1);
 2224              		.loc 1 880 5 is_stmt 1 view .LVU656
 2225              		.loc 1 880 17 is_stmt 0 view .LVU657
ARM GAS  /tmp/ccAu1Zkx.s 			page 60


 2226 000e 0121     		movs	r1, #1
 2227              	.LVL191:
 2228              		.loc 1 880 17 view .LVU658
 2229 0010 0068     		ldr	r0, [r0]
 2230              	.LVL192:
 2231              		.loc 1 880 17 view .LVU659
 2232 0012 FFF7FEFF 		bl	HAL_DCMIPP_PIPE_DisableISPBlackLevelCalibration
 2233              	.LVL193:
 2234              	.L208:
 881:../Drivers/ISP/isp/Src/isp_services.c ****   }
 882:../Drivers/ISP/isp/Src/isp_services.c ****   else
 883:../Drivers/ISP/isp/Src/isp_services.c ****   {
 884:../Drivers/ISP/isp/Src/isp_services.c ****     blackLevelConfig.RedCompBlackLevel = pConfig->BLCR;
 885:../Drivers/ISP/isp/Src/isp_services.c ****     blackLevelConfig.GreenCompBlackLevel = pConfig->BLCG;
 886:../Drivers/ISP/isp/Src/isp_services.c ****     blackLevelConfig.BlueCompBlackLevel = pConfig->BLCB;
 887:../Drivers/ISP/isp/Src/isp_services.c ****     halStatus = HAL_DCMIPP_PIPE_SetISPBlackLevelCalibrationConfig(hIsp->hDcmipp, DCMIPP_PIPE1, &bla
 888:../Drivers/ISP/isp/Src/isp_services.c **** 
 889:../Drivers/ISP/isp/Src/isp_services.c ****     if (halStatus == HAL_OK)
 890:../Drivers/ISP/isp/Src/isp_services.c ****     {
 891:../Drivers/ISP/isp/Src/isp_services.c ****       halStatus = HAL_DCMIPP_PIPE_EnableISPBlackLevelCalibration(hIsp->hDcmipp, DCMIPP_PIPE1);
 892:../Drivers/ISP/isp/Src/isp_services.c ****     }
 893:../Drivers/ISP/isp/Src/isp_services.c ****   }
 894:../Drivers/ISP/isp/Src/isp_services.c **** 
 895:../Drivers/ISP/isp/Src/isp_services.c ****   if (halStatus != HAL_OK)
 2235              		.loc 1 895 3 is_stmt 1 view .LVU660
 2236              		.loc 1 895 6 is_stmt 0 view .LVU661
 2237 0016 C8B9     		cbnz	r0, .L216
 2238              	.LVL194:
 2239              	.L206:
 896:../Drivers/ISP/isp/Src/isp_services.c ****   {
 897:../Drivers/ISP/isp/Src/isp_services.c ****     return ISP_ERR_BLACKLEVEL_HAL;
 898:../Drivers/ISP/isp/Src/isp_services.c ****   }
 899:../Drivers/ISP/isp/Src/isp_services.c **** 
 900:../Drivers/ISP/isp/Src/isp_services.c ****   return ISP_OK;
 901:../Drivers/ISP/isp/Src/isp_services.c **** }
 2240              		.loc 1 901 1 view .LVU662
 2241 0018 02B0     		add	sp, sp, #8
 2242              	.LCFI39:
 2243              		.cfi_remember_state
 2244              		.cfi_def_cfa_offset 8
 2245              		@ sp needed
 2246 001a 10BD     		pop	{r4, pc}
 2247              	.LVL195:
 2248              	.L215:
 2249              	.LCFI40:
 2250              		.cfi_restore_state
 875:../Drivers/ISP/isp/Src/isp_services.c ****   }
 2251              		.loc 1 875 12 view .LVU663
 2252 001c 4620     		movs	r0, #70
 2253              	.LVL196:
 875:../Drivers/ISP/isp/Src/isp_services.c ****   }
 2254              		.loc 1 875 12 view .LVU664
 2255 001e FBE7     		b	.L206
 2256              	.LVL197:
 2257              	.L207:
 884:../Drivers/ISP/isp/Src/isp_services.c ****     blackLevelConfig.GreenCompBlackLevel = pConfig->BLCG;
 2258              		.loc 1 884 5 is_stmt 1 view .LVU665
ARM GAS  /tmp/ccAu1Zkx.s 			page 61


 884:../Drivers/ISP/isp/Src/isp_services.c ****     blackLevelConfig.GreenCompBlackLevel = pConfig->BLCG;
 2259              		.loc 1 884 49 is_stmt 0 view .LVU666
 2260 0020 4B78     		ldrb	r3, [r1, #1]	@ zero_extendqisi2
 884:../Drivers/ISP/isp/Src/isp_services.c ****     blackLevelConfig.GreenCompBlackLevel = pConfig->BLCG;
 2261              		.loc 1 884 40 view .LVU667
 2262 0022 8DF80430 		strb	r3, [sp, #4]
 885:../Drivers/ISP/isp/Src/isp_services.c ****     blackLevelConfig.BlueCompBlackLevel = pConfig->BLCB;
 2263              		.loc 1 885 5 is_stmt 1 view .LVU668
 885:../Drivers/ISP/isp/Src/isp_services.c ****     blackLevelConfig.BlueCompBlackLevel = pConfig->BLCB;
 2264              		.loc 1 885 51 is_stmt 0 view .LVU669
 2265 0026 8B78     		ldrb	r3, [r1, #2]	@ zero_extendqisi2
 885:../Drivers/ISP/isp/Src/isp_services.c ****     blackLevelConfig.BlueCompBlackLevel = pConfig->BLCB;
 2266              		.loc 1 885 42 view .LVU670
 2267 0028 8DF80530 		strb	r3, [sp, #5]
 886:../Drivers/ISP/isp/Src/isp_services.c ****     halStatus = HAL_DCMIPP_PIPE_SetISPBlackLevelCalibrationConfig(hIsp->hDcmipp, DCMIPP_PIPE1, &bla
 2268              		.loc 1 886 5 is_stmt 1 view .LVU671
 886:../Drivers/ISP/isp/Src/isp_services.c ****     halStatus = HAL_DCMIPP_PIPE_SetISPBlackLevelCalibrationConfig(hIsp->hDcmipp, DCMIPP_PIPE1, &bla
 2269              		.loc 1 886 50 is_stmt 0 view .LVU672
 2270 002c CB78     		ldrb	r3, [r1, #3]	@ zero_extendqisi2
 886:../Drivers/ISP/isp/Src/isp_services.c ****     halStatus = HAL_DCMIPP_PIPE_SetISPBlackLevelCalibrationConfig(hIsp->hDcmipp, DCMIPP_PIPE1, &bla
 2271              		.loc 1 886 41 view .LVU673
 2272 002e 8DF80630 		strb	r3, [sp, #6]
 887:../Drivers/ISP/isp/Src/isp_services.c **** 
 2273              		.loc 1 887 5 is_stmt 1 view .LVU674
 887:../Drivers/ISP/isp/Src/isp_services.c **** 
 2274              		.loc 1 887 17 is_stmt 0 view .LVU675
 2275 0032 01AA     		add	r2, sp, #4
 2276 0034 0121     		movs	r1, #1
 2277              	.LVL198:
 887:../Drivers/ISP/isp/Src/isp_services.c **** 
 2278              		.loc 1 887 17 view .LVU676
 2279 0036 0068     		ldr	r0, [r0]
 2280              	.LVL199:
 887:../Drivers/ISP/isp/Src/isp_services.c **** 
 2281              		.loc 1 887 17 view .LVU677
 2282 0038 FFF7FEFF 		bl	HAL_DCMIPP_PIPE_SetISPBlackLevelCalibrationConfig
 2283              	.LVL200:
 889:../Drivers/ISP/isp/Src/isp_services.c ****     {
 2284              		.loc 1 889 5 is_stmt 1 view .LVU678
 889:../Drivers/ISP/isp/Src/isp_services.c ****     {
 2285              		.loc 1 889 8 is_stmt 0 view .LVU679
 2286 003c 20B9     		cbnz	r0, .L209
 891:../Drivers/ISP/isp/Src/isp_services.c ****     }
 2287              		.loc 1 891 7 is_stmt 1 view .LVU680
 891:../Drivers/ISP/isp/Src/isp_services.c ****     }
 2288              		.loc 1 891 19 is_stmt 0 view .LVU681
 2289 003e 0121     		movs	r1, #1
 2290 0040 2068     		ldr	r0, [r4]
 2291              	.LVL201:
 891:../Drivers/ISP/isp/Src/isp_services.c ****     }
 2292              		.loc 1 891 19 view .LVU682
 2293 0042 FFF7FEFF 		bl	HAL_DCMIPP_PIPE_EnableISPBlackLevelCalibration
 2294              	.LVL202:
 2295 0046 E6E7     		b	.L208
 2296              	.LVL203:
 2297              	.L209:
 897:../Drivers/ISP/isp/Src/isp_services.c ****   }
ARM GAS  /tmp/ccAu1Zkx.s 			page 62


 2298              		.loc 1 897 12 view .LVU683
 2299 0048 4720     		movs	r0, #71
 2300              	.LVL204:
 897:../Drivers/ISP/isp/Src/isp_services.c ****   }
 2301              		.loc 1 897 12 view .LVU684
 2302 004a E5E7     		b	.L206
 2303              	.LVL205:
 2304              	.L216:
 897:../Drivers/ISP/isp/Src/isp_services.c ****   }
 2305              		.loc 1 897 12 view .LVU685
 2306 004c 4720     		movs	r0, #71
 2307              	.LVL206:
 897:../Drivers/ISP/isp/Src/isp_services.c ****   }
 2308              		.loc 1 897 12 view .LVU686
 2309 004e E3E7     		b	.L206
 2310              	.LVL207:
 2311              	.L212:
 2312              	.LCFI41:
 2313              		.cfi_def_cfa_offset 0
 2314              		.cfi_restore 4
 2315              		.cfi_restore 14
 875:../Drivers/ISP/isp/Src/isp_services.c ****   }
 2316              		.loc 1 875 12 view .LVU687
 2317 0050 4620     		movs	r0, #70
 2318              	.LVL208:
 2319              		.loc 1 901 1 view .LVU688
 2320 0052 7047     		bx	lr
 2321              		.cfi_endproc
 2322              	.LFE905:
 2324              		.section	.text.ISP_SVC_ISP_GetBlackLevel,"ax",%progbits
 2325              		.align	1
 2326              		.global	ISP_SVC_ISP_GetBlackLevel
 2327              		.syntax unified
 2328              		.thumb
 2329              		.thumb_func
 2331              	ISP_SVC_ISP_GetBlackLevel:
 2332              	.LVL209:
 2333              	.LFB906:
 902:../Drivers/ISP/isp/Src/isp_services.c **** 
 903:../Drivers/ISP/isp/Src/isp_services.c **** /**
 904:../Drivers/ISP/isp/Src/isp_services.c ****   * @brief  ISP_SVC_ISP_GetBlackLevel
 905:../Drivers/ISP/isp/Src/isp_services.c ****   *         Get the ISP Black Level calibration
 906:../Drivers/ISP/isp/Src/isp_services.c ****   * @param  hIsp: ISP device handle
 907:../Drivers/ISP/isp/Src/isp_services.c ****   * @param  pConfig: Pointer to the black level configuration
 908:../Drivers/ISP/isp/Src/isp_services.c ****   * @retval operation result
 909:../Drivers/ISP/isp/Src/isp_services.c ****   */
 910:../Drivers/ISP/isp/Src/isp_services.c **** ISP_StatusTypeDef ISP_SVC_ISP_GetBlackLevel(ISP_HandleTypeDef *hIsp, ISP_BlackLevelTypeDef *pConfig
 911:../Drivers/ISP/isp/Src/isp_services.c **** {
 2334              		.loc 1 911 1 is_stmt 1 view -0
 2335              		.cfi_startproc
 2336              		@ args = 0, pretend = 0, frame = 8
 2337              		@ frame_needed = 0, uses_anonymous_args = 0
 912:../Drivers/ISP/isp/Src/isp_services.c ****   DCMIPP_BlackLevelConfTypeDef blackLevelConfig;
 2338              		.loc 1 912 3 view .LVU690
 913:../Drivers/ISP/isp/Src/isp_services.c **** 
 914:../Drivers/ISP/isp/Src/isp_services.c ****   /* Check handle validity */
 915:../Drivers/ISP/isp/Src/isp_services.c ****   if ((hIsp == NULL) || (pConfig == NULL))
ARM GAS  /tmp/ccAu1Zkx.s 			page 63


 2339              		.loc 1 915 3 view .LVU691
 2340              		.loc 1 915 6 is_stmt 0 view .LVU692
 2341 0000 E0B1     		cbz	r0, .L222
 911:../Drivers/ISP/isp/Src/isp_services.c ****   DCMIPP_BlackLevelConfTypeDef blackLevelConfig;
 2342              		.loc 1 911 1 view .LVU693
 2343 0002 30B5     		push	{r4, r5, lr}
 2344              	.LCFI42:
 2345              		.cfi_def_cfa_offset 12
 2346              		.cfi_offset 4, -12
 2347              		.cfi_offset 5, -8
 2348              		.cfi_offset 14, -4
 2349 0004 83B0     		sub	sp, sp, #12
 2350              	.LCFI43:
 2351              		.cfi_def_cfa_offset 24
 2352 0006 0C46     		mov	r4, r1
 2353              		.loc 1 915 22 discriminator 1 view .LVU694
 2354 0008 B1B1     		cbz	r1, .L225
 916:../Drivers/ISP/isp/Src/isp_services.c ****   {
 917:../Drivers/ISP/isp/Src/isp_services.c ****     return ISP_ERR_BLACKLEVEL_EINVAL;
 918:../Drivers/ISP/isp/Src/isp_services.c ****   }
 919:../Drivers/ISP/isp/Src/isp_services.c **** 
 920:../Drivers/ISP/isp/Src/isp_services.c ****   pConfig->enable = (uint8_t) HAL_DCMIPP_PIPE_IsEnabledISPBlackLevelCalibration(hIsp->hDcmipp, DCMI
 2355              		.loc 1 920 3 is_stmt 1 view .LVU695
 2356              		.loc 1 920 31 is_stmt 0 view .LVU696
 2357 000a 0121     		movs	r1, #1
 2358              	.LVL210:
 2359              		.loc 1 920 31 view .LVU697
 2360 000c 0546     		mov	r5, r0
 2361 000e 0068     		ldr	r0, [r0]
 2362              	.LVL211:
 2363              		.loc 1 920 31 view .LVU698
 2364 0010 FFF7FEFF 		bl	HAL_DCMIPP_PIPE_IsEnabledISPBlackLevelCalibration
 2365              	.LVL212:
 2366              		.loc 1 920 19 discriminator 1 view .LVU699
 2367 0014 2070     		strb	r0, [r4]
 921:../Drivers/ISP/isp/Src/isp_services.c **** 
 922:../Drivers/ISP/isp/Src/isp_services.c ****   HAL_DCMIPP_PIPE_GetISPBlackLevelCalibrationConfig(hIsp->hDcmipp, DCMIPP_PIPE1, &blackLevelConfig)
 2368              		.loc 1 922 3 is_stmt 1 view .LVU700
 2369 0016 01AA     		add	r2, sp, #4
 2370 0018 0121     		movs	r1, #1
 2371 001a 2868     		ldr	r0, [r5]
 2372 001c FFF7FEFF 		bl	HAL_DCMIPP_PIPE_GetISPBlackLevelCalibrationConfig
 2373              	.LVL213:
 923:../Drivers/ISP/isp/Src/isp_services.c **** 
 924:../Drivers/ISP/isp/Src/isp_services.c ****   pConfig->BLCR = blackLevelConfig.RedCompBlackLevel;
 2374              		.loc 1 924 3 view .LVU701
 2375              		.loc 1 924 35 is_stmt 0 view .LVU702
 2376 0020 9DF80430 		ldrb	r3, [sp, #4]	@ zero_extendqisi2
 2377              		.loc 1 924 17 view .LVU703
 2378 0024 6370     		strb	r3, [r4, #1]
 925:../Drivers/ISP/isp/Src/isp_services.c ****   pConfig->BLCG = blackLevelConfig.GreenCompBlackLevel;
 2379              		.loc 1 925 3 is_stmt 1 view .LVU704
 2380              		.loc 1 925 35 is_stmt 0 view .LVU705
 2381 0026 9DF80530 		ldrb	r3, [sp, #5]	@ zero_extendqisi2
 2382              		.loc 1 925 17 view .LVU706
 2383 002a A370     		strb	r3, [r4, #2]
 926:../Drivers/ISP/isp/Src/isp_services.c ****   pConfig->BLCB = blackLevelConfig.BlueCompBlackLevel;
ARM GAS  /tmp/ccAu1Zkx.s 			page 64


 2384              		.loc 1 926 3 is_stmt 1 view .LVU707
 2385              		.loc 1 926 35 is_stmt 0 view .LVU708
 2386 002c 9DF80630 		ldrb	r3, [sp, #6]	@ zero_extendqisi2
 2387              		.loc 1 926 17 view .LVU709
 2388 0030 E370     		strb	r3, [r4, #3]
 927:../Drivers/ISP/isp/Src/isp_services.c **** 
 928:../Drivers/ISP/isp/Src/isp_services.c ****   return ISP_OK;
 2389              		.loc 1 928 3 is_stmt 1 view .LVU710
 2390              		.loc 1 928 10 is_stmt 0 view .LVU711
 2391 0032 0020     		movs	r0, #0
 2392              	.LVL214:
 2393              	.L220:
 929:../Drivers/ISP/isp/Src/isp_services.c **** }
 2394              		.loc 1 929 1 view .LVU712
 2395 0034 03B0     		add	sp, sp, #12
 2396              	.LCFI44:
 2397              		.cfi_remember_state
 2398              		.cfi_def_cfa_offset 12
 2399              		@ sp needed
 2400 0036 30BD     		pop	{r4, r5, pc}
 2401              	.LVL215:
 2402              	.L225:
 2403              	.LCFI45:
 2404              		.cfi_restore_state
 917:../Drivers/ISP/isp/Src/isp_services.c ****   }
 2405              		.loc 1 917 12 view .LVU713
 2406 0038 4620     		movs	r0, #70
 2407              	.LVL216:
 917:../Drivers/ISP/isp/Src/isp_services.c ****   }
 2408              		.loc 1 917 12 view .LVU714
 2409 003a FBE7     		b	.L220
 2410              	.LVL217:
 2411              	.L222:
 2412              	.LCFI46:
 2413              		.cfi_def_cfa_offset 0
 2414              		.cfi_restore 4
 2415              		.cfi_restore 5
 2416              		.cfi_restore 14
 917:../Drivers/ISP/isp/Src/isp_services.c ****   }
 2417              		.loc 1 917 12 view .LVU715
 2418 003c 4620     		movs	r0, #70
 2419              	.LVL218:
 2420              		.loc 1 929 1 view .LVU716
 2421 003e 7047     		bx	lr
 2422              		.cfi_endproc
 2423              	.LFE906:
 2425              		.section	.text.ISP_SVC_ISP_SetGain,"ax",%progbits
 2426              		.align	1
 2427              		.global	ISP_SVC_ISP_SetGain
 2428              		.syntax unified
 2429              		.thumb
 2430              		.thumb_func
 2432              	ISP_SVC_ISP_SetGain:
 2433              	.LVL219:
 2434              	.LFB907:
 930:../Drivers/ISP/isp/Src/isp_services.c **** 
 931:../Drivers/ISP/isp/Src/isp_services.c **** /**
ARM GAS  /tmp/ccAu1Zkx.s 			page 65


 932:../Drivers/ISP/isp/Src/isp_services.c ****   * @brief  ISP_SVC_ISP_SetGain
 933:../Drivers/ISP/isp/Src/isp_services.c ****   *         Set the ISP Exposure and White Balance gains
 934:../Drivers/ISP/isp/Src/isp_services.c ****   * @param  hIsp: ISP device handle
 935:../Drivers/ISP/isp/Src/isp_services.c ****   * @param  pConfig: Pointer to the ISP gain configuration
 936:../Drivers/ISP/isp/Src/isp_services.c ****   * @retval operation result
 937:../Drivers/ISP/isp/Src/isp_services.c ****   */
 938:../Drivers/ISP/isp/Src/isp_services.c **** ISP_StatusTypeDef ISP_SVC_ISP_SetGain(ISP_HandleTypeDef *hIsp, ISP_ISPGainTypeDef *pConfig)
 939:../Drivers/ISP/isp/Src/isp_services.c **** {
 2435              		.loc 1 939 1 is_stmt 1 view -0
 2436              		.cfi_startproc
 2437              		@ args = 0, pretend = 0, frame = 8
 2438              		@ frame_needed = 0, uses_anonymous_args = 0
 940:../Drivers/ISP/isp/Src/isp_services.c ****   HAL_StatusTypeDef halStatus;
 2439              		.loc 1 940 3 view .LVU718
 941:../Drivers/ISP/isp/Src/isp_services.c ****   DCMIPP_ExposureConfTypeDef exposureConfig;
 2440              		.loc 1 941 3 view .LVU719
 942:../Drivers/ISP/isp/Src/isp_services.c **** 
 943:../Drivers/ISP/isp/Src/isp_services.c ****   if ((hIsp == NULL) || (pConfig == NULL) ||
 2441              		.loc 1 943 3 view .LVU720
 2442              		.loc 1 943 6 is_stmt 0 view .LVU721
 2443 0000 0028     		cmp	r0, #0
 2444 0002 39D0     		beq	.L235
 939:../Drivers/ISP/isp/Src/isp_services.c ****   HAL_StatusTypeDef halStatus;
 2445              		.loc 1 939 1 view .LVU722
 2446 0004 30B5     		push	{r4, r5, lr}
 2447              	.LCFI47:
 2448              		.cfi_def_cfa_offset 12
 2449              		.cfi_offset 4, -12
 2450              		.cfi_offset 5, -8
 2451              		.cfi_offset 14, -4
 2452 0006 83B0     		sub	sp, sp, #12
 2453              	.LCFI48:
 2454              		.cfi_def_cfa_offset 24
 2455 0008 0C46     		mov	r4, r1
 2456 000a 0546     		mov	r5, r0
 2457              		.loc 1 943 22 discriminator 1 view .LVU723
 2458 000c 91B1     		cbz	r1, .L227
 944:../Drivers/ISP/isp/Src/isp_services.c ****       (pConfig->ispGainR > ISP_EXPOSURE_GAIN_MAX) || (pConfig->ispGainG > ISP_EXPOSURE_GAIN_MAX) ||
 2459              		.loc 1 944 15 view .LVU724
 2460 000e 4868     		ldr	r0, [r1, #4]
 2461              	.LVL220:
 943:../Drivers/ISP/isp/Src/isp_services.c ****       (pConfig->ispGainR > ISP_EXPOSURE_GAIN_MAX) || (pConfig->ispGainG > ISP_EXPOSURE_GAIN_MAX) ||
 2462              		.loc 1 943 43 discriminator 2 view .LVU725
 2463 0010 1A4B     		ldr	r3, .L238
 2464 0012 9842     		cmp	r0, r3
 2465 0014 0ED8     		bhi	.L227
 2466              		.loc 1 944 62 discriminator 1 view .LVU726
 2467 0016 8A68     		ldr	r2, [r1, #8]
 2468              		.loc 1 944 51 discriminator 1 view .LVU727
 2469 0018 9A42     		cmp	r2, r3
 2470 001a 0BD8     		bhi	.L227
 2471              		.loc 1 944 109 discriminator 2 view .LVU728
 2472 001c CA68     		ldr	r2, [r1, #12]
 2473              		.loc 1 944 98 discriminator 2 view .LVU729
 2474 001e 9A42     		cmp	r2, r3
 2475 0020 08D8     		bhi	.L227
 945:../Drivers/ISP/isp/Src/isp_services.c ****   {
ARM GAS  /tmp/ccAu1Zkx.s 			page 66


 946:../Drivers/ISP/isp/Src/isp_services.c ****     return ISP_ERR_ISPGAIN_EINVAL;
 947:../Drivers/ISP/isp/Src/isp_services.c ****   }
 948:../Drivers/ISP/isp/Src/isp_services.c **** 
 949:../Drivers/ISP/isp/Src/isp_services.c ****   if (pConfig->enable == 0)
 2476              		.loc 1 949 3 is_stmt 1 view .LVU730
 2477              		.loc 1 949 14 is_stmt 0 view .LVU731
 2478 0022 0B78     		ldrb	r3, [r1]	@ zero_extendqisi2
 2479              		.loc 1 949 6 view .LVU732
 2480 0024 4BB9     		cbnz	r3, .L230
 950:../Drivers/ISP/isp/Src/isp_services.c ****   {
 951:../Drivers/ISP/isp/Src/isp_services.c ****     halStatus = HAL_DCMIPP_PIPE_DisableISPExposure(hIsp->hDcmipp, DCMIPP_PIPE1);
 2481              		.loc 1 951 5 is_stmt 1 view .LVU733
 2482              		.loc 1 951 17 is_stmt 0 view .LVU734
 2483 0026 0121     		movs	r1, #1
 2484              	.LVL221:
 2485              		.loc 1 951 17 view .LVU735
 2486 0028 2868     		ldr	r0, [r5]
 2487 002a FFF7FEFF 		bl	HAL_DCMIPP_PIPE_DisableISPExposure
 2488              	.LVL222:
 2489              	.L231:
 952:../Drivers/ISP/isp/Src/isp_services.c ****   }
 953:../Drivers/ISP/isp/Src/isp_services.c ****   else
 954:../Drivers/ISP/isp/Src/isp_services.c ****   {
 955:../Drivers/ISP/isp/Src/isp_services.c ****     To_Shift_Multiplier(pConfig->ispGainR, &exposureConfig.ShiftRed, &exposureConfig.MultiplierRed)
 956:../Drivers/ISP/isp/Src/isp_services.c ****     To_Shift_Multiplier(pConfig->ispGainG, &exposureConfig.ShiftGreen, &exposureConfig.MultiplierGr
 957:../Drivers/ISP/isp/Src/isp_services.c ****     To_Shift_Multiplier(pConfig->ispGainB, &exposureConfig.ShiftBlue, &exposureConfig.MultiplierBlu
 958:../Drivers/ISP/isp/Src/isp_services.c ****     halStatus = HAL_DCMIPP_PIPE_SetISPExposureConfig(hIsp->hDcmipp, DCMIPP_PIPE1, &exposureConfig);
 959:../Drivers/ISP/isp/Src/isp_services.c **** 
 960:../Drivers/ISP/isp/Src/isp_services.c ****     if (halStatus == HAL_OK)
 961:../Drivers/ISP/isp/Src/isp_services.c ****     {
 962:../Drivers/ISP/isp/Src/isp_services.c ****       halStatus = HAL_DCMIPP_PIPE_EnableISPExposure(hIsp->hDcmipp, DCMIPP_PIPE1);
 963:../Drivers/ISP/isp/Src/isp_services.c ****     }
 964:../Drivers/ISP/isp/Src/isp_services.c ****   }
 965:../Drivers/ISP/isp/Src/isp_services.c **** 
 966:../Drivers/ISP/isp/Src/isp_services.c ****   if (halStatus != HAL_OK)
 2490              		.loc 1 966 3 is_stmt 1 view .LVU736
 2491              		.loc 1 966 6 is_stmt 0 view .LVU737
 2492 002e 10B1     		cbz	r0, .L229
 967:../Drivers/ISP/isp/Src/isp_services.c ****   {
 968:../Drivers/ISP/isp/Src/isp_services.c ****     return ISP_ERR_ISPGAIN_HAL;
 2493              		.loc 1 968 12 view .LVU738
 2494 0030 5120     		movs	r0, #81
 2495              	.LVL223:
 2496              		.loc 1 968 12 view .LVU739
 2497 0032 00E0     		b	.L229
 2498              	.LVL224:
 2499              	.L227:
 946:../Drivers/ISP/isp/Src/isp_services.c ****   }
 2500              		.loc 1 946 12 view .LVU740
 2501 0034 5020     		movs	r0, #80
 2502              	.LVL225:
 2503              	.L229:
 969:../Drivers/ISP/isp/Src/isp_services.c ****   }
 970:../Drivers/ISP/isp/Src/isp_services.c **** 
 971:../Drivers/ISP/isp/Src/isp_services.c ****   return ISP_OK;
 972:../Drivers/ISP/isp/Src/isp_services.c **** }
 2504              		.loc 1 972 1 view .LVU741
ARM GAS  /tmp/ccAu1Zkx.s 			page 67


 2505 0036 03B0     		add	sp, sp, #12
 2506              	.LCFI49:
 2507              		.cfi_remember_state
 2508              		.cfi_def_cfa_offset 12
 2509              		@ sp needed
 2510 0038 30BD     		pop	{r4, r5, pc}
 2511              	.LVL226:
 2512              	.L230:
 2513              	.LCFI50:
 2514              		.cfi_restore_state
 955:../Drivers/ISP/isp/Src/isp_services.c ****     To_Shift_Multiplier(pConfig->ispGainG, &exposureConfig.ShiftGreen, &exposureConfig.MultiplierGr
 2515              		.loc 1 955 5 is_stmt 1 view .LVU742
 2516 003a 0DF10102 		add	r2, sp, #1
 2517 003e 6946     		mov	r1, sp
 2518              	.LVL227:
 955:../Drivers/ISP/isp/Src/isp_services.c ****     To_Shift_Multiplier(pConfig->ispGainG, &exposureConfig.ShiftGreen, &exposureConfig.MultiplierGr
 2519              		.loc 1 955 5 is_stmt 0 view .LVU743
 2520 0040 FFF7FEFF 		bl	To_Shift_Multiplier
 2521              	.LVL228:
 956:../Drivers/ISP/isp/Src/isp_services.c ****     To_Shift_Multiplier(pConfig->ispGainB, &exposureConfig.ShiftBlue, &exposureConfig.MultiplierBlu
 2522              		.loc 1 956 5 is_stmt 1 view .LVU744
 2523 0044 0DF10302 		add	r2, sp, #3
 2524 0048 0DF10201 		add	r1, sp, #2
 2525 004c A068     		ldr	r0, [r4, #8]
 2526 004e FFF7FEFF 		bl	To_Shift_Multiplier
 2527              	.LVL229:
 957:../Drivers/ISP/isp/Src/isp_services.c ****     halStatus = HAL_DCMIPP_PIPE_SetISPExposureConfig(hIsp->hDcmipp, DCMIPP_PIPE1, &exposureConfig);
 2528              		.loc 1 957 5 view .LVU745
 2529 0052 0DF10502 		add	r2, sp, #5
 2530 0056 01A9     		add	r1, sp, #4
 2531 0058 E068     		ldr	r0, [r4, #12]
 2532 005a FFF7FEFF 		bl	To_Shift_Multiplier
 2533              	.LVL230:
 958:../Drivers/ISP/isp/Src/isp_services.c **** 
 2534              		.loc 1 958 5 view .LVU746
 958:../Drivers/ISP/isp/Src/isp_services.c **** 
 2535              		.loc 1 958 17 is_stmt 0 view .LVU747
 2536 005e 6A46     		mov	r2, sp
 2537 0060 0121     		movs	r1, #1
 2538 0062 2868     		ldr	r0, [r5]
 2539 0064 FFF7FEFF 		bl	HAL_DCMIPP_PIPE_SetISPExposureConfig
 2540              	.LVL231:
 960:../Drivers/ISP/isp/Src/isp_services.c ****     {
 2541              		.loc 1 960 5 is_stmt 1 view .LVU748
 960:../Drivers/ISP/isp/Src/isp_services.c ****     {
 2542              		.loc 1 960 8 is_stmt 0 view .LVU749
 2543 0068 20B9     		cbnz	r0, .L232
 962:../Drivers/ISP/isp/Src/isp_services.c ****     }
 2544              		.loc 1 962 7 is_stmt 1 view .LVU750
 962:../Drivers/ISP/isp/Src/isp_services.c ****     }
 2545              		.loc 1 962 19 is_stmt 0 view .LVU751
 2546 006a 0121     		movs	r1, #1
 2547 006c 2868     		ldr	r0, [r5]
 2548              	.LVL232:
 962:../Drivers/ISP/isp/Src/isp_services.c ****     }
 2549              		.loc 1 962 19 view .LVU752
 2550 006e FFF7FEFF 		bl	HAL_DCMIPP_PIPE_EnableISPExposure
ARM GAS  /tmp/ccAu1Zkx.s 			page 68


 2551              	.LVL233:
 2552 0072 DCE7     		b	.L231
 2553              	.LVL234:
 2554              	.L232:
 968:../Drivers/ISP/isp/Src/isp_services.c ****   }
 2555              		.loc 1 968 12 view .LVU753
 2556 0074 5120     		movs	r0, #81
 2557              	.LVL235:
 968:../Drivers/ISP/isp/Src/isp_services.c ****   }
 2558              		.loc 1 968 12 view .LVU754
 2559 0076 DEE7     		b	.L229
 2560              	.LVL236:
 2561              	.L235:
 2562              	.LCFI51:
 2563              		.cfi_def_cfa_offset 0
 2564              		.cfi_restore 4
 2565              		.cfi_restore 5
 2566              		.cfi_restore 14
 946:../Drivers/ISP/isp/Src/isp_services.c ****   }
 2567              		.loc 1 946 12 view .LVU755
 2568 0078 5020     		movs	r0, #80
 2569              	.LVL237:
 2570              		.loc 1 972 1 view .LVU756
 2571 007a 7047     		bx	lr
 2572              	.L239:
 2573              		.align	2
 2574              	.L238:
 2575 007c 00105E5F 		.word	1600000000
 2576              		.cfi_endproc
 2577              	.LFE907:
 2579              		.section	.text.ISP_SVC_ISP_GetGain,"ax",%progbits
 2580              		.align	1
 2581              		.global	ISP_SVC_ISP_GetGain
 2582              		.syntax unified
 2583              		.thumb
 2584              		.thumb_func
 2586              	ISP_SVC_ISP_GetGain:
 2587              	.LVL238:
 2588              	.LFB908:
 973:../Drivers/ISP/isp/Src/isp_services.c **** 
 974:../Drivers/ISP/isp/Src/isp_services.c **** /**
 975:../Drivers/ISP/isp/Src/isp_services.c ****   * @brief  ISP_SVC_ISP_GetGain
 976:../Drivers/ISP/isp/Src/isp_services.c ****   *         Get the ISP Exposure and White Balance gains
 977:../Drivers/ISP/isp/Src/isp_services.c ****   * @param  hIsp: ISP device handle
 978:../Drivers/ISP/isp/Src/isp_services.c ****   * @param  pConfig: Pointer to the ISP gain configuration
 979:../Drivers/ISP/isp/Src/isp_services.c ****   * @retval operation result
 980:../Drivers/ISP/isp/Src/isp_services.c ****   */
 981:../Drivers/ISP/isp/Src/isp_services.c **** ISP_StatusTypeDef ISP_SVC_ISP_GetGain(ISP_HandleTypeDef *hIsp, ISP_ISPGainTypeDef *pConfig)
 982:../Drivers/ISP/isp/Src/isp_services.c **** {
 2589              		.loc 1 982 1 is_stmt 1 view -0
 2590              		.cfi_startproc
 2591              		@ args = 0, pretend = 0, frame = 8
 2592              		@ frame_needed = 0, uses_anonymous_args = 0
 983:../Drivers/ISP/isp/Src/isp_services.c ****   DCMIPP_ExposureConfTypeDef exposureConfig;
 2593              		.loc 1 983 3 view .LVU758
 984:../Drivers/ISP/isp/Src/isp_services.c **** 
 985:../Drivers/ISP/isp/Src/isp_services.c ****   /* Check handle validity */
ARM GAS  /tmp/ccAu1Zkx.s 			page 69


 986:../Drivers/ISP/isp/Src/isp_services.c ****   if ((hIsp == NULL) || (pConfig == NULL))
 2594              		.loc 1 986 3 view .LVU759
 2595              		.loc 1 986 6 is_stmt 0 view .LVU760
 2596 0000 40B3     		cbz	r0, .L245
 982:../Drivers/ISP/isp/Src/isp_services.c ****   DCMIPP_ExposureConfTypeDef exposureConfig;
 2597              		.loc 1 982 1 view .LVU761
 2598 0002 30B5     		push	{r4, r5, lr}
 2599              	.LCFI52:
 2600              		.cfi_def_cfa_offset 12
 2601              		.cfi_offset 4, -12
 2602              		.cfi_offset 5, -8
 2603              		.cfi_offset 14, -4
 2604 0004 83B0     		sub	sp, sp, #12
 2605              	.LCFI53:
 2606              		.cfi_def_cfa_offset 24
 2607 0006 0C46     		mov	r4, r1
 2608              		.loc 1 986 22 discriminator 1 view .LVU762
 2609 0008 11B3     		cbz	r1, .L248
 987:../Drivers/ISP/isp/Src/isp_services.c ****   {
 988:../Drivers/ISP/isp/Src/isp_services.c ****     return ISP_ERR_ISPGAIN_EINVAL;
 989:../Drivers/ISP/isp/Src/isp_services.c ****   }
 990:../Drivers/ISP/isp/Src/isp_services.c **** 
 991:../Drivers/ISP/isp/Src/isp_services.c ****   pConfig->enable = (uint8_t) HAL_DCMIPP_PIPE_IsEnabledISPExposure(hIsp->hDcmipp, DCMIPP_PIPE1);
 2610              		.loc 1 991 3 is_stmt 1 view .LVU763
 2611              		.loc 1 991 31 is_stmt 0 view .LVU764
 2612 000a 0121     		movs	r1, #1
 2613              	.LVL239:
 2614              		.loc 1 991 31 view .LVU765
 2615 000c 0546     		mov	r5, r0
 2616 000e 0068     		ldr	r0, [r0]
 2617              	.LVL240:
 2618              		.loc 1 991 31 view .LVU766
 2619 0010 FFF7FEFF 		bl	HAL_DCMIPP_PIPE_IsEnabledISPExposure
 2620              	.LVL241:
 2621              		.loc 1 991 19 discriminator 1 view .LVU767
 2622 0014 2070     		strb	r0, [r4]
 992:../Drivers/ISP/isp/Src/isp_services.c ****   HAL_DCMIPP_PIPE_GetISPExposureConfig(hIsp->hDcmipp, DCMIPP_PIPE1, &exposureConfig);
 2623              		.loc 1 992 3 is_stmt 1 view .LVU768
 2624 0016 6A46     		mov	r2, sp
 2625 0018 0121     		movs	r1, #1
 2626 001a 2868     		ldr	r0, [r5]
 2627 001c FFF7FEFF 		bl	HAL_DCMIPP_PIPE_GetISPExposureConfig
 2628              	.LVL242:
 993:../Drivers/ISP/isp/Src/isp_services.c **** 
 994:../Drivers/ISP/isp/Src/isp_services.c ****   pConfig->ispGainR = From_Shift_Multiplier(exposureConfig.ShiftRed, exposureConfig.MultiplierRed);
 2629              		.loc 1 994 3 view .LVU769
 2630              		.loc 1 994 23 is_stmt 0 view .LVU770
 2631 0020 9DF80110 		ldrb	r1, [sp, #1]	@ zero_extendqisi2
 2632 0024 9DF80000 		ldrb	r0, [sp]	@ zero_extendqisi2
 2633 0028 FFF7FEFF 		bl	From_Shift_Multiplier
 2634              	.LVL243:
 2635              		.loc 1 994 21 discriminator 1 view .LVU771
 2636 002c 6060     		str	r0, [r4, #4]
 995:../Drivers/ISP/isp/Src/isp_services.c ****   pConfig->ispGainG = From_Shift_Multiplier(exposureConfig.ShiftGreen, exposureConfig.MultiplierGre
 2637              		.loc 1 995 3 is_stmt 1 view .LVU772
 2638              		.loc 1 995 23 is_stmt 0 view .LVU773
 2639 002e 9DF80310 		ldrb	r1, [sp, #3]	@ zero_extendqisi2
ARM GAS  /tmp/ccAu1Zkx.s 			page 70


 2640 0032 9DF80200 		ldrb	r0, [sp, #2]	@ zero_extendqisi2
 2641 0036 FFF7FEFF 		bl	From_Shift_Multiplier
 2642              	.LVL244:
 2643              		.loc 1 995 21 discriminator 1 view .LVU774
 2644 003a A060     		str	r0, [r4, #8]
 996:../Drivers/ISP/isp/Src/isp_services.c ****   pConfig->ispGainB = From_Shift_Multiplier(exposureConfig.ShiftBlue, exposureConfig.MultiplierBlue
 2645              		.loc 1 996 3 is_stmt 1 view .LVU775
 2646              		.loc 1 996 23 is_stmt 0 view .LVU776
 2647 003c 9DF80510 		ldrb	r1, [sp, #5]	@ zero_extendqisi2
 2648 0040 9DF80400 		ldrb	r0, [sp, #4]	@ zero_extendqisi2
 2649 0044 FFF7FEFF 		bl	From_Shift_Multiplier
 2650              	.LVL245:
 2651              		.loc 1 996 21 discriminator 1 view .LVU777
 2652 0048 E060     		str	r0, [r4, #12]
 997:../Drivers/ISP/isp/Src/isp_services.c **** 
 998:../Drivers/ISP/isp/Src/isp_services.c ****   return ISP_OK;
 2653              		.loc 1 998 3 is_stmt 1 view .LVU778
 2654              		.loc 1 998 10 is_stmt 0 view .LVU779
 2655 004a 0020     		movs	r0, #0
 2656              	.LVL246:
 2657              	.L243:
 999:../Drivers/ISP/isp/Src/isp_services.c **** }
 2658              		.loc 1 999 1 view .LVU780
 2659 004c 03B0     		add	sp, sp, #12
 2660              	.LCFI54:
 2661              		.cfi_remember_state
 2662              		.cfi_def_cfa_offset 12
 2663              		@ sp needed
 2664 004e 30BD     		pop	{r4, r5, pc}
 2665              	.LVL247:
 2666              	.L248:
 2667              	.LCFI55:
 2668              		.cfi_restore_state
 988:../Drivers/ISP/isp/Src/isp_services.c ****   }
 2669              		.loc 1 988 12 view .LVU781
 2670 0050 5020     		movs	r0, #80
 2671              	.LVL248:
 988:../Drivers/ISP/isp/Src/isp_services.c ****   }
 2672              		.loc 1 988 12 view .LVU782
 2673 0052 FBE7     		b	.L243
 2674              	.LVL249:
 2675              	.L245:
 2676              	.LCFI56:
 2677              		.cfi_def_cfa_offset 0
 2678              		.cfi_restore 4
 2679              		.cfi_restore 5
 2680              		.cfi_restore 14
 988:../Drivers/ISP/isp/Src/isp_services.c ****   }
 2681              		.loc 1 988 12 view .LVU783
 2682 0054 5020     		movs	r0, #80
 2683              	.LVL250:
 2684              		.loc 1 999 1 view .LVU784
 2685 0056 7047     		bx	lr
 2686              		.cfi_endproc
 2687              	.LFE908:
 2689              		.section	.text.ISP_SVC_ISP_SetColorConv,"ax",%progbits
 2690              		.align	1
ARM GAS  /tmp/ccAu1Zkx.s 			page 71


 2691              		.global	ISP_SVC_ISP_SetColorConv
 2692              		.syntax unified
 2693              		.thumb
 2694              		.thumb_func
 2696              	ISP_SVC_ISP_SetColorConv:
 2697              	.LVL251:
 2698              	.LFB909:
1000:../Drivers/ISP/isp/Src/isp_services.c **** 
1001:../Drivers/ISP/isp/Src/isp_services.c **** /**
1002:../Drivers/ISP/isp/Src/isp_services.c ****   * @brief  ISP_SVC_ISP_SetColorConv
1003:../Drivers/ISP/isp/Src/isp_services.c ****   *         Set the ISP Color Conversion
1004:../Drivers/ISP/isp/Src/isp_services.c ****   * @param  hIsp: ISP device handle
1005:../Drivers/ISP/isp/Src/isp_services.c ****   * @param  pConfig: Pointer to the Color Conversion configuration
1006:../Drivers/ISP/isp/Src/isp_services.c ****   * @retval operation result
1007:../Drivers/ISP/isp/Src/isp_services.c ****   */
1008:../Drivers/ISP/isp/Src/isp_services.c **** ISP_StatusTypeDef ISP_SVC_ISP_SetColorConv(ISP_HandleTypeDef *hIsp, ISP_ColorConvTypeDef *pConfig)
1009:../Drivers/ISP/isp/Src/isp_services.c **** {
 2699              		.loc 1 1009 1 is_stmt 1 view -0
 2700              		.cfi_startproc
 2701              		@ args = 0, pretend = 0, frame = 32
 2702              		@ frame_needed = 0, uses_anonymous_args = 0
 2703              		.loc 1 1009 1 is_stmt 0 view .LVU786
 2704 0000 30B5     		push	{r4, r5, lr}
 2705              	.LCFI57:
 2706              		.cfi_def_cfa_offset 12
 2707              		.cfi_offset 4, -12
 2708              		.cfi_offset 5, -8
 2709              		.cfi_offset 14, -4
 2710 0002 89B0     		sub	sp, sp, #36
 2711              	.LCFI58:
 2712              		.cfi_def_cfa_offset 48
1010:../Drivers/ISP/isp/Src/isp_services.c ****   HAL_StatusTypeDef halStatus;
 2713              		.loc 1 1010 3 is_stmt 1 view .LVU787
1011:../Drivers/ISP/isp/Src/isp_services.c ****   DCMIPP_ColorConversionConfTypeDef colorConvConfig;
 2714              		.loc 1 1011 3 view .LVU788
1012:../Drivers/ISP/isp/Src/isp_services.c ****   uint32_t i, j;
 2715              		.loc 1 1012 3 view .LVU789
1013:../Drivers/ISP/isp/Src/isp_services.c **** 
1014:../Drivers/ISP/isp/Src/isp_services.c ****   memset(&colorConvConfig, 0, sizeof(colorConvConfig));
 2716              		.loc 1 1014 3 view .LVU790
 2717 0004 0023     		movs	r3, #0
 2718 0006 0193     		str	r3, [sp, #4]
 2719 0008 0293     		str	r3, [sp, #8]
 2720 000a 0393     		str	r3, [sp, #12]
 2721 000c 0493     		str	r3, [sp, #16]
 2722 000e 0593     		str	r3, [sp, #20]
 2723 0010 0693     		str	r3, [sp, #24]
 2724 0012 ADF81C30 		strh	r3, [sp, #28]	@ movhi
1015:../Drivers/ISP/isp/Src/isp_services.c **** 
1016:../Drivers/ISP/isp/Src/isp_services.c ****   /* Check handle validity */
1017:../Drivers/ISP/isp/Src/isp_services.c ****   if ((hIsp == NULL) || (pConfig == NULL))
 2725              		.loc 1 1017 3 view .LVU791
 2726              		.loc 1 1017 6 is_stmt 0 view .LVU792
 2727 0016 20B1     		cbz	r0, .L250
 2728 0018 0C46     		mov	r4, r1
 2729 001a 0546     		mov	r5, r0
 2730              		.loc 1 1017 22 discriminator 1 view .LVU793
ARM GAS  /tmp/ccAu1Zkx.s 			page 72


 2731 001c 09B1     		cbz	r1, .L250
1018:../Drivers/ISP/isp/Src/isp_services.c ****   {
1019:../Drivers/ISP/isp/Src/isp_services.c ****     return ISP_ERR_COLORCONV_EINVAL;
1020:../Drivers/ISP/isp/Src/isp_services.c ****   }
1021:../Drivers/ISP/isp/Src/isp_services.c **** 
1022:../Drivers/ISP/isp/Src/isp_services.c ****   for (i = 0; i < 3; i++)
 2732              		.loc 1 1022 10 view .LVU794
 2733 001e 0020     		movs	r0, #0
 2734              	.LVL252:
 2735              		.loc 1 1022 10 view .LVU795
 2736 0020 03E0     		b	.L251
 2737              	.LVL253:
 2738              	.L250:
1019:../Drivers/ISP/isp/Src/isp_services.c ****   }
 2739              		.loc 1 1019 12 view .LVU796
 2740 0022 5A20     		movs	r0, #90
 2741              	.L252:
1023:../Drivers/ISP/isp/Src/isp_services.c ****   {
1024:../Drivers/ISP/isp/Src/isp_services.c ****     for (j = 0; j < 3; j++)
1025:../Drivers/ISP/isp/Src/isp_services.c ****     {
1026:../Drivers/ISP/isp/Src/isp_services.c ****       if ((pConfig->coeff[i][j] > ISP_COLORCONV_MAX) || (pConfig->coeff[i][j] < -ISP_COLORCONV_MAX)
1027:../Drivers/ISP/isp/Src/isp_services.c ****       {
1028:../Drivers/ISP/isp/Src/isp_services.c ****         return ISP_ERR_COLORCONV_EINVAL;
1029:../Drivers/ISP/isp/Src/isp_services.c ****       }
1030:../Drivers/ISP/isp/Src/isp_services.c ****     }
1031:../Drivers/ISP/isp/Src/isp_services.c ****   }
1032:../Drivers/ISP/isp/Src/isp_services.c **** 
1033:../Drivers/ISP/isp/Src/isp_services.c ****   if (pConfig->enable == 0)
1034:../Drivers/ISP/isp/Src/isp_services.c ****   {
1035:../Drivers/ISP/isp/Src/isp_services.c ****     halStatus = HAL_DCMIPP_PIPE_DisableISPColorConversion(hIsp->hDcmipp, DCMIPP_PIPE1);
1036:../Drivers/ISP/isp/Src/isp_services.c ****   }
1037:../Drivers/ISP/isp/Src/isp_services.c ****   else
1038:../Drivers/ISP/isp/Src/isp_services.c ****   {
1039:../Drivers/ISP/isp/Src/isp_services.c ****     colorConvConfig.RR = To_CConv_Reg(pConfig->coeff[0][0]);
1040:../Drivers/ISP/isp/Src/isp_services.c ****     colorConvConfig.RG = To_CConv_Reg(pConfig->coeff[0][1]);
1041:../Drivers/ISP/isp/Src/isp_services.c ****     colorConvConfig.RB = To_CConv_Reg(pConfig->coeff[0][2]);
1042:../Drivers/ISP/isp/Src/isp_services.c ****     colorConvConfig.GR = To_CConv_Reg(pConfig->coeff[1][0]);
1043:../Drivers/ISP/isp/Src/isp_services.c ****     colorConvConfig.GG = To_CConv_Reg(pConfig->coeff[1][1]);
1044:../Drivers/ISP/isp/Src/isp_services.c ****     colorConvConfig.GB = To_CConv_Reg(pConfig->coeff[1][2]);
1045:../Drivers/ISP/isp/Src/isp_services.c ****     colorConvConfig.BR = To_CConv_Reg(pConfig->coeff[2][0]);
1046:../Drivers/ISP/isp/Src/isp_services.c ****     colorConvConfig.BG = To_CConv_Reg(pConfig->coeff[2][1]);
1047:../Drivers/ISP/isp/Src/isp_services.c ****     colorConvConfig.BB = To_CConv_Reg(pConfig->coeff[2][2]);
1048:../Drivers/ISP/isp/Src/isp_services.c ****     halStatus = HAL_DCMIPP_PIPE_SetISPColorConversionConfig(hIsp->hDcmipp, DCMIPP_PIPE1, &colorConv
1049:../Drivers/ISP/isp/Src/isp_services.c **** 
1050:../Drivers/ISP/isp/Src/isp_services.c ****     if (halStatus == HAL_OK)
1051:../Drivers/ISP/isp/Src/isp_services.c ****     {
1052:../Drivers/ISP/isp/Src/isp_services.c ****       halStatus = HAL_DCMIPP_PIPE_EnableISPColorConversion(hIsp->hDcmipp, DCMIPP_PIPE1);
1053:../Drivers/ISP/isp/Src/isp_services.c ****     }
1054:../Drivers/ISP/isp/Src/isp_services.c ****   }
1055:../Drivers/ISP/isp/Src/isp_services.c **** 
1056:../Drivers/ISP/isp/Src/isp_services.c ****   if (halStatus != HAL_OK)
1057:../Drivers/ISP/isp/Src/isp_services.c ****   {
1058:../Drivers/ISP/isp/Src/isp_services.c ****     return ISP_ERR_COLORCONV_HAL;
1059:../Drivers/ISP/isp/Src/isp_services.c ****   }
1060:../Drivers/ISP/isp/Src/isp_services.c **** 
1061:../Drivers/ISP/isp/Src/isp_services.c ****   return ISP_OK;
1062:../Drivers/ISP/isp/Src/isp_services.c **** }
ARM GAS  /tmp/ccAu1Zkx.s 			page 73


 2742              		.loc 1 1062 1 view .LVU797
 2743 0024 09B0     		add	sp, sp, #36
 2744              	.LCFI59:
 2745              		.cfi_remember_state
 2746              		.cfi_def_cfa_offset 12
 2747              		@ sp needed
 2748 0026 30BD     		pop	{r4, r5, pc}
 2749              	.LVL254:
 2750              	.L263:
 2751              	.LCFI60:
 2752              		.cfi_restore_state
1022:../Drivers/ISP/isp/Src/isp_services.c ****   {
 2753              		.loc 1 1022 23 is_stmt 1 discriminator 1 view .LVU798
 2754 0028 0130     		adds	r0, r0, #1
 2755              	.LVL255:
 2756              	.L251:
1022:../Drivers/ISP/isp/Src/isp_services.c ****   {
 2757              		.loc 1 1022 17 discriminator 2 view .LVU799
 2758 002a 0228     		cmp	r0, #2
 2759 002c 0FD8     		bhi	.L262
1024:../Drivers/ISP/isp/Src/isp_services.c ****     {
 2760              		.loc 1 1024 12 is_stmt 0 view .LVU800
 2761 002e 0022     		movs	r2, #0
 2762              	.L254:
 2763              	.LVL256:
1024:../Drivers/ISP/isp/Src/isp_services.c ****     {
 2764              		.loc 1 1024 19 is_stmt 1 discriminator 2 view .LVU801
 2765 0030 022A     		cmp	r2, #2
 2766 0032 F9D8     		bhi	.L263
1026:../Drivers/ISP/isp/Src/isp_services.c ****       {
 2767              		.loc 1 1026 7 view .LVU802
1026:../Drivers/ISP/isp/Src/isp_services.c ****       {
 2768              		.loc 1 1026 29 is_stmt 0 view .LVU803
 2769 0034 00EB4003 		add	r3, r0, r0, lsl #1
 2770 0038 1344     		add	r3, r3, r2
 2771 003a 04EB8303 		add	r3, r4, r3, lsl #2
 2772 003e 5968     		ldr	r1, [r3, #4]
1026:../Drivers/ISP/isp/Src/isp_services.c ****       {
 2773              		.loc 1 1026 54 view .LVU804
 2774 0040 254B     		ldr	r3, .L264
 2775 0042 0B44     		add	r3, r3, r1
1026:../Drivers/ISP/isp/Src/isp_services.c ****       {
 2776              		.loc 1 1026 10 view .LVU805
 2777 0044 2549     		ldr	r1, .L264+4
 2778 0046 8B42     		cmp	r3, r1
 2779 0048 EBD8     		bhi	.L250
1024:../Drivers/ISP/isp/Src/isp_services.c ****     {
 2780              		.loc 1 1024 25 is_stmt 1 discriminator 1 view .LVU806
 2781 004a 0132     		adds	r2, r2, #1
 2782              	.LVL257:
1024:../Drivers/ISP/isp/Src/isp_services.c ****     {
 2783              		.loc 1 1024 25 is_stmt 0 discriminator 1 view .LVU807
 2784 004c F0E7     		b	.L254
 2785              	.LVL258:
 2786              	.L262:
1033:../Drivers/ISP/isp/Src/isp_services.c ****   {
 2787              		.loc 1 1033 3 is_stmt 1 view .LVU808
ARM GAS  /tmp/ccAu1Zkx.s 			page 74


1033:../Drivers/ISP/isp/Src/isp_services.c ****   {
 2788              		.loc 1 1033 14 is_stmt 0 view .LVU809
 2789 004e 2378     		ldrb	r3, [r4]	@ zero_extendqisi2
1033:../Drivers/ISP/isp/Src/isp_services.c ****   {
 2790              		.loc 1 1033 6 view .LVU810
 2791 0050 3BB9     		cbnz	r3, .L255
1035:../Drivers/ISP/isp/Src/isp_services.c ****   }
 2792              		.loc 1 1035 5 is_stmt 1 view .LVU811
1035:../Drivers/ISP/isp/Src/isp_services.c ****   }
 2793              		.loc 1 1035 17 is_stmt 0 view .LVU812
 2794 0052 0121     		movs	r1, #1
 2795 0054 2868     		ldr	r0, [r5]
 2796              	.LVL259:
1035:../Drivers/ISP/isp/Src/isp_services.c ****   }
 2797              		.loc 1 1035 17 view .LVU813
 2798 0056 FFF7FEFF 		bl	HAL_DCMIPP_PIPE_DisableISPColorConversion
 2799              	.LVL260:
 2800              	.L256:
1056:../Drivers/ISP/isp/Src/isp_services.c ****   {
 2801              		.loc 1 1056 3 is_stmt 1 view .LVU814
1056:../Drivers/ISP/isp/Src/isp_services.c ****   {
 2802              		.loc 1 1056 6 is_stmt 0 view .LVU815
 2803 005a 0028     		cmp	r0, #0
 2804 005c E2D0     		beq	.L252
1058:../Drivers/ISP/isp/Src/isp_services.c ****   }
 2805              		.loc 1 1058 12 view .LVU816
 2806 005e 5B20     		movs	r0, #91
 2807              	.LVL261:
1058:../Drivers/ISP/isp/Src/isp_services.c ****   }
 2808              		.loc 1 1058 12 view .LVU817
 2809 0060 E0E7     		b	.L252
 2810              	.LVL262:
 2811              	.L255:
1039:../Drivers/ISP/isp/Src/isp_services.c ****     colorConvConfig.RG = To_CConv_Reg(pConfig->coeff[0][1]);
 2812              		.loc 1 1039 5 is_stmt 1 view .LVU818
1039:../Drivers/ISP/isp/Src/isp_services.c ****     colorConvConfig.RG = To_CConv_Reg(pConfig->coeff[0][1]);
 2813              		.loc 1 1039 26 is_stmt 0 view .LVU819
 2814 0062 6068     		ldr	r0, [r4, #4]
 2815              	.LVL263:
1039:../Drivers/ISP/isp/Src/isp_services.c ****     colorConvConfig.RG = To_CConv_Reg(pConfig->coeff[0][1]);
 2816              		.loc 1 1039 26 view .LVU820
 2817 0064 FFF7FEFF 		bl	To_CConv_Reg
 2818              	.LVL264:
1039:../Drivers/ISP/isp/Src/isp_services.c ****     colorConvConfig.RG = To_CConv_Reg(pConfig->coeff[0][1]);
 2819              		.loc 1 1039 24 discriminator 1 view .LVU821
 2820 0068 ADF80600 		strh	r0, [sp, #6]	@ movhi
1040:../Drivers/ISP/isp/Src/isp_services.c ****     colorConvConfig.RB = To_CConv_Reg(pConfig->coeff[0][2]);
 2821              		.loc 1 1040 5 is_stmt 1 view .LVU822
1040:../Drivers/ISP/isp/Src/isp_services.c ****     colorConvConfig.RB = To_CConv_Reg(pConfig->coeff[0][2]);
 2822              		.loc 1 1040 26 is_stmt 0 view .LVU823
 2823 006c A068     		ldr	r0, [r4, #8]
 2824 006e FFF7FEFF 		bl	To_CConv_Reg
 2825              	.LVL265:
1040:../Drivers/ISP/isp/Src/isp_services.c ****     colorConvConfig.RB = To_CConv_Reg(pConfig->coeff[0][2]);
 2826              		.loc 1 1040 24 discriminator 1 view .LVU824
 2827 0072 ADF80800 		strh	r0, [sp, #8]	@ movhi
1041:../Drivers/ISP/isp/Src/isp_services.c ****     colorConvConfig.GR = To_CConv_Reg(pConfig->coeff[1][0]);
ARM GAS  /tmp/ccAu1Zkx.s 			page 75


 2828              		.loc 1 1041 5 is_stmt 1 view .LVU825
1041:../Drivers/ISP/isp/Src/isp_services.c ****     colorConvConfig.GR = To_CConv_Reg(pConfig->coeff[1][0]);
 2829              		.loc 1 1041 26 is_stmt 0 view .LVU826
 2830 0076 E068     		ldr	r0, [r4, #12]
 2831 0078 FFF7FEFF 		bl	To_CConv_Reg
 2832              	.LVL266:
1041:../Drivers/ISP/isp/Src/isp_services.c ****     colorConvConfig.GR = To_CConv_Reg(pConfig->coeff[1][0]);
 2833              		.loc 1 1041 24 discriminator 1 view .LVU827
 2834 007c ADF80A00 		strh	r0, [sp, #10]	@ movhi
1042:../Drivers/ISP/isp/Src/isp_services.c ****     colorConvConfig.GG = To_CConv_Reg(pConfig->coeff[1][1]);
 2835              		.loc 1 1042 5 is_stmt 1 view .LVU828
1042:../Drivers/ISP/isp/Src/isp_services.c ****     colorConvConfig.GG = To_CConv_Reg(pConfig->coeff[1][1]);
 2836              		.loc 1 1042 26 is_stmt 0 view .LVU829
 2837 0080 2069     		ldr	r0, [r4, #16]
 2838 0082 FFF7FEFF 		bl	To_CConv_Reg
 2839              	.LVL267:
1042:../Drivers/ISP/isp/Src/isp_services.c ****     colorConvConfig.GG = To_CConv_Reg(pConfig->coeff[1][1]);
 2840              		.loc 1 1042 24 discriminator 1 view .LVU830
 2841 0086 ADF80E00 		strh	r0, [sp, #14]	@ movhi
1043:../Drivers/ISP/isp/Src/isp_services.c ****     colorConvConfig.GB = To_CConv_Reg(pConfig->coeff[1][2]);
 2842              		.loc 1 1043 5 is_stmt 1 view .LVU831
1043:../Drivers/ISP/isp/Src/isp_services.c ****     colorConvConfig.GB = To_CConv_Reg(pConfig->coeff[1][2]);
 2843              		.loc 1 1043 26 is_stmt 0 view .LVU832
 2844 008a 6069     		ldr	r0, [r4, #20]
 2845 008c FFF7FEFF 		bl	To_CConv_Reg
 2846              	.LVL268:
1043:../Drivers/ISP/isp/Src/isp_services.c ****     colorConvConfig.GB = To_CConv_Reg(pConfig->coeff[1][2]);
 2847              		.loc 1 1043 24 discriminator 1 view .LVU833
 2848 0090 ADF81000 		strh	r0, [sp, #16]	@ movhi
1044:../Drivers/ISP/isp/Src/isp_services.c ****     colorConvConfig.BR = To_CConv_Reg(pConfig->coeff[2][0]);
 2849              		.loc 1 1044 5 is_stmt 1 view .LVU834
1044:../Drivers/ISP/isp/Src/isp_services.c ****     colorConvConfig.BR = To_CConv_Reg(pConfig->coeff[2][0]);
 2850              		.loc 1 1044 26 is_stmt 0 view .LVU835
 2851 0094 A069     		ldr	r0, [r4, #24]
 2852 0096 FFF7FEFF 		bl	To_CConv_Reg
 2853              	.LVL269:
1044:../Drivers/ISP/isp/Src/isp_services.c ****     colorConvConfig.BR = To_CConv_Reg(pConfig->coeff[2][0]);
 2854              		.loc 1 1044 24 discriminator 1 view .LVU836
 2855 009a ADF81200 		strh	r0, [sp, #18]	@ movhi
1045:../Drivers/ISP/isp/Src/isp_services.c ****     colorConvConfig.BG = To_CConv_Reg(pConfig->coeff[2][1]);
 2856              		.loc 1 1045 5 is_stmt 1 view .LVU837
1045:../Drivers/ISP/isp/Src/isp_services.c ****     colorConvConfig.BG = To_CConv_Reg(pConfig->coeff[2][1]);
 2857              		.loc 1 1045 26 is_stmt 0 view .LVU838
 2858 009e E069     		ldr	r0, [r4, #28]
 2859 00a0 FFF7FEFF 		bl	To_CConv_Reg
 2860              	.LVL270:
1045:../Drivers/ISP/isp/Src/isp_services.c ****     colorConvConfig.BG = To_CConv_Reg(pConfig->coeff[2][1]);
 2861              		.loc 1 1045 24 discriminator 1 view .LVU839
 2862 00a4 ADF81600 		strh	r0, [sp, #22]	@ movhi
1046:../Drivers/ISP/isp/Src/isp_services.c ****     colorConvConfig.BB = To_CConv_Reg(pConfig->coeff[2][2]);
 2863              		.loc 1 1046 5 is_stmt 1 view .LVU840
1046:../Drivers/ISP/isp/Src/isp_services.c ****     colorConvConfig.BB = To_CConv_Reg(pConfig->coeff[2][2]);
 2864              		.loc 1 1046 26 is_stmt 0 view .LVU841
 2865 00a8 206A     		ldr	r0, [r4, #32]
 2866 00aa FFF7FEFF 		bl	To_CConv_Reg
 2867              	.LVL271:
1046:../Drivers/ISP/isp/Src/isp_services.c ****     colorConvConfig.BB = To_CConv_Reg(pConfig->coeff[2][2]);
ARM GAS  /tmp/ccAu1Zkx.s 			page 76


 2868              		.loc 1 1046 24 discriminator 1 view .LVU842
 2869 00ae ADF81800 		strh	r0, [sp, #24]	@ movhi
1047:../Drivers/ISP/isp/Src/isp_services.c ****     halStatus = HAL_DCMIPP_PIPE_SetISPColorConversionConfig(hIsp->hDcmipp, DCMIPP_PIPE1, &colorConv
 2870              		.loc 1 1047 5 is_stmt 1 view .LVU843
1047:../Drivers/ISP/isp/Src/isp_services.c ****     halStatus = HAL_DCMIPP_PIPE_SetISPColorConversionConfig(hIsp->hDcmipp, DCMIPP_PIPE1, &colorConv
 2871              		.loc 1 1047 26 is_stmt 0 view .LVU844
 2872 00b2 606A     		ldr	r0, [r4, #36]
 2873 00b4 FFF7FEFF 		bl	To_CConv_Reg
 2874              	.LVL272:
1047:../Drivers/ISP/isp/Src/isp_services.c ****     halStatus = HAL_DCMIPP_PIPE_SetISPColorConversionConfig(hIsp->hDcmipp, DCMIPP_PIPE1, &colorConv
 2875              		.loc 1 1047 24 discriminator 1 view .LVU845
 2876 00b8 ADF81A00 		strh	r0, [sp, #26]	@ movhi
1048:../Drivers/ISP/isp/Src/isp_services.c **** 
 2877              		.loc 1 1048 5 is_stmt 1 view .LVU846
1048:../Drivers/ISP/isp/Src/isp_services.c **** 
 2878              		.loc 1 1048 17 is_stmt 0 view .LVU847
 2879 00bc 01AA     		add	r2, sp, #4
 2880 00be 0121     		movs	r1, #1
 2881 00c0 2868     		ldr	r0, [r5]
 2882 00c2 FFF7FEFF 		bl	HAL_DCMIPP_PIPE_SetISPColorConversionConfig
 2883              	.LVL273:
1050:../Drivers/ISP/isp/Src/isp_services.c ****     {
 2884              		.loc 1 1050 5 is_stmt 1 view .LVU848
1050:../Drivers/ISP/isp/Src/isp_services.c ****     {
 2885              		.loc 1 1050 8 is_stmt 0 view .LVU849
 2886 00c6 20B9     		cbnz	r0, .L259
1052:../Drivers/ISP/isp/Src/isp_services.c ****     }
 2887              		.loc 1 1052 7 is_stmt 1 view .LVU850
1052:../Drivers/ISP/isp/Src/isp_services.c ****     }
 2888              		.loc 1 1052 19 is_stmt 0 view .LVU851
 2889 00c8 0121     		movs	r1, #1
 2890 00ca 2868     		ldr	r0, [r5]
 2891              	.LVL274:
1052:../Drivers/ISP/isp/Src/isp_services.c ****     }
 2892              		.loc 1 1052 19 view .LVU852
 2893 00cc FFF7FEFF 		bl	HAL_DCMIPP_PIPE_EnableISPColorConversion
 2894              	.LVL275:
 2895 00d0 C3E7     		b	.L256
 2896              	.LVL276:
 2897              	.L259:
1058:../Drivers/ISP/isp/Src/isp_services.c ****   }
 2898              		.loc 1 1058 12 view .LVU853
 2899 00d2 5B20     		movs	r0, #91
 2900              	.LVL277:
1058:../Drivers/ISP/isp/Src/isp_services.c ****   }
 2901              		.loc 1 1058 12 view .LVU854
 2902 00d4 A6E7     		b	.L252
 2903              	.L265:
 2904 00d6 00BF     		.align	2
 2905              	.L264:
 2906 00d8 C041C817 		.word	399000000
 2907 00dc 8083902F 		.word	798000000
 2908              		.cfi_endproc
 2909              	.LFE909:
 2911              		.section	.text.ISP_SVC_ISP_GetColorConv,"ax",%progbits
 2912              		.align	1
 2913              		.global	ISP_SVC_ISP_GetColorConv
ARM GAS  /tmp/ccAu1Zkx.s 			page 77


 2914              		.syntax unified
 2915              		.thumb
 2916              		.thumb_func
 2918              	ISP_SVC_ISP_GetColorConv:
 2919              	.LVL278:
 2920              	.LFB910:
1063:../Drivers/ISP/isp/Src/isp_services.c **** 
1064:../Drivers/ISP/isp/Src/isp_services.c **** /**
1065:../Drivers/ISP/isp/Src/isp_services.c ****   * @brief  ISP_SVC_ISP_GetColorConv
1066:../Drivers/ISP/isp/Src/isp_services.c ****   *         Get the ISP Color Conversion
1067:../Drivers/ISP/isp/Src/isp_services.c ****   * @param  hIsp: ISP device handle
1068:../Drivers/ISP/isp/Src/isp_services.c ****   * @param  pConfig: Pointer to the Color Conversion configuration
1069:../Drivers/ISP/isp/Src/isp_services.c ****   * @retval operation result
1070:../Drivers/ISP/isp/Src/isp_services.c ****   */
1071:../Drivers/ISP/isp/Src/isp_services.c **** ISP_StatusTypeDef ISP_SVC_ISP_GetColorConv(ISP_HandleTypeDef *hIsp, ISP_ColorConvTypeDef *pConfig)
1072:../Drivers/ISP/isp/Src/isp_services.c **** {
 2921              		.loc 1 1072 1 is_stmt 1 view -0
 2922              		.cfi_startproc
 2923              		@ args = 0, pretend = 0, frame = 32
 2924              		@ frame_needed = 0, uses_anonymous_args = 0
1073:../Drivers/ISP/isp/Src/isp_services.c ****   DCMIPP_ColorConversionConfTypeDef colorConvConfig;
 2925              		.loc 1 1073 3 view .LVU856
1074:../Drivers/ISP/isp/Src/isp_services.c **** 
1075:../Drivers/ISP/isp/Src/isp_services.c ****   /* Check handle validity */
1076:../Drivers/ISP/isp/Src/isp_services.c ****   if ((hIsp == NULL) || (pConfig == NULL))
 2926              		.loc 1 1076 3 view .LVU857
 2927              		.loc 1 1076 6 is_stmt 0 view .LVU858
 2928 0000 0028     		cmp	r0, #0
 2929 0002 41D0     		beq	.L271
1072:../Drivers/ISP/isp/Src/isp_services.c ****   DCMIPP_ColorConversionConfTypeDef colorConvConfig;
 2930              		.loc 1 1072 1 view .LVU859
 2931 0004 30B5     		push	{r4, r5, lr}
 2932              	.LCFI61:
 2933              		.cfi_def_cfa_offset 12
 2934              		.cfi_offset 4, -12
 2935              		.cfi_offset 5, -8
 2936              		.cfi_offset 14, -4
 2937 0006 89B0     		sub	sp, sp, #36
 2938              	.LCFI62:
 2939              		.cfi_def_cfa_offset 48
 2940 0008 0C46     		mov	r4, r1
 2941              		.loc 1 1076 22 discriminator 1 view .LVU860
 2942 000a 0029     		cmp	r1, #0
 2943 000c 3AD0     		beq	.L274
1077:../Drivers/ISP/isp/Src/isp_services.c ****   {
1078:../Drivers/ISP/isp/Src/isp_services.c ****     return ISP_ERR_COLORCONV_EINVAL;
1079:../Drivers/ISP/isp/Src/isp_services.c ****   }
1080:../Drivers/ISP/isp/Src/isp_services.c **** 
1081:../Drivers/ISP/isp/Src/isp_services.c ****   pConfig->enable = (uint8_t) HAL_DCMIPP_PIPE_IsEnabledISPColorConversion(hIsp->hDcmipp, DCMIPP_PIP
 2944              		.loc 1 1081 3 is_stmt 1 view .LVU861
 2945              		.loc 1 1081 31 is_stmt 0 view .LVU862
 2946 000e 0121     		movs	r1, #1
 2947              	.LVL279:
 2948              		.loc 1 1081 31 view .LVU863
 2949 0010 0546     		mov	r5, r0
 2950 0012 0068     		ldr	r0, [r0]
 2951              	.LVL280:
ARM GAS  /tmp/ccAu1Zkx.s 			page 78


 2952              		.loc 1 1081 31 view .LVU864
 2953 0014 FFF7FEFF 		bl	HAL_DCMIPP_PIPE_IsEnabledISPColorConversion
 2954              	.LVL281:
 2955              		.loc 1 1081 19 discriminator 1 view .LVU865
 2956 0018 2070     		strb	r0, [r4]
1082:../Drivers/ISP/isp/Src/isp_services.c **** 
1083:../Drivers/ISP/isp/Src/isp_services.c ****   HAL_DCMIPP_PIPE_GetISPColorConversionConfig(hIsp->hDcmipp, DCMIPP_PIPE1, &colorConvConfig);
 2957              		.loc 1 1083 3 is_stmt 1 view .LVU866
 2958 001a 01AA     		add	r2, sp, #4
 2959 001c 0121     		movs	r1, #1
 2960 001e 2868     		ldr	r0, [r5]
 2961 0020 FFF7FEFF 		bl	HAL_DCMIPP_PIPE_GetISPColorConversionConfig
 2962              	.LVL282:
1084:../Drivers/ISP/isp/Src/isp_services.c **** 
1085:../Drivers/ISP/isp/Src/isp_services.c ****   pConfig->coeff[0][0] = From_CConv_Reg(colorConvConfig.RR);
 2963              		.loc 1 1085 3 view .LVU867
 2964              		.loc 1 1085 26 is_stmt 0 view .LVU868
 2965 0024 BDF90600 		ldrsh	r0, [sp, #6]
 2966 0028 FFF7FEFF 		bl	From_CConv_Reg
 2967              	.LVL283:
 2968              		.loc 1 1085 24 discriminator 1 view .LVU869
 2969 002c 6060     		str	r0, [r4, #4]
1086:../Drivers/ISP/isp/Src/isp_services.c ****   pConfig->coeff[0][1] = From_CConv_Reg(colorConvConfig.RG);
 2970              		.loc 1 1086 3 is_stmt 1 view .LVU870
 2971              		.loc 1 1086 26 is_stmt 0 view .LVU871
 2972 002e BDF90800 		ldrsh	r0, [sp, #8]
 2973 0032 FFF7FEFF 		bl	From_CConv_Reg
 2974              	.LVL284:
 2975              		.loc 1 1086 24 discriminator 1 view .LVU872
 2976 0036 A060     		str	r0, [r4, #8]
1087:../Drivers/ISP/isp/Src/isp_services.c ****   pConfig->coeff[0][2] = From_CConv_Reg(colorConvConfig.RB);
 2977              		.loc 1 1087 3 is_stmt 1 view .LVU873
 2978              		.loc 1 1087 26 is_stmt 0 view .LVU874
 2979 0038 BDF90A00 		ldrsh	r0, [sp, #10]
 2980 003c FFF7FEFF 		bl	From_CConv_Reg
 2981              	.LVL285:
 2982              		.loc 1 1087 24 discriminator 1 view .LVU875
 2983 0040 E060     		str	r0, [r4, #12]
1088:../Drivers/ISP/isp/Src/isp_services.c ****   pConfig->coeff[1][0] = From_CConv_Reg(colorConvConfig.GR);
 2984              		.loc 1 1088 3 is_stmt 1 view .LVU876
 2985              		.loc 1 1088 26 is_stmt 0 view .LVU877
 2986 0042 BDF90E00 		ldrsh	r0, [sp, #14]
 2987 0046 FFF7FEFF 		bl	From_CConv_Reg
 2988              	.LVL286:
 2989              		.loc 1 1088 24 discriminator 1 view .LVU878
 2990 004a 2061     		str	r0, [r4, #16]
1089:../Drivers/ISP/isp/Src/isp_services.c ****   pConfig->coeff[1][1] = From_CConv_Reg(colorConvConfig.GG);
 2991              		.loc 1 1089 3 is_stmt 1 view .LVU879
 2992              		.loc 1 1089 26 is_stmt 0 view .LVU880
 2993 004c BDF91000 		ldrsh	r0, [sp, #16]
 2994 0050 FFF7FEFF 		bl	From_CConv_Reg
 2995              	.LVL287:
 2996              		.loc 1 1089 24 discriminator 1 view .LVU881
 2997 0054 6061     		str	r0, [r4, #20]
1090:../Drivers/ISP/isp/Src/isp_services.c ****   pConfig->coeff[1][2] = From_CConv_Reg(colorConvConfig.GB);
 2998              		.loc 1 1090 3 is_stmt 1 view .LVU882
 2999              		.loc 1 1090 26 is_stmt 0 view .LVU883
ARM GAS  /tmp/ccAu1Zkx.s 			page 79


 3000 0056 BDF91200 		ldrsh	r0, [sp, #18]
 3001 005a FFF7FEFF 		bl	From_CConv_Reg
 3002              	.LVL288:
 3003              		.loc 1 1090 24 discriminator 1 view .LVU884
 3004 005e A061     		str	r0, [r4, #24]
1091:../Drivers/ISP/isp/Src/isp_services.c ****   pConfig->coeff[2][0] = From_CConv_Reg(colorConvConfig.BR);
 3005              		.loc 1 1091 3 is_stmt 1 view .LVU885
 3006              		.loc 1 1091 26 is_stmt 0 view .LVU886
 3007 0060 BDF91600 		ldrsh	r0, [sp, #22]
 3008 0064 FFF7FEFF 		bl	From_CConv_Reg
 3009              	.LVL289:
 3010              		.loc 1 1091 24 discriminator 1 view .LVU887
 3011 0068 E061     		str	r0, [r4, #28]
1092:../Drivers/ISP/isp/Src/isp_services.c ****   pConfig->coeff[2][1] = From_CConv_Reg(colorConvConfig.BG);
 3012              		.loc 1 1092 3 is_stmt 1 view .LVU888
 3013              		.loc 1 1092 26 is_stmt 0 view .LVU889
 3014 006a BDF91800 		ldrsh	r0, [sp, #24]
 3015 006e FFF7FEFF 		bl	From_CConv_Reg
 3016              	.LVL290:
 3017              		.loc 1 1092 24 discriminator 1 view .LVU890
 3018 0072 2062     		str	r0, [r4, #32]
1093:../Drivers/ISP/isp/Src/isp_services.c ****   pConfig->coeff[2][2] = From_CConv_Reg(colorConvConfig.BB);
 3019              		.loc 1 1093 3 is_stmt 1 view .LVU891
 3020              		.loc 1 1093 26 is_stmt 0 view .LVU892
 3021 0074 BDF91A00 		ldrsh	r0, [sp, #26]
 3022 0078 FFF7FEFF 		bl	From_CConv_Reg
 3023              	.LVL291:
 3024              		.loc 1 1093 24 discriminator 1 view .LVU893
 3025 007c 6062     		str	r0, [r4, #36]
1094:../Drivers/ISP/isp/Src/isp_services.c **** 
1095:../Drivers/ISP/isp/Src/isp_services.c ****   return ISP_OK;
 3026              		.loc 1 1095 3 is_stmt 1 view .LVU894
 3027              		.loc 1 1095 10 is_stmt 0 view .LVU895
 3028 007e 0020     		movs	r0, #0
 3029              	.LVL292:
 3030              	.L269:
1096:../Drivers/ISP/isp/Src/isp_services.c **** }
 3031              		.loc 1 1096 1 view .LVU896
 3032 0080 09B0     		add	sp, sp, #36
 3033              	.LCFI63:
 3034              		.cfi_remember_state
 3035              		.cfi_def_cfa_offset 12
 3036              		@ sp needed
 3037 0082 30BD     		pop	{r4, r5, pc}
 3038              	.LVL293:
 3039              	.L274:
 3040              	.LCFI64:
 3041              		.cfi_restore_state
1078:../Drivers/ISP/isp/Src/isp_services.c ****   }
 3042              		.loc 1 1078 12 view .LVU897
 3043 0084 5A20     		movs	r0, #90
 3044              	.LVL294:
1078:../Drivers/ISP/isp/Src/isp_services.c ****   }
 3045              		.loc 1 1078 12 view .LVU898
 3046 0086 FBE7     		b	.L269
 3047              	.LVL295:
 3048              	.L271:
ARM GAS  /tmp/ccAu1Zkx.s 			page 80


 3049              	.LCFI65:
 3050              		.cfi_def_cfa_offset 0
 3051              		.cfi_restore 4
 3052              		.cfi_restore 5
 3053              		.cfi_restore 14
1078:../Drivers/ISP/isp/Src/isp_services.c ****   }
 3054              		.loc 1 1078 12 view .LVU899
 3055 0088 5A20     		movs	r0, #90
 3056              	.LVL296:
 3057              		.loc 1 1096 1 view .LVU900
 3058 008a 7047     		bx	lr
 3059              		.cfi_endproc
 3060              	.LFE910:
 3062              		.section	.text.ISP_SVC_Sensor_GetInfo,"ax",%progbits
 3063              		.align	1
 3064              		.global	ISP_SVC_Sensor_GetInfo
 3065              		.syntax unified
 3066              		.thumb
 3067              		.thumb_func
 3069              	ISP_SVC_Sensor_GetInfo:
 3070              	.LVL297:
 3071              	.LFB911:
1097:../Drivers/ISP/isp/Src/isp_services.c **** 
1098:../Drivers/ISP/isp/Src/isp_services.c **** /**
1099:../Drivers/ISP/isp/Src/isp_services.c ****   * @brief  ISP_SVC_Sensor_GetInfo
1100:../Drivers/ISP/isp/Src/isp_services.c ****   *         Get the sensor info
1101:../Drivers/ISP/isp/Src/isp_services.c ****   * @param  hIsp: ISP device handle
1102:../Drivers/ISP/isp/Src/isp_services.c ****   * @param  pConfig: Pointer to the sensor info
1103:../Drivers/ISP/isp/Src/isp_services.c ****   * @retval operation result
1104:../Drivers/ISP/isp/Src/isp_services.c ****   */
1105:../Drivers/ISP/isp/Src/isp_services.c **** ISP_StatusTypeDef ISP_SVC_Sensor_GetInfo(ISP_HandleTypeDef *hIsp, ISP_SensorInfoTypeDef *pConfig)
1106:../Drivers/ISP/isp/Src/isp_services.c **** {
 3072              		.loc 1 1106 1 is_stmt 1 view -0
 3073              		.cfi_startproc
 3074              		@ args = 0, pretend = 0, frame = 0
 3075              		@ frame_needed = 0, uses_anonymous_args = 0
1107:../Drivers/ISP/isp/Src/isp_services.c ****   /* Check handle validity */
1108:../Drivers/ISP/isp/Src/isp_services.c ****   if ((hIsp == NULL) || (pConfig == NULL))
 3076              		.loc 1 1108 3 view .LVU902
 3077              		.loc 1 1108 6 is_stmt 0 view .LVU903
 3078 0000 68B1     		cbz	r0, .L282
1106:../Drivers/ISP/isp/Src/isp_services.c ****   /* Check handle validity */
 3079              		.loc 1 1106 1 view .LVU904
 3080 0002 08B5     		push	{r3, lr}
 3081              	.LCFI66:
 3082              		.cfi_def_cfa_offset 8
 3083              		.cfi_offset 3, -8
 3084              		.cfi_offset 14, -4
 3085              		.loc 1 1108 22 discriminator 1 view .LVU905
 3086 0004 29B1     		cbz	r1, .L285
1109:../Drivers/ISP/isp/Src/isp_services.c ****   {
1110:../Drivers/ISP/isp/Src/isp_services.c ****     return ISP_ERR_SENSORINFO_EINVAL;
1111:../Drivers/ISP/isp/Src/isp_services.c ****   }
1112:../Drivers/ISP/isp/Src/isp_services.c **** 
1113:../Drivers/ISP/isp/Src/isp_services.c ****   if (hIsp->appliHelpers.GetSensorInfo != NULL)
 3087              		.loc 1 1113 3 is_stmt 1 view .LVU906
 3088              		.loc 1 1113 25 is_stmt 0 view .LVU907
ARM GAS  /tmp/ccAu1Zkx.s 			page 81


 3089 0006 826A     		ldr	r2, [r0, #40]
 3090              		.loc 1 1113 6 view .LVU908
 3091 0008 2AB1     		cbz	r2, .L279
1114:../Drivers/ISP/isp/Src/isp_services.c ****   {
1115:../Drivers/ISP/isp/Src/isp_services.c ****     if (hIsp->appliHelpers.GetSensorInfo(hIsp->cameraInstance, pConfig) != 0)
 3092              		.loc 1 1115 5 is_stmt 1 view .LVU909
 3093              		.loc 1 1115 9 is_stmt 0 view .LVU910
 3094 000a 4068     		ldr	r0, [r0, #4]
 3095              	.LVL298:
 3096              		.loc 1 1115 9 view .LVU911
 3097 000c 9047     		blx	r2
 3098              	.LVL299:
 3099              		.loc 1 1115 8 discriminator 1 view .LVU912
 3100 000e 20B9     		cbnz	r0, .L286
 3101              	.L278:
1116:../Drivers/ISP/isp/Src/isp_services.c ****     {
1117:../Drivers/ISP/isp/Src/isp_services.c ****       return ISP_ERR_SENSORINFO;
1118:../Drivers/ISP/isp/Src/isp_services.c ****     }
1119:../Drivers/ISP/isp/Src/isp_services.c ****   }
1120:../Drivers/ISP/isp/Src/isp_services.c **** 
1121:../Drivers/ISP/isp/Src/isp_services.c ****   return ISP_OK;
1122:../Drivers/ISP/isp/Src/isp_services.c **** }
 3102              		.loc 1 1122 1 view .LVU913
 3103 0010 08BD     		pop	{r3, pc}
 3104              	.LVL300:
 3105              	.L285:
1110:../Drivers/ISP/isp/Src/isp_services.c ****   }
 3106              		.loc 1 1110 12 view .LVU914
 3107 0012 6E20     		movs	r0, #110
 3108              	.LVL301:
1110:../Drivers/ISP/isp/Src/isp_services.c ****   }
 3109              		.loc 1 1110 12 view .LVU915
 3110 0014 FCE7     		b	.L278
 3111              	.LVL302:
 3112              	.L279:
1121:../Drivers/ISP/isp/Src/isp_services.c **** }
 3113              		.loc 1 1121 10 view .LVU916
 3114 0016 1046     		mov	r0, r2
 3115              	.LVL303:
1121:../Drivers/ISP/isp/Src/isp_services.c **** }
 3116              		.loc 1 1121 10 view .LVU917
 3117 0018 FAE7     		b	.L278
 3118              	.LVL304:
 3119              	.L286:
1117:../Drivers/ISP/isp/Src/isp_services.c ****     }
 3120              		.loc 1 1117 14 view .LVU918
 3121 001a 6F20     		movs	r0, #111
 3122 001c F8E7     		b	.L278
 3123              	.LVL305:
 3124              	.L282:
 3125              	.LCFI67:
 3126              		.cfi_def_cfa_offset 0
 3127              		.cfi_restore 3
 3128              		.cfi_restore 14
1110:../Drivers/ISP/isp/Src/isp_services.c ****   }
 3129              		.loc 1 1110 12 view .LVU919
 3130 001e 6E20     		movs	r0, #110
ARM GAS  /tmp/ccAu1Zkx.s 			page 82


 3131              	.LVL306:
 3132              		.loc 1 1122 1 view .LVU920
 3133 0020 7047     		bx	lr
 3134              		.cfi_endproc
 3135              	.LFE911:
 3137              		.section	.text.ISP_SVC_Sensor_SetGain,"ax",%progbits
 3138              		.align	1
 3139              		.global	ISP_SVC_Sensor_SetGain
 3140              		.syntax unified
 3141              		.thumb
 3142              		.thumb_func
 3144              	ISP_SVC_Sensor_SetGain:
 3145              	.LVL307:
 3146              	.LFB912:
1123:../Drivers/ISP/isp/Src/isp_services.c **** 
1124:../Drivers/ISP/isp/Src/isp_services.c **** /**
1125:../Drivers/ISP/isp/Src/isp_services.c ****   * @brief  ISP_SVC_Sensor_SetGain
1126:../Drivers/ISP/isp/Src/isp_services.c ****   *         Set the sensor gain
1127:../Drivers/ISP/isp/Src/isp_services.c ****   * @param  hIsp: ISP device handle
1128:../Drivers/ISP/isp/Src/isp_services.c ****   * @param  pConfig: Pointer to the sensor gain configuration
1129:../Drivers/ISP/isp/Src/isp_services.c ****   * @retval operation result
1130:../Drivers/ISP/isp/Src/isp_services.c ****   */
1131:../Drivers/ISP/isp/Src/isp_services.c **** ISP_StatusTypeDef ISP_SVC_Sensor_SetGain(ISP_HandleTypeDef *hIsp, ISP_SensorGainTypeDef *pConfig)
1132:../Drivers/ISP/isp/Src/isp_services.c **** {
 3147              		.loc 1 1132 1 is_stmt 1 view -0
 3148              		.cfi_startproc
 3149              		@ args = 0, pretend = 0, frame = 0
 3150              		@ frame_needed = 0, uses_anonymous_args = 0
1133:../Drivers/ISP/isp/Src/isp_services.c ****   /* Check handle validity */
1134:../Drivers/ISP/isp/Src/isp_services.c ****   if ((hIsp == NULL) || (pConfig == NULL))
 3151              		.loc 1 1134 3 view .LVU922
 3152              		.loc 1 1134 6 is_stmt 0 view .LVU923
 3153 0000 88B1     		cbz	r0, .L294
1132:../Drivers/ISP/isp/Src/isp_services.c ****   /* Check handle validity */
 3154              		.loc 1 1132 1 view .LVU924
 3155 0002 10B5     		push	{r4, lr}
 3156              	.LCFI68:
 3157              		.cfi_def_cfa_offset 8
 3158              		.cfi_offset 4, -8
 3159              		.cfi_offset 14, -4
 3160 0004 0C46     		mov	r4, r1
 3161              		.loc 1 1134 22 discriminator 1 view .LVU925
 3162 0006 51B1     		cbz	r1, .L297
1135:../Drivers/ISP/isp/Src/isp_services.c ****   {
1136:../Drivers/ISP/isp/Src/isp_services.c ****     return ISP_ERR_SENSORGAIN_EINVAL;
1137:../Drivers/ISP/isp/Src/isp_services.c ****   }
1138:../Drivers/ISP/isp/Src/isp_services.c **** 
1139:../Drivers/ISP/isp/Src/isp_services.c ****   if (hIsp->appliHelpers.SetSensorGain != NULL)
 3163              		.loc 1 1139 3 is_stmt 1 view .LVU926
 3164              		.loc 1 1139 25 is_stmt 0 view .LVU927
 3165 0008 C26A     		ldr	r2, [r0, #44]
 3166              		.loc 1 1139 6 view .LVU928
 3167 000a 1AB1     		cbz	r2, .L291
1140:../Drivers/ISP/isp/Src/isp_services.c ****   {
1141:../Drivers/ISP/isp/Src/isp_services.c ****     if (hIsp->appliHelpers.SetSensorGain(hIsp->cameraInstance, (int32_t)pConfig->gain) != 0)
 3168              		.loc 1 1141 5 is_stmt 1 view .LVU929
 3169              		.loc 1 1141 9 is_stmt 0 view .LVU930
ARM GAS  /tmp/ccAu1Zkx.s 			page 83


 3170 000c 0968     		ldr	r1, [r1]
 3171              	.LVL308:
 3172              		.loc 1 1141 9 view .LVU931
 3173 000e 4068     		ldr	r0, [r0, #4]
 3174              	.LVL309:
 3175              		.loc 1 1141 9 view .LVU932
 3176 0010 9047     		blx	r2
 3177              	.LVL310:
 3178              		.loc 1 1141 8 discriminator 1 view .LVU933
 3179 0012 30B9     		cbnz	r0, .L292
 3180              	.L291:
1142:../Drivers/ISP/isp/Src/isp_services.c ****     {
1143:../Drivers/ISP/isp/Src/isp_services.c ****       return ISP_ERR_SENSORGAIN;
1144:../Drivers/ISP/isp/Src/isp_services.c ****     }
1145:../Drivers/ISP/isp/Src/isp_services.c ****   }
1146:../Drivers/ISP/isp/Src/isp_services.c **** 
1147:../Drivers/ISP/isp/Src/isp_services.c ****   Meta.gain = pConfig->gain;
 3181              		.loc 1 1147 3 is_stmt 1 view .LVU934
 3182              		.loc 1 1147 22 is_stmt 0 view .LVU935
 3183 0014 2268     		ldr	r2, [r4]
 3184              		.loc 1 1147 13 view .LVU936
 3185 0016 054B     		ldr	r3, .L298
 3186 0018 9A60     		str	r2, [r3, #8]
1148:../Drivers/ISP/isp/Src/isp_services.c **** 
1149:../Drivers/ISP/isp/Src/isp_services.c ****   return ISP_OK;
 3187              		.loc 1 1149 3 is_stmt 1 view .LVU937
 3188              		.loc 1 1149 10 is_stmt 0 view .LVU938
 3189 001a 0020     		movs	r0, #0
 3190              	.L290:
1150:../Drivers/ISP/isp/Src/isp_services.c **** }
 3191              		.loc 1 1150 1 view .LVU939
 3192 001c 10BD     		pop	{r4, pc}
 3193              	.LVL311:
 3194              	.L297:
1136:../Drivers/ISP/isp/Src/isp_services.c ****   }
 3195              		.loc 1 1136 12 view .LVU940
 3196 001e 7820     		movs	r0, #120
 3197              	.LVL312:
1136:../Drivers/ISP/isp/Src/isp_services.c ****   }
 3198              		.loc 1 1136 12 view .LVU941
 3199 0020 FCE7     		b	.L290
 3200              	.LVL313:
 3201              	.L292:
1143:../Drivers/ISP/isp/Src/isp_services.c ****     }
 3202              		.loc 1 1143 14 view .LVU942
 3203 0022 7920     		movs	r0, #121
 3204 0024 FAE7     		b	.L290
 3205              	.LVL314:
 3206              	.L294:
 3207              	.LCFI69:
 3208              		.cfi_def_cfa_offset 0
 3209              		.cfi_restore 4
 3210              		.cfi_restore 14
1136:../Drivers/ISP/isp/Src/isp_services.c ****   }
 3211              		.loc 1 1136 12 view .LVU943
 3212 0026 7820     		movs	r0, #120
 3213              	.LVL315:
ARM GAS  /tmp/ccAu1Zkx.s 			page 84


 3214              		.loc 1 1150 1 view .LVU944
 3215 0028 7047     		bx	lr
 3216              	.L299:
 3217 002a 00BF     		.align	2
 3218              	.L298:
 3219 002c 00000000 		.word	Meta
 3220              		.cfi_endproc
 3221              	.LFE912:
 3223              		.section	.text.ISP_SVC_Sensor_GetGain,"ax",%progbits
 3224              		.align	1
 3225              		.global	ISP_SVC_Sensor_GetGain
 3226              		.syntax unified
 3227              		.thumb
 3228              		.thumb_func
 3230              	ISP_SVC_Sensor_GetGain:
 3231              	.LVL316:
 3232              	.LFB913:
1151:../Drivers/ISP/isp/Src/isp_services.c **** 
1152:../Drivers/ISP/isp/Src/isp_services.c **** /**
1153:../Drivers/ISP/isp/Src/isp_services.c ****   * @brief  ISP_SVC_Sensor_GetGain
1154:../Drivers/ISP/isp/Src/isp_services.c ****   *         Get the sensor gain
1155:../Drivers/ISP/isp/Src/isp_services.c ****   * @param  hIsp: ISP device handle
1156:../Drivers/ISP/isp/Src/isp_services.c ****   * @param  pConfig: Pointer to the sensor gain configuration
1157:../Drivers/ISP/isp/Src/isp_services.c ****   * @retval operation result
1158:../Drivers/ISP/isp/Src/isp_services.c ****   */
1159:../Drivers/ISP/isp/Src/isp_services.c **** ISP_StatusTypeDef ISP_SVC_Sensor_GetGain(ISP_HandleTypeDef *hIsp, ISP_SensorGainTypeDef *pConfig)
1160:../Drivers/ISP/isp/Src/isp_services.c **** {
 3233              		.loc 1 1160 1 is_stmt 1 view -0
 3234              		.cfi_startproc
 3235              		@ args = 0, pretend = 0, frame = 0
 3236              		@ frame_needed = 0, uses_anonymous_args = 0
1161:../Drivers/ISP/isp/Src/isp_services.c ****   /* Check handle validity */
1162:../Drivers/ISP/isp/Src/isp_services.c ****   if ((hIsp == NULL) || (pConfig == NULL))
 3237              		.loc 1 1162 3 view .LVU946
 3238              		.loc 1 1162 6 is_stmt 0 view .LVU947
 3239 0000 68B1     		cbz	r0, .L307
1160:../Drivers/ISP/isp/Src/isp_services.c ****   /* Check handle validity */
 3240              		.loc 1 1160 1 view .LVU948
 3241 0002 08B5     		push	{r3, lr}
 3242              	.LCFI70:
 3243              		.cfi_def_cfa_offset 8
 3244              		.cfi_offset 3, -8
 3245              		.cfi_offset 14, -4
 3246              		.loc 1 1162 22 discriminator 1 view .LVU949
 3247 0004 29B1     		cbz	r1, .L310
1163:../Drivers/ISP/isp/Src/isp_services.c ****   {
1164:../Drivers/ISP/isp/Src/isp_services.c ****     return ISP_ERR_SENSORGAIN_EINVAL;
1165:../Drivers/ISP/isp/Src/isp_services.c ****   }
1166:../Drivers/ISP/isp/Src/isp_services.c **** 
1167:../Drivers/ISP/isp/Src/isp_services.c ****   if (hIsp->appliHelpers.GetSensorGain != NULL)
 3248              		.loc 1 1167 3 is_stmt 1 view .LVU950
 3249              		.loc 1 1167 25 is_stmt 0 view .LVU951
 3250 0006 026B     		ldr	r2, [r0, #48]
 3251              		.loc 1 1167 6 view .LVU952
 3252 0008 2AB1     		cbz	r2, .L304
1168:../Drivers/ISP/isp/Src/isp_services.c ****   {
1169:../Drivers/ISP/isp/Src/isp_services.c ****     if (hIsp->appliHelpers.GetSensorGain(hIsp->cameraInstance, (int32_t *)&pConfig->gain) != 0)
ARM GAS  /tmp/ccAu1Zkx.s 			page 85


 3253              		.loc 1 1169 5 is_stmt 1 view .LVU953
 3254              		.loc 1 1169 9 is_stmt 0 view .LVU954
 3255 000a 4068     		ldr	r0, [r0, #4]
 3256              	.LVL317:
 3257              		.loc 1 1169 9 view .LVU955
 3258 000c 9047     		blx	r2
 3259              	.LVL318:
 3260              		.loc 1 1169 8 discriminator 1 view .LVU956
 3261 000e 20B9     		cbnz	r0, .L311
 3262              	.L303:
1170:../Drivers/ISP/isp/Src/isp_services.c ****     {
1171:../Drivers/ISP/isp/Src/isp_services.c ****       return ISP_ERR_SENSORGAIN;
1172:../Drivers/ISP/isp/Src/isp_services.c ****     }
1173:../Drivers/ISP/isp/Src/isp_services.c ****   }
1174:../Drivers/ISP/isp/Src/isp_services.c **** 
1175:../Drivers/ISP/isp/Src/isp_services.c ****   return ISP_OK;
1176:../Drivers/ISP/isp/Src/isp_services.c **** }
 3263              		.loc 1 1176 1 view .LVU957
 3264 0010 08BD     		pop	{r3, pc}
 3265              	.LVL319:
 3266              	.L310:
1164:../Drivers/ISP/isp/Src/isp_services.c ****   }
 3267              		.loc 1 1164 12 view .LVU958
 3268 0012 7820     		movs	r0, #120
 3269              	.LVL320:
1164:../Drivers/ISP/isp/Src/isp_services.c ****   }
 3270              		.loc 1 1164 12 view .LVU959
 3271 0014 FCE7     		b	.L303
 3272              	.LVL321:
 3273              	.L304:
1175:../Drivers/ISP/isp/Src/isp_services.c **** }
 3274              		.loc 1 1175 10 view .LVU960
 3275 0016 1046     		mov	r0, r2
 3276              	.LVL322:
1175:../Drivers/ISP/isp/Src/isp_services.c **** }
 3277              		.loc 1 1175 10 view .LVU961
 3278 0018 FAE7     		b	.L303
 3279              	.LVL323:
 3280              	.L311:
1171:../Drivers/ISP/isp/Src/isp_services.c ****     }
 3281              		.loc 1 1171 14 view .LVU962
 3282 001a 7920     		movs	r0, #121
 3283 001c F8E7     		b	.L303
 3284              	.LVL324:
 3285              	.L307:
 3286              	.LCFI71:
 3287              		.cfi_def_cfa_offset 0
 3288              		.cfi_restore 3
 3289              		.cfi_restore 14
1164:../Drivers/ISP/isp/Src/isp_services.c ****   }
 3290              		.loc 1 1164 12 view .LVU963
 3291 001e 7820     		movs	r0, #120
 3292              	.LVL325:
 3293              		.loc 1 1176 1 view .LVU964
 3294 0020 7047     		bx	lr
 3295              		.cfi_endproc
 3296              	.LFE913:
ARM GAS  /tmp/ccAu1Zkx.s 			page 86


 3298              		.section	.text.ISP_SVC_Sensor_SetExposure,"ax",%progbits
 3299              		.align	1
 3300              		.global	ISP_SVC_Sensor_SetExposure
 3301              		.syntax unified
 3302              		.thumb
 3303              		.thumb_func
 3305              	ISP_SVC_Sensor_SetExposure:
 3306              	.LVL326:
 3307              	.LFB914:
1177:../Drivers/ISP/isp/Src/isp_services.c **** 
1178:../Drivers/ISP/isp/Src/isp_services.c **** /**
1179:../Drivers/ISP/isp/Src/isp_services.c ****   * @brief  ISP_SVC_Sensor_SetExposure
1180:../Drivers/ISP/isp/Src/isp_services.c ****   *         Set the sensor exposure
1181:../Drivers/ISP/isp/Src/isp_services.c ****   * @param  hIsp: ISP device handle
1182:../Drivers/ISP/isp/Src/isp_services.c ****   * @param  pConfig: Pointer to the sensor exposure configuration
1183:../Drivers/ISP/isp/Src/isp_services.c ****   * @retval operation result
1184:../Drivers/ISP/isp/Src/isp_services.c ****   */
1185:../Drivers/ISP/isp/Src/isp_services.c **** ISP_StatusTypeDef ISP_SVC_Sensor_SetExposure(ISP_HandleTypeDef *hIsp, ISP_SensorExposureTypeDef *pC
1186:../Drivers/ISP/isp/Src/isp_services.c **** {
 3308              		.loc 1 1186 1 is_stmt 1 view -0
 3309              		.cfi_startproc
 3310              		@ args = 0, pretend = 0, frame = 0
 3311              		@ frame_needed = 0, uses_anonymous_args = 0
1187:../Drivers/ISP/isp/Src/isp_services.c ****   /* Check handle validity */
1188:../Drivers/ISP/isp/Src/isp_services.c ****   if ((hIsp == NULL) || (pConfig == NULL))
 3312              		.loc 1 1188 3 view .LVU966
 3313              		.loc 1 1188 6 is_stmt 0 view .LVU967
 3314 0000 88B1     		cbz	r0, .L319
1186:../Drivers/ISP/isp/Src/isp_services.c ****   /* Check handle validity */
 3315              		.loc 1 1186 1 view .LVU968
 3316 0002 10B5     		push	{r4, lr}
 3317              	.LCFI72:
 3318              		.cfi_def_cfa_offset 8
 3319              		.cfi_offset 4, -8
 3320              		.cfi_offset 14, -4
 3321 0004 0C46     		mov	r4, r1
 3322              		.loc 1 1188 22 discriminator 1 view .LVU969
 3323 0006 51B1     		cbz	r1, .L322
1189:../Drivers/ISP/isp/Src/isp_services.c ****   {
1190:../Drivers/ISP/isp/Src/isp_services.c ****     return ISP_ERR_SENSOREXPOSURE_EINVAL;
1191:../Drivers/ISP/isp/Src/isp_services.c ****   }
1192:../Drivers/ISP/isp/Src/isp_services.c **** 
1193:../Drivers/ISP/isp/Src/isp_services.c ****   if (hIsp->appliHelpers.SetSensorExposure != NULL)
 3324              		.loc 1 1193 3 is_stmt 1 view .LVU970
 3325              		.loc 1 1193 25 is_stmt 0 view .LVU971
 3326 0008 426B     		ldr	r2, [r0, #52]
 3327              		.loc 1 1193 6 view .LVU972
 3328 000a 1AB1     		cbz	r2, .L316
1194:../Drivers/ISP/isp/Src/isp_services.c ****   {
1195:../Drivers/ISP/isp/Src/isp_services.c ****     if (hIsp->appliHelpers.SetSensorExposure(hIsp->cameraInstance, (int32_t)pConfig->exposure) != 0
 3329              		.loc 1 1195 5 is_stmt 1 view .LVU973
 3330              		.loc 1 1195 9 is_stmt 0 view .LVU974
 3331 000c 0968     		ldr	r1, [r1]
 3332              	.LVL327:
 3333              		.loc 1 1195 9 view .LVU975
 3334 000e 4068     		ldr	r0, [r0, #4]
 3335              	.LVL328:
ARM GAS  /tmp/ccAu1Zkx.s 			page 87


 3336              		.loc 1 1195 9 view .LVU976
 3337 0010 9047     		blx	r2
 3338              	.LVL329:
 3339              		.loc 1 1195 8 discriminator 1 view .LVU977
 3340 0012 30B9     		cbnz	r0, .L317
 3341              	.L316:
1196:../Drivers/ISP/isp/Src/isp_services.c ****     {
1197:../Drivers/ISP/isp/Src/isp_services.c ****       return ISP_ERR_SENSOREXPOSURE;
1198:../Drivers/ISP/isp/Src/isp_services.c ****     }
1199:../Drivers/ISP/isp/Src/isp_services.c ****   }
1200:../Drivers/ISP/isp/Src/isp_services.c **** 
1201:../Drivers/ISP/isp/Src/isp_services.c ****   Meta.exposure = pConfig->exposure;
 3342              		.loc 1 1201 3 is_stmt 1 view .LVU978
 3343              		.loc 1 1201 26 is_stmt 0 view .LVU979
 3344 0014 2268     		ldr	r2, [r4]
 3345              		.loc 1 1201 17 view .LVU980
 3346 0016 054B     		ldr	r3, .L323
 3347 0018 DA60     		str	r2, [r3, #12]
1202:../Drivers/ISP/isp/Src/isp_services.c **** 
1203:../Drivers/ISP/isp/Src/isp_services.c ****   return ISP_OK;
 3348              		.loc 1 1203 3 is_stmt 1 view .LVU981
 3349              		.loc 1 1203 10 is_stmt 0 view .LVU982
 3350 001a 0020     		movs	r0, #0
 3351              	.L315:
1204:../Drivers/ISP/isp/Src/isp_services.c **** }
 3352              		.loc 1 1204 1 view .LVU983
 3353 001c 10BD     		pop	{r4, pc}
 3354              	.LVL330:
 3355              	.L322:
1190:../Drivers/ISP/isp/Src/isp_services.c ****   }
 3356              		.loc 1 1190 12 view .LVU984
 3357 001e 8220     		movs	r0, #130
 3358              	.LVL331:
1190:../Drivers/ISP/isp/Src/isp_services.c ****   }
 3359              		.loc 1 1190 12 view .LVU985
 3360 0020 FCE7     		b	.L315
 3361              	.LVL332:
 3362              	.L317:
1197:../Drivers/ISP/isp/Src/isp_services.c ****     }
 3363              		.loc 1 1197 14 view .LVU986
 3364 0022 8320     		movs	r0, #131
 3365 0024 FAE7     		b	.L315
 3366              	.LVL333:
 3367              	.L319:
 3368              	.LCFI73:
 3369              		.cfi_def_cfa_offset 0
 3370              		.cfi_restore 4
 3371              		.cfi_restore 14
1190:../Drivers/ISP/isp/Src/isp_services.c ****   }
 3372              		.loc 1 1190 12 view .LVU987
 3373 0026 8220     		movs	r0, #130
 3374              	.LVL334:
 3375              		.loc 1 1204 1 view .LVU988
 3376 0028 7047     		bx	lr
 3377              	.L324:
 3378 002a 00BF     		.align	2
 3379              	.L323:
ARM GAS  /tmp/ccAu1Zkx.s 			page 88


 3380 002c 00000000 		.word	Meta
 3381              		.cfi_endproc
 3382              	.LFE914:
 3384              		.section	.text.ISP_SVC_Sensor_GetExposure,"ax",%progbits
 3385              		.align	1
 3386              		.global	ISP_SVC_Sensor_GetExposure
 3387              		.syntax unified
 3388              		.thumb
 3389              		.thumb_func
 3391              	ISP_SVC_Sensor_GetExposure:
 3392              	.LVL335:
 3393              	.LFB915:
1205:../Drivers/ISP/isp/Src/isp_services.c **** 
1206:../Drivers/ISP/isp/Src/isp_services.c **** /**
1207:../Drivers/ISP/isp/Src/isp_services.c ****   * @brief  ISP_SVC_Sensor_GetExposure
1208:../Drivers/ISP/isp/Src/isp_services.c ****   *         Get the sensor exposure
1209:../Drivers/ISP/isp/Src/isp_services.c ****   * @param  hIsp: ISP device handle
1210:../Drivers/ISP/isp/Src/isp_services.c ****   * @param  pConfig: Pointer to the sensor exposure configuration
1211:../Drivers/ISP/isp/Src/isp_services.c ****   * @retval operation result
1212:../Drivers/ISP/isp/Src/isp_services.c ****   */
1213:../Drivers/ISP/isp/Src/isp_services.c **** ISP_StatusTypeDef ISP_SVC_Sensor_GetExposure(ISP_HandleTypeDef *hIsp, ISP_SensorExposureTypeDef *pC
1214:../Drivers/ISP/isp/Src/isp_services.c **** {
 3394              		.loc 1 1214 1 is_stmt 1 view -0
 3395              		.cfi_startproc
 3396              		@ args = 0, pretend = 0, frame = 0
 3397              		@ frame_needed = 0, uses_anonymous_args = 0
1215:../Drivers/ISP/isp/Src/isp_services.c ****   /* Check handle validity */
1216:../Drivers/ISP/isp/Src/isp_services.c ****   if ((hIsp == NULL) || (pConfig == NULL))
 3398              		.loc 1 1216 3 view .LVU990
 3399              		.loc 1 1216 6 is_stmt 0 view .LVU991
 3400 0000 68B1     		cbz	r0, .L332
1214:../Drivers/ISP/isp/Src/isp_services.c ****   /* Check handle validity */
 3401              		.loc 1 1214 1 view .LVU992
 3402 0002 08B5     		push	{r3, lr}
 3403              	.LCFI74:
 3404              		.cfi_def_cfa_offset 8
 3405              		.cfi_offset 3, -8
 3406              		.cfi_offset 14, -4
 3407              		.loc 1 1216 22 discriminator 1 view .LVU993
 3408 0004 29B1     		cbz	r1, .L335
1217:../Drivers/ISP/isp/Src/isp_services.c ****   {
1218:../Drivers/ISP/isp/Src/isp_services.c ****     return ISP_ERR_SENSOREXPOSURE_EINVAL;
1219:../Drivers/ISP/isp/Src/isp_services.c ****   }
1220:../Drivers/ISP/isp/Src/isp_services.c **** 
1221:../Drivers/ISP/isp/Src/isp_services.c ****   if (hIsp->appliHelpers.GetSensorExposure != NULL)
 3409              		.loc 1 1221 3 is_stmt 1 view .LVU994
 3410              		.loc 1 1221 25 is_stmt 0 view .LVU995
 3411 0006 826B     		ldr	r2, [r0, #56]
 3412              		.loc 1 1221 6 view .LVU996
 3413 0008 2AB1     		cbz	r2, .L329
1222:../Drivers/ISP/isp/Src/isp_services.c ****   {
1223:../Drivers/ISP/isp/Src/isp_services.c ****     if (hIsp->appliHelpers.GetSensorExposure(hIsp->cameraInstance, (int32_t *)&pConfig->exposure) !
 3414              		.loc 1 1223 5 is_stmt 1 view .LVU997
 3415              		.loc 1 1223 9 is_stmt 0 view .LVU998
 3416 000a 4068     		ldr	r0, [r0, #4]
 3417              	.LVL336:
 3418              		.loc 1 1223 9 view .LVU999
ARM GAS  /tmp/ccAu1Zkx.s 			page 89


 3419 000c 9047     		blx	r2
 3420              	.LVL337:
 3421              		.loc 1 1223 8 discriminator 1 view .LVU1000
 3422 000e 20B9     		cbnz	r0, .L336
 3423              	.L328:
1224:../Drivers/ISP/isp/Src/isp_services.c ****     {
1225:../Drivers/ISP/isp/Src/isp_services.c ****       return ISP_ERR_SENSOREXPOSURE;
1226:../Drivers/ISP/isp/Src/isp_services.c ****     }
1227:../Drivers/ISP/isp/Src/isp_services.c ****   }
1228:../Drivers/ISP/isp/Src/isp_services.c **** 
1229:../Drivers/ISP/isp/Src/isp_services.c ****   return ISP_OK;
1230:../Drivers/ISP/isp/Src/isp_services.c **** }
 3424              		.loc 1 1230 1 view .LVU1001
 3425 0010 08BD     		pop	{r3, pc}
 3426              	.LVL338:
 3427              	.L335:
1218:../Drivers/ISP/isp/Src/isp_services.c ****   }
 3428              		.loc 1 1218 12 view .LVU1002
 3429 0012 8220     		movs	r0, #130
 3430              	.LVL339:
1218:../Drivers/ISP/isp/Src/isp_services.c ****   }
 3431              		.loc 1 1218 12 view .LVU1003
 3432 0014 FCE7     		b	.L328
 3433              	.LVL340:
 3434              	.L329:
1229:../Drivers/ISP/isp/Src/isp_services.c **** }
 3435              		.loc 1 1229 10 view .LVU1004
 3436 0016 1046     		mov	r0, r2
 3437              	.LVL341:
1229:../Drivers/ISP/isp/Src/isp_services.c **** }
 3438              		.loc 1 1229 10 view .LVU1005
 3439 0018 FAE7     		b	.L328
 3440              	.LVL342:
 3441              	.L336:
1225:../Drivers/ISP/isp/Src/isp_services.c ****     }
 3442              		.loc 1 1225 14 view .LVU1006
 3443 001a 8320     		movs	r0, #131
 3444 001c F8E7     		b	.L328
 3445              	.LVL343:
 3446              	.L332:
 3447              	.LCFI75:
 3448              		.cfi_def_cfa_offset 0
 3449              		.cfi_restore 3
 3450              		.cfi_restore 14
1218:../Drivers/ISP/isp/Src/isp_services.c ****   }
 3451              		.loc 1 1218 12 view .LVU1007
 3452 001e 8220     		movs	r0, #130
 3453              	.LVL344:
 3454              		.loc 1 1230 1 view .LVU1008
 3455 0020 7047     		bx	lr
 3456              		.cfi_endproc
 3457              	.LFE915:
 3459              		.section	.text.ISP_SVC_Sensor_SetTestPattern,"ax",%progbits
 3460              		.align	1
 3461              		.global	ISP_SVC_Sensor_SetTestPattern
 3462              		.syntax unified
 3463              		.thumb
ARM GAS  /tmp/ccAu1Zkx.s 			page 90


 3464              		.thumb_func
 3466              	ISP_SVC_Sensor_SetTestPattern:
 3467              	.LVL345:
 3468              	.LFB916:
1231:../Drivers/ISP/isp/Src/isp_services.c **** 
1232:../Drivers/ISP/isp/Src/isp_services.c **** /**
1233:../Drivers/ISP/isp/Src/isp_services.c ****   * @brief  ISP_SVC_Sensor_SetTestPattern
1234:../Drivers/ISP/isp/Src/isp_services.c ****   *         Set the sensor test pattern
1235:../Drivers/ISP/isp/Src/isp_services.c ****   * @param  hIsp: ISP device handle
1236:../Drivers/ISP/isp/Src/isp_services.c ****   * @param  pConfig: Pointer to the sensor test pattern configuration
1237:../Drivers/ISP/isp/Src/isp_services.c ****   * @retval operation result
1238:../Drivers/ISP/isp/Src/isp_services.c ****   */
1239:../Drivers/ISP/isp/Src/isp_services.c **** ISP_StatusTypeDef ISP_SVC_Sensor_SetTestPattern(ISP_HandleTypeDef *hIsp, ISP_SensorTestPatternTypeD
1240:../Drivers/ISP/isp/Src/isp_services.c **** {
 3469              		.loc 1 1240 1 is_stmt 1 view -0
 3470              		.cfi_startproc
 3471              		@ args = 0, pretend = 0, frame = 0
 3472              		@ frame_needed = 0, uses_anonymous_args = 0
1241:../Drivers/ISP/isp/Src/isp_services.c ****   /* Check handle validity */
1242:../Drivers/ISP/isp/Src/isp_services.c ****   if ((hIsp == NULL) || (pConfig == NULL))
 3473              		.loc 1 1242 3 view .LVU1010
 3474              		.loc 1 1242 6 is_stmt 0 view .LVU1011
 3475 0000 70B1     		cbz	r0, .L344
1240:../Drivers/ISP/isp/Src/isp_services.c ****   /* Check handle validity */
 3476              		.loc 1 1240 1 view .LVU1012
 3477 0002 08B5     		push	{r3, lr}
 3478              	.LCFI76:
 3479              		.cfi_def_cfa_offset 8
 3480              		.cfi_offset 3, -8
 3481              		.cfi_offset 14, -4
 3482              		.loc 1 1242 22 discriminator 1 view .LVU1013
 3483 0004 31B1     		cbz	r1, .L347
1243:../Drivers/ISP/isp/Src/isp_services.c ****   {
1244:../Drivers/ISP/isp/Src/isp_services.c ****     return ISP_ERR_SENSORTESTPATTERN;
1245:../Drivers/ISP/isp/Src/isp_services.c ****   }
1246:../Drivers/ISP/isp/Src/isp_services.c **** 
1247:../Drivers/ISP/isp/Src/isp_services.c ****   if (hIsp->appliHelpers.SetSensorTestPattern == NULL)
 3484              		.loc 1 1247 3 is_stmt 1 view .LVU1014
 3485              		.loc 1 1247 25 is_stmt 0 view .LVU1015
 3486 0006 C26B     		ldr	r2, [r0, #60]
 3487              		.loc 1 1247 6 view .LVU1016
 3488 0008 32B1     		cbz	r2, .L341
1248:../Drivers/ISP/isp/Src/isp_services.c ****   {
1249:../Drivers/ISP/isp/Src/isp_services.c ****     return ISP_ERR_APP_HELPER_UNDEFINED;
1250:../Drivers/ISP/isp/Src/isp_services.c ****   }
1251:../Drivers/ISP/isp/Src/isp_services.c **** 
1252:../Drivers/ISP/isp/Src/isp_services.c ****   if (hIsp->appliHelpers.SetSensorTestPattern(hIsp->cameraInstance, (int32_t)pConfig->mode) != 0)
 3489              		.loc 1 1252 3 is_stmt 1 view .LVU1017
 3490              		.loc 1 1252 7 is_stmt 0 view .LVU1018
 3491 000a 0968     		ldr	r1, [r1]
 3492              	.LVL346:
 3493              		.loc 1 1252 7 view .LVU1019
 3494 000c 4068     		ldr	r0, [r0, #4]
 3495              	.LVL347:
 3496              		.loc 1 1252 7 view .LVU1020
 3497 000e 9047     		blx	r2
 3498              	.LVL348:
ARM GAS  /tmp/ccAu1Zkx.s 			page 91


 3499              		.loc 1 1252 6 discriminator 1 view .LVU1021
 3500 0010 20B9     		cbnz	r0, .L348
 3501              	.L340:
1253:../Drivers/ISP/isp/Src/isp_services.c ****   {
1254:../Drivers/ISP/isp/Src/isp_services.c ****     return ISP_ERR_SENSORTESTPATTERN;
1255:../Drivers/ISP/isp/Src/isp_services.c ****   }
1256:../Drivers/ISP/isp/Src/isp_services.c **** 
1257:../Drivers/ISP/isp/Src/isp_services.c ****   return ISP_OK;
1258:../Drivers/ISP/isp/Src/isp_services.c **** }
 3502              		.loc 1 1258 1 view .LVU1022
 3503 0012 08BD     		pop	{r3, pc}
 3504              	.LVL349:
 3505              	.L347:
1244:../Drivers/ISP/isp/Src/isp_services.c ****   }
 3506              		.loc 1 1244 12 view .LVU1023
 3507 0014 C820     		movs	r0, #200
 3508              	.LVL350:
1244:../Drivers/ISP/isp/Src/isp_services.c ****   }
 3509              		.loc 1 1244 12 view .LVU1024
 3510 0016 FCE7     		b	.L340
 3511              	.LVL351:
 3512              	.L341:
1249:../Drivers/ISP/isp/Src/isp_services.c ****   }
 3513              		.loc 1 1249 12 view .LVU1025
 3514 0018 B420     		movs	r0, #180
 3515              	.LVL352:
1249:../Drivers/ISP/isp/Src/isp_services.c ****   }
 3516              		.loc 1 1249 12 view .LVU1026
 3517 001a FAE7     		b	.L340
 3518              	.LVL353:
 3519              	.L348:
1254:../Drivers/ISP/isp/Src/isp_services.c ****   }
 3520              		.loc 1 1254 12 view .LVU1027
 3521 001c C820     		movs	r0, #200
 3522 001e F8E7     		b	.L340
 3523              	.LVL354:
 3524              	.L344:
 3525              	.LCFI77:
 3526              		.cfi_def_cfa_offset 0
 3527              		.cfi_restore 3
 3528              		.cfi_restore 14
1244:../Drivers/ISP/isp/Src/isp_services.c ****   }
 3529              		.loc 1 1244 12 view .LVU1028
 3530 0020 C820     		movs	r0, #200
 3531              	.LVL355:
 3532              		.loc 1 1258 1 view .LVU1029
 3533 0022 7047     		bx	lr
 3534              		.cfi_endproc
 3535              	.LFE916:
 3537              		.section	.text.ISP_SVC_Misc_GetDCMIPPVersion,"ax",%progbits
 3538              		.align	1
 3539              		.global	ISP_SVC_Misc_GetDCMIPPVersion
 3540              		.syntax unified
 3541              		.thumb
 3542              		.thumb_func
 3544              	ISP_SVC_Misc_GetDCMIPPVersion:
 3545              	.LVL356:
ARM GAS  /tmp/ccAu1Zkx.s 			page 92


 3546              	.LFB917:
1259:../Drivers/ISP/isp/Src/isp_services.c **** 
1260:../Drivers/ISP/isp/Src/isp_services.c **** /**
1261:../Drivers/ISP/isp/Src/isp_services.c ****   * @brief  ISP_SVC_Misc_GetDCMIPPVersion
1262:../Drivers/ISP/isp/Src/isp_services.c ****   *         Get the DCMIPP IP version
1263:../Drivers/ISP/isp/Src/isp_services.c ****   * @param  hIsp: ISP device handle
1264:../Drivers/ISP/isp/Src/isp_services.c ****   * @param  pMajRev: Pointer to major revision of DCMIPP
1265:../Drivers/ISP/isp/Src/isp_services.c ****   * @param  pMinRev: Pointer to minor revision of DCMIPP
1266:../Drivers/ISP/isp/Src/isp_services.c ****   * @retval ISP_OK if DCMIPP version is read properly, ISP_FAIL otherwise
1267:../Drivers/ISP/isp/Src/isp_services.c ****   */
1268:../Drivers/ISP/isp/Src/isp_services.c **** ISP_StatusTypeDef ISP_SVC_Misc_GetDCMIPPVersion(ISP_HandleTypeDef *hIsp, uint32_t *pMajRev, uint32_
1269:../Drivers/ISP/isp/Src/isp_services.c **** {
 3547              		.loc 1 1269 1 is_stmt 1 view -0
 3548              		.cfi_startproc
 3549              		@ args = 0, pretend = 0, frame = 0
 3550              		@ frame_needed = 0, uses_anonymous_args = 0
 3551              		@ link register save eliminated.
1270:../Drivers/ISP/isp/Src/isp_services.c ****   /* Check handle validity */
1271:../Drivers/ISP/isp/Src/isp_services.c ****   if ((hIsp == NULL) || (pMajRev == NULL) || (pMinRev == NULL))
 3552              		.loc 1 1271 3 view .LVU1031
 3553              		.loc 1 1271 6 is_stmt 0 view .LVU1032
 3554 0000 80B1     		cbz	r0, .L350
 3555              		.loc 1 1271 22 discriminator 1 view .LVU1033
 3556 0002 79B1     		cbz	r1, .L350
 3557              		.loc 1 1271 43 discriminator 2 view .LVU1034
 3558 0004 72B1     		cbz	r2, .L350
1272:../Drivers/ISP/isp/Src/isp_services.c ****   {
1273:../Drivers/ISP/isp/Src/isp_services.c ****     return ISP_ERR_EINVAL;
1274:../Drivers/ISP/isp/Src/isp_services.c ****   }
1275:../Drivers/ISP/isp/Src/isp_services.c **** 
1276:../Drivers/ISP/isp/Src/isp_services.c ****   DCMIPP_HandleTypeDef *hDcmipp = hIsp->hDcmipp;
 3559              		.loc 1 1276 3 is_stmt 1 view .LVU1035
 3560              		.loc 1 1276 25 is_stmt 0 view .LVU1036
 3561 0006 0068     		ldr	r0, [r0]
 3562              	.LVL357:
1277:../Drivers/ISP/isp/Src/isp_services.c ****   *pMajRev = (hDcmipp->Instance->VERR & DCMIPP_VERR_MAJREV) >> DCMIPP_VERR_MAJREV_Pos;
 3563              		.loc 1 1277 3 is_stmt 1 view .LVU1037
 3564              		.loc 1 1277 22 is_stmt 0 view .LVU1038
 3565 0008 0368     		ldr	r3, [r0]
 3566              		.loc 1 1277 32 view .LVU1039
 3567 000a D3F8F43F 		ldr	r3, [r3, #4084]
 3568              		.loc 1 1277 61 view .LVU1040
 3569 000e C3F30313 		ubfx	r3, r3, #4, #4
 3570              		.loc 1 1277 12 view .LVU1041
 3571 0012 0B60     		str	r3, [r1]
1278:../Drivers/ISP/isp/Src/isp_services.c ****   *pMinRev = (hDcmipp->Instance->VERR & DCMIPP_VERR_MINREV) >> DCMIPP_VERR_MINREV_Pos;
 3572              		.loc 1 1278 3 is_stmt 1 view .LVU1042
 3573              		.loc 1 1278 22 is_stmt 0 view .LVU1043
 3574 0014 0368     		ldr	r3, [r0]
 3575              		.loc 1 1278 32 view .LVU1044
 3576 0016 D3F8F43F 		ldr	r3, [r3, #4084]
 3577              		.loc 1 1278 61 view .LVU1045
 3578 001a 03F00F03 		and	r3, r3, #15
 3579              		.loc 1 1278 12 view .LVU1046
 3580 001e 1360     		str	r3, [r2]
1279:../Drivers/ISP/isp/Src/isp_services.c **** 
1280:../Drivers/ISP/isp/Src/isp_services.c ****   return ISP_OK;
ARM GAS  /tmp/ccAu1Zkx.s 			page 93


 3581              		.loc 1 1280 3 is_stmt 1 view .LVU1047
 3582              		.loc 1 1280 10 is_stmt 0 view .LVU1048
 3583 0020 0020     		movs	r0, #0
 3584              	.LVL358:
1281:../Drivers/ISP/isp/Src/isp_services.c **** }
 3585              		.loc 1 1281 1 view .LVU1049
 3586 0022 7047     		bx	lr
 3587              	.LVL359:
 3588              	.L350:
1273:../Drivers/ISP/isp/Src/isp_services.c ****   }
 3589              		.loc 1 1273 12 view .LVU1050
 3590 0024 0120     		movs	r0, #1
 3591              	.LVL360:
1273:../Drivers/ISP/isp/Src/isp_services.c ****   }
 3592              		.loc 1 1273 12 view .LVU1051
 3593 0026 7047     		bx	lr
 3594              		.cfi_endproc
 3595              	.LFE917:
 3597              		.section	.text.ISP_SVC_Misc_IsDCMIPPReady,"ax",%progbits
 3598              		.align	1
 3599              		.global	ISP_SVC_Misc_IsDCMIPPReady
 3600              		.syntax unified
 3601              		.thumb
 3602              		.thumb_func
 3604              	ISP_SVC_Misc_IsDCMIPPReady:
 3605              	.LVL361:
 3606              	.LFB918:
1282:../Drivers/ISP/isp/Src/isp_services.c **** 
1283:../Drivers/ISP/isp/Src/isp_services.c **** /**
1284:../Drivers/ISP/isp/Src/isp_services.c ****   * @brief  ISP_SVC_Misc_IsDCMIPPReady
1285:../Drivers/ISP/isp/Src/isp_services.c ****   *         Check that the DCMIPP device is ready
1286:../Drivers/ISP/isp/Src/isp_services.c ****   * @param  hIsp: ISP device handle
1287:../Drivers/ISP/isp/Src/isp_services.c ****   * @retval ISP_OK if DCMIPP is running, ISP_FAIL otherwise
1288:../Drivers/ISP/isp/Src/isp_services.c ****   */
1289:../Drivers/ISP/isp/Src/isp_services.c **** ISP_StatusTypeDef ISP_SVC_Misc_IsDCMIPPReady(ISP_HandleTypeDef *hIsp)
1290:../Drivers/ISP/isp/Src/isp_services.c **** {
 3607              		.loc 1 1290 1 is_stmt 1 view -0
 3608              		.cfi_startproc
 3609              		@ args = 0, pretend = 0, frame = 0
 3610              		@ frame_needed = 0, uses_anonymous_args = 0
1291:../Drivers/ISP/isp/Src/isp_services.c ****   /* Check handle validity */
1292:../Drivers/ISP/isp/Src/isp_services.c ****   if (hIsp == NULL)
 3611              		.loc 1 1292 3 view .LVU1053
 3612              		.loc 1 1292 6 is_stmt 0 view .LVU1054
 3613 0000 38B1     		cbz	r0, .L355
1290:../Drivers/ISP/isp/Src/isp_services.c ****   /* Check handle validity */
 3614              		.loc 1 1290 1 view .LVU1055
 3615 0002 08B5     		push	{r3, lr}
 3616              	.LCFI78:
 3617              		.cfi_def_cfa_offset 8
 3618              		.cfi_offset 3, -8
 3619              		.cfi_offset 14, -4
1293:../Drivers/ISP/isp/Src/isp_services.c ****   {
1294:../Drivers/ISP/isp/Src/isp_services.c ****     return ISP_ERR_EINVAL;
1295:../Drivers/ISP/isp/Src/isp_services.c ****   }
1296:../Drivers/ISP/isp/Src/isp_services.c **** 
1297:../Drivers/ISP/isp/Src/isp_services.c ****   if (HAL_DCMIPP_GetState(hIsp->hDcmipp) != HAL_DCMIPP_STATE_READY)
ARM GAS  /tmp/ccAu1Zkx.s 			page 94


 3620              		.loc 1 1297 3 is_stmt 1 view .LVU1056
 3621              		.loc 1 1297 7 is_stmt 0 view .LVU1057
 3622 0004 0068     		ldr	r0, [r0]
 3623              	.LVL362:
 3624              		.loc 1 1297 7 view .LVU1058
 3625 0006 FFF7FEFF 		bl	HAL_DCMIPP_GetState
 3626              	.LVL363:
 3627              		.loc 1 1297 6 discriminator 1 view .LVU1059
 3628 000a 0228     		cmp	r0, #2
 3629 000c 03D1     		bne	.L356
1298:../Drivers/ISP/isp/Src/isp_services.c ****   {
1299:../Drivers/ISP/isp/Src/isp_services.c ****     return ISP_ERR_DCMIPP_STATE;
1300:../Drivers/ISP/isp/Src/isp_services.c ****   }
1301:../Drivers/ISP/isp/Src/isp_services.c **** 
1302:../Drivers/ISP/isp/Src/isp_services.c ****   return ISP_OK;
 3630              		.loc 1 1302 10 view .LVU1060
 3631 000e 0020     		movs	r0, #0
 3632              	.L354:
1303:../Drivers/ISP/isp/Src/isp_services.c **** }
 3633              		.loc 1 1303 1 view .LVU1061
 3634 0010 08BD     		pop	{r3, pc}
 3635              	.LVL364:
 3636              	.L355:
 3637              	.LCFI79:
 3638              		.cfi_def_cfa_offset 0
 3639              		.cfi_restore 3
 3640              		.cfi_restore 14
1294:../Drivers/ISP/isp/Src/isp_services.c ****   }
 3641              		.loc 1 1294 12 view .LVU1062
 3642 0012 0120     		movs	r0, #1
 3643              	.LVL365:
 3644              		.loc 1 1303 1 view .LVU1063
 3645 0014 7047     		bx	lr
 3646              	.L356:
 3647              	.LCFI80:
 3648              		.cfi_def_cfa_offset 8
 3649              		.cfi_offset 3, -8
 3650              		.cfi_offset 14, -4
1299:../Drivers/ISP/isp/Src/isp_services.c ****   }
 3651              		.loc 1 1299 12 view .LVU1064
 3652 0016 8C20     		movs	r0, #140
 3653 0018 FAE7     		b	.L354
 3654              		.cfi_endproc
 3655              	.LFE918:
 3657              		.section	.text.ISP_SVC_Misc_GetFirmwareConfig,"ax",%progbits
 3658              		.align	1
 3659              		.global	ISP_SVC_Misc_GetFirmwareConfig
 3660              		.syntax unified
 3661              		.thumb
 3662              		.thumb_func
 3664              	ISP_SVC_Misc_GetFirmwareConfig:
 3665              	.LVL366:
 3666              	.LFB919:
1304:../Drivers/ISP/isp/Src/isp_services.c **** 
1305:../Drivers/ISP/isp/Src/isp_services.c **** /**
1306:../Drivers/ISP/isp/Src/isp_services.c ****   * @brief  ISP_SVC_Misc_GetFirmwareConfig
1307:../Drivers/ISP/isp/Src/isp_services.c ****   *         Return the firmware config
ARM GAS  /tmp/ccAu1Zkx.s 			page 95


1308:../Drivers/ISP/isp/Src/isp_services.c ****   * @param  pConfig: Pointer to the firmware config
1309:../Drivers/ISP/isp/Src/isp_services.c ****   * @retval operation result
1310:../Drivers/ISP/isp/Src/isp_services.c ****   */
1311:../Drivers/ISP/isp/Src/isp_services.c **** ISP_StatusTypeDef ISP_SVC_Misc_GetFirmwareConfig(ISP_FirmwareConfigTypeDef *pConfig)
1312:../Drivers/ISP/isp/Src/isp_services.c **** {
 3667              		.loc 1 1312 1 is_stmt 1 view -0
 3668              		.cfi_startproc
 3669              		@ args = 0, pretend = 0, frame = 0
 3670              		@ frame_needed = 0, uses_anonymous_args = 0
 3671              		.loc 1 1312 1 is_stmt 0 view .LVU1066
 3672 0000 10B5     		push	{r4, lr}
 3673              	.LCFI81:
 3674              		.cfi_def_cfa_offset 8
 3675              		.cfi_offset 4, -8
 3676              		.cfi_offset 14, -4
 3677 0002 0446     		mov	r4, r0
1313:../Drivers/ISP/isp/Src/isp_services.c ****   uint32_t devId;
 3678              		.loc 1 1313 3 is_stmt 1 view .LVU1067
1314:../Drivers/ISP/isp/Src/isp_services.c **** 
1315:../Drivers/ISP/isp/Src/isp_services.c ****   /* Number of supported fields (RGBOrder, HasStatRemoval, etc..). */
1316:../Drivers/ISP/isp/Src/isp_services.c ****   pConfig->nbField = 10;
 3679              		.loc 1 1316 3 view .LVU1068
 3680              		.loc 1 1316 20 is_stmt 0 view .LVU1069
 3681 0004 0A23     		movs	r3, #10
 3682 0006 0360     		str	r3, [r0]
1317:../Drivers/ISP/isp/Src/isp_services.c ****   /* RGB Order is BGR (1) on STM32N6 and more generally on any MCU using DCMIPP HAL */
1318:../Drivers/ISP/isp/Src/isp_services.c ****   pConfig->rgbOrder = ISP_SVC_CONFIG_ORDER_BGR;
 3683              		.loc 1 1318 3 is_stmt 1 view .LVU1070
 3684              		.loc 1 1318 21 is_stmt 0 view .LVU1071
 3685 0008 0123     		movs	r3, #1
 3686 000a 4360     		str	r3, [r0, #4]
1319:../Drivers/ISP/isp/Src/isp_services.c ****   /* StatRemoval, GammaCorrection and AEC antiflickering support status */
1320:../Drivers/ISP/isp/Src/isp_services.c ****   pConfig->hasStatRemoval = 1;
 3687              		.loc 1 1320 3 is_stmt 1 view .LVU1072
 3688              		.loc 1 1320 27 is_stmt 0 view .LVU1073
 3689 000c 8360     		str	r3, [r0, #8]
1321:../Drivers/ISP/isp/Src/isp_services.c ****   pConfig->hasGamma = 0;
 3690              		.loc 1 1321 3 is_stmt 1 view .LVU1074
 3691              		.loc 1 1321 21 is_stmt 0 view .LVU1075
 3692 000e 0022     		movs	r2, #0
 3693 0010 C260     		str	r2, [r0, #12]
1322:../Drivers/ISP/isp/Src/isp_services.c ****   pConfig->hasUniqueGamma = 1;
 3694              		.loc 1 1322 3 is_stmt 1 view .LVU1076
 3695              		.loc 1 1322 27 is_stmt 0 view .LVU1077
 3696 0012 8362     		str	r3, [r0, #40]
1323:../Drivers/ISP/isp/Src/isp_services.c ****   pConfig->hasAntiFlicker = 1;
 3697              		.loc 1 1323 3 is_stmt 1 view .LVU1078
 3698              		.loc 1 1323 27 is_stmt 0 view .LVU1079
 3699 0014 0361     		str	r3, [r0, #16]
1324:../Drivers/ISP/isp/Src/isp_services.c ****   /* DeviceId */
1325:../Drivers/ISP/isp/Src/isp_services.c ****   switch(HAL_GetDEVID())
 3700              		.loc 1 1325 3 is_stmt 1 view .LVU1080
 3701              		.loc 1 1325 10 is_stmt 0 view .LVU1081
 3702 0016 FFF7FEFF 		bl	HAL_GetDEVID
 3703              	.LVL367:
 3704              		.loc 1 1325 3 discriminator 1 view .LVU1082
 3705 001a B0F5C04F 		cmp	r0, #24576
ARM GAS  /tmp/ccAu1Zkx.s 			page 96


 3706 001e 09D0     		beq	.L365
 3707 0020 1BD8     		bhi	.L364
 3708 0022 B0F5005F 		cmp	r0, #8192
 3709 0026 05D0     		beq	.L365
 3710 0028 B0F5085F 		cmp	r0, #8704
 3711 002c 13D0     		beq	.L369
1326:../Drivers/ISP/isp/Src/isp_services.c ****   {
1327:../Drivers/ISP/isp/Src/isp_services.c ****   case 0x00006200: /* STM32N645xx */
1328:../Drivers/ISP/isp/Src/isp_services.c ****   case 0x00006000: /* STM32N655xx */
1329:../Drivers/ISP/isp/Src/isp_services.c ****   case 0x00002200: /* STM32N647xx */
1330:../Drivers/ISP/isp/Src/isp_services.c ****   case 0x00002000: /* STM32N657xx */
1331:../Drivers/ISP/isp/Src/isp_services.c ****     devId = ISP_SVC_CONFIG_DEVICE_N6;
1332:../Drivers/ISP/isp/Src/isp_services.c ****     break;
1333:../Drivers/ISP/isp/Src/isp_services.c ****   default:
1334:../Drivers/ISP/isp/Src/isp_services.c ****     devId = ISP_SVC_CONFIG_DEVICE_UNKNOWN;
 3712              		.loc 1 1334 11 view .LVU1083
 3713 002e 4FF0FF33 		mov	r3, #-1
 3714 0032 00E0     		b	.L363
 3715              	.L365:
 3716 0034 0023     		movs	r3, #0
 3717              	.L363:
 3718              	.LVL368:
1335:../Drivers/ISP/isp/Src/isp_services.c ****   }
1336:../Drivers/ISP/isp/Src/isp_services.c ****   pConfig->deviceId = devId;
 3719              		.loc 1 1336 3 is_stmt 1 view .LVU1084
 3720              		.loc 1 1336 21 is_stmt 0 view .LVU1085
 3721 0036 6361     		str	r3, [r4, #20]
1337:../Drivers/ISP/isp/Src/isp_services.c ****   /* UID */
1338:../Drivers/ISP/isp/Src/isp_services.c ****   pConfig->uId[0] = HAL_GetUIDw0();
 3722              		.loc 1 1338 3 is_stmt 1 view .LVU1086
 3723              		.loc 1 1338 21 is_stmt 0 view .LVU1087
 3724 0038 FFF7FEFF 		bl	HAL_GetUIDw0
 3725              	.LVL369:
 3726              		.loc 1 1338 19 discriminator 1 view .LVU1088
 3727 003c A061     		str	r0, [r4, #24]
1339:../Drivers/ISP/isp/Src/isp_services.c ****   pConfig->uId[1] = HAL_GetUIDw1();
 3728              		.loc 1 1339 3 is_stmt 1 view .LVU1089
 3729              		.loc 1 1339 21 is_stmt 0 view .LVU1090
 3730 003e FFF7FEFF 		bl	HAL_GetUIDw1
 3731              	.LVL370:
 3732              		.loc 1 1339 19 discriminator 1 view .LVU1091
 3733 0042 E061     		str	r0, [r4, #28]
1340:../Drivers/ISP/isp/Src/isp_services.c ****   pConfig->uId[2] = HAL_GetUIDw2();
 3734              		.loc 1 1340 3 is_stmt 1 view .LVU1092
 3735              		.loc 1 1340 21 is_stmt 0 view .LVU1093
 3736 0044 FFF7FEFF 		bl	HAL_GetUIDw2
 3737              	.LVL371:
 3738              		.loc 1 1340 19 discriminator 1 view .LVU1094
 3739 0048 2062     		str	r0, [r4, #32]
1341:../Drivers/ISP/isp/Src/isp_services.c ****   /* Sensor Delay support status */
1342:../Drivers/ISP/isp/Src/isp_services.c ****   pConfig->hasSensorDelay = 1;
 3740              		.loc 1 1342 3 is_stmt 1 view .LVU1095
 3741              		.loc 1 1342 27 is_stmt 0 view .LVU1096
 3742 004a 0123     		movs	r3, #1
 3743 004c 6362     		str	r3, [r4, #36]
1343:../Drivers/ISP/isp/Src/isp_services.c ****   /* UVC streaming support */
1344:../Drivers/ISP/isp/Src/isp_services.c **** #ifdef ISP_ENABLE_UVC
ARM GAS  /tmp/ccAu1Zkx.s 			page 97


1345:../Drivers/ISP/isp/Src/isp_services.c ****   pConfig->hasUVC = 1;
1346:../Drivers/ISP/isp/Src/isp_services.c **** #else
1347:../Drivers/ISP/isp/Src/isp_services.c ****   pConfig->hasUVC = 0;
 3744              		.loc 1 1347 3 is_stmt 1 view .LVU1097
 3745              		.loc 1 1347 19 is_stmt 0 view .LVU1098
 3746 004e 0020     		movs	r0, #0
 3747 0050 E062     		str	r0, [r4, #44]
1348:../Drivers/ISP/isp/Src/isp_services.c **** #endif
1349:../Drivers/ISP/isp/Src/isp_services.c ****   /* ST 2A algorithms support */
1350:../Drivers/ISP/isp/Src/isp_services.c ****   pConfig->hasSTAlgo = 1;
 3748              		.loc 1 1350 3 is_stmt 1 view .LVU1099
 3749              		.loc 1 1350 22 is_stmt 0 view .LVU1100
 3750 0052 2363     		str	r3, [r4, #48]
1351:../Drivers/ISP/isp/Src/isp_services.c ****   return ISP_OK;
 3751              		.loc 1 1351 3 is_stmt 1 view .LVU1101
1352:../Drivers/ISP/isp/Src/isp_services.c **** }
 3752              		.loc 1 1352 1 is_stmt 0 view .LVU1102
 3753 0054 10BD     		pop	{r4, pc}
 3754              	.LVL372:
 3755              	.L369:
1325:../Drivers/ISP/isp/Src/isp_services.c ****   {
 3756              		.loc 1 1325 3 discriminator 1 view .LVU1103
 3757 0056 0023     		movs	r3, #0
 3758 0058 EDE7     		b	.L363
 3759              	.L364:
 3760 005a B0F5C44F 		cmp	r0, #25088
 3761 005e 02D0     		beq	.L370
1334:../Drivers/ISP/isp/Src/isp_services.c ****   }
 3762              		.loc 1 1334 11 view .LVU1104
 3763 0060 4FF0FF33 		mov	r3, #-1
 3764 0064 E7E7     		b	.L363
 3765              	.L370:
1325:../Drivers/ISP/isp/Src/isp_services.c ****   {
 3766              		.loc 1 1325 3 discriminator 1 view .LVU1105
 3767 0066 0023     		movs	r3, #0
 3768 0068 E5E7     		b	.L363
 3769              		.cfi_endproc
 3770              	.LFE919:
 3772              		.section	.text.ISP_SVC_Misc_IncMainFrameId,"ax",%progbits
 3773              		.align	1
 3774              		.global	ISP_SVC_Misc_IncMainFrameId
 3775              		.syntax unified
 3776              		.thumb
 3777              		.thumb_func
 3779              	ISP_SVC_Misc_IncMainFrameId:
 3780              	.LVL373:
 3781              	.LFB920:
1353:../Drivers/ISP/isp/Src/isp_services.c **** 
1354:../Drivers/ISP/isp/Src/isp_services.c **** /**
1355:../Drivers/ISP/isp/Src/isp_services.c ****   * @brief  ISP_SVC_Misc_IncMainFrameId
1356:../Drivers/ISP/isp/Src/isp_services.c ****   *         Increment the id of the frame output on the main pipe
1357:../Drivers/ISP/isp/Src/isp_services.c ****   * @param  hIsp: ISP device handle
1358:../Drivers/ISP/isp/Src/isp_services.c ****   * @retval none
1359:../Drivers/ISP/isp/Src/isp_services.c ****   */
1360:../Drivers/ISP/isp/Src/isp_services.c **** void ISP_SVC_Misc_IncMainFrameId(ISP_HandleTypeDef *hIsp)
1361:../Drivers/ISP/isp/Src/isp_services.c **** {
 3782              		.loc 1 1361 1 is_stmt 1 view -0
ARM GAS  /tmp/ccAu1Zkx.s 			page 98


 3783              		.cfi_startproc
 3784              		@ args = 0, pretend = 0, frame = 0
 3785              		@ frame_needed = 0, uses_anonymous_args = 0
 3786              		@ link register save eliminated.
1362:../Drivers/ISP/isp/Src/isp_services.c ****   hIsp->MainPipe_FrameCount++;
 3787              		.loc 1 1362 3 view .LVU1107
 3788              		.loc 1 1362 7 is_stmt 0 view .LVU1108
 3789 0000 436C     		ldr	r3, [r0, #68]
 3790              		.loc 1 1362 28 view .LVU1109
 3791 0002 0133     		adds	r3, r3, #1
 3792 0004 4364     		str	r3, [r0, #68]
1363:../Drivers/ISP/isp/Src/isp_services.c **** }
 3793              		.loc 1 1363 1 view .LVU1110
 3794 0006 7047     		bx	lr
 3795              		.cfi_endproc
 3796              	.LFE920:
 3798              		.section	.text.ISP_SVC_Misc_GetMainFrameId,"ax",%progbits
 3799              		.align	1
 3800              		.global	ISP_SVC_Misc_GetMainFrameId
 3801              		.syntax unified
 3802              		.thumb
 3803              		.thumb_func
 3805              	ISP_SVC_Misc_GetMainFrameId:
 3806              	.LVL374:
 3807              	.LFB921:
1364:../Drivers/ISP/isp/Src/isp_services.c **** 
1365:../Drivers/ISP/isp/Src/isp_services.c **** /**
1366:../Drivers/ISP/isp/Src/isp_services.c ****   * @brief  ISP_SVC_Misc_GetMainFrameId
1367:../Drivers/ISP/isp/Src/isp_services.c ****   *         Return the id of the last frame output on the main pipe
1368:../Drivers/ISP/isp/Src/isp_services.c ****   * @param  hIsp: ISP device handle
1369:../Drivers/ISP/isp/Src/isp_services.c ****   * @retval Id of the last frame output on the main pipe
1370:../Drivers/ISP/isp/Src/isp_services.c ****   */
1371:../Drivers/ISP/isp/Src/isp_services.c **** uint32_t ISP_SVC_Misc_GetMainFrameId(ISP_HandleTypeDef *hIsp)
1372:../Drivers/ISP/isp/Src/isp_services.c **** {
 3808              		.loc 1 1372 1 is_stmt 1 view -0
 3809              		.cfi_startproc
 3810              		@ args = 0, pretend = 0, frame = 0
 3811              		@ frame_needed = 0, uses_anonymous_args = 0
 3812              		@ link register save eliminated.
1373:../Drivers/ISP/isp/Src/isp_services.c ****   return hIsp->MainPipe_FrameCount;
 3813              		.loc 1 1373 3 view .LVU1112
1374:../Drivers/ISP/isp/Src/isp_services.c **** }
 3814              		.loc 1 1374 1 is_stmt 0 view .LVU1113
 3815 0000 406C     		ldr	r0, [r0, #68]
 3816              	.LVL375:
 3817              		.loc 1 1374 1 view .LVU1114
 3818 0002 7047     		bx	lr
 3819              		.cfi_endproc
 3820              	.LFE921:
 3822              		.section	.text.ISP_SVC_Misc_IncAncillaryFrameId,"ax",%progbits
 3823              		.align	1
 3824              		.global	ISP_SVC_Misc_IncAncillaryFrameId
 3825              		.syntax unified
 3826              		.thumb
 3827              		.thumb_func
 3829              	ISP_SVC_Misc_IncAncillaryFrameId:
 3830              	.LVL376:
ARM GAS  /tmp/ccAu1Zkx.s 			page 99


 3831              	.LFB922:
1375:../Drivers/ISP/isp/Src/isp_services.c **** 
1376:../Drivers/ISP/isp/Src/isp_services.c **** /**
1377:../Drivers/ISP/isp/Src/isp_services.c ****   * @brief  ISP_SVC_Misc_IncAncillaryFrameId
1378:../Drivers/ISP/isp/Src/isp_services.c ****   *         Increment the id of the frame output on the ancillary pipe
1379:../Drivers/ISP/isp/Src/isp_services.c ****   * @param  hIsp: ISP device handle
1380:../Drivers/ISP/isp/Src/isp_services.c ****   * @retval none
1381:../Drivers/ISP/isp/Src/isp_services.c ****   */
1382:../Drivers/ISP/isp/Src/isp_services.c **** void ISP_SVC_Misc_IncAncillaryFrameId(ISP_HandleTypeDef *hIsp)
1383:../Drivers/ISP/isp/Src/isp_services.c **** {
 3832              		.loc 1 1383 1 is_stmt 1 view -0
 3833              		.cfi_startproc
 3834              		@ args = 0, pretend = 0, frame = 0
 3835              		@ frame_needed = 0, uses_anonymous_args = 0
 3836              		@ link register save eliminated.
1384:../Drivers/ISP/isp/Src/isp_services.c ****   hIsp->AncillaryPipe_FrameCount++;
 3837              		.loc 1 1384 3 view .LVU1116
 3838              		.loc 1 1384 7 is_stmt 0 view .LVU1117
 3839 0000 836C     		ldr	r3, [r0, #72]
 3840              		.loc 1 1384 33 view .LVU1118
 3841 0002 0133     		adds	r3, r3, #1
 3842 0004 8364     		str	r3, [r0, #72]
1385:../Drivers/ISP/isp/Src/isp_services.c **** }
 3843              		.loc 1 1385 1 view .LVU1119
 3844 0006 7047     		bx	lr
 3845              		.cfi_endproc
 3846              	.LFE922:
 3848              		.section	.text.ISP_SVC_Misc_GetAncillaryFrameId,"ax",%progbits
 3849              		.align	1
 3850              		.global	ISP_SVC_Misc_GetAncillaryFrameId
 3851              		.syntax unified
 3852              		.thumb
 3853              		.thumb_func
 3855              	ISP_SVC_Misc_GetAncillaryFrameId:
 3856              	.LVL377:
 3857              	.LFB923:
1386:../Drivers/ISP/isp/Src/isp_services.c **** 
1387:../Drivers/ISP/isp/Src/isp_services.c **** /**
1388:../Drivers/ISP/isp/Src/isp_services.c ****   * @brief  ISP_SVC_Misc_GetAncillaryFrameId
1389:../Drivers/ISP/isp/Src/isp_services.c ****   *         Return the id of the last frame output on the ancillary pipe
1390:../Drivers/ISP/isp/Src/isp_services.c ****   * @param  hIsp: ISP device handle
1391:../Drivers/ISP/isp/Src/isp_services.c ****   * @retval Id of the last frame output on the ancillary pipe
1392:../Drivers/ISP/isp/Src/isp_services.c ****   */
1393:../Drivers/ISP/isp/Src/isp_services.c **** uint32_t ISP_SVC_Misc_GetAncillaryFrameId(ISP_HandleTypeDef *hIsp)
1394:../Drivers/ISP/isp/Src/isp_services.c **** {
 3858              		.loc 1 1394 1 is_stmt 1 view -0
 3859              		.cfi_startproc
 3860              		@ args = 0, pretend = 0, frame = 0
 3861              		@ frame_needed = 0, uses_anonymous_args = 0
 3862              		@ link register save eliminated.
1395:../Drivers/ISP/isp/Src/isp_services.c ****   return hIsp->AncillaryPipe_FrameCount;
 3863              		.loc 1 1395 3 view .LVU1121
1396:../Drivers/ISP/isp/Src/isp_services.c **** }
 3864              		.loc 1 1396 1 is_stmt 0 view .LVU1122
 3865 0000 806C     		ldr	r0, [r0, #72]
 3866              	.LVL378:
 3867              		.loc 1 1396 1 view .LVU1123
ARM GAS  /tmp/ccAu1Zkx.s 			page 100


 3868 0002 7047     		bx	lr
 3869              		.cfi_endproc
 3870              	.LFE923:
 3872              		.section	.text.ISP_SVC_Misc_IncDumpFrameId,"ax",%progbits
 3873              		.align	1
 3874              		.global	ISP_SVC_Misc_IncDumpFrameId
 3875              		.syntax unified
 3876              		.thumb
 3877              		.thumb_func
 3879              	ISP_SVC_Misc_IncDumpFrameId:
 3880              	.LVL379:
 3881              	.LFB924:
1397:../Drivers/ISP/isp/Src/isp_services.c **** 
1398:../Drivers/ISP/isp/Src/isp_services.c **** /**
1399:../Drivers/ISP/isp/Src/isp_services.c ****   * @brief  ISP_SVC_Misc_IncDumpFrameId
1400:../Drivers/ISP/isp/Src/isp_services.c ****   *         Increment the id of the frame output on the dump pipe
1401:../Drivers/ISP/isp/Src/isp_services.c ****   * @param  hIsp: ISP device handle
1402:../Drivers/ISP/isp/Src/isp_services.c ****   * @retval none
1403:../Drivers/ISP/isp/Src/isp_services.c ****   */
1404:../Drivers/ISP/isp/Src/isp_services.c **** void ISP_SVC_Misc_IncDumpFrameId(ISP_HandleTypeDef *hIsp)
1405:../Drivers/ISP/isp/Src/isp_services.c **** {
 3882              		.loc 1 1405 1 is_stmt 1 view -0
 3883              		.cfi_startproc
 3884              		@ args = 0, pretend = 0, frame = 0
 3885              		@ frame_needed = 0, uses_anonymous_args = 0
 3886              		@ link register save eliminated.
1406:../Drivers/ISP/isp/Src/isp_services.c ****   hIsp->DumpPipe_FrameCount++;
 3887              		.loc 1 1406 3 view .LVU1125
 3888              		.loc 1 1406 7 is_stmt 0 view .LVU1126
 3889 0000 C36C     		ldr	r3, [r0, #76]
 3890              		.loc 1 1406 28 view .LVU1127
 3891 0002 0133     		adds	r3, r3, #1
 3892 0004 C364     		str	r3, [r0, #76]
1407:../Drivers/ISP/isp/Src/isp_services.c **** }
 3893              		.loc 1 1407 1 view .LVU1128
 3894 0006 7047     		bx	lr
 3895              		.cfi_endproc
 3896              	.LFE924:
 3898              		.section	.text.ISP_SVC_Misc_GetDumpFrameId,"ax",%progbits
 3899              		.align	1
 3900              		.global	ISP_SVC_Misc_GetDumpFrameId
 3901              		.syntax unified
 3902              		.thumb
 3903              		.thumb_func
 3905              	ISP_SVC_Misc_GetDumpFrameId:
 3906              	.LVL380:
 3907              	.LFB925:
1408:../Drivers/ISP/isp/Src/isp_services.c **** 
1409:../Drivers/ISP/isp/Src/isp_services.c **** /**
1410:../Drivers/ISP/isp/Src/isp_services.c ****   * @brief  ISP_SVC_Misc_GetDumpFrameId
1411:../Drivers/ISP/isp/Src/isp_services.c ****   *         Return the id of the last frame output on the dump pipe
1412:../Drivers/ISP/isp/Src/isp_services.c ****   * @param  hIsp: ISP device handle
1413:../Drivers/ISP/isp/Src/isp_services.c ****   * @retval Id of the last frame output on the dump pipe
1414:../Drivers/ISP/isp/Src/isp_services.c ****   */
1415:../Drivers/ISP/isp/Src/isp_services.c **** uint32_t ISP_SVC_Misc_GetDumpFrameId(ISP_HandleTypeDef *hIsp)
1416:../Drivers/ISP/isp/Src/isp_services.c **** {
 3908              		.loc 1 1416 1 is_stmt 1 view -0
ARM GAS  /tmp/ccAu1Zkx.s 			page 101


 3909              		.cfi_startproc
 3910              		@ args = 0, pretend = 0, frame = 0
 3911              		@ frame_needed = 0, uses_anonymous_args = 0
 3912              		@ link register save eliminated.
1417:../Drivers/ISP/isp/Src/isp_services.c ****   return hIsp->DumpPipe_FrameCount;
 3913              		.loc 1 1417 3 view .LVU1130
1418:../Drivers/ISP/isp/Src/isp_services.c **** }
 3914              		.loc 1 1418 1 is_stmt 0 view .LVU1131
 3915 0000 C06C     		ldr	r0, [r0, #76]
 3916              	.LVL381:
 3917              		.loc 1 1418 1 view .LVU1132
 3918 0002 7047     		bx	lr
 3919              		.cfi_endproc
 3920              	.LFE925:
 3922              		.section	.text.ISP_SVC_Misc_SetWBRefMode,"ax",%progbits
 3923              		.align	1
 3924              		.global	ISP_SVC_Misc_SetWBRefMode
 3925              		.syntax unified
 3926              		.thumb
 3927              		.thumb_func
 3929              	ISP_SVC_Misc_SetWBRefMode:
 3930              	.LVL382:
 3931              	.LFB926:
1419:../Drivers/ISP/isp/Src/isp_services.c **** 
1420:../Drivers/ISP/isp/Src/isp_services.c **** /**
1421:../Drivers/ISP/isp/Src/isp_services.c ****   * @brief  ISP_SVC_Misc_SetWBRefMode
1422:../Drivers/ISP/isp/Src/isp_services.c ****   *         Set the reference mode used to configure manually the white balance mode
1423:../Drivers/ISP/isp/Src/isp_services.c ****   * @param  hIsp: ISP device handle
1424:../Drivers/ISP/isp/Src/isp_services.c ****   * @param  RefColorTemp: reference color temperature
1425:../Drivers/ISP/isp/Src/isp_services.c ****   * @retval Operation status
1426:../Drivers/ISP/isp/Src/isp_services.c ****   */
1427:../Drivers/ISP/isp/Src/isp_services.c **** ISP_StatusTypeDef ISP_SVC_Misc_SetWBRefMode(ISP_HandleTypeDef *hIsp, uint32_t RefColorTemp)
1428:../Drivers/ISP/isp/Src/isp_services.c **** {
 3932              		.loc 1 1428 1 is_stmt 1 view -0
 3933              		.cfi_startproc
 3934              		@ args = 0, pretend = 0, frame = 0
 3935              		@ frame_needed = 0, uses_anonymous_args = 0
 3936              		@ link register save eliminated.
1429:../Drivers/ISP/isp/Src/isp_services.c ****   (void)hIsp; /* unused */
 3937              		.loc 1 1429 3 view .LVU1134
1430:../Drivers/ISP/isp/Src/isp_services.c **** 
1431:../Drivers/ISP/isp/Src/isp_services.c ****   ISP_ManualWBRefColorTemp = RefColorTemp;
 3938              		.loc 1 1431 3 view .LVU1135
 3939              		.loc 1 1431 28 is_stmt 0 view .LVU1136
 3940 0000 014B     		ldr	r3, .L378
 3941 0002 1960     		str	r1, [r3]
1432:../Drivers/ISP/isp/Src/isp_services.c **** 
1433:../Drivers/ISP/isp/Src/isp_services.c ****   return ISP_OK;
 3942              		.loc 1 1433 3 is_stmt 1 view .LVU1137
1434:../Drivers/ISP/isp/Src/isp_services.c **** }
 3943              		.loc 1 1434 1 is_stmt 0 view .LVU1138
 3944 0004 0020     		movs	r0, #0
 3945              	.LVL383:
 3946              		.loc 1 1434 1 view .LVU1139
 3947 0006 7047     		bx	lr
 3948              	.L379:
 3949              		.align	2
ARM GAS  /tmp/ccAu1Zkx.s 			page 102


 3950              	.L378:
 3951 0008 00000000 		.word	ISP_ManualWBRefColorTemp
 3952              		.cfi_endproc
 3953              	.LFE926:
 3955              		.section	.text.ISP_SVC_Misc_GetWBRefMode,"ax",%progbits
 3956              		.align	1
 3957              		.global	ISP_SVC_Misc_GetWBRefMode
 3958              		.syntax unified
 3959              		.thumb
 3960              		.thumb_func
 3962              	ISP_SVC_Misc_GetWBRefMode:
 3963              	.LVL384:
 3964              	.LFB927:
1435:../Drivers/ISP/isp/Src/isp_services.c **** 
1436:../Drivers/ISP/isp/Src/isp_services.c **** /**
1437:../Drivers/ISP/isp/Src/isp_services.c ****   * @brief  ISP_SVC_Misc_GetWBRefMode
1438:../Drivers/ISP/isp/Src/isp_services.c ****   *         Get the reference mode used to configure manually the white balance mode
1439:../Drivers/ISP/isp/Src/isp_services.c ****   * @param  hIsp: ISP device handle
1440:../Drivers/ISP/isp/Src/isp_services.c ****   * @param  pRefColorTemp: Pointer to reference color temperature
1441:../Drivers/ISP/isp/Src/isp_services.c ****   * @retval Operation status
1442:../Drivers/ISP/isp/Src/isp_services.c ****   */
1443:../Drivers/ISP/isp/Src/isp_services.c **** ISP_StatusTypeDef ISP_SVC_Misc_GetWBRefMode(ISP_HandleTypeDef *hIsp, uint32_t *pRefColorTemp)
1444:../Drivers/ISP/isp/Src/isp_services.c **** {
 3965              		.loc 1 1444 1 is_stmt 1 view -0
 3966              		.cfi_startproc
 3967              		@ args = 0, pretend = 0, frame = 0
 3968              		@ frame_needed = 0, uses_anonymous_args = 0
 3969              		@ link register save eliminated.
1445:../Drivers/ISP/isp/Src/isp_services.c ****   (void)hIsp; /* unused */
 3970              		.loc 1 1445 3 view .LVU1141
1446:../Drivers/ISP/isp/Src/isp_services.c **** 
1447:../Drivers/ISP/isp/Src/isp_services.c ****   *pRefColorTemp = ISP_ManualWBRefColorTemp;
 3971              		.loc 1 1447 3 view .LVU1142
 3972              		.loc 1 1447 18 is_stmt 0 view .LVU1143
 3973 0000 024B     		ldr	r3, .L381
 3974 0002 1B68     		ldr	r3, [r3]
 3975 0004 0B60     		str	r3, [r1]
1448:../Drivers/ISP/isp/Src/isp_services.c **** 
1449:../Drivers/ISP/isp/Src/isp_services.c ****   return ISP_OK;
 3976              		.loc 1 1449 3 is_stmt 1 view .LVU1144
1450:../Drivers/ISP/isp/Src/isp_services.c **** }
 3977              		.loc 1 1450 1 is_stmt 0 view .LVU1145
 3978 0006 0020     		movs	r0, #0
 3979              	.LVL385:
 3980              		.loc 1 1450 1 view .LVU1146
 3981 0008 7047     		bx	lr
 3982              	.L382:
 3983 000a 00BF     		.align	2
 3984              	.L381:
 3985 000c 00000000 		.word	ISP_ManualWBRefColorTemp
 3986              		.cfi_endproc
 3987              	.LFE927:
 3989              		.section	.text.ISP_SVC_Misc_SensorDelayMeasureStart,"ax",%progbits
 3990              		.align	1
 3991              		.global	ISP_SVC_Misc_SensorDelayMeasureStart
 3992              		.syntax unified
 3993              		.thumb
ARM GAS  /tmp/ccAu1Zkx.s 			page 103


 3994              		.thumb_func
 3996              	ISP_SVC_Misc_SensorDelayMeasureStart:
 3997              	.LFB928:
1451:../Drivers/ISP/isp/Src/isp_services.c **** 
1452:../Drivers/ISP/isp/Src/isp_services.c **** /**
1453:../Drivers/ISP/isp/Src/isp_services.c ****   * @brief  ISP_SVC_Misc_SensorDelayMeasureStart
1454:../Drivers/ISP/isp/Src/isp_services.c ****   *         Start the sensor delay measure
1455:../Drivers/ISP/isp/Src/isp_services.c ****   * @param  None
1456:../Drivers/ISP/isp/Src/isp_services.c ****   * @retval None
1457:../Drivers/ISP/isp/Src/isp_services.c ****   */
1458:../Drivers/ISP/isp/Src/isp_services.c **** void ISP_SVC_Misc_SensorDelayMeasureStart()
1459:../Drivers/ISP/isp/Src/isp_services.c **** {
 3998              		.loc 1 1459 1 is_stmt 1 view -0
 3999              		.cfi_startproc
 4000              		@ args = 0, pretend = 0, frame = 0
 4001              		@ frame_needed = 0, uses_anonymous_args = 0
 4002              		@ link register save eliminated.
1460:../Drivers/ISP/isp/Src/isp_services.c ****   ISP_SensorDelayMeasureRun = true;
 4003              		.loc 1 1460 3 view .LVU1148
 4004              		.loc 1 1460 29 is_stmt 0 view .LVU1149
 4005 0000 014B     		ldr	r3, .L384
 4006 0002 0122     		movs	r2, #1
 4007 0004 1A70     		strb	r2, [r3]
1461:../Drivers/ISP/isp/Src/isp_services.c **** }
 4008              		.loc 1 1461 1 view .LVU1150
 4009 0006 7047     		bx	lr
 4010              	.L385:
 4011              		.align	2
 4012              	.L384:
 4013 0008 00000000 		.word	ISP_SensorDelayMeasureRun
 4014              		.cfi_endproc
 4015              	.LFE928:
 4017              		.section	.text.ISP_SVC_Misc_SensorDelayMeasureStop,"ax",%progbits
 4018              		.align	1
 4019              		.global	ISP_SVC_Misc_SensorDelayMeasureStop
 4020              		.syntax unified
 4021              		.thumb
 4022              		.thumb_func
 4024              	ISP_SVC_Misc_SensorDelayMeasureStop:
 4025              	.LFB929:
1462:../Drivers/ISP/isp/Src/isp_services.c **** 
1463:../Drivers/ISP/isp/Src/isp_services.c **** /**
1464:../Drivers/ISP/isp/Src/isp_services.c ****   * @brief  ISP_SVC_Misc_SensorDelayMeasureStop
1465:../Drivers/ISP/isp/Src/isp_services.c ****   *         Stop the sensor delay measure
1466:../Drivers/ISP/isp/Src/isp_services.c ****   * @param  None
1467:../Drivers/ISP/isp/Src/isp_services.c ****   * @retval None
1468:../Drivers/ISP/isp/Src/isp_services.c ****   */
1469:../Drivers/ISP/isp/Src/isp_services.c **** void ISP_SVC_Misc_SensorDelayMeasureStop()
1470:../Drivers/ISP/isp/Src/isp_services.c **** {
 4026              		.loc 1 1470 1 is_stmt 1 view -0
 4027              		.cfi_startproc
 4028              		@ args = 0, pretend = 0, frame = 0
 4029              		@ frame_needed = 0, uses_anonymous_args = 0
 4030              		@ link register save eliminated.
1471:../Drivers/ISP/isp/Src/isp_services.c ****   ISP_SensorDelayMeasureRun = false;
 4031              		.loc 1 1471 3 view .LVU1152
 4032              		.loc 1 1471 29 is_stmt 0 view .LVU1153
ARM GAS  /tmp/ccAu1Zkx.s 			page 104


 4033 0000 014B     		ldr	r3, .L387
 4034 0002 0022     		movs	r2, #0
 4035 0004 1A70     		strb	r2, [r3]
1472:../Drivers/ISP/isp/Src/isp_services.c **** }
 4036              		.loc 1 1472 1 view .LVU1154
 4037 0006 7047     		bx	lr
 4038              	.L388:
 4039              		.align	2
 4040              	.L387:
 4041 0008 00000000 		.word	ISP_SensorDelayMeasureRun
 4042              		.cfi_endproc
 4043              	.LFE929:
 4045              		.section	.text.ISP_SVC_Misc_SensorDelayMeasureIsRunning,"ax",%progbits
 4046              		.align	1
 4047              		.global	ISP_SVC_Misc_SensorDelayMeasureIsRunning
 4048              		.syntax unified
 4049              		.thumb
 4050              		.thumb_func
 4052              	ISP_SVC_Misc_SensorDelayMeasureIsRunning:
 4053              	.LFB930:
1473:../Drivers/ISP/isp/Src/isp_services.c **** 
1474:../Drivers/ISP/isp/Src/isp_services.c **** /**
1475:../Drivers/ISP/isp/Src/isp_services.c ****   * @brief  ISP_SVC_Misc_SensorDelayMeasureIsRunning
1476:../Drivers/ISP/isp/Src/isp_services.c ****   *         Return the sensor delay measure status
1477:../Drivers/ISP/isp/Src/isp_services.c ****   * @param  None
1478:../Drivers/ISP/isp/Src/isp_services.c ****   * @retval true if the sensor delay measure is running
1479:../Drivers/ISP/isp/Src/isp_services.c ****   */
1480:../Drivers/ISP/isp/Src/isp_services.c **** bool ISP_SVC_Misc_SensorDelayMeasureIsRunning()
1481:../Drivers/ISP/isp/Src/isp_services.c **** {
 4054              		.loc 1 1481 1 is_stmt 1 view -0
 4055              		.cfi_startproc
 4056              		@ args = 0, pretend = 0, frame = 0
 4057              		@ frame_needed = 0, uses_anonymous_args = 0
 4058              		@ link register save eliminated.
1482:../Drivers/ISP/isp/Src/isp_services.c ****   return ISP_SensorDelayMeasureRun;
 4059              		.loc 1 1482 3 view .LVU1156
1483:../Drivers/ISP/isp/Src/isp_services.c **** }
 4060              		.loc 1 1483 1 is_stmt 0 view .LVU1157
 4061 0000 014B     		ldr	r3, .L390
 4062 0002 1878     		ldrb	r0, [r3]	@ zero_extendqisi2
 4063 0004 7047     		bx	lr
 4064              	.L391:
 4065 0006 00BF     		.align	2
 4066              	.L390:
 4067 0008 00000000 		.word	ISP_SensorDelayMeasureRun
 4068              		.cfi_endproc
 4069              	.LFE930:
 4071              		.section	.text.ISP_SVC_Misc_SendSensorDelayMeasure,"ax",%progbits
 4072              		.align	1
 4073              		.global	ISP_SVC_Misc_SendSensorDelayMeasure
 4074              		.syntax unified
 4075              		.thumb
 4076              		.thumb_func
 4078              	ISP_SVC_Misc_SendSensorDelayMeasure:
 4079              	.LVL386:
 4080              	.LFB931:
1484:../Drivers/ISP/isp/Src/isp_services.c **** 
ARM GAS  /tmp/ccAu1Zkx.s 			page 105


1485:../Drivers/ISP/isp/Src/isp_services.c **** /**
1486:../Drivers/ISP/isp/Src/isp_services.c ****   * @brief  ISP_SVC_Misc_SendSensorDelayMeasure
1487:../Drivers/ISP/isp/Src/isp_services.c ****   *         Send the answer to the Get SensorDelay measure command
1488:../Drivers/ISP/isp/Src/isp_services.c ****   * @param  hIsp: ISP device handle
1489:../Drivers/ISP/isp/Src/isp_services.c ****   * @param  pSensorDelay: Pointer to the measured Sensor Delay
1490:../Drivers/ISP/isp/Src/isp_services.c ****   * @retval operation result
1491:../Drivers/ISP/isp/Src/isp_services.c ****   */
1492:../Drivers/ISP/isp/Src/isp_services.c **** ISP_StatusTypeDef ISP_SVC_Misc_SendSensorDelayMeasure(ISP_HandleTypeDef *hIsp, ISP_SensorDelayTypeD
1493:../Drivers/ISP/isp/Src/isp_services.c **** {
 4081              		.loc 1 1493 1 is_stmt 1 view -0
 4082              		.cfi_startproc
 4083              		@ args = 0, pretend = 0, frame = 0
 4084              		@ frame_needed = 0, uses_anonymous_args = 0
 4085              		@ link register save eliminated.
1494:../Drivers/ISP/isp/Src/isp_services.c **** #ifdef ISP_MW_TUNING_TOOL_SUPPORT
1495:../Drivers/ISP/isp/Src/isp_services.c ****   return ISP_CmdParser_SendSensorDelayMeasure(hIsp, pSensorDelay);
1496:../Drivers/ISP/isp/Src/isp_services.c **** #else
1497:../Drivers/ISP/isp/Src/isp_services.c ****   (void)hIsp; /* unused */
 4086              		.loc 1 1497 3 view .LVU1159
1498:../Drivers/ISP/isp/Src/isp_services.c ****   (void)pSensorDelay; /* unused */
 4087              		.loc 1 1498 3 view .LVU1160
1499:../Drivers/ISP/isp/Src/isp_services.c ****   return ISP_OK;
 4088              		.loc 1 1499 3 view .LVU1161
1500:../Drivers/ISP/isp/Src/isp_services.c **** #endif
1501:../Drivers/ISP/isp/Src/isp_services.c **** }
 4089              		.loc 1 1501 1 is_stmt 0 view .LVU1162
 4090 0000 0020     		movs	r0, #0
 4091              	.LVL387:
 4092              		.loc 1 1501 1 view .LVU1163
 4093 0002 7047     		bx	lr
 4094              		.cfi_endproc
 4095              	.LFE931:
 4097              		.section	.text.ISP_SVC_Misc_StopPreview,"ax",%progbits
 4098              		.align	1
 4099              		.global	ISP_SVC_Misc_StopPreview
 4100              		.syntax unified
 4101              		.thumb
 4102              		.thumb_func
 4104              	ISP_SVC_Misc_StopPreview:
 4105              	.LVL388:
 4106              	.LFB932:
1502:../Drivers/ISP/isp/Src/isp_services.c **** 
1503:../Drivers/ISP/isp/Src/isp_services.c **** /**
1504:../Drivers/ISP/isp/Src/isp_services.c ****   * @brief  ISP_SVC_Misc_StopPreview
1505:../Drivers/ISP/isp/Src/isp_services.c ****   *         Stop streaming on DCMIPP Main Pipe
1506:../Drivers/ISP/isp/Src/isp_services.c ****   * @param  hIsp: ISP device handle
1507:../Drivers/ISP/isp/Src/isp_services.c ****   * @retval ISP_OK if DCMIPP is stopped successfully, ISP_FAIL otherwise
1508:../Drivers/ISP/isp/Src/isp_services.c ****   */
1509:../Drivers/ISP/isp/Src/isp_services.c **** ISP_StatusTypeDef ISP_SVC_Misc_StopPreview(ISP_HandleTypeDef *hIsp)
1510:../Drivers/ISP/isp/Src/isp_services.c **** {
 4107              		.loc 1 1510 1 is_stmt 1 view -0
 4108              		.cfi_startproc
 4109              		@ args = 0, pretend = 0, frame = 0
 4110              		@ frame_needed = 0, uses_anonymous_args = 0
1511:../Drivers/ISP/isp/Src/isp_services.c ****   /* Check handle validity */
1512:../Drivers/ISP/isp/Src/isp_services.c ****   if (hIsp == NULL)
 4111              		.loc 1 1512 3 view .LVU1165
ARM GAS  /tmp/ccAu1Zkx.s 			page 106


 4112              		.loc 1 1512 6 is_stmt 0 view .LVU1166
 4113 0000 28B1     		cbz	r0, .L395
1510:../Drivers/ISP/isp/Src/isp_services.c ****   /* Check handle validity */
 4114              		.loc 1 1510 1 view .LVU1167
 4115 0002 08B5     		push	{r3, lr}
 4116              	.LCFI82:
 4117              		.cfi_def_cfa_offset 8
 4118              		.cfi_offset 3, -8
 4119              		.cfi_offset 14, -4
1513:../Drivers/ISP/isp/Src/isp_services.c ****   {
1514:../Drivers/ISP/isp/Src/isp_services.c ****     return ISP_ERR_EINVAL;
1515:../Drivers/ISP/isp/Src/isp_services.c ****   }
1516:../Drivers/ISP/isp/Src/isp_services.c **** 
1517:../Drivers/ISP/isp/Src/isp_services.c ****   if (hIsp->appliHelpers.StopPreview == NULL)
 4120              		.loc 1 1517 3 is_stmt 1 view .LVU1168
 4121              		.loc 1 1517 25 is_stmt 0 view .LVU1169
 4122 0004 026A     		ldr	r2, [r0, #32]
 4123              		.loc 1 1517 6 view .LVU1170
 4124 0006 22B1     		cbz	r2, .L396
1518:../Drivers/ISP/isp/Src/isp_services.c ****   {
1519:../Drivers/ISP/isp/Src/isp_services.c ****     return ISP_ERR_APP_HELPER_UNDEFINED;
1520:../Drivers/ISP/isp/Src/isp_services.c ****   }
1521:../Drivers/ISP/isp/Src/isp_services.c **** 
1522:../Drivers/ISP/isp/Src/isp_services.c ****   return hIsp->appliHelpers.StopPreview(hIsp->hDcmipp);
 4125              		.loc 1 1522 3 is_stmt 1 view .LVU1171
 4126              		.loc 1 1522 10 is_stmt 0 view .LVU1172
 4127 0008 0068     		ldr	r0, [r0]
 4128              	.LVL389:
 4129              		.loc 1 1522 10 view .LVU1173
 4130 000a 9047     		blx	r2
 4131              	.LVL390:
 4132              	.L394:
1523:../Drivers/ISP/isp/Src/isp_services.c **** }
 4133              		.loc 1 1523 1 view .LVU1174
 4134 000c 08BD     		pop	{r3, pc}
 4135              	.LVL391:
 4136              	.L395:
 4137              	.LCFI83:
 4138              		.cfi_def_cfa_offset 0
 4139              		.cfi_restore 3
 4140              		.cfi_restore 14
1514:../Drivers/ISP/isp/Src/isp_services.c ****   }
 4141              		.loc 1 1514 12 view .LVU1175
 4142 000e 0120     		movs	r0, #1
 4143              	.LVL392:
 4144              		.loc 1 1523 1 view .LVU1176
 4145 0010 7047     		bx	lr
 4146              	.LVL393:
 4147              	.L396:
 4148              	.LCFI84:
 4149              		.cfi_def_cfa_offset 8
 4150              		.cfi_offset 3, -8
 4151              		.cfi_offset 14, -4
1519:../Drivers/ISP/isp/Src/isp_services.c ****   }
 4152              		.loc 1 1519 12 view .LVU1177
 4153 0012 B420     		movs	r0, #180
 4154              	.LVL394:
ARM GAS  /tmp/ccAu1Zkx.s 			page 107


1519:../Drivers/ISP/isp/Src/isp_services.c ****   }
 4155              		.loc 1 1519 12 view .LVU1178
 4156 0014 FAE7     		b	.L394
 4157              		.cfi_endproc
 4158              	.LFE932:
 4160              		.section	.text.ISP_SVC_Misc_StartPreview,"ax",%progbits
 4161              		.align	1
 4162              		.global	ISP_SVC_Misc_StartPreview
 4163              		.syntax unified
 4164              		.thumb
 4165              		.thumb_func
 4167              	ISP_SVC_Misc_StartPreview:
 4168              	.LVL395:
 4169              	.LFB933:
1524:../Drivers/ISP/isp/Src/isp_services.c **** 
1525:../Drivers/ISP/isp/Src/isp_services.c **** /**
1526:../Drivers/ISP/isp/Src/isp_services.c ****   * @brief  ISP_SVC_Misc_StartPreview
1527:../Drivers/ISP/isp/Src/isp_services.c ****   *         Start streaming on DCMIPP Main Pipe
1528:../Drivers/ISP/isp/Src/isp_services.c ****   * @param  hIsp: ISP device handle
1529:../Drivers/ISP/isp/Src/isp_services.c ****   * @retval ISP_OK if DCMIPP is started successfully, ISP_FAIL otherwise
1530:../Drivers/ISP/isp/Src/isp_services.c ****   */
1531:../Drivers/ISP/isp/Src/isp_services.c **** ISP_StatusTypeDef ISP_SVC_Misc_StartPreview(ISP_HandleTypeDef *hIsp)
1532:../Drivers/ISP/isp/Src/isp_services.c **** {
 4170              		.loc 1 1532 1 is_stmt 1 view -0
 4171              		.cfi_startproc
 4172              		@ args = 0, pretend = 0, frame = 0
 4173              		@ frame_needed = 0, uses_anonymous_args = 0
1533:../Drivers/ISP/isp/Src/isp_services.c ****   /* Check handle validity */
1534:../Drivers/ISP/isp/Src/isp_services.c ****   if (hIsp == NULL)
 4174              		.loc 1 1534 3 view .LVU1180
 4175              		.loc 1 1534 6 is_stmt 0 view .LVU1181
 4176 0000 28B1     		cbz	r0, .L403
1532:../Drivers/ISP/isp/Src/isp_services.c ****   /* Check handle validity */
 4177              		.loc 1 1532 1 view .LVU1182
 4178 0002 08B5     		push	{r3, lr}
 4179              	.LCFI85:
 4180              		.cfi_def_cfa_offset 8
 4181              		.cfi_offset 3, -8
 4182              		.cfi_offset 14, -4
1535:../Drivers/ISP/isp/Src/isp_services.c ****   {
1536:../Drivers/ISP/isp/Src/isp_services.c ****     return ISP_ERR_EINVAL;
1537:../Drivers/ISP/isp/Src/isp_services.c ****   }
1538:../Drivers/ISP/isp/Src/isp_services.c **** 
1539:../Drivers/ISP/isp/Src/isp_services.c ****   if (hIsp->appliHelpers.StartPreview == NULL)
 4183              		.loc 1 1539 3 is_stmt 1 view .LVU1183
 4184              		.loc 1 1539 25 is_stmt 0 view .LVU1184
 4185 0004 C269     		ldr	r2, [r0, #28]
 4186              		.loc 1 1539 6 view .LVU1185
 4187 0006 22B1     		cbz	r2, .L404
1540:../Drivers/ISP/isp/Src/isp_services.c ****   {
1541:../Drivers/ISP/isp/Src/isp_services.c ****     return ISP_ERR_APP_HELPER_UNDEFINED;
1542:../Drivers/ISP/isp/Src/isp_services.c ****   }
1543:../Drivers/ISP/isp/Src/isp_services.c **** 
1544:../Drivers/ISP/isp/Src/isp_services.c ****   return hIsp->appliHelpers.StartPreview(hIsp->hDcmipp);
 4188              		.loc 1 1544 3 is_stmt 1 view .LVU1186
 4189              		.loc 1 1544 10 is_stmt 0 view .LVU1187
 4190 0008 0068     		ldr	r0, [r0]
ARM GAS  /tmp/ccAu1Zkx.s 			page 108


 4191              	.LVL396:
 4192              		.loc 1 1544 10 view .LVU1188
 4193 000a 9047     		blx	r2
 4194              	.LVL397:
 4195              	.L402:
1545:../Drivers/ISP/isp/Src/isp_services.c **** }
 4196              		.loc 1 1545 1 view .LVU1189
 4197 000c 08BD     		pop	{r3, pc}
 4198              	.LVL398:
 4199              	.L403:
 4200              	.LCFI86:
 4201              		.cfi_def_cfa_offset 0
 4202              		.cfi_restore 3
 4203              		.cfi_restore 14
1536:../Drivers/ISP/isp/Src/isp_services.c ****   }
 4204              		.loc 1 1536 12 view .LVU1190
 4205 000e 0120     		movs	r0, #1
 4206              	.LVL399:
 4207              		.loc 1 1545 1 view .LVU1191
 4208 0010 7047     		bx	lr
 4209              	.LVL400:
 4210              	.L404:
 4211              	.LCFI87:
 4212              		.cfi_def_cfa_offset 8
 4213              		.cfi_offset 3, -8
 4214              		.cfi_offset 14, -4
1541:../Drivers/ISP/isp/Src/isp_services.c ****   }
 4215              		.loc 1 1541 12 view .LVU1192
 4216 0012 B420     		movs	r0, #180
 4217              	.LVL401:
1541:../Drivers/ISP/isp/Src/isp_services.c ****   }
 4218              		.loc 1 1541 12 view .LVU1193
 4219 0014 FAE7     		b	.L402
 4220              		.cfi_endproc
 4221              	.LFE933:
 4223              		.section	.text.ISP_SVC_Misc_IsGammaEnabled,"ax",%progbits
 4224              		.align	1
 4225              		.global	ISP_SVC_Misc_IsGammaEnabled
 4226              		.syntax unified
 4227              		.thumb
 4228              		.thumb_func
 4230              	ISP_SVC_Misc_IsGammaEnabled:
 4231              	.LVL402:
 4232              	.LFB934:
1546:../Drivers/ISP/isp/Src/isp_services.c **** 
1547:../Drivers/ISP/isp/Src/isp_services.c **** /**
1548:../Drivers/ISP/isp/Src/isp_services.c ****   * @brief  ISP_SVC_Misc_IsGammaEnabled
1549:../Drivers/ISP/isp/Src/isp_services.c ****   *         Check if the gamma block is enabled
1550:../Drivers/ISP/isp/Src/isp_services.c ****   * @param  hIsp: ISP device handle
1551:../Drivers/ISP/isp/Src/isp_services.c ****   * @param  Pipe: DCMIPP pipe line
1552:../Drivers/ISP/isp/Src/isp_services.c ****   * @retval true if enabled false otherwise
1553:../Drivers/ISP/isp/Src/isp_services.c ****   */
1554:../Drivers/ISP/isp/Src/isp_services.c **** bool ISP_SVC_Misc_IsGammaEnabled(ISP_HandleTypeDef *hIsp, uint32_t Pipe)
1555:../Drivers/ISP/isp/Src/isp_services.c **** {
 4233              		.loc 1 1555 1 is_stmt 1 view -0
 4234              		.cfi_startproc
 4235              		@ args = 0, pretend = 0, frame = 0
ARM GAS  /tmp/ccAu1Zkx.s 			page 109


 4236              		@ frame_needed = 0, uses_anonymous_args = 0
1556:../Drivers/ISP/isp/Src/isp_services.c ****   bool ret;
 4237              		.loc 1 1556 3 view .LVU1195
1557:../Drivers/ISP/isp/Src/isp_services.c **** 
1558:../Drivers/ISP/isp/Src/isp_services.c ****   /* Check handle validity */
1559:../Drivers/ISP/isp/Src/isp_services.c ****   if (hIsp == NULL)
 4238              		.loc 1 1559 3 view .LVU1196
 4239              		.loc 1 1559 6 is_stmt 0 view .LVU1197
 4240 0000 B0B1     		cbz	r0, .L418
1555:../Drivers/ISP/isp/Src/isp_services.c ****   bool ret;
 4241              		.loc 1 1555 1 view .LVU1198
 4242 0002 08B5     		push	{r3, lr}
 4243              	.LCFI88:
 4244              		.cfi_def_cfa_offset 8
 4245              		.cfi_offset 3, -8
 4246              		.cfi_offset 14, -4
1560:../Drivers/ISP/isp/Src/isp_services.c ****   {
1561:../Drivers/ISP/isp/Src/isp_services.c ****     return false;
1562:../Drivers/ISP/isp/Src/isp_services.c ****   }
1563:../Drivers/ISP/isp/Src/isp_services.c **** 
1564:../Drivers/ISP/isp/Src/isp_services.c ****   switch(Pipe)
 4247              		.loc 1 1564 3 is_stmt 1 view .LVU1199
 4248 0004 0129     		cmp	r1, #1
 4249 0006 03D0     		beq	.L412
 4250 0008 0229     		cmp	r1, #2
 4251 000a 09D0     		beq	.L413
1561:../Drivers/ISP/isp/Src/isp_services.c ****   }
 4252              		.loc 1 1561 12 is_stmt 0 view .LVU1200
 4253 000c 0020     		movs	r0, #0
 4254              	.LVL403:
 4255              	.L411:
1565:../Drivers/ISP/isp/Src/isp_services.c ****   {
1566:../Drivers/ISP/isp/Src/isp_services.c ****   case 1:
1567:../Drivers/ISP/isp/Src/isp_services.c ****     ret = (bool) HAL_DCMIPP_PIPE_IsEnabledGammaConversion(hIsp->hDcmipp, DCMIPP_PIPE1);
1568:../Drivers/ISP/isp/Src/isp_services.c ****     break;
1569:../Drivers/ISP/isp/Src/isp_services.c ****   case 2:
1570:../Drivers/ISP/isp/Src/isp_services.c ****     ret = (bool) HAL_DCMIPP_PIPE_IsEnabledGammaConversion(hIsp->hDcmipp, DCMIPP_PIPE2);
1571:../Drivers/ISP/isp/Src/isp_services.c ****     break;
1572:../Drivers/ISP/isp/Src/isp_services.c ****   default:
1573:../Drivers/ISP/isp/Src/isp_services.c ****     ret = false; /* No gamma on pipe 0 */
1574:../Drivers/ISP/isp/Src/isp_services.c ****   }
1575:../Drivers/ISP/isp/Src/isp_services.c **** 
1576:../Drivers/ISP/isp/Src/isp_services.c ****   return ret;
1577:../Drivers/ISP/isp/Src/isp_services.c **** }
 4256              		.loc 1 1577 1 view .LVU1201
 4257 000e 08BD     		pop	{r3, pc}
 4258              	.LVL404:
 4259              	.L412:
1567:../Drivers/ISP/isp/Src/isp_services.c ****     break;
 4260              		.loc 1 1567 5 is_stmt 1 view .LVU1202
1567:../Drivers/ISP/isp/Src/isp_services.c ****     break;
 4261              		.loc 1 1567 18 is_stmt 0 view .LVU1203
 4262 0010 0121     		movs	r1, #1
 4263              	.LVL405:
1567:../Drivers/ISP/isp/Src/isp_services.c ****     break;
 4264              		.loc 1 1567 18 view .LVU1204
 4265 0012 0068     		ldr	r0, [r0]
ARM GAS  /tmp/ccAu1Zkx.s 			page 110


 4266              	.LVL406:
1567:../Drivers/ISP/isp/Src/isp_services.c ****     break;
 4267              		.loc 1 1567 18 view .LVU1205
 4268 0014 FFF7FEFF 		bl	HAL_DCMIPP_PIPE_IsEnabledGammaConversion
 4269              	.LVL407:
1567:../Drivers/ISP/isp/Src/isp_services.c ****     break;
 4270              		.loc 1 1567 9 discriminator 1 view .LVU1206
 4271 0018 0038     		subs	r0, r0, #0
 4272 001a 18BF     		it	ne
 4273 001c 0120     		movne	r0, #1
 4274              	.LVL408:
1568:../Drivers/ISP/isp/Src/isp_services.c ****   case 2:
 4275              		.loc 1 1568 5 is_stmt 1 view .LVU1207
 4276 001e F6E7     		b	.L411
 4277              	.LVL409:
 4278              	.L413:
1570:../Drivers/ISP/isp/Src/isp_services.c ****     break;
 4279              		.loc 1 1570 5 view .LVU1208
1570:../Drivers/ISP/isp/Src/isp_services.c ****     break;
 4280              		.loc 1 1570 18 is_stmt 0 view .LVU1209
 4281 0020 0221     		movs	r1, #2
 4282              	.LVL410:
1570:../Drivers/ISP/isp/Src/isp_services.c ****     break;
 4283              		.loc 1 1570 18 view .LVU1210
 4284 0022 0068     		ldr	r0, [r0]
 4285              	.LVL411:
1570:../Drivers/ISP/isp/Src/isp_services.c ****     break;
 4286              		.loc 1 1570 18 view .LVU1211
 4287 0024 FFF7FEFF 		bl	HAL_DCMIPP_PIPE_IsEnabledGammaConversion
 4288              	.LVL412:
1570:../Drivers/ISP/isp/Src/isp_services.c ****     break;
 4289              		.loc 1 1570 9 discriminator 1 view .LVU1212
 4290 0028 0038     		subs	r0, r0, #0
 4291 002a 18BF     		it	ne
 4292 002c 0120     		movne	r0, #1
 4293              	.LVL413:
1571:../Drivers/ISP/isp/Src/isp_services.c ****   default:
 4294              		.loc 1 1571 5 is_stmt 1 view .LVU1213
 4295 002e EEE7     		b	.L411
 4296              	.LVL414:
 4297              	.L418:
 4298              	.LCFI89:
 4299              		.cfi_def_cfa_offset 0
 4300              		.cfi_restore 3
 4301              		.cfi_restore 14
1561:../Drivers/ISP/isp/Src/isp_services.c ****   }
 4302              		.loc 1 1561 12 is_stmt 0 view .LVU1214
 4303 0030 0020     		movs	r0, #0
 4304              	.LVL415:
 4305              		.loc 1 1577 1 view .LVU1215
 4306 0032 7047     		bx	lr
 4307              		.cfi_endproc
 4308              	.LFE934:
 4310              		.section	.text.ISP_SVC_ISP_SetGamma,"ax",%progbits
 4311              		.align	1
 4312              		.global	ISP_SVC_ISP_SetGamma
 4313              		.syntax unified
ARM GAS  /tmp/ccAu1Zkx.s 			page 111


 4314              		.thumb
 4315              		.thumb_func
 4317              	ISP_SVC_ISP_SetGamma:
 4318              	.LVL416:
 4319              	.LFB935:
1578:../Drivers/ISP/isp/Src/isp_services.c **** 
1579:../Drivers/ISP/isp/Src/isp_services.c **** /**
1580:../Drivers/ISP/isp/Src/isp_services.c ****   * @brief  ISP_SVC_ISP_SetGamma
1581:../Drivers/ISP/isp/Src/isp_services.c ****   *         Set the Gamma on Pipe1 and/or Pipe2
1582:../Drivers/ISP/isp/Src/isp_services.c ****   * @param  hIsp: ISP device handle
1583:../Drivers/ISP/isp/Src/isp_services.c ****   * @param  pConfig: Pointer to the ISP gamma configuration
1584:../Drivers/ISP/isp/Src/isp_services.c ****   * @retval operation result
1585:../Drivers/ISP/isp/Src/isp_services.c ****   */
1586:../Drivers/ISP/isp/Src/isp_services.c **** ISP_StatusTypeDef ISP_SVC_ISP_SetGamma(ISP_HandleTypeDef *hIsp, ISP_GammaTypeDef *pConfig)
1587:../Drivers/ISP/isp/Src/isp_services.c **** {
 4320              		.loc 1 1587 1 is_stmt 1 view -0
 4321              		.cfi_startproc
 4322              		@ args = 0, pretend = 0, frame = 0
 4323              		@ frame_needed = 0, uses_anonymous_args = 0
1588:../Drivers/ISP/isp/Src/isp_services.c ****   if ((hIsp == NULL) || (pConfig == NULL))
 4324              		.loc 1 1588 3 view .LVU1217
 4325              		.loc 1 1588 6 is_stmt 0 view .LVU1218
 4326 0000 08B3     		cbz	r0, .L427
 4327              		.loc 1 1588 22 discriminator 1 view .LVU1219
 4328 0002 01B3     		cbz	r1, .L427
1587:../Drivers/ISP/isp/Src/isp_services.c ****   if ((hIsp == NULL) || (pConfig == NULL))
 4329              		.loc 1 1587 1 view .LVU1220
 4330 0004 10B5     		push	{r4, lr}
 4331              	.LCFI90:
 4332              		.cfi_def_cfa_offset 8
 4333              		.cfi_offset 4, -8
 4334              		.cfi_offset 14, -4
1589:../Drivers/ISP/isp/Src/isp_services.c ****   {
1590:../Drivers/ISP/isp/Src/isp_services.c ****     return ISP_ERR_DCMIPP_GAMMA;
1591:../Drivers/ISP/isp/Src/isp_services.c ****   }
1592:../Drivers/ISP/isp/Src/isp_services.c **** 
1593:../Drivers/ISP/isp/Src/isp_services.c ****   if (pConfig->enable == 0)
 4335              		.loc 1 1593 3 is_stmt 1 view .LVU1221
 4336              		.loc 1 1593 14 is_stmt 0 view .LVU1222
 4337 0006 0B78     		ldrb	r3, [r1]	@ zero_extendqisi2
 4338              		.loc 1 1593 6 view .LVU1223
 4339 0008 73B9     		cbnz	r3, .L423
1594:../Drivers/ISP/isp/Src/isp_services.c ****   {
1595:../Drivers/ISP/isp/Src/isp_services.c ****     if (HAL_DCMIPP_PIPE_DisableGammaConversion(hIsp->hDcmipp, DCMIPP_PIPE1) != HAL_OK)
 4340              		.loc 1 1595 5 is_stmt 1 view .LVU1224
 4341              		.loc 1 1595 9 is_stmt 0 view .LVU1225
 4342 000a 0121     		movs	r1, #1
 4343              	.LVL417:
 4344              		.loc 1 1595 9 view .LVU1226
 4345 000c 0446     		mov	r4, r0
 4346 000e 0068     		ldr	r0, [r0]
 4347              	.LVL418:
 4348              		.loc 1 1595 9 view .LVU1227
 4349 0010 FFF7FEFF 		bl	HAL_DCMIPP_PIPE_DisableGammaConversion
 4350              	.LVL419:
 4351              		.loc 1 1595 8 discriminator 1 view .LVU1228
 4352 0014 30B9     		cbnz	r0, .L420
ARM GAS  /tmp/ccAu1Zkx.s 			page 112


1596:../Drivers/ISP/isp/Src/isp_services.c ****     {
1597:../Drivers/ISP/isp/Src/isp_services.c ****       return ISP_ERR_DCMIPP_GAMMA;
1598:../Drivers/ISP/isp/Src/isp_services.c ****     }
1599:../Drivers/ISP/isp/Src/isp_services.c ****     if (HAL_DCMIPP_PIPE_DisableGammaConversion(hIsp->hDcmipp, DCMIPP_PIPE2) != HAL_OK)
 4353              		.loc 1 1599 5 is_stmt 1 view .LVU1229
 4354              		.loc 1 1599 9 is_stmt 0 view .LVU1230
 4355 0016 0221     		movs	r1, #2
 4356 0018 2068     		ldr	r0, [r4]
 4357 001a FFF7FEFF 		bl	HAL_DCMIPP_PIPE_DisableGammaConversion
 4358              	.LVL420:
 4359              		.loc 1 1599 8 discriminator 1 view .LVU1231
 4360 001e 10B1     		cbz	r0, .L422
1600:../Drivers/ISP/isp/Src/isp_services.c ****     {
1601:../Drivers/ISP/isp/Src/isp_services.c ****       return ISP_ERR_DCMIPP_GAMMA;
 4361              		.loc 1 1601 14 view .LVU1232
 4362 0020 9520     		movs	r0, #149
 4363 0022 00E0     		b	.L422
 4364              	.L420:
1590:../Drivers/ISP/isp/Src/isp_services.c ****   }
 4365              		.loc 1 1590 12 view .LVU1233
 4366 0024 9520     		movs	r0, #149
 4367              	.L422:
1602:../Drivers/ISP/isp/Src/isp_services.c ****     }
1603:../Drivers/ISP/isp/Src/isp_services.c ****   }
1604:../Drivers/ISP/isp/Src/isp_services.c ****   else
1605:../Drivers/ISP/isp/Src/isp_services.c ****   {
1606:../Drivers/ISP/isp/Src/isp_services.c ****     if (HAL_DCMIPP_PIPE_EnableGammaConversion(hIsp->hDcmipp, DCMIPP_PIPE1) != HAL_OK)
1607:../Drivers/ISP/isp/Src/isp_services.c ****     {
1608:../Drivers/ISP/isp/Src/isp_services.c ****       return ISP_ERR_DCMIPP_GAMMA;
1609:../Drivers/ISP/isp/Src/isp_services.c ****     }
1610:../Drivers/ISP/isp/Src/isp_services.c ****     if (HAL_DCMIPP_PIPE_EnableGammaConversion(hIsp->hDcmipp, DCMIPP_PIPE2) != HAL_OK)
1611:../Drivers/ISP/isp/Src/isp_services.c ****     {
1612:../Drivers/ISP/isp/Src/isp_services.c ****       return ISP_ERR_DCMIPP_GAMMA;
1613:../Drivers/ISP/isp/Src/isp_services.c ****     }
1614:../Drivers/ISP/isp/Src/isp_services.c ****   }
1615:../Drivers/ISP/isp/Src/isp_services.c **** 
1616:../Drivers/ISP/isp/Src/isp_services.c ****   return ISP_OK;
1617:../Drivers/ISP/isp/Src/isp_services.c **** }
 4368              		.loc 1 1617 1 view .LVU1234
 4369 0026 10BD     		pop	{r4, pc}
 4370              	.LVL421:
 4371              	.L423:
1606:../Drivers/ISP/isp/Src/isp_services.c ****     {
 4372              		.loc 1 1606 5 is_stmt 1 view .LVU1235
1606:../Drivers/ISP/isp/Src/isp_services.c ****     {
 4373              		.loc 1 1606 9 is_stmt 0 view .LVU1236
 4374 0028 0121     		movs	r1, #1
 4375              	.LVL422:
1606:../Drivers/ISP/isp/Src/isp_services.c ****     {
 4376              		.loc 1 1606 9 view .LVU1237
 4377 002a 0446     		mov	r4, r0
 4378 002c 0068     		ldr	r0, [r0]
 4379              	.LVL423:
1606:../Drivers/ISP/isp/Src/isp_services.c ****     {
 4380              		.loc 1 1606 9 view .LVU1238
 4381 002e FFF7FEFF 		bl	HAL_DCMIPP_PIPE_EnableGammaConversion
 4382              	.LVL424:
ARM GAS  /tmp/ccAu1Zkx.s 			page 113


1606:../Drivers/ISP/isp/Src/isp_services.c ****     {
 4383              		.loc 1 1606 8 discriminator 1 view .LVU1239
 4384 0032 0028     		cmp	r0, #0
 4385 0034 F6D1     		bne	.L420
1610:../Drivers/ISP/isp/Src/isp_services.c ****     {
 4386              		.loc 1 1610 5 is_stmt 1 view .LVU1240
1610:../Drivers/ISP/isp/Src/isp_services.c ****     {
 4387              		.loc 1 1610 9 is_stmt 0 view .LVU1241
 4388 0036 0221     		movs	r1, #2
 4389 0038 2068     		ldr	r0, [r4]
 4390 003a FFF7FEFF 		bl	HAL_DCMIPP_PIPE_EnableGammaConversion
 4391              	.LVL425:
1610:../Drivers/ISP/isp/Src/isp_services.c ****     {
 4392              		.loc 1 1610 8 discriminator 1 view .LVU1242
 4393 003e 0028     		cmp	r0, #0
 4394 0040 F1D0     		beq	.L422
1612:../Drivers/ISP/isp/Src/isp_services.c ****     }
 4395              		.loc 1 1612 14 view .LVU1243
 4396 0042 9520     		movs	r0, #149
 4397 0044 EFE7     		b	.L422
 4398              	.LVL426:
 4399              	.L427:
 4400              	.LCFI91:
 4401              		.cfi_def_cfa_offset 0
 4402              		.cfi_restore 4
 4403              		.cfi_restore 14
1590:../Drivers/ISP/isp/Src/isp_services.c ****   }
 4404              		.loc 1 1590 12 view .LVU1244
 4405 0046 9520     		movs	r0, #149
 4406              	.LVL427:
 4407              		.loc 1 1617 1 view .LVU1245
 4408 0048 7047     		bx	lr
 4409              		.cfi_endproc
 4410              	.LFE935:
 4412              		.section	.text.ISP_SVC_Dump_GetFrame,"ax",%progbits
 4413              		.align	1
 4414              		.global	ISP_SVC_Dump_GetFrame
 4415              		.syntax unified
 4416              		.thumb
 4417              		.thumb_func
 4419              	ISP_SVC_Dump_GetFrame:
 4420              	.LVL428:
 4421              	.LFB936:
1618:../Drivers/ISP/isp/Src/isp_services.c **** 
1619:../Drivers/ISP/isp/Src/isp_services.c **** /**
1620:../Drivers/ISP/isp/Src/isp_services.c ****   * @brief  ISP_SVC_Dump_GetFrame
1621:../Drivers/ISP/isp/Src/isp_services.c ****   *         Dump a frame
1622:../Drivers/ISP/isp/Src/isp_services.c ****   * @param  hIsp: ISP device handle
1623:../Drivers/ISP/isp/Src/isp_services.c ****   * @param  pBuffer: pointer to the address of the dumped buffer
1624:../Drivers/ISP/isp/Src/isp_services.c ****   * @param  pMeta: buffer meta data
1625:../Drivers/ISP/isp/Src/isp_services.c ****   * @param  DumpConfig: Type of dump configuration requested
1626:../Drivers/ISP/isp/Src/isp_services.c ****   * @retval ISP_OK if DCMIPP is running, ISP_FAIL otherwise
1627:../Drivers/ISP/isp/Src/isp_services.c ****   */
1628:../Drivers/ISP/isp/Src/isp_services.c **** ISP_StatusTypeDef ISP_SVC_Dump_GetFrame(ISP_HandleTypeDef *hIsp, uint32_t **pBuffer, ISP_DumpCfgTyp
1629:../Drivers/ISP/isp/Src/isp_services.c **** {
 4422              		.loc 1 1629 1 is_stmt 1 view -0
 4423              		.cfi_startproc
ARM GAS  /tmp/ccAu1Zkx.s 			page 114


 4424              		@ args = 0, pretend = 0, frame = 0
 4425              		@ frame_needed = 0, uses_anonymous_args = 0
1630:../Drivers/ISP/isp/Src/isp_services.c ****   uint32_t DumpPipe;
 4426              		.loc 1 1630 3 view .LVU1247
1631:../Drivers/ISP/isp/Src/isp_services.c **** 
1632:../Drivers/ISP/isp/Src/isp_services.c ****   /* Check handle validity */
1633:../Drivers/ISP/isp/Src/isp_services.c ****   if ((hIsp == NULL) || (pBuffer == NULL) || (pMeta == NULL))
 4427              		.loc 1 1633 3 view .LVU1248
 4428              		.loc 1 1633 6 is_stmt 0 view .LVU1249
 4429 0000 90B1     		cbz	r0, .L430
 4430 0002 8446     		mov	ip, r0
 4431              		.loc 1 1633 22 discriminator 1 view .LVU1250
 4432 0004 81B1     		cbz	r1, .L430
 4433              		.loc 1 1633 43 discriminator 2 view .LVU1251
 4434 0006 7BB1     		cbz	r3, .L430
1629:../Drivers/ISP/isp/Src/isp_services.c ****   uint32_t DumpPipe;
 4435              		.loc 1 1629 1 view .LVU1252
 4436 0008 10B5     		push	{r4, lr}
 4437              	.LCFI92:
 4438              		.cfi_def_cfa_offset 8
 4439              		.cfi_offset 4, -8
 4440              		.cfi_offset 14, -4
 4441 000a 82B0     		sub	sp, sp, #8
 4442              	.LCFI93:
 4443              		.cfi_def_cfa_offset 16
1634:../Drivers/ISP/isp/Src/isp_services.c ****   {
1635:../Drivers/ISP/isp/Src/isp_services.c ****     return ISP_ERR_EINVAL;
1636:../Drivers/ISP/isp/Src/isp_services.c ****   }
1637:../Drivers/ISP/isp/Src/isp_services.c **** 
1638:../Drivers/ISP/isp/Src/isp_services.c ****   if (hIsp->appliHelpers.DumpFrame == NULL)
 4444              		.loc 1 1638 3 is_stmt 1 view .LVU1253
 4445              		.loc 1 1638 25 is_stmt 0 view .LVU1254
 4446 000c 406A     		ldr	r0, [r0, #36]
 4447              	.LVL429:
 4448              		.loc 1 1638 25 view .LVU1255
 4449 000e 0446     		mov	r4, r0
 4450              		.loc 1 1638 6 view .LVU1256
 4451 0010 70B1     		cbz	r0, .L434
1639:../Drivers/ISP/isp/Src/isp_services.c ****   {
1640:../Drivers/ISP/isp/Src/isp_services.c ****     return ISP_ERR_APP_HELPER_UNDEFINED;
1641:../Drivers/ISP/isp/Src/isp_services.c ****   }
1642:../Drivers/ISP/isp/Src/isp_services.c **** 
1643:../Drivers/ISP/isp/Src/isp_services.c **** 
1644:../Drivers/ISP/isp/Src/isp_services.c ****   if (DumpConfig == ISP_DUMP_CFG_DUMP_PIPE_SENSOR) {
 4452              		.loc 1 1644 3 is_stmt 1 view .LVU1257
 4453              		.loc 1 1644 6 is_stmt 0 view .LVU1258
 4454 0012 022A     		cmp	r2, #2
 4455 0014 0AD0     		beq	.L440
1645:../Drivers/ISP/isp/Src/isp_services.c ****     /* Dump the frame on pipe0 in its native RAW format */
1646:../Drivers/ISP/isp/Src/isp_services.c ****     DumpPipe = DCMIPP_PIPE0;
1647:../Drivers/ISP/isp/Src/isp_services.c ****   }
1648:../Drivers/ISP/isp/Src/isp_services.c ****   else if (DumpConfig == ISP_DUMP_CFG_FULLSIZE_RGB888) {
1649:../Drivers/ISP/isp/Src/isp_services.c ****     /* Dump the full frame on pipe2 */
1650:../Drivers/ISP/isp/Src/isp_services.c ****     DumpPipe = DCMIPP_PIPE2;
 4456              		.loc 1 1650 14 view .LVU1259
 4457 0016 0220     		movs	r0, #2
 4458              	.L433:
ARM GAS  /tmp/ccAu1Zkx.s 			page 115


 4459              	.LVL430:
1651:../Drivers/ISP/isp/Src/isp_services.c ****   }
1652:../Drivers/ISP/isp/Src/isp_services.c ****   else {
1653:../Drivers/ISP/isp/Src/isp_services.c ****     /* Live Streaming dump on pipe2 in its default configuration */
1654:../Drivers/ISP/isp/Src/isp_services.c ****     DumpPipe = DCMIPP_PIPE2;
1655:../Drivers/ISP/isp/Src/isp_services.c ****   }
1656:../Drivers/ISP/isp/Src/isp_services.c **** 
1657:../Drivers/ISP/isp/Src/isp_services.c ****   /* Call the DumpFrame application function */
1658:../Drivers/ISP/isp/Src/isp_services.c ****   return hIsp->appliHelpers.DumpFrame(hIsp->hDcmipp, DumpPipe, DumpConfig, pBuffer, pMeta);
 4460              		.loc 1 1658 3 is_stmt 1 view .LVU1260
 4461              		.loc 1 1658 10 is_stmt 0 view .LVU1261
 4462 0018 0093     		str	r3, [sp]
 4463 001a 0B46     		mov	r3, r1
 4464              	.LVL431:
 4465              		.loc 1 1658 10 view .LVU1262
 4466 001c 0146     		mov	r1, r0
 4467              	.LVL432:
 4468              		.loc 1 1658 10 view .LVU1263
 4469 001e DCF80000 		ldr	r0, [ip]
 4470              	.LVL433:
 4471              		.loc 1 1658 10 view .LVU1264
 4472 0022 A047     		blx	r4
 4473              	.LVL434:
 4474              	.L432:
1659:../Drivers/ISP/isp/Src/isp_services.c **** }
 4475              		.loc 1 1659 1 view .LVU1265
 4476 0024 02B0     		add	sp, sp, #8
 4477              	.LCFI94:
 4478              		.cfi_def_cfa_offset 8
 4479              		@ sp needed
 4480 0026 10BD     		pop	{r4, pc}
 4481              	.LVL435:
 4482              	.L430:
 4483              	.LCFI95:
 4484              		.cfi_def_cfa_offset 0
 4485              		.cfi_restore 4
 4486              		.cfi_restore 14
1635:../Drivers/ISP/isp/Src/isp_services.c ****   }
 4487              		.loc 1 1635 12 view .LVU1266
 4488 0028 0120     		movs	r0, #1
 4489              	.LVL436:
 4490              		.loc 1 1659 1 view .LVU1267
 4491 002a 7047     		bx	lr
 4492              	.LVL437:
 4493              	.L440:
 4494              	.LCFI96:
 4495              		.cfi_def_cfa_offset 16
 4496              		.cfi_offset 4, -8
 4497              		.cfi_offset 14, -4
1646:../Drivers/ISP/isp/Src/isp_services.c ****   }
 4498              		.loc 1 1646 14 view .LVU1268
 4499 002c 0020     		movs	r0, #0
 4500 002e F3E7     		b	.L433
 4501              	.L434:
1640:../Drivers/ISP/isp/Src/isp_services.c ****   }
 4502              		.loc 1 1640 12 view .LVU1269
 4503 0030 B420     		movs	r0, #180
ARM GAS  /tmp/ccAu1Zkx.s 			page 116


 4504 0032 F7E7     		b	.L432
 4505              		.cfi_endproc
 4506              	.LFE936:
 4508              		.section	.text.ISP_SVC_IQParam_Init,"ax",%progbits
 4509              		.align	1
 4510              		.global	ISP_SVC_IQParam_Init
 4511              		.syntax unified
 4512              		.thumb
 4513              		.thumb_func
 4515              	ISP_SVC_IQParam_Init:
 4516              	.LVL438:
 4517              	.LFB937:
1660:../Drivers/ISP/isp/Src/isp_services.c **** 
1661:../Drivers/ISP/isp/Src/isp_services.c **** /**
1662:../Drivers/ISP/isp/Src/isp_services.c ****   * @brief  ISP_SVC_IQParam_Init
1663:../Drivers/ISP/isp/Src/isp_services.c ****   *         Initialize the IQ parameters cache with values from non volatile memory
1664:../Drivers/ISP/isp/Src/isp_services.c ****   * @param  hIsp: ISP device handle
1665:../Drivers/ISP/isp/Src/isp_services.c ****   * @retval ISP status
1666:../Drivers/ISP/isp/Src/isp_services.c ****   */
1667:../Drivers/ISP/isp/Src/isp_services.c **** ISP_StatusTypeDef ISP_SVC_IQParam_Init(ISP_HandleTypeDef *hIsp, const ISP_IQParamTypeDef *ISP_IQPar
1668:../Drivers/ISP/isp/Src/isp_services.c **** {
 4518              		.loc 1 1668 1 is_stmt 1 view -0
 4519              		.cfi_startproc
 4520              		@ args = 0, pretend = 0, frame = 0
 4521              		@ frame_needed = 0, uses_anonymous_args = 0
 4522              		.loc 1 1668 1 is_stmt 0 view .LVU1271
 4523 0000 08B5     		push	{r3, lr}
 4524              	.LCFI97:
 4525              		.cfi_def_cfa_offset 8
 4526              		.cfi_offset 3, -8
 4527              		.cfi_offset 14, -4
1669:../Drivers/ISP/isp/Src/isp_services.c ****   (void)hIsp; /* unused */
 4528              		.loc 1 1669 3 is_stmt 1 view .LVU1272
1670:../Drivers/ISP/isp/Src/isp_services.c **** 
1671:../Drivers/ISP/isp/Src/isp_services.c ****   ISP_IQParamCache = *ISP_IQParamCacheInit;
 4529              		.loc 1 1671 3 view .LVU1273
 4530              		.loc 1 1671 20 is_stmt 0 view .LVU1274
 4531 0002 4FF42572 		mov	r2, #660
 4532 0006 0248     		ldr	r0, .L443
 4533              	.LVL439:
 4534              		.loc 1 1671 20 view .LVU1275
 4535 0008 FFF7FEFF 		bl	memcpy
 4536              	.LVL440:
1672:../Drivers/ISP/isp/Src/isp_services.c ****   return ISP_OK;
 4537              		.loc 1 1672 3 is_stmt 1 view .LVU1276
1673:../Drivers/ISP/isp/Src/isp_services.c **** }
 4538              		.loc 1 1673 1 is_stmt 0 view .LVU1277
 4539 000c 0020     		movs	r0, #0
 4540 000e 08BD     		pop	{r3, pc}
 4541              	.L444:
 4542              		.align	2
 4543              	.L443:
 4544 0010 00000000 		.word	ISP_IQParamCache
 4545              		.cfi_endproc
 4546              	.LFE937:
 4548              		.section	.text.ISP_SVC_IQParam_Get,"ax",%progbits
 4549              		.align	1
ARM GAS  /tmp/ccAu1Zkx.s 			page 117


 4550              		.global	ISP_SVC_IQParam_Get
 4551              		.syntax unified
 4552              		.thumb
 4553              		.thumb_func
 4555              	ISP_SVC_IQParam_Get:
 4556              	.LVL441:
 4557              	.LFB938:
1674:../Drivers/ISP/isp/Src/isp_services.c **** 
1675:../Drivers/ISP/isp/Src/isp_services.c **** /**
1676:../Drivers/ISP/isp/Src/isp_services.c ****   * @brief  ISP_SVC_IQParam_Get
1677:../Drivers/ISP/isp/Src/isp_services.c ****   *         Get the pointer to the IQ parameters cache
1678:../Drivers/ISP/isp/Src/isp_services.c ****   * @param  hIsp: ISP device handle
1679:../Drivers/ISP/isp/Src/isp_services.c ****   * @retval Pointer to the IQ Param config
1680:../Drivers/ISP/isp/Src/isp_services.c ****   */
1681:../Drivers/ISP/isp/Src/isp_services.c **** ISP_IQParamTypeDef *ISP_SVC_IQParam_Get(ISP_HandleTypeDef *hIsp)
1682:../Drivers/ISP/isp/Src/isp_services.c **** {
 4558              		.loc 1 1682 1 is_stmt 1 view -0
 4559              		.cfi_startproc
 4560              		@ args = 0, pretend = 0, frame = 0
 4561              		@ frame_needed = 0, uses_anonymous_args = 0
 4562              		@ link register save eliminated.
1683:../Drivers/ISP/isp/Src/isp_services.c ****   (void)hIsp; /* unused */
 4563              		.loc 1 1683 3 view .LVU1279
1684:../Drivers/ISP/isp/Src/isp_services.c **** 
1685:../Drivers/ISP/isp/Src/isp_services.c ****   return &ISP_IQParamCache;
 4564              		.loc 1 1685 3 view .LVU1280
1686:../Drivers/ISP/isp/Src/isp_services.c **** }
 4565              		.loc 1 1686 1 is_stmt 0 view .LVU1281
 4566 0000 0048     		ldr	r0, .L446
 4567              	.LVL442:
 4568              		.loc 1 1686 1 view .LVU1282
 4569 0002 7047     		bx	lr
 4570              	.L447:
 4571              		.align	2
 4572              	.L446:
 4573 0004 00000000 		.word	ISP_IQParamCache
 4574              		.cfi_endproc
 4575              	.LFE938:
 4577              		.section	.text.ISP_SVC_GetRestartState,"ax",%progbits
 4578              		.align	1
 4579              		.global	ISP_SVC_GetRestartState
 4580              		.syntax unified
 4581              		.thumb
 4582              		.thumb_func
 4584              	ISP_SVC_GetRestartState:
 4585              	.LVL443:
 4586              	.LFB939:
1687:../Drivers/ISP/isp/Src/isp_services.c **** 
1688:../Drivers/ISP/isp/Src/isp_services.c **** /**
1689:../Drivers/ISP/isp/Src/isp_services.c ****   * @brief  ISP_SVC_GetRestartState
1690:../Drivers/ISP/isp/Src/isp_services.c ****   *         Get the pointer to the ISP Restart State
1691:../Drivers/ISP/isp/Src/isp_services.c ****   * @param  hIsp: ISP device handle
1692:../Drivers/ISP/isp/Src/isp_services.c ****   * @retval Pointer to the ISP Restart State
1693:../Drivers/ISP/isp/Src/isp_services.c ****   */
1694:../Drivers/ISP/isp/Src/isp_services.c **** ISP_RestartStateTypeDef *ISP_SVC_GetRestartState(ISP_HandleTypeDef *hIsp)
1695:../Drivers/ISP/isp/Src/isp_services.c **** {
 4587              		.loc 1 1695 1 is_stmt 1 view -0
ARM GAS  /tmp/ccAu1Zkx.s 			page 118


 4588              		.cfi_startproc
 4589              		@ args = 0, pretend = 0, frame = 0
 4590              		@ frame_needed = 0, uses_anonymous_args = 0
 4591              		@ link register save eliminated.
1696:../Drivers/ISP/isp/Src/isp_services.c ****   (void)hIsp; /* unused */
 4592              		.loc 1 1696 3 view .LVU1284
1697:../Drivers/ISP/isp/Src/isp_services.c **** 
1698:../Drivers/ISP/isp/Src/isp_services.c ****   return pISP_RestartState;
 4593              		.loc 1 1698 3 view .LVU1285
1699:../Drivers/ISP/isp/Src/isp_services.c **** }
 4594              		.loc 1 1699 1 is_stmt 0 view .LVU1286
 4595 0000 014B     		ldr	r3, .L449
 4596 0002 1868     		ldr	r0, [r3]
 4597              	.LVL444:
 4598              		.loc 1 1699 1 view .LVU1287
 4599 0004 7047     		bx	lr
 4600              	.L450:
 4601 0006 00BF     		.align	2
 4602              	.L449:
 4603 0008 00000000 		.word	pISP_RestartState
 4604              		.cfi_endproc
 4605              	.LFE939:
 4607              		.section	.text.ISP_SVC_SetRestartState,"ax",%progbits
 4608              		.align	1
 4609              		.global	ISP_SVC_SetRestartState
 4610              		.syntax unified
 4611              		.thumb
 4612              		.thumb_func
 4614              	ISP_SVC_SetRestartState:
 4615              	.LVL445:
 4616              	.LFB940:
1700:../Drivers/ISP/isp/Src/isp_services.c **** 
1701:../Drivers/ISP/isp/Src/isp_services.c **** /**
1702:../Drivers/ISP/isp/Src/isp_services.c ****   * @brief  ISP_SVC_SetRestartState
1703:../Drivers/ISP/isp/Src/isp_services.c ****   *         Set the pointer to the ISP Restart State
1704:../Drivers/ISP/isp/Src/isp_services.c ****   * @param  hIsp: ISP device handle
1705:../Drivers/ISP/isp/Src/isp_services.c ****   * @param  pRestartState: Pointer to the ISP Restart State
1706:../Drivers/ISP/isp/Src/isp_services.c ****   * @retval ISP status
1707:../Drivers/ISP/isp/Src/isp_services.c ****   */
1708:../Drivers/ISP/isp/Src/isp_services.c **** ISP_StatusTypeDef ISP_SVC_SetRestartState(ISP_HandleTypeDef *hIsp, ISP_RestartStateTypeDef *pRestar
1709:../Drivers/ISP/isp/Src/isp_services.c **** {
 4617              		.loc 1 1709 1 is_stmt 1 view -0
 4618              		.cfi_startproc
 4619              		@ args = 0, pretend = 0, frame = 0
 4620              		@ frame_needed = 0, uses_anonymous_args = 0
 4621              		@ link register save eliminated.
1710:../Drivers/ISP/isp/Src/isp_services.c ****   (void)hIsp; /* unused */
 4622              		.loc 1 1710 3 view .LVU1289
1711:../Drivers/ISP/isp/Src/isp_services.c **** 
1712:../Drivers/ISP/isp/Src/isp_services.c ****   pISP_RestartState = pRestartState;
 4623              		.loc 1 1712 3 view .LVU1290
 4624              		.loc 1 1712 21 is_stmt 0 view .LVU1291
 4625 0000 014B     		ldr	r3, .L452
 4626 0002 1960     		str	r1, [r3]
1713:../Drivers/ISP/isp/Src/isp_services.c ****   return ISP_OK;
 4627              		.loc 1 1713 3 is_stmt 1 view .LVU1292
1714:../Drivers/ISP/isp/Src/isp_services.c **** }
ARM GAS  /tmp/ccAu1Zkx.s 			page 119


 4628              		.loc 1 1714 1 is_stmt 0 view .LVU1293
 4629 0004 0020     		movs	r0, #0
 4630              	.LVL446:
 4631              		.loc 1 1714 1 view .LVU1294
 4632 0006 7047     		bx	lr
 4633              	.L453:
 4634              		.align	2
 4635              	.L452:
 4636 0008 00000000 		.word	pISP_RestartState
 4637              		.cfi_endproc
 4638              	.LFE940:
 4640              		.section	.text.ISP_SVC_Stats_Init,"ax",%progbits
 4641              		.align	1
 4642              		.global	ISP_SVC_Stats_Init
 4643              		.syntax unified
 4644              		.thumb
 4645              		.thumb_func
 4647              	ISP_SVC_Stats_Init:
 4648              	.LVL447:
 4649              	.LFB941:
1715:../Drivers/ISP/isp/Src/isp_services.c **** 
1716:../Drivers/ISP/isp/Src/isp_services.c **** /**
1717:../Drivers/ISP/isp/Src/isp_services.c ****   * @brief  ISP_SVC_Stats_Init
1718:../Drivers/ISP/isp/Src/isp_services.c ****   *         Initialize the statistic engine
1719:../Drivers/ISP/isp/Src/isp_services.c ****   * @param  hIsp: ISP device handle
1720:../Drivers/ISP/isp/Src/isp_services.c ****   * @retval None
1721:../Drivers/ISP/isp/Src/isp_services.c ****   */
1722:../Drivers/ISP/isp/Src/isp_services.c **** void ISP_SVC_Stats_Init(ISP_HandleTypeDef *hIsp)
1723:../Drivers/ISP/isp/Src/isp_services.c **** {
 4650              		.loc 1 1723 1 is_stmt 1 view -0
 4651              		.cfi_startproc
 4652              		@ args = 0, pretend = 0, frame = 0
 4653              		@ frame_needed = 0, uses_anonymous_args = 0
 4654              		.loc 1 1723 1 is_stmt 0 view .LVU1296
 4655 0000 08B5     		push	{r3, lr}
 4656              	.LCFI98:
 4657              		.cfi_def_cfa_offset 8
 4658              		.cfi_offset 3, -8
 4659              		.cfi_offset 14, -4
1724:../Drivers/ISP/isp/Src/isp_services.c ****   UNUSED(hIsp);
 4660              		.loc 1 1724 3 is_stmt 1 view .LVU1297
1725:../Drivers/ISP/isp/Src/isp_services.c ****   memset(&ISP_SVC_StatEngine, 0, sizeof(ISP_SVC_StatEngineTypeDef));
 4661              		.loc 1 1725 3 view .LVU1298
 4662 0002 4FF4D472 		mov	r2, #424
 4663 0006 0021     		movs	r1, #0
 4664 0008 0148     		ldr	r0, .L456
 4665              	.LVL448:
 4666              		.loc 1 1725 3 is_stmt 0 view .LVU1299
 4667 000a FFF7FEFF 		bl	memset
 4668              	.LVL449:
1726:../Drivers/ISP/isp/Src/isp_services.c **** }
 4669              		.loc 1 1726 1 view .LVU1300
 4670 000e 08BD     		pop	{r3, pc}
 4671              	.L457:
 4672              		.align	2
 4673              	.L456:
 4674 0010 00000000 		.word	ISP_SVC_StatEngine
ARM GAS  /tmp/ccAu1Zkx.s 			page 120


 4675              		.cfi_endproc
 4676              	.LFE941:
 4678              		.section	.rodata.ISP_SVC_Stats_Gather.str1.4,"aMS",%progbits,1
 4679              		.align	2
 4680              	.LC0:
 4681 0000 4552524F 		.ascii	"ERROR: ISP handle is NULL\015\000"
 4681      523A2049 
 4681      53502068 
 4681      616E646C 
 4681      65206973 
 4682 001b 00       		.align	2
 4683              	.LC1:
 4684 001c 4552524F 		.ascii	"ERROR: can't get UP Stat Area\015\000"
 4684      523A2063 
 4684      616E2774 
 4684      20676574 
 4684      20555020 
 4685 003b 00       		.align	2
 4686              	.LC2:
 4687 003c 4552524F 		.ascii	"ERROR: can't get DOWN Stat Area\015\000"
 4687      523A2063 
 4687      616E2774 
 4687      20676574 
 4687      20444F57 
 4688 005d 000000   		.align	2
 4689              	.LC3:
 4690 0060 4552524F 		.ascii	"ERROR: can't set Statistic Extraction config\015\000"
 4690      523A2063 
 4690      616E2774 
 4690      20736574 
 4690      20537461 
 4691 008e 0000     		.align	2
 4692              	.LC4:
 4693 0090 4552524F 		.ascii	"ERROR: can't enable Statistic Extraction config\015"
 4693      523A2063 
 4693      616E2774 
 4693      20656E61 
 4693      626C6520 
 4694 00c0 00       		.ascii	"\000"
 4695              		.section	.text.ISP_SVC_Stats_Gather,"ax",%progbits
 4696              		.align	1
 4697              		.global	ISP_SVC_Stats_Gather
 4698              		.syntax unified
 4699              		.thumb
 4700              		.thumb_func
 4702              	ISP_SVC_Stats_Gather:
 4703              	.LVL450:
 4704              	.LFB942:
1727:../Drivers/ISP/isp/Src/isp_services.c **** 
1728:../Drivers/ISP/isp/Src/isp_services.c **** /**
1729:../Drivers/ISP/isp/Src/isp_services.c ****   * @brief  ISP_SVC_Stats_Gather
1730:../Drivers/ISP/isp/Src/isp_services.c ****   *         Gather statistics
1731:../Drivers/ISP/isp/Src/isp_services.c ****   * @param  hIsp: ISP device handle
1732:../Drivers/ISP/isp/Src/isp_services.c ****   * @retval None
1733:../Drivers/ISP/isp/Src/isp_services.c ****   */
1734:../Drivers/ISP/isp/Src/isp_services.c **** void ISP_SVC_Stats_Gather(ISP_HandleTypeDef *hIsp)
1735:../Drivers/ISP/isp/Src/isp_services.c **** {
ARM GAS  /tmp/ccAu1Zkx.s 			page 121


 4705              		.loc 1 1735 1 is_stmt 1 view -0
 4706              		.cfi_startproc
 4707              		@ args = 0, pretend = 0, frame = 48
 4708              		@ frame_needed = 0, uses_anonymous_args = 0
 4709              		.loc 1 1735 1 is_stmt 0 view .LVU1302
 4710 0000 2DE9F041 		push	{r4, r5, r6, r7, r8, lr}
 4711              	.LCFI99:
 4712              		.cfi_def_cfa_offset 24
 4713              		.cfi_offset 4, -24
 4714              		.cfi_offset 5, -20
 4715              		.cfi_offset 6, -16
 4716              		.cfi_offset 7, -12
 4717              		.cfi_offset 8, -8
 4718              		.cfi_offset 14, -4
 4719 0004 8CB0     		sub	sp, sp, #48
 4720              	.LCFI100:
 4721              		.cfi_def_cfa_offset 72
1736:../Drivers/ISP/isp/Src/isp_services.c ****   static ISP_SVC_StatEngineStage stagePrevious1 = ISP_STAT_CFG_LAST, stagePrevious2 = ISP_STAT_CFG_
 4722              		.loc 1 1736 3 is_stmt 1 view .LVU1303
1737:../Drivers/ISP/isp/Src/isp_services.c ****   DCMIPP_StatisticExtractionConfTypeDef statConf[3];
 4723              		.loc 1 1737 3 view .LVU1304
1738:../Drivers/ISP/isp/Src/isp_services.c ****   ISP_IQParamTypeDef *IQParamConfig;
 4724              		.loc 1 1738 3 view .LVU1305
1739:../Drivers/ISP/isp/Src/isp_services.c ****   ISP_SVC_StatStateTypeDef *ongoing;
 4725              		.loc 1 1739 3 view .LVU1306
1740:../Drivers/ISP/isp/Src/isp_services.c ****   uint32_t avgR, avgG, avgB, frameId;
 4726              		.loc 1 1740 3 view .LVU1307
1741:../Drivers/ISP/isp/Src/isp_services.c ****   uint8_t i;
 4727              		.loc 1 1741 3 view .LVU1308
1742:../Drivers/ISP/isp/Src/isp_services.c **** 
1743:../Drivers/ISP/isp/Src/isp_services.c ****   /* Check handle validity */
1744:../Drivers/ISP/isp/Src/isp_services.c ****   if (hIsp == NULL)
 4728              		.loc 1 1744 3 view .LVU1309
 4729              		.loc 1 1744 6 is_stmt 0 view .LVU1310
 4730 0006 78B1     		cbz	r0, .L507
 4731 0008 0546     		mov	r5, r0
1745:../Drivers/ISP/isp/Src/isp_services.c ****   {
1746:../Drivers/ISP/isp/Src/isp_services.c ****     printf("ERROR: ISP handle is NULL\r\n");
1747:../Drivers/ISP/isp/Src/isp_services.c ****     return;
1748:../Drivers/ISP/isp/Src/isp_services.c ****   }
1749:../Drivers/ISP/isp/Src/isp_services.c **** 
1750:../Drivers/ISP/isp/Src/isp_services.c ****   if (hIsp->hDcmipp == NULL)
 4732              		.loc 1 1750 3 is_stmt 1 view .LVU1311
 4733              		.loc 1 1750 11 is_stmt 0 view .LVU1312
 4734 000a 0068     		ldr	r0, [r0]
 4735              	.LVL451:
 4736              		.loc 1 1750 6 view .LVU1313
 4737 000c 0028     		cmp	r0, #0
 4738 000e 00F0E981 		beq	.L458
1751:../Drivers/ISP/isp/Src/isp_services.c ****   {
1752:../Drivers/ISP/isp/Src/isp_services.c ****     /* ISP is not initialized
1753:../Drivers/ISP/isp/Src/isp_services.c ****      * This situation happens when the ISP is de-initialized and interrupts still activated.
1754:../Drivers/ISP/isp/Src/isp_services.c ****      */
1755:../Drivers/ISP/isp/Src/isp_services.c ****     return;
1756:../Drivers/ISP/isp/Src/isp_services.c ****   }
1757:../Drivers/ISP/isp/Src/isp_services.c **** 
1758:../Drivers/ISP/isp/Src/isp_services.c ****   /* Read the stats according to the configuration applied 2 VSYNC (shadow register + stat computat
ARM GAS  /tmp/ccAu1Zkx.s 			page 122


1759:../Drivers/ISP/isp/Src/isp_services.c ****    * stages earlier.
1760:../Drivers/ISP/isp/Src/isp_services.c ****    */
1761:../Drivers/ISP/isp/Src/isp_services.c ****   ongoing = &ISP_SVC_StatEngine.ongoing;
 4739              		.loc 1 1761 3 is_stmt 1 view .LVU1314
 4740              	.LVL452:
1762:../Drivers/ISP/isp/Src/isp_services.c ****   switch(stagePrevious2)
 4741              		.loc 1 1762 3 view .LVU1315
 4742 0012 B04B     		ldr	r3, .L517
 4743 0014 1B78     		ldrb	r3, [r3]	@ zero_extendqisi2
 4744 0016 092B     		cmp	r3, #9
 4745 0018 41D8     		bhi	.L461
 4746 001a DFE803F0 		tbb	[pc, r3]
 4747              	.L463:
 4748 001e 09       		.byte	(.L472-.L463)/2
 4749 001f 51       		.byte	(.L471-.L463)/2
 4750 0020 56       		.byte	(.L470-.L463)/2
 4751 0021 5B       		.byte	(.L469-.L463)/2
 4752 0022 60       		.byte	(.L468-.L463)/2
 4753 0023 65       		.byte	(.L467-.L463)/2
 4754 0024 B6       		.byte	(.L466-.L463)/2
 4755 0025 BB       		.byte	(.L465-.L463)/2
 4756 0026 C0       		.byte	(.L464-.L463)/2
 4757 0027 C5       		.byte	(.L462-.L463)/2
 4758              	.LVL453:
 4759              		.p2align 1
 4760              	.L507:
1746:../Drivers/ISP/isp/Src/isp_services.c ****     return;
 4761              		.loc 1 1746 5 view .LVU1316
 4762 0028 AB48     		ldr	r0, .L517+4
 4763              	.LVL454:
1746:../Drivers/ISP/isp/Src/isp_services.c ****     return;
 4764              		.loc 1 1746 5 is_stmt 0 view .LVU1317
 4765 002a FFF7FEFF 		bl	puts
 4766              	.LVL455:
1747:../Drivers/ISP/isp/Src/isp_services.c ****   }
 4767              		.loc 1 1747 5 is_stmt 1 view .LVU1318
 4768 002e D9E1     		b	.L458
 4769              	.LVL456:
 4770              	.L472:
1763:../Drivers/ISP/isp/Src/isp_services.c ****   {
1764:../Drivers/ISP/isp/Src/isp_services.c ****   case ISP_STAT_CFG_UP_AVG:
1765:../Drivers/ISP/isp/Src/isp_services.c ****     HAL_DCMIPP_PIPE_GetISPAccumulatedStatisticsCounter(hIsp->hDcmipp, DCMIPP_PIPE1, DCMIPP_STATEXT_
 4771              		.loc 1 1765 5 view .LVU1319
 4772 0030 02AB     		add	r3, sp, #8
 4773 0032 0122     		movs	r2, #1
 4774 0034 1146     		mov	r1, r2
 4775 0036 FFF7FEFF 		bl	HAL_DCMIPP_PIPE_GetISPAccumulatedStatisticsCounter
 4776              	.LVL457:
1766:../Drivers/ISP/isp/Src/isp_services.c ****     HAL_DCMIPP_PIPE_GetISPAccumulatedStatisticsCounter(hIsp->hDcmipp, DCMIPP_PIPE1, DCMIPP_STATEXT_
 4777              		.loc 1 1766 5 view .LVU1320
 4778 003a 01AB     		add	r3, sp, #4
 4779 003c 0222     		movs	r2, #2
 4780 003e 0121     		movs	r1, #1
 4781 0040 2868     		ldr	r0, [r5]
 4782 0042 FFF7FEFF 		bl	HAL_DCMIPP_PIPE_GetISPAccumulatedStatisticsCounter
 4783              	.LVL458:
1767:../Drivers/ISP/isp/Src/isp_services.c ****     HAL_DCMIPP_PIPE_GetISPAccumulatedStatisticsCounter(hIsp->hDcmipp, DCMIPP_PIPE1, DCMIPP_STATEXT_
ARM GAS  /tmp/ccAu1Zkx.s 			page 123


 4784              		.loc 1 1767 5 view .LVU1321
 4785 0046 6B46     		mov	r3, sp
 4786 0048 0322     		movs	r2, #3
 4787 004a 0121     		movs	r1, #1
 4788 004c 2868     		ldr	r0, [r5]
 4789 004e FFF7FEFF 		bl	HAL_DCMIPP_PIPE_GetISPAccumulatedStatisticsCounter
 4790              	.LVL459:
1768:../Drivers/ISP/isp/Src/isp_services.c **** 
1769:../Drivers/ISP/isp/Src/isp_services.c ****     ongoing->up.averageR = GetAvgStats(&ISP_SVC_StatEngine.upStatArea, ISP_STAT_LOC_UP, ISP_RED, av
 4791              		.loc 1 1769 5 view .LVU1322
 4792              		.loc 1 1769 28 is_stmt 0 view .LVU1323
 4793 0052 029B     		ldr	r3, [sp, #8]
 4794 0054 0022     		movs	r2, #0
 4795 0056 0121     		movs	r1, #1
 4796 0058 A048     		ldr	r0, .L517+8
 4797 005a FFF7FEFF 		bl	GetAvgStats
 4798              	.LVL460:
 4799 005e 0646     		mov	r6, r0
 4800              		.loc 1 1769 26 discriminator 1 view .LVU1324
 4801 0060 9E4B     		ldr	r3, .L517+8
 4802 0062 A3F5C474 		sub	r4, r3, #392
 4803 0066 03F8F80C 		strb	r0, [r3, #-248]
1770:../Drivers/ISP/isp/Src/isp_services.c ****     ongoing->up.averageG = GetAvgStats(&ISP_SVC_StatEngine.upStatArea, ISP_STAT_LOC_UP, ISP_GREEN, 
 4804              		.loc 1 1770 5 is_stmt 1 view .LVU1325
 4805              		.loc 1 1770 28 is_stmt 0 view .LVU1326
 4806 006a 019B     		ldr	r3, [sp, #4]
 4807 006c 0122     		movs	r2, #1
 4808 006e 1146     		mov	r1, r2
 4809 0070 04F5C470 		add	r0, r4, #392
 4810 0074 FFF7FEFF 		bl	GetAvgStats
 4811              	.LVL461:
 4812 0078 0746     		mov	r7, r0
 4813              		.loc 1 1770 26 discriminator 1 view .LVU1327
 4814 007a 84F89100 		strb	r0, [r4, #145]
1771:../Drivers/ISP/isp/Src/isp_services.c ****     ongoing->up.averageB = GetAvgStats(&ISP_SVC_StatEngine.upStatArea, ISP_STAT_LOC_UP, ISP_BLUE, a
 4815              		.loc 1 1771 5 is_stmt 1 view .LVU1328
 4816              		.loc 1 1771 28 is_stmt 0 view .LVU1329
 4817 007e 009B     		ldr	r3, [sp]
 4818 0080 0222     		movs	r2, #2
 4819 0082 0121     		movs	r1, #1
 4820 0084 04F5C470 		add	r0, r4, #392
 4821 0088 FFF7FEFF 		bl	GetAvgStats
 4822              	.LVL462:
 4823 008c 0246     		mov	r2, r0
 4824              		.loc 1 1771 26 discriminator 1 view .LVU1330
 4825 008e 84F89200 		strb	r0, [r4, #146]
1772:../Drivers/ISP/isp/Src/isp_services.c ****     ongoing->up.averageL = LuminanceFromRGB(ongoing->up.averageR, ongoing->up.averageG, ongoing->up
 4826              		.loc 1 1772 5 is_stmt 1 view .LVU1331
 4827              		.loc 1 1772 28 is_stmt 0 view .LVU1332
 4828 0092 3946     		mov	r1, r7
 4829 0094 3046     		mov	r0, r6
 4830 0096 FFF7FEFF 		bl	LuminanceFromRGB
 4831              	.LVL463:
 4832              		.loc 1 1772 26 discriminator 1 view .LVU1333
 4833 009a 84F89300 		strb	r0, [r4, #147]
1773:../Drivers/ISP/isp/Src/isp_services.c ****     break;
 4834              		.loc 1 1773 5 is_stmt 1 view .LVU1334
ARM GAS  /tmp/ccAu1Zkx.s 			page 124


 4835              	.L461:
1774:../Drivers/ISP/isp/Src/isp_services.c **** 
1775:../Drivers/ISP/isp/Src/isp_services.c ****   case ISP_STAT_CFG_UP_BINS_0_2:
1776:../Drivers/ISP/isp/Src/isp_services.c ****     ReadStatHistogram(hIsp, &ongoing->up.histogram[0]);
1777:../Drivers/ISP/isp/Src/isp_services.c ****     break;
1778:../Drivers/ISP/isp/Src/isp_services.c **** 
1779:../Drivers/ISP/isp/Src/isp_services.c ****   case ISP_STAT_CFG_UP_BINS_3_5:
1780:../Drivers/ISP/isp/Src/isp_services.c ****     ReadStatHistogram(hIsp, &ongoing->up.histogram[3]);
1781:../Drivers/ISP/isp/Src/isp_services.c ****     break;
1782:../Drivers/ISP/isp/Src/isp_services.c **** 
1783:../Drivers/ISP/isp/Src/isp_services.c ****   case ISP_STAT_CFG_UP_BINS_6_8:
1784:../Drivers/ISP/isp/Src/isp_services.c ****     ReadStatHistogram(hIsp, &ongoing->up.histogram[6]);
1785:../Drivers/ISP/isp/Src/isp_services.c ****     break;
1786:../Drivers/ISP/isp/Src/isp_services.c **** 
1787:../Drivers/ISP/isp/Src/isp_services.c ****   case ISP_STAT_CFG_UP_BINS_9_11:
1788:../Drivers/ISP/isp/Src/isp_services.c ****     ReadStatHistogram(hIsp, &ongoing->up.histogram[9]);
1789:../Drivers/ISP/isp/Src/isp_services.c ****     break;
1790:../Drivers/ISP/isp/Src/isp_services.c **** 
1791:../Drivers/ISP/isp/Src/isp_services.c ****   case ISP_STAT_CFG_DOWN_AVG:
1792:../Drivers/ISP/isp/Src/isp_services.c ****     HAL_DCMIPP_PIPE_GetISPAccumulatedStatisticsCounter(hIsp->hDcmipp, DCMIPP_PIPE1, DCMIPP_STATEXT_
1793:../Drivers/ISP/isp/Src/isp_services.c ****     HAL_DCMIPP_PIPE_GetISPAccumulatedStatisticsCounter(hIsp->hDcmipp, DCMIPP_PIPE1, DCMIPP_STATEXT_
1794:../Drivers/ISP/isp/Src/isp_services.c ****     HAL_DCMIPP_PIPE_GetISPAccumulatedStatisticsCounter(hIsp->hDcmipp, DCMIPP_PIPE1, DCMIPP_STATEXT_
1795:../Drivers/ISP/isp/Src/isp_services.c **** 
1796:../Drivers/ISP/isp/Src/isp_services.c ****     ongoing->down.averageR = GetAvgStats(&ISP_SVC_StatEngine.downStatArea, ISP_STAT_LOC_DOWN, ISP_R
1797:../Drivers/ISP/isp/Src/isp_services.c ****     ongoing->down.averageG = GetAvgStats(&ISP_SVC_StatEngine.downStatArea, ISP_STAT_LOC_DOWN, ISP_G
1798:../Drivers/ISP/isp/Src/isp_services.c ****     ongoing->down.averageB = GetAvgStats(&ISP_SVC_StatEngine.downStatArea, ISP_STAT_LOC_DOWN, ISP_B
1799:../Drivers/ISP/isp/Src/isp_services.c ****     IQParamConfig = ISP_SVC_IQParam_Get(hIsp);
1800:../Drivers/ISP/isp/Src/isp_services.c ****     if ((hIsp->sensorInfo.bayer_pattern == ISP_DEMOS_TYPE_MONO) || (!IQParamConfig->demosaicing.ena
1801:../Drivers/ISP/isp/Src/isp_services.c ****     {
1802:../Drivers/ISP/isp/Src/isp_services.c ****       ongoing->down.averageL = LuminanceFromRGBMono(ongoing->down.averageR, ongoing->down.averageG,
1803:../Drivers/ISP/isp/Src/isp_services.c ****     }
1804:../Drivers/ISP/isp/Src/isp_services.c ****     else
1805:../Drivers/ISP/isp/Src/isp_services.c ****     {
1806:../Drivers/ISP/isp/Src/isp_services.c ****       ongoing->down.averageL = LuminanceFromRGB(ongoing->down.averageR, ongoing->down.averageG, ong
1807:../Drivers/ISP/isp/Src/isp_services.c ****     }
1808:../Drivers/ISP/isp/Src/isp_services.c ****     Meta.averageL = ongoing->down.averageL;
1809:../Drivers/ISP/isp/Src/isp_services.c ****     break;
1810:../Drivers/ISP/isp/Src/isp_services.c ****   case ISP_STAT_CFG_DOWN_BINS_0_2:
1811:../Drivers/ISP/isp/Src/isp_services.c ****     ReadStatHistogram(hIsp, &ongoing->down.histogram[0]);
1812:../Drivers/ISP/isp/Src/isp_services.c ****     break;
1813:../Drivers/ISP/isp/Src/isp_services.c **** 
1814:../Drivers/ISP/isp/Src/isp_services.c ****   case ISP_STAT_CFG_DOWN_BINS_3_5:
1815:../Drivers/ISP/isp/Src/isp_services.c ****     ReadStatHistogram(hIsp, &ongoing->down.histogram[3]);
1816:../Drivers/ISP/isp/Src/isp_services.c ****     break;
1817:../Drivers/ISP/isp/Src/isp_services.c **** 
1818:../Drivers/ISP/isp/Src/isp_services.c ****   case ISP_STAT_CFG_DOWN_BINS_6_8:
1819:../Drivers/ISP/isp/Src/isp_services.c ****     ReadStatHistogram(hIsp, &ongoing->down.histogram[6]);
1820:../Drivers/ISP/isp/Src/isp_services.c ****     break;
1821:../Drivers/ISP/isp/Src/isp_services.c **** 
1822:../Drivers/ISP/isp/Src/isp_services.c ****   case ISP_STAT_CFG_DOWN_BINS_9_11:
1823:../Drivers/ISP/isp/Src/isp_services.c ****     ReadStatHistogram(hIsp, &ongoing->down.histogram[9]);
1824:../Drivers/ISP/isp/Src/isp_services.c ****     break;
1825:../Drivers/ISP/isp/Src/isp_services.c **** 
1826:../Drivers/ISP/isp/Src/isp_services.c ****   case ISP_STAT_CFG_CYCLE_SIZE:
1827:../Drivers/ISP/isp/Src/isp_services.c ****     /* Shall not happen, just add this case to silence a Wswitch-enum warning */
1828:../Drivers/ISP/isp/Src/isp_services.c ****     break;
1829:../Drivers/ISP/isp/Src/isp_services.c **** 
ARM GAS  /tmp/ccAu1Zkx.s 			page 125


1830:../Drivers/ISP/isp/Src/isp_services.c ****   default:
1831:../Drivers/ISP/isp/Src/isp_services.c ****     /* No Read */
1832:../Drivers/ISP/isp/Src/isp_services.c ****     break;
1833:../Drivers/ISP/isp/Src/isp_services.c ****   }
1834:../Drivers/ISP/isp/Src/isp_services.c **** 
1835:../Drivers/ISP/isp/Src/isp_services.c ****   /* Configure stat for a new stage */
1836:../Drivers/ISP/isp/Src/isp_services.c ****   switch(ISP_SVC_StatEngine.stage)
 4836              		.loc 1 1836 3 view .LVU1335
 4837              		.loc 1 1836 28 is_stmt 0 view .LVU1336
 4838 009e 904B     		ldr	r3, .L517+12
 4839 00a0 1B78     		ldrb	r3, [r3]	@ zero_extendqisi2
 4840              		.loc 1 1836 3 view .LVU1337
 4841 00a2 092B     		cmp	r3, #9
 4842 00a4 00F2AB80 		bhi	.L476
 4843 00a8 DFE813F0 		tbh	[pc, r3, lsl #1]
 4844              	.L478:
 4845 00ac 8300     		.2byte	(.L487-.L478)/2
 4846 00ae A500     		.2byte	(.L486-.L478)/2
 4847 00b0 C400     		.2byte	(.L485-.L478)/2
 4848 00b2 C900     		.2byte	(.L484-.L478)/2
 4849 00b4 CE00     		.2byte	(.L483-.L478)/2
 4850 00b6 D300     		.2byte	(.L502-.L478)/2
 4851 00b8 F700     		.2byte	(.L481-.L478)/2
 4852 00ba FC00     		.2byte	(.L480-.L478)/2
 4853 00bc 0101     		.2byte	(.L479-.L478)/2
 4854 00be 0601     		.2byte	(.L477-.L478)/2
 4855              		.p2align 1
 4856              	.L471:
1776:../Drivers/ISP/isp/Src/isp_services.c ****     break;
 4857              		.loc 1 1776 5 is_stmt 1 view .LVU1338
 4858 00c0 8849     		ldr	r1, .L517+16
 4859 00c2 2846     		mov	r0, r5
 4860 00c4 FFF7FEFF 		bl	ReadStatHistogram
 4861              	.LVL464:
1777:../Drivers/ISP/isp/Src/isp_services.c **** 
 4862              		.loc 1 1777 5 view .LVU1339
 4863 00c8 E9E7     		b	.L461
 4864              	.L470:
1780:../Drivers/ISP/isp/Src/isp_services.c ****     break;
 4865              		.loc 1 1780 5 view .LVU1340
 4866 00ca 8749     		ldr	r1, .L517+20
 4867 00cc 2846     		mov	r0, r5
 4868 00ce FFF7FEFF 		bl	ReadStatHistogram
 4869              	.LVL465:
1781:../Drivers/ISP/isp/Src/isp_services.c **** 
 4870              		.loc 1 1781 5 view .LVU1341
 4871 00d2 E4E7     		b	.L461
 4872              	.L469:
1784:../Drivers/ISP/isp/Src/isp_services.c ****     break;
 4873              		.loc 1 1784 5 view .LVU1342
 4874 00d4 8549     		ldr	r1, .L517+24
 4875 00d6 2846     		mov	r0, r5
 4876 00d8 FFF7FEFF 		bl	ReadStatHistogram
 4877              	.LVL466:
1785:../Drivers/ISP/isp/Src/isp_services.c **** 
 4878              		.loc 1 1785 5 view .LVU1343
 4879 00dc DFE7     		b	.L461
ARM GAS  /tmp/ccAu1Zkx.s 			page 126


 4880              	.L468:
1788:../Drivers/ISP/isp/Src/isp_services.c ****     break;
 4881              		.loc 1 1788 5 view .LVU1344
 4882 00de 8449     		ldr	r1, .L517+28
 4883 00e0 2846     		mov	r0, r5
 4884 00e2 FFF7FEFF 		bl	ReadStatHistogram
 4885              	.LVL467:
1789:../Drivers/ISP/isp/Src/isp_services.c **** 
 4886              		.loc 1 1789 5 view .LVU1345
 4887 00e6 DAE7     		b	.L461
 4888              	.L467:
1792:../Drivers/ISP/isp/Src/isp_services.c ****     HAL_DCMIPP_PIPE_GetISPAccumulatedStatisticsCounter(hIsp->hDcmipp, DCMIPP_PIPE1, DCMIPP_STATEXT_
 4889              		.loc 1 1792 5 view .LVU1346
 4890 00e8 02AB     		add	r3, sp, #8
 4891 00ea 0122     		movs	r2, #1
 4892 00ec 1146     		mov	r1, r2
 4893 00ee FFF7FEFF 		bl	HAL_DCMIPP_PIPE_GetISPAccumulatedStatisticsCounter
 4894              	.LVL468:
1793:../Drivers/ISP/isp/Src/isp_services.c ****     HAL_DCMIPP_PIPE_GetISPAccumulatedStatisticsCounter(hIsp->hDcmipp, DCMIPP_PIPE1, DCMIPP_STATEXT_
 4895              		.loc 1 1793 5 view .LVU1347
 4896 00f2 01AB     		add	r3, sp, #4
 4897 00f4 0222     		movs	r2, #2
 4898 00f6 0121     		movs	r1, #1
 4899 00f8 2868     		ldr	r0, [r5]
 4900 00fa FFF7FEFF 		bl	HAL_DCMIPP_PIPE_GetISPAccumulatedStatisticsCounter
 4901              	.LVL469:
1794:../Drivers/ISP/isp/Src/isp_services.c **** 
 4902              		.loc 1 1794 5 view .LVU1348
 4903 00fe 6B46     		mov	r3, sp
 4904 0100 0322     		movs	r2, #3
 4905 0102 0121     		movs	r1, #1
 4906 0104 2868     		ldr	r0, [r5]
 4907 0106 FFF7FEFF 		bl	HAL_DCMIPP_PIPE_GetISPAccumulatedStatisticsCounter
 4908              	.LVL470:
1796:../Drivers/ISP/isp/Src/isp_services.c ****     ongoing->down.averageG = GetAvgStats(&ISP_SVC_StatEngine.downStatArea, ISP_STAT_LOC_DOWN, ISP_G
 4909              		.loc 1 1796 5 view .LVU1349
1796:../Drivers/ISP/isp/Src/isp_services.c ****     ongoing->down.averageG = GetAvgStats(&ISP_SVC_StatEngine.downStatArea, ISP_STAT_LOC_DOWN, ISP_G
 4910              		.loc 1 1796 30 is_stmt 0 view .LVU1350
 4911 010a 029B     		ldr	r3, [sp, #8]
 4912 010c 0022     		movs	r2, #0
 4913 010e 0221     		movs	r1, #2
 4914 0110 7848     		ldr	r0, .L517+32
 4915 0112 FFF7FEFF 		bl	GetAvgStats
 4916              	.LVL471:
 4917 0116 0646     		mov	r6, r0
1796:../Drivers/ISP/isp/Src/isp_services.c ****     ongoing->down.averageG = GetAvgStats(&ISP_SVC_StatEngine.downStatArea, ISP_STAT_LOC_DOWN, ISP_G
 4918              		.loc 1 1796 28 discriminator 1 view .LVU1351
 4919 0118 764B     		ldr	r3, .L517+32
 4920 011a A3F5CC74 		sub	r4, r3, #408
 4921 011e 84F8C800 		strb	r0, [r4, #200]
1797:../Drivers/ISP/isp/Src/isp_services.c ****     ongoing->down.averageB = GetAvgStats(&ISP_SVC_StatEngine.downStatArea, ISP_STAT_LOC_DOWN, ISP_B
 4922              		.loc 1 1797 5 is_stmt 1 view .LVU1352
1797:../Drivers/ISP/isp/Src/isp_services.c ****     ongoing->down.averageB = GetAvgStats(&ISP_SVC_StatEngine.downStatArea, ISP_STAT_LOC_DOWN, ISP_B
 4923              		.loc 1 1797 30 is_stmt 0 view .LVU1353
 4924 0122 019B     		ldr	r3, [sp, #4]
 4925 0124 0122     		movs	r2, #1
 4926 0126 0221     		movs	r1, #2
ARM GAS  /tmp/ccAu1Zkx.s 			page 127


 4927 0128 04F5CC70 		add	r0, r4, #408
 4928 012c FFF7FEFF 		bl	GetAvgStats
 4929              	.LVL472:
 4930 0130 0746     		mov	r7, r0
1797:../Drivers/ISP/isp/Src/isp_services.c ****     ongoing->down.averageB = GetAvgStats(&ISP_SVC_StatEngine.downStatArea, ISP_STAT_LOC_DOWN, ISP_B
 4931              		.loc 1 1797 28 discriminator 1 view .LVU1354
 4932 0132 84F8C900 		strb	r0, [r4, #201]
1798:../Drivers/ISP/isp/Src/isp_services.c ****     IQParamConfig = ISP_SVC_IQParam_Get(hIsp);
 4933              		.loc 1 1798 5 is_stmt 1 view .LVU1355
1798:../Drivers/ISP/isp/Src/isp_services.c ****     IQParamConfig = ISP_SVC_IQParam_Get(hIsp);
 4934              		.loc 1 1798 30 is_stmt 0 view .LVU1356
 4935 0136 009B     		ldr	r3, [sp]
 4936 0138 0222     		movs	r2, #2
 4937 013a 1146     		mov	r1, r2
 4938 013c 04F5CC70 		add	r0, r4, #408
 4939 0140 FFF7FEFF 		bl	GetAvgStats
 4940              	.LVL473:
 4941 0144 8046     		mov	r8, r0
1798:../Drivers/ISP/isp/Src/isp_services.c ****     IQParamConfig = ISP_SVC_IQParam_Get(hIsp);
 4942              		.loc 1 1798 28 discriminator 1 view .LVU1357
 4943 0146 84F8CA00 		strb	r0, [r4, #202]
1799:../Drivers/ISP/isp/Src/isp_services.c ****     if ((hIsp->sensorInfo.bayer_pattern == ISP_DEMOS_TYPE_MONO) || (!IQParamConfig->demosaicing.ena
 4944              		.loc 1 1799 5 is_stmt 1 view .LVU1358
1799:../Drivers/ISP/isp/Src/isp_services.c ****     if ((hIsp->sensorInfo.bayer_pattern == ISP_DEMOS_TYPE_MONO) || (!IQParamConfig->demosaicing.ena
 4945              		.loc 1 1799 21 is_stmt 0 view .LVU1359
 4946 014a 2846     		mov	r0, r5
 4947 014c FFF7FEFF 		bl	ISP_SVC_IQParam_Get
 4948              	.LVL474:
1800:../Drivers/ISP/isp/Src/isp_services.c ****     {
 4949              		.loc 1 1800 5 is_stmt 1 view .LVU1360
1800:../Drivers/ISP/isp/Src/isp_services.c ****     {
 4950              		.loc 1 1800 26 is_stmt 0 view .LVU1361
 4951 0150 95F87030 		ldrb	r3, [r5, #112]	@ zero_extendqisi2
1800:../Drivers/ISP/isp/Src/isp_services.c ****     {
 4952              		.loc 1 1800 8 view .LVU1362
 4953 0154 042B     		cmp	r3, #4
 4954 0156 01D0     		beq	.L473
1800:../Drivers/ISP/isp/Src/isp_services.c ****     {
 4955              		.loc 1 1800 96 discriminator 1 view .LVU1363
 4956 0158 037B     		ldrb	r3, [r0, #12]	@ zero_extendqisi2
1800:../Drivers/ISP/isp/Src/isp_services.c ****     {
 4957              		.loc 1 1800 65 discriminator 1 view .LVU1364
 4958 015a 6BB9     		cbnz	r3, .L474
 4959              	.L473:
1802:../Drivers/ISP/isp/Src/isp_services.c ****     }
 4960              		.loc 1 1802 7 is_stmt 1 view .LVU1365
1802:../Drivers/ISP/isp/Src/isp_services.c ****     }
 4961              		.loc 1 1802 32 is_stmt 0 view .LVU1366
 4962 015c 4246     		mov	r2, r8
 4963 015e 3946     		mov	r1, r7
 4964 0160 3046     		mov	r0, r6
 4965              	.LVL475:
1802:../Drivers/ISP/isp/Src/isp_services.c ****     }
 4966              		.loc 1 1802 32 view .LVU1367
 4967 0162 FFF7FEFF 		bl	LuminanceFromRGBMono
 4968              	.LVL476:
1802:../Drivers/ISP/isp/Src/isp_services.c ****     }
ARM GAS  /tmp/ccAu1Zkx.s 			page 128


 4969              		.loc 1 1802 30 discriminator 1 view .LVU1368
 4970 0166 5E4B     		ldr	r3, .L517+12
 4971 0168 83F8CB00 		strb	r0, [r3, #203]
 4972              	.L475:
1808:../Drivers/ISP/isp/Src/isp_services.c ****     break;
 4973              		.loc 1 1808 5 is_stmt 1 view .LVU1369
1808:../Drivers/ISP/isp/Src/isp_services.c ****     break;
 4974              		.loc 1 1808 34 is_stmt 0 view .LVU1370
 4975 016c 5C4B     		ldr	r3, .L517+12
 4976 016e 93F8CB20 		ldrb	r2, [r3, #203]	@ zero_extendqisi2
1808:../Drivers/ISP/isp/Src/isp_services.c ****     break;
 4977              		.loc 1 1808 19 view .LVU1371
 4978 0172 614B     		ldr	r3, .L517+36
 4979 0174 5A70     		strb	r2, [r3, #1]
1809:../Drivers/ISP/isp/Src/isp_services.c ****   case ISP_STAT_CFG_DOWN_BINS_0_2:
 4980              		.loc 1 1809 5 is_stmt 1 view .LVU1372
 4981 0176 92E7     		b	.L461
 4982              	.LVL477:
 4983              	.L474:
1806:../Drivers/ISP/isp/Src/isp_services.c ****     }
 4984              		.loc 1 1806 7 view .LVU1373
1806:../Drivers/ISP/isp/Src/isp_services.c ****     }
 4985              		.loc 1 1806 32 is_stmt 0 view .LVU1374
 4986 0178 4246     		mov	r2, r8
 4987 017a 3946     		mov	r1, r7
 4988 017c 3046     		mov	r0, r6
 4989              	.LVL478:
1806:../Drivers/ISP/isp/Src/isp_services.c ****     }
 4990              		.loc 1 1806 32 view .LVU1375
 4991 017e FFF7FEFF 		bl	LuminanceFromRGB
 4992              	.LVL479:
1806:../Drivers/ISP/isp/Src/isp_services.c ****     }
 4993              		.loc 1 1806 30 discriminator 1 view .LVU1376
 4994 0182 574B     		ldr	r3, .L517+12
 4995 0184 83F8CB00 		strb	r0, [r3, #203]
 4996 0188 F0E7     		b	.L475
 4997              	.LVL480:
 4998              	.L466:
1811:../Drivers/ISP/isp/Src/isp_services.c ****     break;
 4999              		.loc 1 1811 5 is_stmt 1 view .LVU1377
 5000 018a 5C49     		ldr	r1, .L517+40
 5001 018c 2846     		mov	r0, r5
 5002 018e FFF7FEFF 		bl	ReadStatHistogram
 5003              	.LVL481:
1812:../Drivers/ISP/isp/Src/isp_services.c **** 
 5004              		.loc 1 1812 5 view .LVU1378
 5005 0192 84E7     		b	.L461
 5006              	.L465:
1815:../Drivers/ISP/isp/Src/isp_services.c ****     break;
 5007              		.loc 1 1815 5 view .LVU1379
 5008 0194 5A49     		ldr	r1, .L517+44
 5009 0196 2846     		mov	r0, r5
 5010 0198 FFF7FEFF 		bl	ReadStatHistogram
 5011              	.LVL482:
1816:../Drivers/ISP/isp/Src/isp_services.c **** 
 5012              		.loc 1 1816 5 view .LVU1380
 5013 019c 7FE7     		b	.L461
ARM GAS  /tmp/ccAu1Zkx.s 			page 129


 5014              	.L464:
1819:../Drivers/ISP/isp/Src/isp_services.c ****     break;
 5015              		.loc 1 1819 5 view .LVU1381
 5016 019e 5949     		ldr	r1, .L517+48
 5017 01a0 2846     		mov	r0, r5
 5018 01a2 FFF7FEFF 		bl	ReadStatHistogram
 5019              	.LVL483:
1820:../Drivers/ISP/isp/Src/isp_services.c **** 
 5020              		.loc 1 1820 5 view .LVU1382
 5021 01a6 7AE7     		b	.L461
 5022              	.L462:
1823:../Drivers/ISP/isp/Src/isp_services.c ****     break;
 5023              		.loc 1 1823 5 view .LVU1383
 5024 01a8 5749     		ldr	r1, .L517+52
 5025 01aa 2846     		mov	r0, r5
 5026 01ac FFF7FEFF 		bl	ReadStatHistogram
 5027              	.LVL484:
1824:../Drivers/ISP/isp/Src/isp_services.c **** 
 5028              		.loc 1 1824 5 view .LVU1384
 5029 01b0 75E7     		b	.L461
 5030              	.L487:
 5031              	.LVL485:
1837:../Drivers/ISP/isp/Src/isp_services.c ****   {
1838:../Drivers/ISP/isp/Src/isp_services.c ****   case ISP_STAT_CFG_UP_AVG:
1839:../Drivers/ISP/isp/Src/isp_services.c ****     for (i = 0; i < 3; i++)
 5032              		.loc 1 1839 19 discriminator 2 view .LVU1385
 5033 01b2 022B     		cmp	r3, #2
 5034 01b4 16D8     		bhi	.L508
1840:../Drivers/ISP/isp/Src/isp_services.c ****     {
1841:../Drivers/ISP/isp/Src/isp_services.c ****       statConf[i].Mode = DCMIPP_STAT_EXT_MODE_AVERAGE;
 5035              		.loc 1 1841 7 view .LVU1386
 5036              		.loc 1 1841 24 is_stmt 0 view .LVU1387
 5037 01b6 03EB4302 		add	r2, r3, r3, lsl #1
 5038 01ba 0CA9     		add	r1, sp, #48
 5039 01bc 01EB8202 		add	r2, r1, r2, lsl #2
 5040 01c0 0021     		movs	r1, #0
 5041 01c2 42F8241C 		str	r1, [r2, #-36]
1842:../Drivers/ISP/isp/Src/isp_services.c ****       statConf[i].Source = avgRGBUp[i];
 5042              		.loc 1 1842 7 is_stmt 1 view .LVU1388
 5043              		.loc 1 1842 36 is_stmt 0 view .LVU1389
 5044 01c6 5148     		ldr	r0, .L517+56
 5045 01c8 50F82300 		ldr	r0, [r0, r3, lsl #2]
 5046              		.loc 1 1842 26 view .LVU1390
 5047 01cc 42F8200C 		str	r0, [r2, #-32]
1843:../Drivers/ISP/isp/Src/isp_services.c ****       statConf[i].Bins = DCMIPP_STAT_EXT_AVER_MODE_ALL_PIXELS;
 5048              		.loc 1 1843 7 is_stmt 1 view .LVU1391
 5049              		.loc 1 1843 24 is_stmt 0 view .LVU1392
 5050 01d0 03EB4302 		add	r2, r3, r3, lsl #1
 5051 01d4 0CA8     		add	r0, sp, #48
 5052 01d6 00EB8202 		add	r2, r0, r2, lsl #2
 5053 01da 42F81C1C 		str	r1, [r2, #-28]
1839:../Drivers/ISP/isp/Src/isp_services.c ****     {
 5054              		.loc 1 1839 25 is_stmt 1 discriminator 1 view .LVU1393
 5055 01de 0133     		adds	r3, r3, #1
 5056              	.LVL486:
1839:../Drivers/ISP/isp/Src/isp_services.c ****     {
 5057              		.loc 1 1839 25 is_stmt 0 discriminator 1 view .LVU1394
ARM GAS  /tmp/ccAu1Zkx.s 			page 130


 5058 01e0 DBB2     		uxtb	r3, r3
 5059              	.LVL487:
1839:../Drivers/ISP/isp/Src/isp_services.c ****     {
 5060              		.loc 1 1839 25 discriminator 1 view .LVU1395
 5061 01e2 E6E7     		b	.L487
 5062              	.LVL488:
 5063              	.L508:
1844:../Drivers/ISP/isp/Src/isp_services.c ****     }
1845:../Drivers/ISP/isp/Src/isp_services.c **** 
1846:../Drivers/ISP/isp/Src/isp_services.c ****     if (ISP_SVC_ISP_GetStatArea(hIsp, &ISP_SVC_StatEngine.upStatArea) != ISP_OK)
 5064              		.loc 1 1846 5 is_stmt 1 view .LVU1396
 5065              		.loc 1 1846 9 is_stmt 0 view .LVU1397
 5066 01e4 3D49     		ldr	r1, .L517+8
 5067 01e6 2846     		mov	r0, r5
 5068 01e8 FFF7FEFF 		bl	ISP_SVC_ISP_GetStatArea
 5069              	.LVL489:
 5070              		.loc 1 1846 8 discriminator 1 view .LVU1398
 5071 01ec 38B1     		cbz	r0, .L476
1847:../Drivers/ISP/isp/Src/isp_services.c ****     {
1848:../Drivers/ISP/isp/Src/isp_services.c ****       printf("ERROR: can't get UP Stat Area\r\n");
 5072              		.loc 1 1848 7 is_stmt 1 view .LVU1399
 5073 01ee 4848     		ldr	r0, .L517+60
 5074 01f0 FFF7FEFF 		bl	puts
 5075              	.LVL490:
1849:../Drivers/ISP/isp/Src/isp_services.c ****       return;
 5076              		.loc 1 1849 7 view .LVU1400
 5077 01f4 F6E0     		b	.L458
 5078              	.LVL491:
 5079              	.L486:
1850:../Drivers/ISP/isp/Src/isp_services.c ****     }
1851:../Drivers/ISP/isp/Src/isp_services.c ****     break;
1852:../Drivers/ISP/isp/Src/isp_services.c **** 
1853:../Drivers/ISP/isp/Src/isp_services.c ****   case ISP_STAT_CFG_UP_BINS_0_2:
1854:../Drivers/ISP/isp/Src/isp_services.c ****     SetStatConfig(statConf, &statConfUpBins_0_2);
 5080              		.loc 1 1854 5 view .LVU1401
 5081 01f6 4749     		ldr	r1, .L517+64
 5082 01f8 03A8     		add	r0, sp, #12
 5083 01fa FFF7FEFF 		bl	SetStatConfig
 5084              	.LVL492:
1855:../Drivers/ISP/isp/Src/isp_services.c ****     break;
 5085              		.loc 1 1855 5 view .LVU1402
 5086              	.L476:
1856:../Drivers/ISP/isp/Src/isp_services.c **** 
1857:../Drivers/ISP/isp/Src/isp_services.c ****   case ISP_STAT_CFG_UP_BINS_3_5:
1858:../Drivers/ISP/isp/Src/isp_services.c ****     SetStatConfig(statConf, &statConfUpBins_3_5);
1859:../Drivers/ISP/isp/Src/isp_services.c ****     break;
1860:../Drivers/ISP/isp/Src/isp_services.c **** 
1861:../Drivers/ISP/isp/Src/isp_services.c ****   case ISP_STAT_CFG_UP_BINS_6_8:
1862:../Drivers/ISP/isp/Src/isp_services.c ****     SetStatConfig(statConf, &statConfUpBins_6_8);
1863:../Drivers/ISP/isp/Src/isp_services.c ****     break;
1864:../Drivers/ISP/isp/Src/isp_services.c **** 
1865:../Drivers/ISP/isp/Src/isp_services.c ****   case ISP_STAT_CFG_UP_BINS_9_11:
1866:../Drivers/ISP/isp/Src/isp_services.c ****     SetStatConfig(statConf, &statConfUpBins_9_11);
1867:../Drivers/ISP/isp/Src/isp_services.c ****     break;
1868:../Drivers/ISP/isp/Src/isp_services.c **** 
1869:../Drivers/ISP/isp/Src/isp_services.c ****   case ISP_STAT_CFG_DOWN_AVG:
1870:../Drivers/ISP/isp/Src/isp_services.c ****     for (i = 0; i < 3; i++)
ARM GAS  /tmp/ccAu1Zkx.s 			page 131


1871:../Drivers/ISP/isp/Src/isp_services.c ****     {
1872:../Drivers/ISP/isp/Src/isp_services.c ****       statConf[i].Mode = DCMIPP_STAT_EXT_MODE_AVERAGE;
1873:../Drivers/ISP/isp/Src/isp_services.c ****       statConf[i].Source = avgRGBDown[i];
1874:../Drivers/ISP/isp/Src/isp_services.c ****       statConf[i].Bins = DCMIPP_STAT_EXT_AVER_MODE_ALL_PIXELS;
1875:../Drivers/ISP/isp/Src/isp_services.c ****     }
1876:../Drivers/ISP/isp/Src/isp_services.c **** 
1877:../Drivers/ISP/isp/Src/isp_services.c ****     if (ISP_SVC_ISP_GetStatArea(hIsp, &ISP_SVC_StatEngine.downStatArea) != ISP_OK)
1878:../Drivers/ISP/isp/Src/isp_services.c ****     {
1879:../Drivers/ISP/isp/Src/isp_services.c ****       printf("ERROR: can't get DOWN Stat Area\r\n");
1880:../Drivers/ISP/isp/Src/isp_services.c ****       return;
1881:../Drivers/ISP/isp/Src/isp_services.c ****     }
1882:../Drivers/ISP/isp/Src/isp_services.c ****     break;
1883:../Drivers/ISP/isp/Src/isp_services.c **** 
1884:../Drivers/ISP/isp/Src/isp_services.c ****   case ISP_STAT_CFG_DOWN_BINS_0_2:
1885:../Drivers/ISP/isp/Src/isp_services.c ****     SetStatConfig(statConf, &statConfDownBins_0_2);
1886:../Drivers/ISP/isp/Src/isp_services.c ****     break;
1887:../Drivers/ISP/isp/Src/isp_services.c **** 
1888:../Drivers/ISP/isp/Src/isp_services.c ****   case ISP_STAT_CFG_DOWN_BINS_3_5:
1889:../Drivers/ISP/isp/Src/isp_services.c ****     SetStatConfig(statConf, &statConfDownBins_3_5);
1890:../Drivers/ISP/isp/Src/isp_services.c ****     break;
1891:../Drivers/ISP/isp/Src/isp_services.c **** 
1892:../Drivers/ISP/isp/Src/isp_services.c ****   case ISP_STAT_CFG_DOWN_BINS_6_8:
1893:../Drivers/ISP/isp/Src/isp_services.c ****     SetStatConfig(statConf, &statConfDownBins_6_8);
1894:../Drivers/ISP/isp/Src/isp_services.c ****     break;
1895:../Drivers/ISP/isp/Src/isp_services.c **** 
1896:../Drivers/ISP/isp/Src/isp_services.c ****   case ISP_STAT_CFG_DOWN_BINS_9_11:
1897:../Drivers/ISP/isp/Src/isp_services.c ****     SetStatConfig(statConf, &statConfDownBins_9_11);
1898:../Drivers/ISP/isp/Src/isp_services.c ****     break;
1899:../Drivers/ISP/isp/Src/isp_services.c **** 
1900:../Drivers/ISP/isp/Src/isp_services.c ****   case ISP_STAT_CFG_CYCLE_SIZE:
1901:../Drivers/ISP/isp/Src/isp_services.c ****     /* Shall not happen, just add this case to silencet a Wswitch-enum warning */
1902:../Drivers/ISP/isp/Src/isp_services.c ****     break;
1903:../Drivers/ISP/isp/Src/isp_services.c **** 
1904:../Drivers/ISP/isp/Src/isp_services.c ****   default:
1905:../Drivers/ISP/isp/Src/isp_services.c ****     /* Configure Unchanged */
1906:../Drivers/ISP/isp/Src/isp_services.c ****     break;
1907:../Drivers/ISP/isp/Src/isp_services.c ****   }
1908:../Drivers/ISP/isp/Src/isp_services.c **** 
1909:../Drivers/ISP/isp/Src/isp_services.c ****   /* Apply configuration (for an output result available 2 VSYNC later) */
1910:../Drivers/ISP/isp/Src/isp_services.c ****   for (i = DCMIPP_STATEXT_MODULE1; i <= DCMIPP_STATEXT_MODULE3; i++)
 5087              		.loc 1 1910 3 view .LVU1403
 5088              		.loc 1 1910 10 is_stmt 0 view .LVU1404
 5089 01fe 0124     		movs	r4, #1
 5090              	.LVL493:
 5091              	.L490:
 5092              		.loc 1 1910 38 is_stmt 1 discriminator 2 view .LVU1405
 5093 0200 032C     		cmp	r4, #3
 5094 0202 00F29F80 		bhi	.L509
1911:../Drivers/ISP/isp/Src/isp_services.c ****   {
1912:../Drivers/ISP/isp/Src/isp_services.c ****     if (HAL_DCMIPP_PIPE_SetISPStatisticExtractionConfig(hIsp->hDcmipp, DCMIPP_PIPE1, i, &statConf[i
 5095              		.loc 1 1912 5 view .LVU1406
 5096              		.loc 1 1912 101 is_stmt 0 view .LVU1407
 5097 0206 631E     		subs	r3, r4, #1
 5098              		.loc 1 1912 89 view .LVU1408
 5099 0208 03EB4303 		add	r3, r3, r3, lsl #1
 5100              		.loc 1 1912 9 view .LVU1409
 5101 020c 03AA     		add	r2, sp, #12
ARM GAS  /tmp/ccAu1Zkx.s 			page 132


 5102 020e 02EB8303 		add	r3, r2, r3, lsl #2
 5103 0212 2246     		mov	r2, r4
 5104 0214 0121     		movs	r1, #1
 5105 0216 2868     		ldr	r0, [r5]
 5106 0218 FFF7FEFF 		bl	HAL_DCMIPP_PIPE_SetISPStatisticExtractionConfig
 5107              	.LVL494:
 5108              		.loc 1 1912 8 discriminator 1 view .LVU1410
 5109 021c 0028     		cmp	r0, #0
 5110 021e 50D1     		bne	.L510
1913:../Drivers/ISP/isp/Src/isp_services.c ****     {
1914:../Drivers/ISP/isp/Src/isp_services.c ****       printf("ERROR: can't set Statistic Extraction config\r\n");
1915:../Drivers/ISP/isp/Src/isp_services.c ****       return;
1916:../Drivers/ISP/isp/Src/isp_services.c ****     }
1917:../Drivers/ISP/isp/Src/isp_services.c **** 
1918:../Drivers/ISP/isp/Src/isp_services.c ****     if (HAL_DCMIPP_PIPE_EnableISPStatisticExtraction(hIsp->hDcmipp, DCMIPP_PIPE1, i) != HAL_OK)
 5111              		.loc 1 1918 5 is_stmt 1 view .LVU1411
 5112              		.loc 1 1918 9 is_stmt 0 view .LVU1412
 5113 0220 2246     		mov	r2, r4
 5114 0222 0121     		movs	r1, #1
 5115 0224 2868     		ldr	r0, [r5]
 5116 0226 FFF7FEFF 		bl	HAL_DCMIPP_PIPE_EnableISPStatisticExtraction
 5117              	.LVL495:
 5118              		.loc 1 1918 8 discriminator 1 view .LVU1413
 5119 022a 0028     		cmp	r0, #0
 5120 022c 4DD1     		bne	.L511
1910:../Drivers/ISP/isp/Src/isp_services.c ****   {
 5121              		.loc 1 1910 66 is_stmt 1 discriminator 1 view .LVU1414
 5122 022e 0134     		adds	r4, r4, #1
 5123              	.LVL496:
1910:../Drivers/ISP/isp/Src/isp_services.c ****   {
 5124              		.loc 1 1910 66 is_stmt 0 discriminator 1 view .LVU1415
 5125 0230 E4B2     		uxtb	r4, r4
 5126              	.LVL497:
1910:../Drivers/ISP/isp/Src/isp_services.c ****   {
 5127              		.loc 1 1910 66 discriminator 1 view .LVU1416
 5128 0232 E5E7     		b	.L490
 5129              	.LVL498:
 5130              	.L485:
1858:../Drivers/ISP/isp/Src/isp_services.c ****     break;
 5131              		.loc 1 1858 5 is_stmt 1 view .LVU1417
 5132 0234 3849     		ldr	r1, .L517+68
 5133 0236 03A8     		add	r0, sp, #12
 5134 0238 FFF7FEFF 		bl	SetStatConfig
 5135              	.LVL499:
1859:../Drivers/ISP/isp/Src/isp_services.c **** 
 5136              		.loc 1 1859 5 view .LVU1418
 5137 023c DFE7     		b	.L476
 5138              	.L484:
1862:../Drivers/ISP/isp/Src/isp_services.c ****     break;
 5139              		.loc 1 1862 5 view .LVU1419
 5140 023e 3749     		ldr	r1, .L517+72
 5141 0240 03A8     		add	r0, sp, #12
 5142 0242 FFF7FEFF 		bl	SetStatConfig
 5143              	.LVL500:
1863:../Drivers/ISP/isp/Src/isp_services.c **** 
 5144              		.loc 1 1863 5 view .LVU1420
 5145 0246 DAE7     		b	.L476
ARM GAS  /tmp/ccAu1Zkx.s 			page 133


 5146              	.L483:
1866:../Drivers/ISP/isp/Src/isp_services.c ****     break;
 5147              		.loc 1 1866 5 view .LVU1421
 5148 0248 3549     		ldr	r1, .L517+76
 5149 024a 03A8     		add	r0, sp, #12
 5150 024c FFF7FEFF 		bl	SetStatConfig
 5151              	.LVL501:
1867:../Drivers/ISP/isp/Src/isp_services.c **** 
 5152              		.loc 1 1867 5 view .LVU1422
 5153 0250 D5E7     		b	.L476
 5154              	.L502:
1836:../Drivers/ISP/isp/Src/isp_services.c ****   {
 5155              		.loc 1 1836 3 is_stmt 0 view .LVU1423
 5156 0252 0023     		movs	r3, #0
 5157              	.L482:
 5158              	.LVL502:
1870:../Drivers/ISP/isp/Src/isp_services.c ****     {
 5159              		.loc 1 1870 19 is_stmt 1 discriminator 2 view .LVU1424
 5160 0254 022B     		cmp	r3, #2
 5161 0256 16D8     		bhi	.L512
1872:../Drivers/ISP/isp/Src/isp_services.c ****       statConf[i].Source = avgRGBDown[i];
 5162              		.loc 1 1872 7 view .LVU1425
1872:../Drivers/ISP/isp/Src/isp_services.c ****       statConf[i].Source = avgRGBDown[i];
 5163              		.loc 1 1872 24 is_stmt 0 view .LVU1426
 5164 0258 03EB4302 		add	r2, r3, r3, lsl #1
 5165 025c 0CA9     		add	r1, sp, #48
 5166 025e 01EB8202 		add	r2, r1, r2, lsl #2
 5167 0262 0021     		movs	r1, #0
 5168 0264 42F8241C 		str	r1, [r2, #-36]
1873:../Drivers/ISP/isp/Src/isp_services.c ****       statConf[i].Bins = DCMIPP_STAT_EXT_AVER_MODE_ALL_PIXELS;
 5169              		.loc 1 1873 7 is_stmt 1 view .LVU1427
1873:../Drivers/ISP/isp/Src/isp_services.c ****       statConf[i].Bins = DCMIPP_STAT_EXT_AVER_MODE_ALL_PIXELS;
 5170              		.loc 1 1873 38 is_stmt 0 view .LVU1428
 5171 0268 2E48     		ldr	r0, .L517+80
 5172 026a 50F82300 		ldr	r0, [r0, r3, lsl #2]
1873:../Drivers/ISP/isp/Src/isp_services.c ****       statConf[i].Bins = DCMIPP_STAT_EXT_AVER_MODE_ALL_PIXELS;
 5173              		.loc 1 1873 26 view .LVU1429
 5174 026e 42F8200C 		str	r0, [r2, #-32]
1874:../Drivers/ISP/isp/Src/isp_services.c ****     }
 5175              		.loc 1 1874 7 is_stmt 1 view .LVU1430
1874:../Drivers/ISP/isp/Src/isp_services.c ****     }
 5176              		.loc 1 1874 24 is_stmt 0 view .LVU1431
 5177 0272 03EB4302 		add	r2, r3, r3, lsl #1
 5178 0276 0CA8     		add	r0, sp, #48
 5179 0278 00EB8202 		add	r2, r0, r2, lsl #2
 5180 027c 42F81C1C 		str	r1, [r2, #-28]
1870:../Drivers/ISP/isp/Src/isp_services.c ****     {
 5181              		.loc 1 1870 25 is_stmt 1 discriminator 1 view .LVU1432
 5182 0280 0133     		adds	r3, r3, #1
 5183              	.LVL503:
1870:../Drivers/ISP/isp/Src/isp_services.c ****     {
 5184              		.loc 1 1870 25 is_stmt 0 discriminator 1 view .LVU1433
 5185 0282 DBB2     		uxtb	r3, r3
 5186              	.LVL504:
1870:../Drivers/ISP/isp/Src/isp_services.c ****     {
 5187              		.loc 1 1870 25 discriminator 1 view .LVU1434
 5188 0284 E6E7     		b	.L482
ARM GAS  /tmp/ccAu1Zkx.s 			page 134


 5189              	.L512:
1877:../Drivers/ISP/isp/Src/isp_services.c ****     {
 5190              		.loc 1 1877 5 is_stmt 1 view .LVU1435
1877:../Drivers/ISP/isp/Src/isp_services.c ****     {
 5191              		.loc 1 1877 9 is_stmt 0 view .LVU1436
 5192 0286 1B49     		ldr	r1, .L517+32
 5193 0288 2846     		mov	r0, r5
 5194 028a FFF7FEFF 		bl	ISP_SVC_ISP_GetStatArea
 5195              	.LVL505:
1877:../Drivers/ISP/isp/Src/isp_services.c ****     {
 5196              		.loc 1 1877 8 discriminator 1 view .LVU1437
 5197 028e 0028     		cmp	r0, #0
 5198 0290 B5D0     		beq	.L476
1879:../Drivers/ISP/isp/Src/isp_services.c ****       return;
 5199              		.loc 1 1879 7 is_stmt 1 view .LVU1438
 5200 0292 2548     		ldr	r0, .L517+84
 5201 0294 FFF7FEFF 		bl	puts
 5202              	.LVL506:
1880:../Drivers/ISP/isp/Src/isp_services.c ****     }
 5203              		.loc 1 1880 7 view .LVU1439
 5204 0298 A4E0     		b	.L458
 5205              	.LVL507:
 5206              	.L481:
1885:../Drivers/ISP/isp/Src/isp_services.c ****     break;
 5207              		.loc 1 1885 5 view .LVU1440
 5208 029a 2449     		ldr	r1, .L517+88
 5209 029c 03A8     		add	r0, sp, #12
 5210 029e FFF7FEFF 		bl	SetStatConfig
 5211              	.LVL508:
1886:../Drivers/ISP/isp/Src/isp_services.c **** 
 5212              		.loc 1 1886 5 view .LVU1441
 5213 02a2 ACE7     		b	.L476
 5214              	.L480:
1889:../Drivers/ISP/isp/Src/isp_services.c ****     break;
 5215              		.loc 1 1889 5 view .LVU1442
 5216 02a4 2249     		ldr	r1, .L517+92
 5217 02a6 03A8     		add	r0, sp, #12
 5218 02a8 FFF7FEFF 		bl	SetStatConfig
 5219              	.LVL509:
1890:../Drivers/ISP/isp/Src/isp_services.c **** 
 5220              		.loc 1 1890 5 view .LVU1443
 5221 02ac A7E7     		b	.L476
 5222              	.L479:
1893:../Drivers/ISP/isp/Src/isp_services.c ****     break;
 5223              		.loc 1 1893 5 view .LVU1444
 5224 02ae 2149     		ldr	r1, .L517+96
 5225 02b0 03A8     		add	r0, sp, #12
 5226 02b2 FFF7FEFF 		bl	SetStatConfig
 5227              	.LVL510:
1894:../Drivers/ISP/isp/Src/isp_services.c **** 
 5228              		.loc 1 1894 5 view .LVU1445
 5229 02b6 A2E7     		b	.L476
 5230              	.L477:
1897:../Drivers/ISP/isp/Src/isp_services.c ****     break;
 5231              		.loc 1 1897 5 view .LVU1446
 5232 02b8 1F49     		ldr	r1, .L517+100
 5233 02ba 03A8     		add	r0, sp, #12
ARM GAS  /tmp/ccAu1Zkx.s 			page 135


 5234 02bc FFF7FEFF 		bl	SetStatConfig
 5235              	.LVL511:
1898:../Drivers/ISP/isp/Src/isp_services.c **** 
 5236              		.loc 1 1898 5 view .LVU1447
 5237 02c0 9DE7     		b	.L476
 5238              	.LVL512:
 5239              	.L510:
1914:../Drivers/ISP/isp/Src/isp_services.c ****       return;
 5240              		.loc 1 1914 7 view .LVU1448
 5241 02c2 1E48     		ldr	r0, .L517+104
 5242 02c4 FFF7FEFF 		bl	puts
 5243              	.LVL513:
1915:../Drivers/ISP/isp/Src/isp_services.c ****     }
 5244              		.loc 1 1915 7 view .LVU1449
 5245 02c8 8CE0     		b	.L458
 5246              	.L511:
1919:../Drivers/ISP/isp/Src/isp_services.c ****     {
1920:../Drivers/ISP/isp/Src/isp_services.c ****       printf("ERROR: can't enable Statistic Extraction config\r\n");
 5247              		.loc 1 1920 7 view .LVU1450
 5248 02ca 1D48     		ldr	r0, .L517+108
 5249 02cc FFF7FEFF 		bl	puts
 5250              	.LVL514:
1921:../Drivers/ISP/isp/Src/isp_services.c ****       return;
 5251              		.loc 1 1921 7 view .LVU1451
 5252 02d0 88E0     		b	.L458
 5253              	.L518:
 5254 02d2 00BF     		.align	2
 5255              	.L517:
 5256 02d4 00000000 		.word	stagePrevious2.1
 5257 02d8 00000000 		.word	.LC0
 5258 02dc 88010000 		.word	ISP_SVC_StatEngine+392
 5259 02e0 00000000 		.word	ISP_SVC_StatEngine
 5260 02e4 94000000 		.word	ISP_SVC_StatEngine+148
 5261 02e8 A0000000 		.word	ISP_SVC_StatEngine+160
 5262 02ec AC000000 		.word	ISP_SVC_StatEngine+172
 5263 02f0 B8000000 		.word	ISP_SVC_StatEngine+184
 5264 02f4 98010000 		.word	ISP_SVC_StatEngine+408
 5265 02f8 00000000 		.word	Meta
 5266 02fc CC000000 		.word	ISP_SVC_StatEngine+204
 5267 0300 D8000000 		.word	ISP_SVC_StatEngine+216
 5268 0304 E4000000 		.word	ISP_SVC_StatEngine+228
 5269 0308 F0000000 		.word	ISP_SVC_StatEngine+240
 5270 030c 00000000 		.word	avgRGBUp
 5271 0310 1C000000 		.word	.LC1
 5272 0314 00000000 		.word	statConfUpBins_0_2
 5273 0318 00000000 		.word	statConfUpBins_3_5
 5274 031c 00000000 		.word	statConfUpBins_6_8
 5275 0320 00000000 		.word	statConfUpBins_9_11
 5276 0324 00000000 		.word	avgRGBDown
 5277 0328 3C000000 		.word	.LC2
 5278 032c 00000000 		.word	statConfDownBins_0_2
 5279 0330 00000000 		.word	statConfDownBins_3_5
 5280 0334 00000000 		.word	statConfDownBins_6_8
 5281 0338 00000000 		.word	statConfDownBins_9_11
 5282 033c 60000000 		.word	.LC3
 5283 0340 90000000 		.word	.LC4
 5284              	.L509:
ARM GAS  /tmp/ccAu1Zkx.s 			page 136


1922:../Drivers/ISP/isp/Src/isp_services.c ****     }
1923:../Drivers/ISP/isp/Src/isp_services.c ****   }
1924:../Drivers/ISP/isp/Src/isp_services.c **** 
1925:../Drivers/ISP/isp/Src/isp_services.c ****   /* Cycle start / end */
1926:../Drivers/ISP/isp/Src/isp_services.c ****   frameId = ISP_SVC_Misc_GetMainFrameId(hIsp);
 5285              		.loc 1 1926 3 view .LVU1452
 5286              		.loc 1 1926 13 is_stmt 0 view .LVU1453
 5287 0344 2846     		mov	r0, r5
 5288 0346 FFF7FEFF 		bl	ISP_SVC_Misc_GetMainFrameId
 5289              	.LVL515:
 5290 034a 0446     		mov	r4, r0
 5291              	.LVL516:
1927:../Drivers/ISP/isp/Src/isp_services.c **** 
1928:../Drivers/ISP/isp/Src/isp_services.c ****   if (hIsp->appliHelpers.GetExternalStatistics != NULL)
 5292              		.loc 1 1928 3 is_stmt 1 view .LVU1454
 5293              		.loc 1 1928 25 is_stmt 0 view .LVU1455
 5294 034c 2B6C     		ldr	r3, [r5, #64]
 5295              		.loc 1 1928 6 view .LVU1456
 5296 034e 6BB1     		cbz	r3, .L494
1929:../Drivers/ISP/isp/Src/isp_services.c ****   {
1930:../Drivers/ISP/isp/Src/isp_services.c ****     ISP_SVC_StatEngine.last.extFrameId = frameId;
 5297              		.loc 1 1930 5 is_stmt 1 view .LVU1457
 5298              		.loc 1 1930 40 is_stmt 0 view .LVU1458
 5299 0350 5249     		ldr	r1, .L519
 5300 0352 C1F88C00 		str	r0, [r1, #140]
1931:../Drivers/ISP/isp/Src/isp_services.c ****     if (hIsp->appliHelpers.GetExternalStatistics(hIsp->cameraInstance, &ISP_SVC_StatEngine.last.ext
 5301              		.loc 1 1931 5 is_stmt 1 view .LVU1459
 5302              		.loc 1 1931 27 is_stmt 0 view .LVU1460
 5303 0356 2B6C     		ldr	r3, [r5, #64]
 5304              		.loc 1 1931 9 view .LVU1461
 5305 0358 8431     		adds	r1, r1, #132
 5306 035a 6868     		ldr	r0, [r5, #4]
 5307              	.LVL517:
 5308              		.loc 1 1931 9 view .LVU1462
 5309 035c 9847     		blx	r3
 5310              	.LVL518:
 5311              		.loc 1 1931 8 discriminator 1 view .LVU1463
 5312 035e 28B1     		cbz	r0, .L494
1932:../Drivers/ISP/isp/Src/isp_services.c ****     {
1933:../Drivers/ISP/isp/Src/isp_services.c ****       ISP_SVC_StatEngine.last.extStats.nbAreas = 0;
 5313              		.loc 1 1933 7 is_stmt 1 view .LVU1464
 5314              		.loc 1 1933 48 is_stmt 0 view .LVU1465
 5315 0360 4E4B     		ldr	r3, .L519
 5316 0362 0022     		movs	r2, #0
 5317 0364 83F88420 		strb	r2, [r3, #132]
1934:../Drivers/ISP/isp/Src/isp_services.c ****       ISP_SVC_StatEngine.last.extStats.stats = NULL;
 5318              		.loc 1 1934 7 is_stmt 1 view .LVU1466
 5319              		.loc 1 1934 46 is_stmt 0 view .LVU1467
 5320 0368 C3F88820 		str	r2, [r3, #136]
 5321              	.L494:
1935:../Drivers/ISP/isp/Src/isp_services.c ****     }
1936:../Drivers/ISP/isp/Src/isp_services.c ****   }
1937:../Drivers/ISP/isp/Src/isp_services.c **** 
1938:../Drivers/ISP/isp/Src/isp_services.c ****   if (stagePrevious2 == GetStatCycleStart(ISP_STAT_LOC_UP))
 5322              		.loc 1 1938 3 is_stmt 1 view .LVU1468
 5323              		.loc 1 1938 25 is_stmt 0 view .LVU1469
 5324 036c 0120     		movs	r0, #1
ARM GAS  /tmp/ccAu1Zkx.s 			page 137


 5325 036e FFF7FEFF 		bl	GetStatCycleStart
 5326              	.LVL519:
 5327              		.loc 1 1938 22 discriminator 1 view .LVU1470
 5328 0372 4B4B     		ldr	r3, .L519+4
 5329 0374 1D78     		ldrb	r5, [r3]	@ zero_extendqisi2
 5330              	.LVL520:
 5331              		.loc 1 1938 6 discriminator 1 view .LVU1471
 5332 0376 A842     		cmp	r0, r5
 5333 0378 37D0     		beq	.L513
 5334              	.L495:
1939:../Drivers/ISP/isp/Src/isp_services.c ****   {
1940:../Drivers/ISP/isp/Src/isp_services.c ****     ongoing->upFrameIdStart = frameId;
1941:../Drivers/ISP/isp/Src/isp_services.c ****   }
1942:../Drivers/ISP/isp/Src/isp_services.c **** 
1943:../Drivers/ISP/isp/Src/isp_services.c ****   if (stagePrevious2 == GetStatCycleStart(ISP_STAT_LOC_DOWN))
 5335              		.loc 1 1943 3 is_stmt 1 view .LVU1472
 5336              		.loc 1 1943 25 is_stmt 0 view .LVU1473
 5337 037a 0220     		movs	r0, #2
 5338 037c FFF7FEFF 		bl	GetStatCycleStart
 5339              	.LVL521:
 5340              		.loc 1 1943 6 discriminator 1 view .LVU1474
 5341 0380 8542     		cmp	r5, r0
 5342 0382 36D0     		beq	.L514
 5343              	.L496:
1944:../Drivers/ISP/isp/Src/isp_services.c ****   {
1945:../Drivers/ISP/isp/Src/isp_services.c ****     ongoing->downFrameIdStart = frameId;
1946:../Drivers/ISP/isp/Src/isp_services.c ****   }
1947:../Drivers/ISP/isp/Src/isp_services.c **** 
1948:../Drivers/ISP/isp/Src/isp_services.c ****   if ((stagePrevious2 == GetStatCycleEnd(ISP_STAT_LOC_UP)) && (ongoing->upFrameIdStart != 0))
 5344              		.loc 1 1948 3 is_stmt 1 view .LVU1475
 5345              		.loc 1 1948 26 is_stmt 0 view .LVU1476
 5346 0384 0120     		movs	r0, #1
 5347 0386 FFF7FEFF 		bl	GetStatCycleEnd
 5348              	.LVL522:
 5349              		.loc 1 1948 6 discriminator 1 view .LVU1477
 5350 038a 8542     		cmp	r5, r0
 5351 038c 35D0     		beq	.L515
 5352              	.L497:
1949:../Drivers/ISP/isp/Src/isp_services.c ****   {
1950:../Drivers/ISP/isp/Src/isp_services.c ****     /* Last measure of the up cycle : update the 'last' struct */
1951:../Drivers/ISP/isp/Src/isp_services.c ****     ISP_SVC_StatEngine.last.up = ongoing->up;
1952:../Drivers/ISP/isp/Src/isp_services.c ****     ISP_SVC_StatEngine.last.upFrameIdEnd = frameId;
1953:../Drivers/ISP/isp/Src/isp_services.c ****     ISP_SVC_StatEngine.last.upFrameIdStart = ongoing->upFrameIdStart;
1954:../Drivers/ISP/isp/Src/isp_services.c **** 
1955:../Drivers/ISP/isp/Src/isp_services.c ****     memset(&ongoing->up, 0, sizeof(ongoing->up));
1956:../Drivers/ISP/isp/Src/isp_services.c ****     ongoing->upFrameIdStart = 0;
1957:../Drivers/ISP/isp/Src/isp_services.c ****     ongoing->upFrameIdEnd = 0;
1958:../Drivers/ISP/isp/Src/isp_services.c ****   }
1959:../Drivers/ISP/isp/Src/isp_services.c **** 
1960:../Drivers/ISP/isp/Src/isp_services.c ****   if ((stagePrevious2 == GetStatCycleEnd(ISP_STAT_LOC_DOWN)) && (ongoing->downFrameIdStart != 0))
 5353              		.loc 1 1960 3 is_stmt 1 view .LVU1478
 5354              		.loc 1 1960 26 is_stmt 0 view .LVU1479
 5355 038e 0220     		movs	r0, #2
 5356 0390 FFF7FEFF 		bl	GetStatCycleEnd
 5357              	.LVL523:
 5358              		.loc 1 1960 6 discriminator 1 view .LVU1480
 5359 0394 8542     		cmp	r5, r0
ARM GAS  /tmp/ccAu1Zkx.s 			page 138


 5360 0396 59D0     		beq	.L516
 5361              	.L498:
1961:../Drivers/ISP/isp/Src/isp_services.c ****   {
1962:../Drivers/ISP/isp/Src/isp_services.c ****     /* Last measure of the down cycle : update the 'last' struct */
1963:../Drivers/ISP/isp/Src/isp_services.c ****     ISP_SVC_StatEngine.last.down = ongoing->down;
1964:../Drivers/ISP/isp/Src/isp_services.c ****     ISP_SVC_StatEngine.last.downFrameIdEnd = frameId;
1965:../Drivers/ISP/isp/Src/isp_services.c ****     ISP_SVC_StatEngine.last.downFrameIdStart = ongoing->downFrameIdStart;
1966:../Drivers/ISP/isp/Src/isp_services.c **** 
1967:../Drivers/ISP/isp/Src/isp_services.c ****     memset(&ongoing->down, 0, sizeof(ongoing->down));
1968:../Drivers/ISP/isp/Src/isp_services.c ****     ongoing->downFrameIdStart = 0;
1969:../Drivers/ISP/isp/Src/isp_services.c ****     ongoing->downFrameIdEnd = 0;
1970:../Drivers/ISP/isp/Src/isp_services.c ****   }
1971:../Drivers/ISP/isp/Src/isp_services.c **** 
1972:../Drivers/ISP/isp/Src/isp_services.c ****   if (((ISP_SVC_StatEngine.upRequest & ISP_STAT_TYPE_ALL_TMP) ||
 5362              		.loc 1 1972 3 is_stmt 1 view .LVU1481
 5363              		.loc 1 1972 27 is_stmt 0 view .LVU1482
 5364 0398 404B     		ldr	r3, .L519
 5365 039a 93F88031 		ldrb	r3, [r3, #384]	@ zero_extendqisi2
 5366              		.loc 1 1972 6 view .LVU1483
 5367 039e 13F0040F 		tst	r3, #4
 5368 03a2 05D1     		bne	.L499
1973:../Drivers/ISP/isp/Src/isp_services.c ****        (ISP_SVC_StatEngine.downRequest & ISP_STAT_TYPE_ALL_TMP)) &&
 5369              		.loc 1 1973 27 view .LVU1484
 5370 03a4 3D4A     		ldr	r2, .L519
 5371 03a6 92F88121 		ldrb	r2, [r2, #385]	@ zero_extendqisi2
1972:../Drivers/ISP/isp/Src/isp_services.c ****        (ISP_SVC_StatEngine.downRequest & ISP_STAT_TYPE_ALL_TMP)) &&
 5372              		.loc 1 1972 63 discriminator 1 view .LVU1485
 5373 03aa 12F0040F 		tst	r2, #4
 5374 03ae 0FD0     		beq	.L500
 5375              	.L499:
1974:../Drivers/ISP/isp/Src/isp_services.c ****       (frameId > ISP_SVC_StatEngine.requestAllCounter))
 5376              		.loc 1 1974 36 view .LVU1486
 5377 03b0 3A4A     		ldr	r2, .L519
 5378 03b2 D2F88421 		ldr	r2, [r2, #388]
1973:../Drivers/ISP/isp/Src/isp_services.c ****        (ISP_SVC_StatEngine.downRequest & ISP_STAT_TYPE_ALL_TMP)) &&
 5379              		.loc 1 1973 66 discriminator 1 view .LVU1487
 5380 03b6 A242     		cmp	r2, r4
 5381 03b8 0AD2     		bcs	.L500
1975:../Drivers/ISP/isp/Src/isp_services.c ****   {
1976:../Drivers/ISP/isp/Src/isp_services.c ****     /* Stop the special temporary mode "request all stats" when its delay expires */
1977:../Drivers/ISP/isp/Src/isp_services.c ****     ISP_SVC_StatEngine.upRequest &= ~ISP_STAT_TYPE_ALL_TMP;
 5382              		.loc 1 1977 5 is_stmt 1 view .LVU1488
 5383              		.loc 1 1977 34 is_stmt 0 view .LVU1489
 5384 03ba 384A     		ldr	r2, .L519
 5385 03bc 23F00403 		bic	r3, r3, #4
 5386 03c0 82F88031 		strb	r3, [r2, #384]
1978:../Drivers/ISP/isp/Src/isp_services.c ****     ISP_SVC_StatEngine.downRequest &= ~ISP_STAT_TYPE_ALL_TMP;
 5387              		.loc 1 1978 5 is_stmt 1 view .LVU1490
 5388              		.loc 1 1978 23 is_stmt 0 view .LVU1491
 5389 03c4 92F88131 		ldrb	r3, [r2, #385]	@ zero_extendqisi2
 5390              		.loc 1 1978 36 view .LVU1492
 5391 03c8 23F00403 		bic	r3, r3, #4
 5392 03cc 82F88131 		strb	r3, [r2, #385]
 5393              	.L500:
1979:../Drivers/ISP/isp/Src/isp_services.c ****   }
1980:../Drivers/ISP/isp/Src/isp_services.c **** 
1981:../Drivers/ISP/isp/Src/isp_services.c ****   /* Save the two last processed stages and go to next stage */
ARM GAS  /tmp/ccAu1Zkx.s 			page 139


1982:../Drivers/ISP/isp/Src/isp_services.c ****   stagePrevious2 = stagePrevious1;
 5394              		.loc 1 1982 3 is_stmt 1 view .LVU1493
 5395              		.loc 1 1982 18 is_stmt 0 view .LVU1494
 5396 03d0 344B     		ldr	r3, .L519+8
 5397 03d2 1978     		ldrb	r1, [r3]	@ zero_extendqisi2
 5398 03d4 324A     		ldr	r2, .L519+4
 5399 03d6 1170     		strb	r1, [r2]
1983:../Drivers/ISP/isp/Src/isp_services.c ****   stagePrevious1 = ISP_SVC_StatEngine.stage;
 5400              		.loc 1 1983 3 is_stmt 1 view .LVU1495
 5401              		.loc 1 1983 38 is_stmt 0 view .LVU1496
 5402 03d8 304C     		ldr	r4, .L519
 5403              	.LVL524:
 5404              		.loc 1 1983 38 view .LVU1497
 5405 03da 2078     		ldrb	r0, [r4]	@ zero_extendqisi2
 5406              		.loc 1 1983 18 view .LVU1498
 5407 03dc 1870     		strb	r0, [r3]
1984:../Drivers/ISP/isp/Src/isp_services.c ****   ISP_SVC_StatEngine.stage = GetNextStatStage(ISP_SVC_StatEngine.stage);
 5408              		.loc 1 1984 3 is_stmt 1 view .LVU1499
 5409              		.loc 1 1984 30 is_stmt 0 view .LVU1500
 5410 03de FFF7FEFF 		bl	GetNextStatStage
 5411              	.LVL525:
 5412              		.loc 1 1984 28 discriminator 1 view .LVU1501
 5413 03e2 2070     		strb	r0, [r4]
 5414              	.LVL526:
 5415              	.L458:
1985:../Drivers/ISP/isp/Src/isp_services.c **** }
 5416              		.loc 1 1985 1 view .LVU1502
 5417 03e4 0CB0     		add	sp, sp, #48
 5418              	.LCFI101:
 5419              		.cfi_remember_state
 5420              		.cfi_def_cfa_offset 24
 5421              		@ sp needed
 5422 03e6 BDE8F081 		pop	{r4, r5, r6, r7, r8, pc}
 5423              	.LVL527:
 5424              	.L513:
 5425              	.LCFI102:
 5426              		.cfi_restore_state
1940:../Drivers/ISP/isp/Src/isp_services.c ****   }
 5427              		.loc 1 1940 5 is_stmt 1 view .LVU1503
1940:../Drivers/ISP/isp/Src/isp_services.c ****   }
 5428              		.loc 1 1940 29 is_stmt 0 view .LVU1504
 5429 03ea 2C4B     		ldr	r3, .L519
 5430 03ec C3F80041 		str	r4, [r3, #256]
 5431 03f0 C3E7     		b	.L495
 5432              	.L514:
1945:../Drivers/ISP/isp/Src/isp_services.c ****   }
 5433              		.loc 1 1945 5 is_stmt 1 view .LVU1505
1945:../Drivers/ISP/isp/Src/isp_services.c ****   }
 5434              		.loc 1 1945 31 is_stmt 0 view .LVU1506
 5435 03f2 2A4B     		ldr	r3, .L519
 5436 03f4 C3F80841 		str	r4, [r3, #264]
 5437 03f8 C4E7     		b	.L496
 5438              	.L515:
1948:../Drivers/ISP/isp/Src/isp_services.c ****   {
 5439              		.loc 1 1948 71 discriminator 2 view .LVU1507
 5440 03fa 284B     		ldr	r3, .L519
 5441 03fc D3F80031 		ldr	r3, [r3, #256]
ARM GAS  /tmp/ccAu1Zkx.s 			page 140


 5442 0400 1F46     		mov	r7, r3
1948:../Drivers/ISP/isp/Src/isp_services.c ****   {
 5443              		.loc 1 1948 60 discriminator 2 view .LVU1508
 5444 0402 002B     		cmp	r3, #0
 5445 0404 C3D0     		beq	.L497
1951:../Drivers/ISP/isp/Src/isp_services.c ****     ISP_SVC_StatEngine.last.upFrameIdEnd = frameId;
 5446              		.loc 1 1951 5 is_stmt 1 view .LVU1509
1951:../Drivers/ISP/isp/Src/isp_services.c ****     ISP_SVC_StatEngine.last.upFrameIdEnd = frameId;
 5447              		.loc 1 1951 32 is_stmt 0 view .LVU1510
 5448 0406 254E     		ldr	r6, .L519
 5449 0408 06F1040C 		add	ip, r6, #4
 5450 040c 06F1900E 		add	lr, r6, #144
 5451 0410 BEE80F00 		ldmia	lr!, {r0, r1, r2, r3}
 5452 0414 ACE80F00 		stmia	ip!, {r0, r1, r2, r3}
 5453 0418 BEE80F00 		ldmia	lr!, {r0, r1, r2, r3}
 5454 041c ACE80F00 		stmia	ip!, {r0, r1, r2, r3}
 5455 0420 BEE80F00 		ldmia	lr!, {r0, r1, r2, r3}
 5456 0424 ACE80F00 		stmia	ip!, {r0, r1, r2, r3}
 5457 0428 9EE80300 		ldm	lr, {r0, r1}
 5458 042c 8CE80300 		stm	ip, {r0, r1}
1952:../Drivers/ISP/isp/Src/isp_services.c ****     ISP_SVC_StatEngine.last.upFrameIdStart = ongoing->upFrameIdStart;
 5459              		.loc 1 1952 5 is_stmt 1 view .LVU1511
1952:../Drivers/ISP/isp/Src/isp_services.c ****     ISP_SVC_StatEngine.last.upFrameIdStart = ongoing->upFrameIdStart;
 5460              		.loc 1 1952 42 is_stmt 0 view .LVU1512
 5461 0430 B467     		str	r4, [r6, #120]
1953:../Drivers/ISP/isp/Src/isp_services.c **** 
 5462              		.loc 1 1953 5 is_stmt 1 view .LVU1513
1953:../Drivers/ISP/isp/Src/isp_services.c **** 
 5463              		.loc 1 1953 44 is_stmt 0 view .LVU1514
 5464 0432 7767     		str	r7, [r6, #116]
1955:../Drivers/ISP/isp/Src/isp_services.c ****     ongoing->upFrameIdStart = 0;
 5465              		.loc 1 1955 5 is_stmt 1 view .LVU1515
 5466 0434 3822     		movs	r2, #56
 5467 0436 0021     		movs	r1, #0
 5468 0438 06F19000 		add	r0, r6, #144
 5469 043c FFF7FEFF 		bl	memset
 5470              	.LVL528:
1956:../Drivers/ISP/isp/Src/isp_services.c ****     ongoing->upFrameIdEnd = 0;
 5471              		.loc 1 1956 5 view .LVU1516
1956:../Drivers/ISP/isp/Src/isp_services.c ****     ongoing->upFrameIdEnd = 0;
 5472              		.loc 1 1956 29 is_stmt 0 view .LVU1517
 5473 0440 0023     		movs	r3, #0
 5474 0442 C6F80031 		str	r3, [r6, #256]
1957:../Drivers/ISP/isp/Src/isp_services.c ****   }
 5475              		.loc 1 1957 5 is_stmt 1 view .LVU1518
1957:../Drivers/ISP/isp/Src/isp_services.c ****   }
 5476              		.loc 1 1957 27 is_stmt 0 view .LVU1519
 5477 0446 C6F80431 		str	r3, [r6, #260]
 5478 044a A0E7     		b	.L497
 5479              	.L516:
1960:../Drivers/ISP/isp/Src/isp_services.c ****   {
 5480              		.loc 1 1960 73 discriminator 2 view .LVU1520
 5481 044c 134B     		ldr	r3, .L519
 5482 044e D3F808E1 		ldr	lr, [r3, #264]
1960:../Drivers/ISP/isp/Src/isp_services.c ****   {
 5483              		.loc 1 1960 62 discriminator 2 view .LVU1521
 5484 0452 BEF1000F 		cmp	lr, #0
ARM GAS  /tmp/ccAu1Zkx.s 			page 141


 5485 0456 9FD0     		beq	.L498
1963:../Drivers/ISP/isp/Src/isp_services.c ****     ISP_SVC_StatEngine.last.downFrameIdEnd = frameId;
 5486              		.loc 1 1963 5 is_stmt 1 view .LVU1522
1963:../Drivers/ISP/isp/Src/isp_services.c ****     ISP_SVC_StatEngine.last.downFrameIdEnd = frameId;
 5487              		.loc 1 1963 34 is_stmt 0 view .LVU1523
 5488 0458 1E46     		mov	r6, r3
 5489 045a 03F13C05 		add	r5, r3, #60
 5490 045e 03F1C80C 		add	ip, r3, #200
 5491 0462 BCE80F00 		ldmia	ip!, {r0, r1, r2, r3}
 5492 0466 0FC5     		stmia	r5!, {r0, r1, r2, r3}
 5493 0468 BCE80F00 		ldmia	ip!, {r0, r1, r2, r3}
 5494 046c 0FC5     		stmia	r5!, {r0, r1, r2, r3}
 5495 046e BCE80F00 		ldmia	ip!, {r0, r1, r2, r3}
 5496 0472 0FC5     		stmia	r5!, {r0, r1, r2, r3}
 5497 0474 9CE80300 		ldm	ip, {r0, r1}
 5498 0478 85E80300 		stm	r5, {r0, r1}
1964:../Drivers/ISP/isp/Src/isp_services.c ****     ISP_SVC_StatEngine.last.downFrameIdStart = ongoing->downFrameIdStart;
 5499              		.loc 1 1964 5 is_stmt 1 view .LVU1524
1964:../Drivers/ISP/isp/Src/isp_services.c ****     ISP_SVC_StatEngine.last.downFrameIdStart = ongoing->downFrameIdStart;
 5500              		.loc 1 1964 44 is_stmt 0 view .LVU1525
 5501 047c C6F88040 		str	r4, [r6, #128]
1965:../Drivers/ISP/isp/Src/isp_services.c **** 
 5502              		.loc 1 1965 5 is_stmt 1 view .LVU1526
1965:../Drivers/ISP/isp/Src/isp_services.c **** 
 5503              		.loc 1 1965 46 is_stmt 0 view .LVU1527
 5504 0480 C6F87CE0 		str	lr, [r6, #124]
1967:../Drivers/ISP/isp/Src/isp_services.c ****     ongoing->downFrameIdStart = 0;
 5505              		.loc 1 1967 5 is_stmt 1 view .LVU1528
 5506 0484 3822     		movs	r2, #56
 5507 0486 0021     		movs	r1, #0
 5508 0488 06F1C800 		add	r0, r6, #200
 5509 048c FFF7FEFF 		bl	memset
 5510              	.LVL529:
1968:../Drivers/ISP/isp/Src/isp_services.c ****     ongoing->downFrameIdEnd = 0;
 5511              		.loc 1 1968 5 view .LVU1529
1968:../Drivers/ISP/isp/Src/isp_services.c ****     ongoing->downFrameIdEnd = 0;
 5512              		.loc 1 1968 31 is_stmt 0 view .LVU1530
 5513 0490 0023     		movs	r3, #0
 5514 0492 C6F80831 		str	r3, [r6, #264]
1969:../Drivers/ISP/isp/Src/isp_services.c ****   }
 5515              		.loc 1 1969 5 is_stmt 1 view .LVU1531
1969:../Drivers/ISP/isp/Src/isp_services.c ****   }
 5516              		.loc 1 1969 29 is_stmt 0 view .LVU1532
 5517 0496 C6F80C31 		str	r3, [r6, #268]
 5518 049a 7DE7     		b	.L498
 5519              	.L520:
 5520              		.align	2
 5521              	.L519:
 5522 049c 00000000 		.word	ISP_SVC_StatEngine
 5523 04a0 00000000 		.word	stagePrevious2.1
 5524 04a4 00000000 		.word	stagePrevious1.0
 5525              		.cfi_endproc
 5526              	.LFE942:
 5528              		.section	.text.ISP_SVC_Stats_ProcessCallbacks,"ax",%progbits
 5529              		.align	1
 5530              		.global	ISP_SVC_Stats_ProcessCallbacks
 5531              		.syntax unified
ARM GAS  /tmp/ccAu1Zkx.s 			page 142


 5532              		.thumb
 5533              		.thumb_func
 5535              	ISP_SVC_Stats_ProcessCallbacks:
 5536              	.LVL530:
 5537              	.LFB943:
1986:../Drivers/ISP/isp/Src/isp_services.c **** 
1987:../Drivers/ISP/isp/Src/isp_services.c **** /**
1988:../Drivers/ISP/isp/Src/isp_services.c ****   * @brief  ISP_SVC_Stats_ProcessCallbacks
1989:../Drivers/ISP/isp/Src/isp_services.c ****   *         If the conditions are met, call the client registered callbacks
1990:../Drivers/ISP/isp/Src/isp_services.c ****   * @param  hIsp: ISP device handle
1991:../Drivers/ISP/isp/Src/isp_services.c ****   * @retval ISP status
1992:../Drivers/ISP/isp/Src/isp_services.c ****   */
1993:../Drivers/ISP/isp/Src/isp_services.c **** ISP_StatusTypeDef ISP_SVC_Stats_ProcessCallbacks(ISP_HandleTypeDef *hIsp)
1994:../Drivers/ISP/isp/Src/isp_services.c **** {
 5538              		.loc 1 1994 1 is_stmt 1 view -0
 5539              		.cfi_startproc
 5540              		@ args = 0, pretend = 0, frame = 0
 5541              		@ frame_needed = 0, uses_anonymous_args = 0
 5542              		.loc 1 1994 1 is_stmt 0 view .LVU1534
 5543 0000 70B5     		push	{r4, r5, r6, lr}
 5544              	.LCFI103:
 5545              		.cfi_def_cfa_offset 16
 5546              		.cfi_offset 4, -16
 5547              		.cfi_offset 5, -12
 5548              		.cfi_offset 6, -8
 5549              		.cfi_offset 14, -4
1995:../Drivers/ISP/isp/Src/isp_services.c ****   (void)hIsp; /* unused */
 5550              		.loc 1 1995 3 is_stmt 1 view .LVU1535
1996:../Drivers/ISP/isp/Src/isp_services.c ****   ISP_SVC_StatStateTypeDef *pLastStat;
 5551              		.loc 1 1996 3 view .LVU1536
1997:../Drivers/ISP/isp/Src/isp_services.c ****   ISP_SVC_StatRegisteredClient *client;
 5552              		.loc 1 1997 3 view .LVU1537
1998:../Drivers/ISP/isp/Src/isp_services.c ****   ISP_StatusTypeDef retcb, ret = ISP_OK;
 5553              		.loc 1 1998 3 view .LVU1538
 5554              	.LVL531:
1999:../Drivers/ISP/isp/Src/isp_services.c **** 
2000:../Drivers/ISP/isp/Src/isp_services.c ****   pLastStat = &ISP_SVC_StatEngine.last;
 5555              		.loc 1 2000 3 view .LVU1539
2001:../Drivers/ISP/isp/Src/isp_services.c **** 
2002:../Drivers/ISP/isp/Src/isp_services.c ****   for (uint32_t i = 0; i < ISP_SVC_STAT_MAX_CB; i++)
 5556              		.loc 1 2002 3 view .LVU1540
 5557              	.LBB4:
 5558              		.loc 1 2002 8 view .LVU1541
 5559              		.loc 1 2002 17 is_stmt 0 view .LVU1542
 5560 0002 0024     		movs	r4, #0
 5561              	.LBE4:
1998:../Drivers/ISP/isp/Src/isp_services.c **** 
 5562              		.loc 1 1998 28 view .LVU1543
 5563 0004 2646     		mov	r6, r4
 5564              	.LBB5:
 5565              		.loc 1 2002 3 view .LVU1544
 5566 0006 22E0     		b	.L522
 5567              	.LVL532:
 5568              	.L535:
2003:../Drivers/ISP/isp/Src/isp_services.c ****   {
2004:../Drivers/ISP/isp/Src/isp_services.c ****     client = &ISP_SVC_StatEngine.client[i];
2005:../Drivers/ISP/isp/Src/isp_services.c **** 
ARM GAS  /tmp/ccAu1Zkx.s 			page 143


2006:../Drivers/ISP/isp/Src/isp_services.c ****     if (client->callback == NULL)
2007:../Drivers/ISP/isp/Src/isp_services.c ****       continue;
2008:../Drivers/ISP/isp/Src/isp_services.c **** 
2009:../Drivers/ISP/isp/Src/isp_services.c ****     /* Check if stats are available for a client, comparing the location and the specified frameId 
2010:../Drivers/ISP/isp/Src/isp_services.c ****     if (((client->location == ISP_STAT_LOC_DOWN) && (client->refFrameId <= pLastStat->downFrameIdSt
 5569              		.loc 1 2010 60 discriminator 1 view .LVU1545
 5570 0008 3149     		ldr	r1, .L538
 5571 000a 01EB8202 		add	r2, r1, r2, lsl #2
 5572 000e D2F82801 		ldr	r0, [r2, #296]
 5573              		.loc 1 2010 85 discriminator 1 view .LVU1546
 5574 0012 CA6F     		ldr	r2, [r1, #124]
 5575              		.loc 1 2010 50 discriminator 1 view .LVU1547
 5576 0014 9042     		cmp	r0, r2
 5577 0016 2CD8     		bhi	.L525
 5578              	.L526:
2011:../Drivers/ISP/isp/Src/isp_services.c ****         ((client->location == ISP_STAT_LOC_UP) && (client->refFrameId <= pLastStat->upFrameIdStart)
2012:../Drivers/ISP/isp/Src/isp_services.c ****         ((client->location == ISP_STAT_LOC_UP_AND_DOWN) && (client->refFrameId <= pLastStat->upFram
2013:../Drivers/ISP/isp/Src/isp_services.c ****         ((client->location == ISP_STAT_LOC_EXT) && (client->refFrameId <= pLastStat->extFrameId)))
2014:../Drivers/ISP/isp/Src/isp_services.c ****     {
2015:../Drivers/ISP/isp/Src/isp_services.c ****       /* Copy the stats into the client buffer */
2016:../Drivers/ISP/isp/Src/isp_services.c ****       *(client->pStats) = *pLastStat;
 5579              		.loc 1 2016 7 is_stmt 1 view .LVU1548
 5580              		.loc 1 2016 15 is_stmt 0 view .LVU1549
 5581 0018 2D49     		ldr	r1, .L538
 5582 001a 04EB8405 		add	r5, r4, r4, lsl #2
 5583 001e 01EB8505 		add	r5, r1, r5, lsl #2
 5584              		.loc 1 2016 25 view .LVU1550
 5585 0022 8C22     		movs	r2, #140
 5586 0024 0431     		adds	r1, r1, #4
 5587 0026 D5F82401 		ldr	r0, [r5, #292]
 5588 002a FFF7FEFF 		bl	memcpy
 5589              	.LVL533:
2017:../Drivers/ISP/isp/Src/isp_services.c **** 
2018:../Drivers/ISP/isp/Src/isp_services.c ****       /* Call its callback */
2019:../Drivers/ISP/isp/Src/isp_services.c ****       retcb = client->callback(client->pAlgo);
 5590              		.loc 1 2019 7 is_stmt 1 view .LVU1551
 5591              		.loc 1 2019 21 is_stmt 0 view .LVU1552
 5592 002e D5F81C31 		ldr	r3, [r5, #284]
 5593              		.loc 1 2019 15 view .LVU1553
 5594 0032 D5F82001 		ldr	r0, [r5, #288]
 5595 0036 9847     		blx	r3
 5596              	.LVL534:
2020:../Drivers/ISP/isp/Src/isp_services.c ****       if (retcb != ISP_OK)
 5597              		.loc 1 2020 7 is_stmt 1 view .LVU1554
 5598              		.loc 1 2020 10 is_stmt 0 view .LVU1555
 5599 0038 00B1     		cbz	r0, .L530
2021:../Drivers/ISP/isp/Src/isp_services.c ****       {
2022:../Drivers/ISP/isp/Src/isp_services.c ****         ret = retcb;
 5600              		.loc 1 2022 13 view .LVU1556
 5601 003a 0646     		mov	r6, r0
 5602              	.LVL535:
 5603              	.L530:
2023:../Drivers/ISP/isp/Src/isp_services.c ****       }
2024:../Drivers/ISP/isp/Src/isp_services.c **** 
2025:../Drivers/ISP/isp/Src/isp_services.c ****       /* Remove the client from the registered list */
2026:../Drivers/ISP/isp/Src/isp_services.c ****       client->callback = NULL;
 5604              		.loc 1 2026 7 is_stmt 1 view .LVU1557
ARM GAS  /tmp/ccAu1Zkx.s 			page 144


 5605              		.loc 1 2026 24 is_stmt 0 view .LVU1558
 5606 003c 04EB8402 		add	r2, r4, r4, lsl #2
 5607 0040 234B     		ldr	r3, .L538
 5608 0042 03EB8203 		add	r3, r3, r2, lsl #2
 5609 0046 0022     		movs	r2, #0
 5610 0048 C3F81C21 		str	r2, [r3, #284]
 5611              	.LVL536:
 5612              	.L524:
2002:../Drivers/ISP/isp/Src/isp_services.c ****   {
 5613              		.loc 1 2002 50 is_stmt 1 discriminator 1 view .LVU1559
 5614 004c 0134     		adds	r4, r4, #1
 5615              	.LVL537:
 5616              	.L522:
2002:../Drivers/ISP/isp/Src/isp_services.c ****   {
 5617              		.loc 1 2002 26 discriminator 2 view .LVU1560
 5618 004e 042C     		cmp	r4, #4
 5619 0050 3BD8     		bhi	.L534
2004:../Drivers/ISP/isp/Src/isp_services.c **** 
 5620              		.loc 1 2004 5 view .LVU1561
 5621              	.LVL538:
2006:../Drivers/ISP/isp/Src/isp_services.c ****       continue;
 5622              		.loc 1 2006 5 view .LVU1562
2006:../Drivers/ISP/isp/Src/isp_services.c ****       continue;
 5623              		.loc 1 2006 15 is_stmt 0 view .LVU1563
 5624 0052 04EB8402 		add	r2, r4, r4, lsl #2
 5625 0056 1E4B     		ldr	r3, .L538
 5626 0058 03EB8203 		add	r3, r3, r2, lsl #2
 5627 005c D3F81C31 		ldr	r3, [r3, #284]
2006:../Drivers/ISP/isp/Src/isp_services.c ****       continue;
 5628              		.loc 1 2006 8 view .LVU1564
 5629 0060 002B     		cmp	r3, #0
 5630 0062 F3D0     		beq	.L524
2010:../Drivers/ISP/isp/Src/isp_services.c ****         ((client->location == ISP_STAT_LOC_UP) && (client->refFrameId <= pLastStat->upFrameIdStart)
 5631              		.loc 1 2010 5 is_stmt 1 view .LVU1565
2010:../Drivers/ISP/isp/Src/isp_services.c ****         ((client->location == ISP_STAT_LOC_UP) && (client->refFrameId <= pLastStat->upFrameIdStart)
 5632              		.loc 1 2010 17 is_stmt 0 view .LVU1566
 5633 0064 1A4B     		ldr	r3, .L538
 5634 0066 03EB8203 		add	r3, r3, r2, lsl #2
 5635 006a 93F82C31 		ldrb	r3, [r3, #300]	@ zero_extendqisi2
2010:../Drivers/ISP/isp/Src/isp_services.c ****         ((client->location == ISP_STAT_LOC_UP) && (client->refFrameId <= pLastStat->upFrameIdStart)
 5636              		.loc 1 2010 8 view .LVU1567
 5637 006e 022B     		cmp	r3, #2
 5638 0070 CAD0     		beq	.L535
 5639              	.L525:
2010:../Drivers/ISP/isp/Src/isp_services.c ****         ((client->location == ISP_STAT_LOC_UP) && (client->refFrameId <= pLastStat->upFrameIdStart)
 5640              		.loc 1 2010 106 discriminator 2 view .LVU1568
 5641 0072 012B     		cmp	r3, #1
 5642 0074 0FD0     		beq	.L536
 5643              	.L527:
2011:../Drivers/ISP/isp/Src/isp_services.c ****         ((client->location == ISP_STAT_LOC_UP_AND_DOWN) && (client->refFrameId <= pLastStat->upFram
 5644              		.loc 1 2011 102 discriminator 2 view .LVU1569
 5645 0076 032B     		cmp	r3, #3
 5646 0078 18D0     		beq	.L537
 5647              	.L528:
2012:../Drivers/ISP/isp/Src/isp_services.c ****         ((client->location == ISP_STAT_LOC_EXT) && (client->refFrameId <= pLastStat->extFrameId)))
 5648              		.loc 1 2012 166 discriminator 3 view .LVU1570
 5649 007a 062B     		cmp	r3, #6
ARM GAS  /tmp/ccAu1Zkx.s 			page 145


 5650 007c E6D1     		bne	.L524
2013:../Drivers/ISP/isp/Src/isp_services.c ****     {
 5651              		.loc 1 2013 59 discriminator 1 view .LVU1571
 5652 007e 144A     		ldr	r2, .L538
 5653 0080 04EB8403 		add	r3, r4, r4, lsl #2
 5654 0084 02EB8303 		add	r3, r2, r3, lsl #2
 5655 0088 D3F82811 		ldr	r1, [r3, #296]
2013:../Drivers/ISP/isp/Src/isp_services.c ****     {
 5656              		.loc 1 2013 84 discriminator 1 view .LVU1572
 5657 008c D2F88C30 		ldr	r3, [r2, #140]
2013:../Drivers/ISP/isp/Src/isp_services.c ****     {
 5658              		.loc 1 2013 49 discriminator 1 view .LVU1573
 5659 0090 9942     		cmp	r1, r3
 5660 0092 DBD8     		bhi	.L524
 5661 0094 C0E7     		b	.L526
 5662              	.L536:
2011:../Drivers/ISP/isp/Src/isp_services.c ****         ((client->location == ISP_STAT_LOC_UP_AND_DOWN) && (client->refFrameId <= pLastStat->upFram
 5663              		.loc 1 2011 58 discriminator 1 view .LVU1574
 5664 0096 0E49     		ldr	r1, .L538
 5665 0098 04EB8402 		add	r2, r4, r4, lsl #2
 5666 009c 01EB8202 		add	r2, r1, r2, lsl #2
 5667 00a0 D2F82801 		ldr	r0, [r2, #296]
2011:../Drivers/ISP/isp/Src/isp_services.c ****         ((client->location == ISP_STAT_LOC_UP_AND_DOWN) && (client->refFrameId <= pLastStat->upFram
 5668              		.loc 1 2011 83 discriminator 1 view .LVU1575
 5669 00a4 4A6F     		ldr	r2, [r1, #116]
2011:../Drivers/ISP/isp/Src/isp_services.c ****         ((client->location == ISP_STAT_LOC_UP_AND_DOWN) && (client->refFrameId <= pLastStat->upFram
 5670              		.loc 1 2011 48 discriminator 1 view .LVU1576
 5671 00a6 9042     		cmp	r0, r2
 5672 00a8 B6D9     		bls	.L526
 5673 00aa E4E7     		b	.L527
 5674              	.L537:
2012:../Drivers/ISP/isp/Src/isp_services.c ****         ((client->location == ISP_STAT_LOC_EXT) && (client->refFrameId <= pLastStat->extFrameId)))
 5675              		.loc 1 2012 67 discriminator 1 view .LVU1577
 5676 00ac 0849     		ldr	r1, .L538
 5677 00ae 04EB8402 		add	r2, r4, r4, lsl #2
 5678 00b2 01EB8202 		add	r2, r1, r2, lsl #2
 5679 00b6 D2F82821 		ldr	r2, [r2, #296]
2012:../Drivers/ISP/isp/Src/isp_services.c ****         ((client->location == ISP_STAT_LOC_EXT) && (client->refFrameId <= pLastStat->extFrameId)))
 5680              		.loc 1 2012 92 discriminator 1 view .LVU1578
 5681 00ba 496F     		ldr	r1, [r1, #116]
2012:../Drivers/ISP/isp/Src/isp_services.c ****         ((client->location == ISP_STAT_LOC_EXT) && (client->refFrameId <= pLastStat->extFrameId)))
 5682              		.loc 1 2012 57 discriminator 1 view .LVU1579
 5683 00bc 8A42     		cmp	r2, r1
 5684 00be DCD8     		bhi	.L528
2012:../Drivers/ISP/isp/Src/isp_services.c ****         ((client->location == ISP_STAT_LOC_EXT) && (client->refFrameId <= pLastStat->extFrameId)))
 5685              		.loc 1 2012 145 discriminator 2 view .LVU1580
 5686 00c0 0349     		ldr	r1, .L538
 5687 00c2 C96F     		ldr	r1, [r1, #124]
2012:../Drivers/ISP/isp/Src/isp_services.c ****         ((client->location == ISP_STAT_LOC_EXT) && (client->refFrameId <= pLastStat->extFrameId)))
 5688              		.loc 1 2012 110 discriminator 2 view .LVU1581
 5689 00c4 8A42     		cmp	r2, r1
 5690 00c6 A7D9     		bls	.L526
 5691 00c8 D7E7     		b	.L528
 5692              	.LVL539:
 5693              	.L534:
2012:../Drivers/ISP/isp/Src/isp_services.c ****         ((client->location == ISP_STAT_LOC_EXT) && (client->refFrameId <= pLastStat->extFrameId)))
 5694              		.loc 1 2012 110 discriminator 2 view .LVU1582
ARM GAS  /tmp/ccAu1Zkx.s 			page 146


 5695              	.LBE5:
2027:../Drivers/ISP/isp/Src/isp_services.c ****     }
2028:../Drivers/ISP/isp/Src/isp_services.c ****   }
2029:../Drivers/ISP/isp/Src/isp_services.c **** 
2030:../Drivers/ISP/isp/Src/isp_services.c ****   return ret;
 5696              		.loc 1 2030 3 is_stmt 1 view .LVU1583
2031:../Drivers/ISP/isp/Src/isp_services.c **** }
 5697              		.loc 1 2031 1 is_stmt 0 view .LVU1584
 5698 00ca 3046     		mov	r0, r6
 5699 00cc 70BD     		pop	{r4, r5, r6, pc}
 5700              	.LVL540:
 5701              	.L539:
 5702              		.loc 1 2031 1 view .LVU1585
 5703 00ce 00BF     		.align	2
 5704              	.L538:
 5705 00d0 00000000 		.word	ISP_SVC_StatEngine
 5706              		.cfi_endproc
 5707              	.LFE943:
 5709              		.section	.text.ISP_SVC_Stats_GetLatest,"ax",%progbits
 5710              		.align	1
 5711              		.global	ISP_SVC_Stats_GetLatest
 5712              		.syntax unified
 5713              		.thumb
 5714              		.thumb_func
 5716              	ISP_SVC_Stats_GetLatest:
 5717              	.LVL541:
 5718              	.LFB944:
2032:../Drivers/ISP/isp/Src/isp_services.c **** 
2033:../Drivers/ISP/isp/Src/isp_services.c **** /**
2034:../Drivers/ISP/isp/Src/isp_services.c ****   * @brief  ISP_SVC_Stats_GetLatest
2035:../Drivers/ISP/isp/Src/isp_services.c ****   *         Get the latest available stats. Stats are immediately returned (no callback)
2036:../Drivers/ISP/isp/Src/isp_services.c ****   * @param  hIsp: ISP device handle
2037:../Drivers/ISP/isp/Src/isp_services.c ****   * @param  pStats: pointer to the latest computed statistics (output parameter)
2038:../Drivers/ISP/isp/Src/isp_services.c ****   * @retval ISP status
2039:../Drivers/ISP/isp/Src/isp_services.c ****   */
2040:../Drivers/ISP/isp/Src/isp_services.c **** ISP_StatusTypeDef ISP_SVC_Stats_GetLatest(ISP_HandleTypeDef *hIsp, ISP_SVC_StatStateTypeDef *pStats
2041:../Drivers/ISP/isp/Src/isp_services.c **** {
 5719              		.loc 1 2041 1 is_stmt 1 view -0
 5720              		.cfi_startproc
 5721              		@ args = 0, pretend = 0, frame = 0
 5722              		@ frame_needed = 0, uses_anonymous_args = 0
2042:../Drivers/ISP/isp/Src/isp_services.c ****   /* Check handle validity */
2043:../Drivers/ISP/isp/Src/isp_services.c ****   if ((hIsp == NULL) || (pStats == NULL))
 5723              		.loc 1 2043 3 view .LVU1587
 5724              		.loc 1 2043 6 is_stmt 0 view .LVU1588
 5725 0000 58B1     		cbz	r0, .L545
2041:../Drivers/ISP/isp/Src/isp_services.c ****   /* Check handle validity */
 5726              		.loc 1 2041 1 view .LVU1589
 5727 0002 08B5     		push	{r3, lr}
 5728              	.LCFI104:
 5729              		.cfi_def_cfa_offset 8
 5730              		.cfi_offset 3, -8
 5731              		.cfi_offset 14, -4
 5732 0004 0B46     		mov	r3, r1
 5733              		.loc 1 2043 22 discriminator 1 view .LVU1590
 5734 0006 31B1     		cbz	r1, .L548
2044:../Drivers/ISP/isp/Src/isp_services.c ****   {
ARM GAS  /tmp/ccAu1Zkx.s 			page 147


2045:../Drivers/ISP/isp/Src/isp_services.c ****     return ISP_ERR_EINVAL;
2046:../Drivers/ISP/isp/Src/isp_services.c ****   }
2047:../Drivers/ISP/isp/Src/isp_services.c **** 
2048:../Drivers/ISP/isp/Src/isp_services.c ****   *pStats = ISP_SVC_StatEngine.last;
 5735              		.loc 1 2048 3 is_stmt 1 view .LVU1591
 5736              		.loc 1 2048 11 is_stmt 0 view .LVU1592
 5737 0008 8C22     		movs	r2, #140
 5738 000a 0549     		ldr	r1, .L549
 5739              	.LVL542:
 5740              		.loc 1 2048 11 view .LVU1593
 5741 000c 1846     		mov	r0, r3
 5742              	.LVL543:
 5743              		.loc 1 2048 11 view .LVU1594
 5744 000e FFF7FEFF 		bl	memcpy
 5745              	.LVL544:
2049:../Drivers/ISP/isp/Src/isp_services.c **** 
2050:../Drivers/ISP/isp/Src/isp_services.c ****   return ISP_OK;
 5746              		.loc 1 2050 3 is_stmt 1 view .LVU1595
 5747              		.loc 1 2050 10 is_stmt 0 view .LVU1596
 5748 0012 0020     		movs	r0, #0
 5749              	.L543:
2051:../Drivers/ISP/isp/Src/isp_services.c **** }
 5750              		.loc 1 2051 1 view .LVU1597
 5751 0014 08BD     		pop	{r3, pc}
 5752              	.LVL545:
 5753              	.L548:
2045:../Drivers/ISP/isp/Src/isp_services.c ****   }
 5754              		.loc 1 2045 12 view .LVU1598
 5755 0016 0120     		movs	r0, #1
 5756              	.LVL546:
2045:../Drivers/ISP/isp/Src/isp_services.c ****   }
 5757              		.loc 1 2045 12 view .LVU1599
 5758 0018 FCE7     		b	.L543
 5759              	.LVL547:
 5760              	.L545:
 5761              	.LCFI105:
 5762              		.cfi_def_cfa_offset 0
 5763              		.cfi_restore 3
 5764              		.cfi_restore 14
2045:../Drivers/ISP/isp/Src/isp_services.c ****   }
 5765              		.loc 1 2045 12 view .LVU1600
 5766 001a 0120     		movs	r0, #1
 5767              	.LVL548:
 5768              		.loc 1 2051 1 view .LVU1601
 5769 001c 7047     		bx	lr
 5770              	.L550:
 5771 001e 00BF     		.align	2
 5772              	.L549:
 5773 0020 04000000 		.word	ISP_SVC_StatEngine+4
 5774              		.cfi_endproc
 5775              	.LFE944:
 5777              		.section	.text.ISP_SVC_Stats_GetNext,"ax",%progbits
 5778              		.align	1
 5779              		.global	ISP_SVC_Stats_GetNext
 5780              		.syntax unified
 5781              		.thumb
 5782              		.thumb_func
ARM GAS  /tmp/ccAu1Zkx.s 			page 148


 5784              	ISP_SVC_Stats_GetNext:
 5785              	.LVL549:
 5786              	.LFB945:
2052:../Drivers/ISP/isp/Src/isp_services.c **** 
2053:../Drivers/ISP/isp/Src/isp_services.c **** /**
2054:../Drivers/ISP/isp/Src/isp_services.c ****   * @brief  ISP_SVC_Stats_GetNext
2055:../Drivers/ISP/isp/Src/isp_services.c ****   *         Ask to be informed with a callback when stats meeting some conditions(location, type
2056:../Drivers/ISP/isp/Src/isp_services.c ****   *         and frameDelay) are available.
2057:../Drivers/ISP/isp/Src/isp_services.c ****   * @param  hIsp: ISP device handle
2058:../Drivers/ISP/isp/Src/isp_services.c ****   * @param  callback: function to be called when stats are available
2059:../Drivers/ISP/isp/Src/isp_services.c ****   * @param  pAlgo: pointer to the algorithm context. Will be provided as the callback parameter.
2060:../Drivers/ISP/isp/Src/isp_services.c ****   * @param  pStats: pointer to the statistics. Updated just before the callback is called.
2061:../Drivers/ISP/isp/Src/isp_services.c ****   * @param  location: location (up and/or down) where the statistics are requested.
2062:../Drivers/ISP/isp/Src/isp_services.c ****   * @param  type: type (average, bins or both) of requested statistics.
2063:../Drivers/ISP/isp/Src/isp_services.c ****   * @param  frameDelay: number of frames to wait before considering the stats as valid
2064:../Drivers/ISP/isp/Src/isp_services.c ****   * @retval ISP status
2065:../Drivers/ISP/isp/Src/isp_services.c ****   */
2066:../Drivers/ISP/isp/Src/isp_services.c **** ISP_StatusTypeDef ISP_SVC_Stats_GetNext(ISP_HandleTypeDef *hIsp, ISP_stat_ready_cb callback, ISP_Al
2067:../Drivers/ISP/isp/Src/isp_services.c ****                                         ISP_SVC_StatLocation location, ISP_SVC_StatType type, uint3
2068:../Drivers/ISP/isp/Src/isp_services.c **** {
 5787              		.loc 1 2068 1 is_stmt 1 view -0
 5788              		.cfi_startproc
 5789              		@ args = 12, pretend = 0, frame = 0
 5790              		@ frame_needed = 0, uses_anonymous_args = 0
 5791              		.loc 1 2068 1 is_stmt 0 view .LVU1603
 5792 0000 2DE9F84F 		push	{r3, r4, r5, r6, r7, r8, r9, r10, fp, lr}
 5793              	.LCFI106:
 5794              		.cfi_def_cfa_offset 40
 5795              		.cfi_offset 3, -40
 5796              		.cfi_offset 4, -36
 5797              		.cfi_offset 5, -32
 5798              		.cfi_offset 6, -28
 5799              		.cfi_offset 7, -24
 5800              		.cfi_offset 8, -20
 5801              		.cfi_offset 9, -16
 5802              		.cfi_offset 10, -12
 5803              		.cfi_offset 11, -8
 5804              		.cfi_offset 14, -4
 5805 0004 9DF82870 		ldrb	r7, [sp, #40]	@ zero_extendqisi2
 5806 0008 9DF82C80 		ldrb	r8, [sp, #44]	@ zero_extendqisi2
2069:../Drivers/ISP/isp/Src/isp_services.c ****   uint32_t i, refFrameId;
 5807              		.loc 1 2069 3 is_stmt 1 view .LVU1604
2070:../Drivers/ISP/isp/Src/isp_services.c **** 
2071:../Drivers/ISP/isp/Src/isp_services.c ****   /* Check handle validity */
2072:../Drivers/ISP/isp/Src/isp_services.c ****   if ((hIsp == NULL) || (pStats == NULL))
 5808              		.loc 1 2072 3 view .LVU1605
 5809              		.loc 1 2072 6 is_stmt 0 view .LVU1606
 5810 000c 58B1     		cbz	r0, .L552
 5811 000e 0D46     		mov	r5, r1
 5812 0010 9246     		mov	r10, r2
 5813 0012 1E46     		mov	r6, r3
 5814 0014 8146     		mov	r9, r0
 5815              		.loc 1 2072 22 discriminator 1 view .LVU1607
 5816 0016 33B1     		cbz	r3, .L552
2073:../Drivers/ISP/isp/Src/isp_services.c ****   {
2074:../Drivers/ISP/isp/Src/isp_services.c ****     return ISP_ERR_EINVAL;
2075:../Drivers/ISP/isp/Src/isp_services.c ****   }
ARM GAS  /tmp/ccAu1Zkx.s 			page 149


2076:../Drivers/ISP/isp/Src/isp_services.c **** 
2077:../Drivers/ISP/isp/Src/isp_services.c ****   refFrameId = ISP_SVC_Misc_GetMainFrameId(hIsp) + frameDelay;
 5817              		.loc 1 2077 3 is_stmt 1 view .LVU1608
 5818              		.loc 1 2077 16 is_stmt 0 view .LVU1609
 5819 0018 FFF7FEFF 		bl	ISP_SVC_Misc_GetMainFrameId
 5820              	.LVL550:
 5821              		.loc 1 2077 14 discriminator 1 view .LVU1610
 5822 001c 0C9B     		ldr	r3, [sp, #48]
 5823 001e C318     		adds	r3, r0, r3
 5824 0020 9B46     		mov	fp, r3
 5825              	.LVL551:
2078:../Drivers/ISP/isp/Src/isp_services.c **** 
2079:../Drivers/ISP/isp/Src/isp_services.c ****   /* Register the callback */
2080:../Drivers/ISP/isp/Src/isp_services.c ****   for (i = 0; i < ISP_SVC_STAT_MAX_CB; i++)
 5826              		.loc 1 2080 3 is_stmt 1 view .LVU1611
 5827              		.loc 1 2080 10 is_stmt 0 view .LVU1612
 5828 0022 0024     		movs	r4, #0
 5829              		.loc 1 2080 3 view .LVU1613
 5830 0024 02E0     		b	.L555
 5831              	.LVL552:
 5832              	.L552:
2074:../Drivers/ISP/isp/Src/isp_services.c ****   }
 5833              		.loc 1 2074 12 view .LVU1614
 5834 0026 0120     		movs	r0, #1
 5835              	.LVL553:
2074:../Drivers/ISP/isp/Src/isp_services.c ****   }
 5836              		.loc 1 2074 12 view .LVU1615
 5837 0028 3FE0     		b	.L554
 5838              	.LVL554:
 5839              	.L564:
 5840              		.loc 1 2080 41 is_stmt 1 discriminator 1 view .LVU1616
 5841 002a 0134     		adds	r4, r4, #1
 5842              	.LVL555:
 5843              	.L555:
 5844              		.loc 1 2080 17 discriminator 2 view .LVU1617
 5845 002c 042C     		cmp	r4, #4
 5846 002e 09D8     		bhi	.L556
2081:../Drivers/ISP/isp/Src/isp_services.c ****   {
2082:../Drivers/ISP/isp/Src/isp_services.c ****     if ((ISP_SVC_StatEngine.client[i].callback == NULL) || (ISP_SVC_StatEngine.client[i].callback =
 5847              		.loc 1 2082 5 view .LVU1618
 5848              		.loc 1 2082 38 is_stmt 0 view .LVU1619
 5849 0030 04EB8402 		add	r2, r4, r4, lsl #2
 5850 0034 234B     		ldr	r3, .L566
 5851 0036 03EB8203 		add	r3, r3, r2, lsl #2
 5852 003a D3F81C31 		ldr	r3, [r3, #284]
 5853              		.loc 1 2082 8 view .LVU1620
 5854 003e 0BB1     		cbz	r3, .L556
 5855              		.loc 1 2082 57 discriminator 1 view .LVU1621
 5856 0040 AB42     		cmp	r3, r5
 5857 0042 F2D1     		bne	.L564
 5858              	.L556:
2083:../Drivers/ISP/isp/Src/isp_services.c ****       break;
2084:../Drivers/ISP/isp/Src/isp_services.c ****   }
2085:../Drivers/ISP/isp/Src/isp_services.c **** 
2086:../Drivers/ISP/isp/Src/isp_services.c ****   if (i == ISP_SVC_STAT_MAX_CB)
 5859              		.loc 1 2086 3 is_stmt 1 view .LVU1622
 5860              		.loc 1 2086 6 is_stmt 0 view .LVU1623
ARM GAS  /tmp/ccAu1Zkx.s 			page 150


 5861 0044 052C     		cmp	r4, #5
 5862 0046 3AD0     		beq	.L562
2087:../Drivers/ISP/isp/Src/isp_services.c ****   {
2088:../Drivers/ISP/isp/Src/isp_services.c ****     /* Too much callback registered */
2089:../Drivers/ISP/isp/Src/isp_services.c ****     return ISP_ERR_STAT_MAXCLIENTS;
2090:../Drivers/ISP/isp/Src/isp_services.c ****   }
2091:../Drivers/ISP/isp/Src/isp_services.c **** 
2092:../Drivers/ISP/isp/Src/isp_services.c ****   /* Add this requested stat to the list of requested stats */
2093:../Drivers/ISP/isp/Src/isp_services.c ****   if (location & ISP_STAT_LOC_UP)
 5863              		.loc 1 2093 3 is_stmt 1 view .LVU1624
 5864              		.loc 1 2093 6 is_stmt 0 view .LVU1625
 5865 0048 17F0010F 		tst	r7, #1
 5866 004c 06D0     		beq	.L558
2094:../Drivers/ISP/isp/Src/isp_services.c ****   {
2095:../Drivers/ISP/isp/Src/isp_services.c ****     ISP_SVC_StatEngine.upRequest |= type;
 5867              		.loc 1 2095 5 is_stmt 1 view .LVU1626
 5868              		.loc 1 2095 23 is_stmt 0 view .LVU1627
 5869 004e 1D4A     		ldr	r2, .L566
 5870 0050 92F88031 		ldrb	r3, [r2, #384]	@ zero_extendqisi2
 5871              		.loc 1 2095 34 view .LVU1628
 5872 0054 43EA0803 		orr	r3, r3, r8
 5873 0058 82F88031 		strb	r3, [r2, #384]
 5874              	.L558:
2096:../Drivers/ISP/isp/Src/isp_services.c ****   }
2097:../Drivers/ISP/isp/Src/isp_services.c ****   if (location & ISP_STAT_LOC_DOWN)
 5875              		.loc 1 2097 3 is_stmt 1 view .LVU1629
 5876              		.loc 1 2097 6 is_stmt 0 view .LVU1630
 5877 005c 17F0020F 		tst	r7, #2
 5878 0060 06D0     		beq	.L559
2098:../Drivers/ISP/isp/Src/isp_services.c ****   {
2099:../Drivers/ISP/isp/Src/isp_services.c ****     ISP_SVC_StatEngine.downRequest |= type;
 5879              		.loc 1 2099 5 is_stmt 1 view .LVU1631
 5880              		.loc 1 2099 23 is_stmt 0 view .LVU1632
 5881 0062 184A     		ldr	r2, .L566
 5882 0064 92F88131 		ldrb	r3, [r2, #385]	@ zero_extendqisi2
 5883              		.loc 1 2099 36 view .LVU1633
 5884 0068 43EA0803 		orr	r3, r3, r8
 5885 006c 82F88131 		strb	r3, [r2, #385]
 5886              	.L559:
2100:../Drivers/ISP/isp/Src/isp_services.c ****   }
2101:../Drivers/ISP/isp/Src/isp_services.c **** 
2102:../Drivers/ISP/isp/Src/isp_services.c ****   if (location & ISP_STAT_LOC_EXT)
 5887              		.loc 1 2102 3 is_stmt 1 view .LVU1634
 5888              		.loc 1 2102 6 is_stmt 0 view .LVU1635
 5889 0070 17F0060F 		tst	r7, #6
 5890 0074 04D0     		beq	.L560
2103:../Drivers/ISP/isp/Src/isp_services.c ****   {
2104:../Drivers/ISP/isp/Src/isp_services.c ****     /* initialize caller's pStats ext fields to safe default */
2105:../Drivers/ISP/isp/Src/isp_services.c ****     pStats->extStats.nbAreas = 0;
 5891              		.loc 1 2105 5 is_stmt 1 view .LVU1636
 5892              		.loc 1 2105 30 is_stmt 0 view .LVU1637
 5893 0076 0023     		movs	r3, #0
 5894 0078 86F88030 		strb	r3, [r6, #128]
2106:../Drivers/ISP/isp/Src/isp_services.c ****     pStats->extStats.stats = NULL;
 5895              		.loc 1 2106 5 is_stmt 1 view .LVU1638
 5896              		.loc 1 2106 28 is_stmt 0 view .LVU1639
 5897 007c C6F88430 		str	r3, [r6, #132]
ARM GAS  /tmp/ccAu1Zkx.s 			page 151


 5898              	.L560:
2107:../Drivers/ISP/isp/Src/isp_services.c ****   }
2108:../Drivers/ISP/isp/Src/isp_services.c **** 
2109:../Drivers/ISP/isp/Src/isp_services.c ****   if (type == ISP_STAT_TYPE_ALL_TMP)
 5899              		.loc 1 2109 3 is_stmt 1 view .LVU1640
 5900              		.loc 1 2109 6 is_stmt 0 view .LVU1641
 5901 0080 B8F1040F 		cmp	r8, #4
 5902 0084 13D0     		beq	.L565
 5903              	.L561:
2110:../Drivers/ISP/isp/Src/isp_services.c ****   {
2111:../Drivers/ISP/isp/Src/isp_services.c ****     /* Special case: request all stats for a short time (3 cycle) */
2112:../Drivers/ISP/isp/Src/isp_services.c ****     ISP_SVC_StatEngine.requestAllCounter = ISP_SVC_Misc_GetMainFrameId(hIsp) + 3 * ISP_STAT_CFG_CYC
2113:../Drivers/ISP/isp/Src/isp_services.c ****   }
2114:../Drivers/ISP/isp/Src/isp_services.c **** 
2115:../Drivers/ISP/isp/Src/isp_services.c ****   /* Register client */
2116:../Drivers/ISP/isp/Src/isp_services.c ****   ISP_SVC_StatEngine.client[i].callback = callback;
 5904              		.loc 1 2116 3 is_stmt 1 view .LVU1642
 5905              		.loc 1 2116 41 is_stmt 0 view .LVU1643
 5906 0086 0F4A     		ldr	r2, .L566
 5907 0088 04EB8403 		add	r3, r4, r4, lsl #2
 5908 008c 02EB8303 		add	r3, r2, r3, lsl #2
 5909 0090 C3F81C51 		str	r5, [r3, #284]
2117:../Drivers/ISP/isp/Src/isp_services.c ****   ISP_SVC_StatEngine.client[i].pAlgo = pAlgo;
 5910              		.loc 1 2117 3 is_stmt 1 view .LVU1644
 5911              		.loc 1 2117 38 is_stmt 0 view .LVU1645
 5912 0094 C3F820A1 		str	r10, [r3, #288]
2118:../Drivers/ISP/isp/Src/isp_services.c ****   ISP_SVC_StatEngine.client[i].pStats = pStats;
 5913              		.loc 1 2118 3 is_stmt 1 view .LVU1646
 5914              		.loc 1 2118 39 is_stmt 0 view .LVU1647
 5915 0098 C3F82461 		str	r6, [r3, #292]
2119:../Drivers/ISP/isp/Src/isp_services.c ****   ISP_SVC_StatEngine.client[i].location = location;
 5916              		.loc 1 2119 3 is_stmt 1 view .LVU1648
 5917              		.loc 1 2119 41 is_stmt 0 view .LVU1649
 5918 009c 83F82C71 		strb	r7, [r3, #300]
2120:../Drivers/ISP/isp/Src/isp_services.c ****   ISP_SVC_StatEngine.client[i].type = type;
 5919              		.loc 1 2120 3 is_stmt 1 view .LVU1650
 5920              		.loc 1 2120 37 is_stmt 0 view .LVU1651
 5921 00a0 83F82D81 		strb	r8, [r3, #301]
2121:../Drivers/ISP/isp/Src/isp_services.c ****   ISP_SVC_StatEngine.client[i].refFrameId = refFrameId;
 5922              		.loc 1 2121 3 is_stmt 1 view .LVU1652
 5923              		.loc 1 2121 43 is_stmt 0 view .LVU1653
 5924 00a4 C3F828B1 		str	fp, [r3, #296]
2122:../Drivers/ISP/isp/Src/isp_services.c **** 
2123:../Drivers/ISP/isp/Src/isp_services.c ****   return ISP_OK;
 5925              		.loc 1 2123 3 is_stmt 1 view .LVU1654
 5926              		.loc 1 2123 10 is_stmt 0 view .LVU1655
 5927 00a8 0020     		movs	r0, #0
 5928              	.LVL556:
 5929              	.L554:
2124:../Drivers/ISP/isp/Src/isp_services.c **** }
 5930              		.loc 1 2124 1 view .LVU1656
 5931 00aa BDE8F88F 		pop	{r3, r4, r5, r6, r7, r8, r9, r10, fp, pc}
 5932              	.LVL557:
 5933              	.L565:
2112:../Drivers/ISP/isp/Src/isp_services.c ****   }
 5934              		.loc 1 2112 5 is_stmt 1 view .LVU1657
2112:../Drivers/ISP/isp/Src/isp_services.c ****   }
ARM GAS  /tmp/ccAu1Zkx.s 			page 152


 5935              		.loc 1 2112 44 is_stmt 0 view .LVU1658
 5936 00ae 4846     		mov	r0, r9
 5937 00b0 FFF7FEFF 		bl	ISP_SVC_Misc_GetMainFrameId
 5938              	.LVL558:
2112:../Drivers/ISP/isp/Src/isp_services.c ****   }
 5939              		.loc 1 2112 78 discriminator 1 view .LVU1659
 5940 00b4 1E30     		adds	r0, r0, #30
2112:../Drivers/ISP/isp/Src/isp_services.c ****   }
 5941              		.loc 1 2112 42 discriminator 1 view .LVU1660
 5942 00b6 034B     		ldr	r3, .L566
 5943 00b8 C3F88401 		str	r0, [r3, #388]
 5944 00bc E3E7     		b	.L561
 5945              	.L562:
2089:../Drivers/ISP/isp/Src/isp_services.c ****   }
 5946              		.loc 1 2089 12 view .LVU1661
 5947 00be AC20     		movs	r0, #172
 5948 00c0 F3E7     		b	.L554
 5949              	.L567:
 5950 00c2 00BF     		.align	2
 5951              	.L566:
 5952 00c4 00000000 		.word	ISP_SVC_StatEngine
 5953              		.cfi_endproc
 5954              	.LFE945:
 5956              		.section	.text.ISP_SVC_Stats_WeightedAverageL,"ax",%progbits
 5957              		.align	1
 5958              		.global	ISP_SVC_Stats_WeightedAverageL
 5959              		.syntax unified
 5960              		.thumb
 5961              		.thumb_func
 5963              	ISP_SVC_Stats_WeightedAverageL:
 5964              	.LVL559:
 5965              	.LFB946:
2125:../Drivers/ISP/isp/Src/isp_services.c **** 
2126:../Drivers/ISP/isp/Src/isp_services.c **** /**
2127:../Drivers/ISP/isp/Src/isp_services.c ****   * @brief  ISP_SVC_Stats_WeightedAverageL
2128:../Drivers/ISP/isp/Src/isp_services.c ****   *         Weighted averageL calculation
2129:../Drivers/ISP/isp/Src/isp_services.c ****   * @param  extStats: pointer to external statistics data
2130:../Drivers/ISP/isp/Src/isp_services.c ****   * @retval weighted averageL
2131:../Drivers/ISP/isp/Src/isp_services.c ****   */
2132:../Drivers/ISP/isp/Src/isp_services.c **** uint8_t ISP_SVC_Stats_WeightedAverageL(const ISP_ExternalStatsTypeDef *extStats)
2133:../Drivers/ISP/isp/Src/isp_services.c **** {
 5966              		.loc 1 2133 1 is_stmt 1 view -0
 5967              		.cfi_startproc
 5968              		@ args = 0, pretend = 0, frame = 8
 5969              		@ frame_needed = 0, uses_anonymous_args = 0
 5970              		@ link register save eliminated.
2134:../Drivers/ISP/isp/Src/isp_services.c ****   float sum = 0, wsum = 0;
 5971              		.loc 1 2134 3 view .LVU1663
2135:../Drivers/ISP/isp/Src/isp_services.c ****   for (uint8_t i = 0; i < extStats->nbAreas; ++i) {
 5972              		.loc 1 2135 3 view .LVU1664
 5973              	.LBB6:
 5974              		.loc 1 2135 8 view .LVU1665
 5975              		.loc 1 2135 16 is_stmt 0 view .LVU1666
 5976 0000 0023     		movs	r3, #0
 5977              	.LBE6:
2134:../Drivers/ISP/isp/Src/isp_services.c ****   float sum = 0, wsum = 0;
 5978              		.loc 1 2134 18 view .LVU1667
ARM GAS  /tmp/ccAu1Zkx.s 			page 153


 5979 0002 DFED176A 		vldr.32	s13, .L580
2134:../Drivers/ISP/isp/Src/isp_services.c ****   float sum = 0, wsum = 0;
 5980              		.loc 1 2134 9 view .LVU1668
 5981 0006 B0EE666A 		vmov.f32	s12, s13
 5982              	.LBB7:
 5983              		.loc 1 2135 3 view .LVU1669
 5984 000a 13E0     		b	.L569
 5985              	.LVL560:
 5986              	.L570:
2136:../Drivers/ISP/isp/Src/isp_services.c ****     sum += extStats->stats[i].averageL * extStats->stats[i].weight;
 5987              		.loc 1 2136 5 is_stmt 1 view .LVU1670
 5988              		.loc 1 2136 20 is_stmt 0 view .LVU1671
 5989 000c 4268     		ldr	r2, [r0, #4]
 5990              		.loc 1 2136 27 view .LVU1672
 5991 000e C3EBC301 		rsb	r1, r3, r3, lsl #3
 5992 0012 02EBC102 		add	r2, r2, r1, lsl #3
 5993              		.loc 1 2136 30 view .LVU1673
 5994 0016 D178     		ldrb	r1, [r2, #3]	@ zero_extendqisi2
 5995 0018 07EE901A 		vmov	s15, r1	@ int
 5996              		.loc 1 2136 60 view .LVU1674
 5997 001c 92ED0D7A 		vldr.32	s14, [r2, #52]
 5998              		.loc 1 2136 40 view .LVU1675
 5999 0020 F8EEE77A 		vcvt.f32.s32	s15, s15
 6000 0024 67EE877A 		vmul.f32	s15, s15, s14
 6001              		.loc 1 2136 9 view .LVU1676
 6002 0028 36EE276A 		vadd.f32	s12, s12, s15
 6003              	.LVL561:
2137:../Drivers/ISP/isp/Src/isp_services.c ****     wsum += extStats->stats[i].weight;
 6004              		.loc 1 2137 5 is_stmt 1 view .LVU1677
 6005              		.loc 1 2137 10 is_stmt 0 view .LVU1678
 6006 002c 76EE876A 		vadd.f32	s13, s13, s14
 6007              	.LVL562:
2135:../Drivers/ISP/isp/Src/isp_services.c ****   for (uint8_t i = 0; i < extStats->nbAreas; ++i) {
 6008              		.loc 1 2135 46 is_stmt 1 discriminator 1 view .LVU1679
 6009 0030 0133     		adds	r3, r3, #1
 6010              	.LVL563:
2135:../Drivers/ISP/isp/Src/isp_services.c ****   for (uint8_t i = 0; i < extStats->nbAreas; ++i) {
 6011              		.loc 1 2135 46 is_stmt 0 discriminator 1 view .LVU1680
 6012 0032 DBB2     		uxtb	r3, r3
 6013              	.LVL564:
 6014              	.L569:
2135:../Drivers/ISP/isp/Src/isp_services.c ****   for (uint8_t i = 0; i < extStats->nbAreas; ++i) {
 6015              		.loc 1 2135 25 is_stmt 1 discriminator 2 view .LVU1681
2135:../Drivers/ISP/isp/Src/isp_services.c ****   for (uint8_t i = 0; i < extStats->nbAreas; ++i) {
 6016              		.loc 1 2135 35 is_stmt 0 discriminator 2 view .LVU1682
 6017 0034 0278     		ldrb	r2, [r0]	@ zero_extendqisi2
2135:../Drivers/ISP/isp/Src/isp_services.c ****   for (uint8_t i = 0; i < extStats->nbAreas; ++i) {
 6018              		.loc 1 2135 25 discriminator 2 view .LVU1683
 6019 0036 9A42     		cmp	r2, r3
 6020 0038 E8D8     		bhi	.L570
 6021              	.LBE7:
2138:../Drivers/ISP/isp/Src/isp_services.c ****   }
2139:../Drivers/ISP/isp/Src/isp_services.c ****   return (wsum > 0) ? (uint8_t)(sum / wsum) : 0;
 6022              		.loc 1 2139 3 is_stmt 1 view .LVU1684
 6023              		.loc 1 2139 45 is_stmt 0 view .LVU1685
 6024 003a F5EEC06A 		vcmpe.f32	s13, #0
 6025 003e F1EE10FA 		vmrs	APSR_nzcv, FPSCR
ARM GAS  /tmp/ccAu1Zkx.s 			page 154


 6026 0042 0ADD     		ble	.L575
2133:../Drivers/ISP/isp/Src/isp_services.c ****   float sum = 0, wsum = 0;
 6027              		.loc 1 2133 1 view .LVU1686
 6028 0044 82B0     		sub	sp, sp, #8
 6029              	.LCFI107:
 6030              		.cfi_def_cfa_offset 8
 6031              		.loc 1 2139 37 discriminator 1 view .LVU1687
 6032 0046 C6EE267A 		vdiv.f32	s15, s12, s13
 6033              		.loc 1 2139 45 discriminator 1 view .LVU1688
 6034 004a FCEEE77A 		vcvt.u32.f32	s15, s15
 6035 004e CDED017A 		vstr.32	s15, [sp, #4]	@ int
 6036 0052 9DF80400 		ldrb	r0, [sp, #4]	@ zero_extendqisi2
 6037              	.LVL565:
2140:../Drivers/ISP/isp/Src/isp_services.c **** }
 6038              		.loc 1 2140 1 view .LVU1689
 6039 0056 02B0     		add	sp, sp, #8
 6040              	.LCFI108:
 6041              		.cfi_def_cfa_offset 0
 6042              		@ sp needed
 6043 0058 7047     		bx	lr
 6044              	.LVL566:
 6045              	.L575:
2139:../Drivers/ISP/isp/Src/isp_services.c **** }
 6046              		.loc 1 2139 45 discriminator 2 view .LVU1690
 6047 005a 0020     		movs	r0, #0
 6048              	.LVL567:
 6049              		.loc 1 2140 1 view .LVU1691
 6050 005c 7047     		bx	lr
 6051              	.L581:
 6052 005e 00BF     		.align	2
 6053              	.L580:
 6054 0060 00000000 		.word	0
 6055              		.cfi_endproc
 6056              	.LFE946:
 6058              		.section	.text.ISP_SVC_Stats_EvaluateUp,"ax",%progbits
 6059              		.align	1
 6060              		.global	ISP_SVC_Stats_EvaluateUp
 6061              		.syntax unified
 6062              		.thumb
 6063              		.thumb_func
 6065              	ISP_SVC_Stats_EvaluateUp:
 6066              	.LVL568:
 6067              	.LFB947:
2141:../Drivers/ISP/isp/Src/isp_services.c **** 
2142:../Drivers/ISP/isp/Src/isp_services.c **** /**
2143:../Drivers/ISP/isp/Src/isp_services.c ****   * @brief  ISP_SVC_Stats_EvaluateUp
2144:../Drivers/ISP/isp/Src/isp_services.c ****   *         Evaluate average Up statistics from Down statistics by reverting ISP Gain and Black lev
2145:../Drivers/ISP/isp/Src/isp_services.c ****   * @param  hIsp:  ISP device handle.
2146:../Drivers/ISP/isp/Src/isp_services.c ****   * @param  pDownStats: pointer to the input Down statistics
2147:../Drivers/ISP/isp/Src/isp_services.c ****   * @param  pUpStats:   pointer to the output Up statistics
2148:../Drivers/ISP/isp/Src/isp_services.c ****   */
2149:../Drivers/ISP/isp/Src/isp_services.c **** ISP_StatusTypeDef ISP_SVC_Stats_EvaluateUp(ISP_HandleTypeDef *hIsp, ISP_StatisticsTypeDef *pDownSta
2150:../Drivers/ISP/isp/Src/isp_services.c **** {
 6068              		.loc 1 2150 1 is_stmt 1 view -0
 6069              		.cfi_startproc
 6070              		@ args = 0, pretend = 0, frame = 32
 6071              		@ frame_needed = 0, uses_anonymous_args = 0
ARM GAS  /tmp/ccAu1Zkx.s 			page 155


 6072              		.loc 1 2150 1 is_stmt 0 view .LVU1693
 6073 0000 30B5     		push	{r4, r5, lr}
 6074              	.LCFI109:
 6075              		.cfi_def_cfa_offset 12
 6076              		.cfi_offset 4, -12
 6077              		.cfi_offset 5, -8
 6078              		.cfi_offset 14, -4
 6079 0002 2DED068B 		vpush.64	{d8, d9, d10}
 6080              	.LCFI110:
 6081              		.cfi_def_cfa_offset 36
 6082              		.cfi_offset 80, -36
 6083              		.cfi_offset 81, -32
 6084              		.cfi_offset 82, -28
 6085              		.cfi_offset 83, -24
 6086              		.cfi_offset 84, -20
 6087              		.cfi_offset 85, -16
 6088 0006 89B0     		sub	sp, sp, #36
 6089              	.LCFI111:
 6090              		.cfi_def_cfa_offset 72
 6091 0008 0546     		mov	r5, r0
 6092 000a 1446     		mov	r4, r2
2151:../Drivers/ISP/isp/Src/isp_services.c ****   ISP_ISPGainTypeDef ISPGain;
 6093              		.loc 1 2151 3 is_stmt 1 view .LVU1694
2152:../Drivers/ISP/isp/Src/isp_services.c ****   ISP_BlackLevelTypeDef BlackLevel;
 6094              		.loc 1 2152 3 view .LVU1695
2153:../Drivers/ISP/isp/Src/isp_services.c ****   double upR, upG, upB;
 6095              		.loc 1 2153 3 view .LVU1696
2154:../Drivers/ISP/isp/Src/isp_services.c **** 
2155:../Drivers/ISP/isp/Src/isp_services.c ****   upR = (double)pDownStats->averageR;
 6096              		.loc 1 2155 3 view .LVU1697
 6097              		.loc 1 2155 27 is_stmt 0 view .LVU1698
 6098 000c 0B78     		ldrb	r3, [r1]	@ zero_extendqisi2
 6099 000e 0AEE103A 		vmov	s20, r3	@ int
 6100              		.loc 1 2155 7 view .LVU1699
 6101 0012 B8EE4AAB 		vcvt.f64.u32	d10, s20
 6102              	.LVL569:
2156:../Drivers/ISP/isp/Src/isp_services.c ****   upG = (double)pDownStats->averageG;
 6103              		.loc 1 2156 3 is_stmt 1 view .LVU1700
 6104              		.loc 1 2156 27 is_stmt 0 view .LVU1701
 6105 0016 4B78     		ldrb	r3, [r1, #1]	@ zero_extendqisi2
 6106 0018 09EE103A 		vmov	s18, r3	@ int
 6107              		.loc 1 2156 7 view .LVU1702
 6108 001c B8EE499B 		vcvt.f64.u32	d9, s18
 6109              	.LVL570:
2157:../Drivers/ISP/isp/Src/isp_services.c ****   upB = (double)pDownStats->averageB;
 6110              		.loc 1 2157 3 is_stmt 1 view .LVU1703
 6111              		.loc 1 2157 27 is_stmt 0 view .LVU1704
 6112 0020 8B78     		ldrb	r3, [r1, #2]	@ zero_extendqisi2
 6113 0022 08EE103A 		vmov	s16, r3	@ int
 6114              		.loc 1 2157 7 view .LVU1705
 6115 0026 B8EE488B 		vcvt.f64.u32	d8, s16
 6116              	.LVL571:
2158:../Drivers/ISP/isp/Src/isp_services.c **** 
2159:../Drivers/ISP/isp/Src/isp_services.c ****   if ((ISP_SVC_ISP_GetGain(hIsp, &ISPGain) == ISP_OK) && ISPGain.enable && ISPGain.ispGainR && ISPG
 6117              		.loc 1 2159 3 is_stmt 1 view .LVU1706
 6118              		.loc 1 2159 8 is_stmt 0 view .LVU1707
 6119 002a 04A9     		add	r1, sp, #16
ARM GAS  /tmp/ccAu1Zkx.s 			page 156


 6120              	.LVL572:
 6121              		.loc 1 2159 8 view .LVU1708
 6122 002c FFF7FEFF 		bl	ISP_SVC_ISP_GetGain
 6123              	.LVL573:
 6124              		.loc 1 2159 6 discriminator 1 view .LVU1709
 6125 0030 00BB     		cbnz	r0, .L584
 6126              		.loc 1 2159 65 discriminator 2 view .LVU1710
 6127 0032 9DF81030 		ldrb	r3, [sp, #16]	@ zero_extendqisi2
 6128              		.loc 1 2159 55 discriminator 2 view .LVU1711
 6129 0036 EBB1     		cbz	r3, .L584
 6130              		.loc 1 2159 83 discriminator 3 view .LVU1712
 6131 0038 059B     		ldr	r3, [sp, #20]
 6132              		.loc 1 2159 73 discriminator 3 view .LVU1713
 6133 003a DBB1     		cbz	r3, .L584
 6134              		.loc 1 2159 103 discriminator 4 view .LVU1714
 6135 003c 069A     		ldr	r2, [sp, #24]
 6136              		.loc 1 2159 93 discriminator 4 view .LVU1715
 6137 003e CAB1     		cbz	r2, .L584
2160:../Drivers/ISP/isp/Src/isp_services.c ****   {
2161:../Drivers/ISP/isp/Src/isp_services.c ****     /* Revert gain */
2162:../Drivers/ISP/isp/Src/isp_services.c ****     upR *= (double)ISP_GAIN_PRECISION_FACTOR / ISPGain.ispGainR;
 6138              		.loc 1 2162 5 is_stmt 1 view .LVU1716
 6139              		.loc 1 2162 46 is_stmt 0 view .LVU1717
 6140 0040 07EE903A 		vmov	s15, r3	@ int
 6141 0044 B8EE677B 		vcvt.f64.u32	d7, s15
 6142 0048 9FED356B 		vldr.64	d6, .L596
 6143 004c 86EE075B 		vdiv.f64	d5, d6, d7
 6144              		.loc 1 2162 9 view .LVU1718
 6145 0050 2AEE05AB 		vmul.f64	d10, d10, d5
 6146              	.LVL574:
2163:../Drivers/ISP/isp/Src/isp_services.c ****     upG *= (double)ISP_GAIN_PRECISION_FACTOR / ISPGain.ispGainG;
 6147              		.loc 1 2163 5 is_stmt 1 view .LVU1719
 6148              		.loc 1 2163 46 is_stmt 0 view .LVU1720
 6149 0054 07EE902A 		vmov	s15, r2	@ int
 6150 0058 B8EE677B 		vcvt.f64.u32	d7, s15
 6151 005c 86EE075B 		vdiv.f64	d5, d6, d7
 6152              		.loc 1 2163 9 view .LVU1721
 6153 0060 29EE059B 		vmul.f64	d9, d9, d5
 6154              	.LVL575:
2164:../Drivers/ISP/isp/Src/isp_services.c ****     upB *= (double)ISP_GAIN_PRECISION_FACTOR / ISPGain.ispGainB;
 6155              		.loc 1 2164 5 is_stmt 1 view .LVU1722
 6156              		.loc 1 2164 46 is_stmt 0 view .LVU1723
 6157 0064 DDED077A 		vldr.32	s15, [sp, #28]	@ int
 6158 0068 B8EE677B 		vcvt.f64.u32	d7, s15
 6159 006c 86EE075B 		vdiv.f64	d5, d6, d7
 6160              		.loc 1 2164 9 view .LVU1724
 6161 0070 28EE058B 		vmul.f64	d8, d8, d5
 6162              	.LVL576:
 6163              	.L584:
2165:../Drivers/ISP/isp/Src/isp_services.c ****   }
2166:../Drivers/ISP/isp/Src/isp_services.c **** 
2167:../Drivers/ISP/isp/Src/isp_services.c ****   if ((ISP_SVC_ISP_GetBlackLevel(hIsp, &BlackLevel) == ISP_OK) && BlackLevel.enable)
 6164              		.loc 1 2167 3 is_stmt 1 view .LVU1725
 6165              		.loc 1 2167 8 is_stmt 0 view .LVU1726
 6166 0074 03A9     		add	r1, sp, #12
 6167 0076 2846     		mov	r0, r5
 6168 0078 FFF7FEFF 		bl	ISP_SVC_ISP_GetBlackLevel
ARM GAS  /tmp/ccAu1Zkx.s 			page 157


 6169              	.LVL577:
 6170              		.loc 1 2167 6 discriminator 1 view .LVU1727
 6171 007c D0B9     		cbnz	r0, .L587
 6172              		.loc 1 2167 77 discriminator 2 view .LVU1728
 6173 007e 9DF80C30 		ldrb	r3, [sp, #12]	@ zero_extendqisi2
 6174              		.loc 1 2167 64 discriminator 2 view .LVU1729
 6175 0082 BBB1     		cbz	r3, .L587
2168:../Drivers/ISP/isp/Src/isp_services.c ****   {
2169:../Drivers/ISP/isp/Src/isp_services.c ****     /* Revert black level compensation */
2170:../Drivers/ISP/isp/Src/isp_services.c ****     upR += BlackLevel.BLCR;
 6176              		.loc 1 2170 5 is_stmt 1 view .LVU1730
 6177              		.loc 1 2170 22 is_stmt 0 view .LVU1731
 6178 0084 9DF80D30 		ldrb	r3, [sp, #13]	@ zero_extendqisi2
 6179 0088 07EE103A 		vmov	s14, r3	@ int
 6180              		.loc 1 2170 9 view .LVU1732
 6181 008c B8EEC77B 		vcvt.f64.s32	d7, s14
 6182 0090 3AEE07AB 		vadd.f64	d10, d10, d7
 6183              	.LVL578:
2171:../Drivers/ISP/isp/Src/isp_services.c ****     upG += BlackLevel.BLCG;
 6184              		.loc 1 2171 5 is_stmt 1 view .LVU1733
 6185              		.loc 1 2171 22 is_stmt 0 view .LVU1734
 6186 0094 9DF80E30 		ldrb	r3, [sp, #14]	@ zero_extendqisi2
 6187 0098 07EE103A 		vmov	s14, r3	@ int
 6188              		.loc 1 2171 9 view .LVU1735
 6189 009c B8EEC77B 		vcvt.f64.s32	d7, s14
 6190 00a0 39EE079B 		vadd.f64	d9, d9, d7
 6191              	.LVL579:
2172:../Drivers/ISP/isp/Src/isp_services.c ****     upB += BlackLevel.BLCB;
 6192              		.loc 1 2172 5 is_stmt 1 view .LVU1736
 6193              		.loc 1 2172 22 is_stmt 0 view .LVU1737
 6194 00a4 9DF80F30 		ldrb	r3, [sp, #15]	@ zero_extendqisi2
 6195 00a8 07EE103A 		vmov	s14, r3	@ int
 6196              		.loc 1 2172 9 view .LVU1738
 6197 00ac B8EEC77B 		vcvt.f64.s32	d7, s14
 6198 00b0 38EE078B 		vadd.f64	d8, d8, d7
 6199              	.LVL580:
 6200              	.L587:
2173:../Drivers/ISP/isp/Src/isp_services.c ****   }
2174:../Drivers/ISP/isp/Src/isp_services.c **** 
2175:../Drivers/ISP/isp/Src/isp_services.c ****   pUpStats->averageR = (uint8_t)(upR > 255 ? 255 : upR);
 6201              		.loc 1 2175 3 is_stmt 1 view .LVU1739
 6202              		.loc 1 2175 24 is_stmt 0 view .LVU1740
 6203 00b4 9FED1C7B 		vldr.64	d7, .L596+8
 6204 00b8 B4EEC7AB 		vcmpe.f64	d10, d7
 6205 00bc F1EE10FA 		vmrs	APSR_nzcv, FPSCR
 6206 00c0 27DC     		bgt	.L592
 6207              		.loc 1 2175 24 discriminator 2 view .LVU1741
 6208 00c2 FCEECA7B 		vcvt.u32.f64	s15, d10
 6209 00c6 CDED017A 		vstr.32	s15, [sp, #4]	@ int
 6210 00ca 9DF80430 		ldrb	r3, [sp, #4]	@ zero_extendqisi2
 6211              	.L589:
 6212              		.loc 1 2175 22 discriminator 3 view .LVU1742
 6213 00ce 2370     		strb	r3, [r4]
2176:../Drivers/ISP/isp/Src/isp_services.c ****   pUpStats->averageG = (uint8_t)(upG > 255 ? 255 : upG);
 6214              		.loc 1 2176 3 is_stmt 1 view .LVU1743
 6215              		.loc 1 2176 24 is_stmt 0 view .LVU1744
 6216 00d0 9FED157B 		vldr.64	d7, .L596+8
ARM GAS  /tmp/ccAu1Zkx.s 			page 158


 6217 00d4 B4EEC79B 		vcmpe.f64	d9, d7
 6218 00d8 F1EE10FA 		vmrs	APSR_nzcv, FPSCR
 6219 00dc 1BDC     		bgt	.L593
 6220              		.loc 1 2176 24 discriminator 2 view .LVU1745
 6221 00de FCEEC97B 		vcvt.u32.f64	s15, d9
 6222 00e2 CDED017A 		vstr.32	s15, [sp, #4]	@ int
 6223 00e6 9DF80430 		ldrb	r3, [sp, #4]	@ zero_extendqisi2
 6224              	.L590:
 6225              		.loc 1 2176 22 discriminator 3 view .LVU1746
 6226 00ea 6370     		strb	r3, [r4, #1]
2177:../Drivers/ISP/isp/Src/isp_services.c ****   pUpStats->averageB = (uint8_t)(upB > 255 ? 255 : upB);
 6227              		.loc 1 2177 3 is_stmt 1 view .LVU1747
 6228              		.loc 1 2177 24 is_stmt 0 view .LVU1748
 6229 00ec 9FED0E7B 		vldr.64	d7, .L596+8
 6230 00f0 B4EEC78B 		vcmpe.f64	d8, d7
 6231 00f4 F1EE10FA 		vmrs	APSR_nzcv, FPSCR
 6232 00f8 0FDC     		bgt	.L594
 6233              		.loc 1 2177 24 discriminator 2 view .LVU1749
 6234 00fa FCEEC87B 		vcvt.u32.f64	s15, d8
 6235 00fe CDED017A 		vstr.32	s15, [sp, #4]	@ int
 6236 0102 9DF80430 		ldrb	r3, [sp, #4]	@ zero_extendqisi2
 6237              	.L591:
 6238              		.loc 1 2177 22 discriminator 3 view .LVU1750
 6239 0106 A370     		strb	r3, [r4, #2]
2178:../Drivers/ISP/isp/Src/isp_services.c **** 
2179:../Drivers/ISP/isp/Src/isp_services.c ****   return ISP_OK;
 6240              		.loc 1 2179 3 is_stmt 1 view .LVU1751
2180:../Drivers/ISP/isp/Src/isp_services.c **** }
 6241              		.loc 1 2180 1 is_stmt 0 view .LVU1752
 6242 0108 0020     		movs	r0, #0
 6243 010a 09B0     		add	sp, sp, #36
 6244              	.LCFI112:
 6245              		.cfi_remember_state
 6246              		.cfi_def_cfa_offset 36
 6247              		@ sp needed
 6248 010c BDEC068B 		vldm	sp!, {d8-d10}
 6249              	.LCFI113:
 6250              		.cfi_restore 84
 6251              		.cfi_restore 85
 6252              		.cfi_restore 82
 6253              		.cfi_restore 83
 6254              		.cfi_restore 80
 6255              		.cfi_restore 81
 6256              		.cfi_def_cfa_offset 12
 6257              	.LVL581:
 6258              		.loc 1 2180 1 view .LVU1753
 6259 0110 30BD     		pop	{r4, r5, pc}
 6260              	.LVL582:
 6261              	.L592:
 6262              	.LCFI114:
 6263              		.cfi_restore_state
2175:../Drivers/ISP/isp/Src/isp_services.c ****   pUpStats->averageG = (uint8_t)(upG > 255 ? 255 : upG);
 6264              		.loc 1 2175 24 discriminator 1 view .LVU1754
 6265 0112 FF23     		movs	r3, #255
 6266 0114 DBE7     		b	.L589
 6267              	.L593:
2176:../Drivers/ISP/isp/Src/isp_services.c ****   pUpStats->averageB = (uint8_t)(upB > 255 ? 255 : upB);
ARM GAS  /tmp/ccAu1Zkx.s 			page 159


 6268              		.loc 1 2176 24 discriminator 1 view .LVU1755
 6269 0116 FF23     		movs	r3, #255
 6270 0118 E7E7     		b	.L590
 6271              	.L594:
2177:../Drivers/ISP/isp/Src/isp_services.c **** 
 6272              		.loc 1 2177 24 discriminator 1 view .LVU1756
 6273 011a FF23     		movs	r3, #255
 6274 011c F3E7     		b	.L591
 6275              	.L597:
 6276 011e 00BF     		.align	3
 6277              	.L596:
 6278 0120 00000000 		.word	0
 6279 0124 84D79741 		.word	1100470148
 6280 0128 00000000 		.word	0
 6281 012c 00E06F40 		.word	1081073664
 6282              		.cfi_endproc
 6283              	.LFE947:
 6285              		.section	.text.ISP_SVC_Misc_GetEstimatedLux,"ax",%progbits
 6286              		.align	1
 6287              		.global	ISP_SVC_Misc_GetEstimatedLux
 6288              		.syntax unified
 6289              		.thumb
 6290              		.thumb_func
 6292              	ISP_SVC_Misc_GetEstimatedLux:
 6293              	.LVL583:
 6294              	.LFB948:
2181:../Drivers/ISP/isp/Src/isp_services.c **** 
2182:../Drivers/ISP/isp/Src/isp_services.c **** /**
2183:../Drivers/ISP/isp/Src/isp_services.c ****   * @brief  ISP_SVC_Misc_GetEstimatedLux
2184:../Drivers/ISP/isp/Src/isp_services.c ****   *         Estimate the lux value of the scene captured by the sensor
2185:../Drivers/ISP/isp/Src/isp_services.c ****   * @param  hIsp: ISP device handle
2186:../Drivers/ISP/isp/Src/isp_services.c ****   *         averageL: luminance average statistic value of the area where the lux is estimated
2187:../Drivers/ISP/isp/Src/isp_services.c ****   * @retval estimated lux value (-1 if exposure is null, no possible estimation)
2188:../Drivers/ISP/isp/Src/isp_services.c ****   */
2189:../Drivers/ISP/isp/Src/isp_services.c **** int32_t ISP_SVC_Misc_GetEstimatedLux(ISP_HandleTypeDef *hIsp, uint8_t averageL)
2190:../Drivers/ISP/isp/Src/isp_services.c **** {
 6295              		.loc 1 2190 1 is_stmt 1 view -0
 6296              		.cfi_startproc
 6297              		@ args = 0, pretend = 0, frame = 16
 6298              		@ frame_needed = 0, uses_anonymous_args = 0
 6299              		.loc 1 2190 1 is_stmt 0 view .LVU1758
 6300 0000 F0B5     		push	{r4, r5, r6, r7, lr}
 6301              	.LCFI115:
 6302              		.cfi_def_cfa_offset 20
 6303              		.cfi_offset 4, -20
 6304              		.cfi_offset 5, -16
 6305              		.cfi_offset 6, -12
 6306              		.cfi_offset 7, -8
 6307              		.cfi_offset 14, -4
 6308 0002 2DED088B 		vpush.64	{d8, d9, d10, d11}
 6309              	.LCFI116:
 6310              		.cfi_def_cfa_offset 52
 6311              		.cfi_offset 80, -52
 6312              		.cfi_offset 81, -48
 6313              		.cfi_offset 82, -44
 6314              		.cfi_offset 83, -40
 6315              		.cfi_offset 84, -36
ARM GAS  /tmp/ccAu1Zkx.s 			page 160


 6316              		.cfi_offset 85, -32
 6317              		.cfi_offset 86, -28
 6318              		.cfi_offset 87, -24
 6319 0006 85B0     		sub	sp, sp, #20
 6320              	.LCFI117:
 6321              		.cfi_def_cfa_offset 72
 6322 0008 0546     		mov	r5, r0
 6323 000a 0191     		str	r1, [sp, #4]
2191:../Drivers/ISP/isp/Src/isp_services.c ****   ISP_SensorExposureTypeDef exposureConfig;
 6324              		.loc 1 2191 3 is_stmt 1 view .LVU1759
2192:../Drivers/ISP/isp/Src/isp_services.c ****   ISP_SensorGainTypeDef gainConfig;
 6325              		.loc 1 2192 3 view .LVU1760
2193:../Drivers/ISP/isp/Src/isp_services.c ****   ISP_IQParamTypeDef *IQParamConfig;
 6326              		.loc 1 2193 3 view .LVU1761
2194:../Drivers/ISP/isp/Src/isp_services.c ****   double a, b, globalExposure;
 6327              		.loc 1 2194 3 view .LVU1762
2195:../Drivers/ISP/isp/Src/isp_services.c ****   int32_t lux;
 6328              		.loc 1 2195 3 view .LVU1763
2196:../Drivers/ISP/isp/Src/isp_services.c ****   ISP_StatusTypeDef ret = ISP_OK;
 6329              		.loc 1 2196 3 view .LVU1764
 6330              	.LVL584:
2197:../Drivers/ISP/isp/Src/isp_services.c **** 
2198:../Drivers/ISP/isp/Src/isp_services.c ****   IQParamConfig = ISP_SVC_IQParam_Get(hIsp);
 6331              		.loc 1 2198 3 view .LVU1765
 6332              		.loc 1 2198 19 is_stmt 0 view .LVU1766
 6333 000c FFF7FEFF 		bl	ISP_SVC_IQParam_Get
 6334              	.LVL585:
 6335              		.loc 1 2198 19 view .LVU1767
 6336 0010 0446     		mov	r4, r0
 6337              	.LVL586:
2199:../Drivers/ISP/isp/Src/isp_services.c ****   ret = ISP_SVC_Sensor_GetExposure(hIsp, &exposureConfig);
 6338              		.loc 1 2199 3 is_stmt 1 view .LVU1768
 6339              		.loc 1 2199 9 is_stmt 0 view .LVU1769
 6340 0012 03A9     		add	r1, sp, #12
 6341 0014 2846     		mov	r0, r5
 6342              	.LVL587:
 6343              		.loc 1 2199 9 view .LVU1770
 6344 0016 FFF7FEFF 		bl	ISP_SVC_Sensor_GetExposure
 6345              	.LVL588:
2200:../Drivers/ISP/isp/Src/isp_services.c ****   if (ret != ISP_OK)
 6346              		.loc 1 2200 3 is_stmt 1 view .LVU1771
 6347              		.loc 1 2200 6 is_stmt 0 view .LVU1772
 6348 001a 0028     		cmp	r0, #0
 6349 001c 40F0BB80 		bne	.L601
2201:../Drivers/ISP/isp/Src/isp_services.c ****   {
2202:../Drivers/ISP/isp/Src/isp_services.c ****     return -1;
2203:../Drivers/ISP/isp/Src/isp_services.c ****   }
2204:../Drivers/ISP/isp/Src/isp_services.c **** 
2205:../Drivers/ISP/isp/Src/isp_services.c ****   ret = ISP_SVC_Sensor_GetGain(hIsp, &gainConfig);
 6350              		.loc 1 2205 3 is_stmt 1 view .LVU1773
 6351              		.loc 1 2205 9 is_stmt 0 view .LVU1774
 6352 0020 02A9     		add	r1, sp, #8
 6353 0022 2846     		mov	r0, r5
 6354              	.LVL589:
 6355              		.loc 1 2205 9 view .LVU1775
 6356 0024 FFF7FEFF 		bl	ISP_SVC_Sensor_GetGain
 6357              	.LVL590:
ARM GAS  /tmp/ccAu1Zkx.s 			page 161


2206:../Drivers/ISP/isp/Src/isp_services.c ****   if (ret != ISP_OK)
 6358              		.loc 1 2206 3 is_stmt 1 view .LVU1776
 6359              		.loc 1 2206 6 is_stmt 0 view .LVU1777
 6360 0028 0028     		cmp	r0, #0
 6361 002a 40F0B480 		bne	.L601
2207:../Drivers/ISP/isp/Src/isp_services.c ****   {
2208:../Drivers/ISP/isp/Src/isp_services.c ****     return -1;
2209:../Drivers/ISP/isp/Src/isp_services.c ****   }
2210:../Drivers/ISP/isp/Src/isp_services.c **** 
2211:../Drivers/ISP/isp/Src/isp_services.c ****   if ((IQParamConfig->luxRef.HL_Expo1 == IQParamConfig->luxRef.HL_Expo2) ||
 6362              		.loc 1 2211 3 is_stmt 1 view .LVU1778
 6363              		.loc 1 2211 29 is_stmt 0 view .LVU1779
 6364 002e D4F86C22 		ldr	r2, [r4, #620]
 6365              		.loc 1 2211 63 view .LVU1780
 6366 0032 D4F87432 		ldr	r3, [r4, #628]
 6367              		.loc 1 2211 6 view .LVU1781
 6368 0036 9A42     		cmp	r2, r3
 6369 0038 00F0AD80 		beq	.L601
2212:../Drivers/ISP/isp/Src/isp_services.c ****       (IQParamConfig->luxRef.LL_Expo1 == IQParamConfig->luxRef.LL_Expo2) ||
 6370              		.loc 1 2212 29 view .LVU1782
 6371 003c D4F88052 		ldr	r5, [r4, #640]
 6372              	.LVL591:
 6373              		.loc 1 2212 63 view .LVU1783
 6374 0040 D4F88862 		ldr	r6, [r4, #648]
2211:../Drivers/ISP/isp/Src/isp_services.c ****       (IQParamConfig->luxRef.LL_Expo1 == IQParamConfig->luxRef.LL_Expo2) ||
 6375              		.loc 1 2211 74 discriminator 1 view .LVU1784
 6376 0044 B542     		cmp	r5, r6
 6377 0046 00F0A680 		beq	.L601
2213:../Drivers/ISP/isp/Src/isp_services.c ****       (IQParamConfig->luxRef.HL_Lum1 == 0) ||
 6378              		.loc 1 2213 29 view .LVU1785
 6379 004a 94F87012 		ldrb	r1, [r4, #624]	@ zero_extendqisi2
2212:../Drivers/ISP/isp/Src/isp_services.c ****       (IQParamConfig->luxRef.LL_Expo1 == IQParamConfig->luxRef.LL_Expo2) ||
 6380              		.loc 1 2212 74 discriminator 1 view .LVU1786
 6381 004e 0029     		cmp	r1, #0
 6382 0050 00F0A180 		beq	.L601
2214:../Drivers/ISP/isp/Src/isp_services.c ****       (IQParamConfig->luxRef.LL_Lum1 == 0))
 6383              		.loc 1 2214 29 view .LVU1787
 6384 0054 94F88472 		ldrb	r7, [r4, #644]	@ zero_extendqisi2
2213:../Drivers/ISP/isp/Src/isp_services.c ****       (IQParamConfig->luxRef.HL_Lum1 == 0) ||
 6385              		.loc 1 2213 44 discriminator 1 view .LVU1788
 6386 0058 002F     		cmp	r7, #0
 6387 005a 00F09C80 		beq	.L601
2215:../Drivers/ISP/isp/Src/isp_services.c ****   {
2216:../Drivers/ISP/isp/Src/isp_services.c ****     /* Uncalibrated lux reference points */
2217:../Drivers/ISP/isp/Src/isp_services.c ****     return -1;
2218:../Drivers/ISP/isp/Src/isp_services.c ****   }
2219:../Drivers/ISP/isp/Src/isp_services.c **** 
2220:../Drivers/ISP/isp/Src/isp_services.c **** 
2221:../Drivers/ISP/isp/Src/isp_services.c ****   /* Calculate K coefficient value to estimate lux from current luminance and global exposure
2222:../Drivers/ISP/isp/Src/isp_services.c ****    * K = a * exposure + b;
2223:../Drivers/ISP/isp/Src/isp_services.c ****    * Lux = calibration_ factor * K * Luminance / exposure
2224:../Drivers/ISP/isp/Src/isp_services.c ****    */
2225:../Drivers/ISP/isp/Src/isp_services.c **** 
2226:../Drivers/ISP/isp/Src/isp_services.c ****   /* Calculate a and b with the high lux references */
2227:../Drivers/ISP/isp/Src/isp_services.c ****   a = (IQParamConfig->luxRef.HL_LuxRef *
 6388              		.loc 1 2227 3 is_stmt 1 view .LVU1789
 6389              		.loc 1 2227 40 is_stmt 0 view .LVU1790
ARM GAS  /tmp/ccAu1Zkx.s 			page 162


 6390 005e D4ED9A7A 		vldr.32	s15, [r4, #616]	@ int
 6391 0062 B8EE678B 		vcvt.f64.u32	d8, s15
2228:../Drivers/ISP/isp/Src/isp_services.c ****        ((double)IQParamConfig->luxRef.HL_Expo1 / IQParamConfig->luxRef.HL_Lum1 -
 6392              		.loc 1 2228 9 view .LVU1791
 6393 0066 07EE902A 		vmov	s15, r2	@ int
 6394 006a B8EE677B 		vcvt.f64.u32	d7, s15
 6395              		.loc 1 2228 48 view .LVU1792
 6396 006e 06EE901A 		vmov	s13, r1	@ int
 6397 0072 B8EEE65B 		vcvt.f64.s32	d5, s13
 6398 0076 87EE054B 		vdiv.f64	d4, d7, d5
2229:../Drivers/ISP/isp/Src/isp_services.c ****         (double)IQParamConfig->luxRef.HL_Expo2 / IQParamConfig->luxRef.HL_Lum2)) /
 6399              		.loc 1 2229 9 view .LVU1793
 6400 007a 06EE903A 		vmov	s13, r3	@ int
 6401 007e B8EE666B 		vcvt.f64.u32	d6, s13
 6402              		.loc 1 2229 71 view .LVU1794
 6403 0082 94F87832 		ldrb	r3, [r4, #632]	@ zero_extendqisi2
 6404 0086 03EE103A 		vmov	s6, r3	@ int
 6405              		.loc 1 2229 48 view .LVU1795
 6406 008a B8EEC33B 		vcvt.f64.s32	d3, s6
 6407 008e 86EE032B 		vdiv.f64	d2, d6, d3
2228:../Drivers/ISP/isp/Src/isp_services.c ****        ((double)IQParamConfig->luxRef.HL_Expo1 / IQParamConfig->luxRef.HL_Lum1 -
 6408              		.loc 1 2228 80 view .LVU1796
 6409 0092 34EE424B 		vsub.f64	d4, d4, d2
2227:../Drivers/ISP/isp/Src/isp_services.c ****        ((double)IQParamConfig->luxRef.HL_Expo1 / IQParamConfig->luxRef.HL_Lum1 -
 6410              		.loc 1 2227 40 view .LVU1797
 6411 0096 28EE044B 		vmul.f64	d4, d8, d4
2230:../Drivers/ISP/isp/Src/isp_services.c ****       ((double)IQParamConfig->luxRef.HL_Expo1 - IQParamConfig->luxRef.HL_Expo2);
 6412              		.loc 1 2230 47 view .LVU1798
 6413 009a 37EE466B 		vsub.f64	d6, d7, d6
2227:../Drivers/ISP/isp/Src/isp_services.c ****        ((double)IQParamConfig->luxRef.HL_Expo1 / IQParamConfig->luxRef.HL_Lum1 -
 6414              		.loc 1 2227 5 view .LVU1799
 6415 009e 84EE069B 		vdiv.f64	d9, d4, d6
 6416              	.LVL592:
2231:../Drivers/ISP/isp/Src/isp_services.c **** 
2232:../Drivers/ISP/isp/Src/isp_services.c ****   b = (IQParamConfig->luxRef.HL_LuxRef * (double)IQParamConfig->luxRef.HL_Expo1 / IQParamConfig->lu
 6417              		.loc 1 2232 3 is_stmt 1 view .LVU1800
 6418              		.loc 1 2232 40 is_stmt 0 view .LVU1801
 6419 00a2 28EE074B 		vmul.f64	d4, d8, d7
 6420              		.loc 1 2232 81 view .LVU1802
 6421 00a6 84EE056B 		vdiv.f64	d6, d4, d5
 6422              		.loc 1 2232 5 view .LVU1803
 6423 00aa 07EE496B 		vmls.f64	d6, d7, d9
 6424 00ae B0EE46AB 		vmov.f64	d10, d6
 6425              	.LVL593:
2233:../Drivers/ISP/isp/Src/isp_services.c ****       (a * IQParamConfig->luxRef.HL_Expo1);
2234:../Drivers/ISP/isp/Src/isp_services.c **** 
2235:../Drivers/ISP/isp/Src/isp_services.c ****   globalExposure = exposureConfig.exposure * pow(10, (double)gainConfig.gain / 20000);
 6426              		.loc 1 2235 3 is_stmt 1 view .LVU1804
 6427              		.loc 1 2235 44 is_stmt 0 view .LVU1805
 6428 00b2 DDED037A 		vldr.32	s15, [sp, #12]	@ int
 6429 00b6 B8EE67BB 		vcvt.f64.u32	d11, s15
 6430              		.loc 1 2235 54 view .LVU1806
 6431 00ba DDED027A 		vldr.32	s15, [sp, #8]	@ int
 6432 00be B8EE677B 		vcvt.f64.u32	d7, s15
 6433              		.loc 1 2235 46 view .LVU1807
 6434 00c2 9FED371B 		vldr.64	d1, .L607
 6435 00c6 87EE011B 		vdiv.f64	d1, d7, d1
ARM GAS  /tmp/ccAu1Zkx.s 			page 163


 6436 00ca B2EE040B 		vmov.f64	d0, #1.0e+1
 6437 00ce FFF7FEFF 		bl	pow
 6438              	.LVL594:
 6439              		.loc 1 2235 18 discriminator 1 view .LVU1808
 6440 00d2 2BEE000B 		vmul.f64	d0, d11, d0
 6441              	.LVL595:
2236:../Drivers/ISP/isp/Src/isp_services.c **** 
2237:../Drivers/ISP/isp/Src/isp_services.c ****   if (globalExposure == 0)
 6442              		.loc 1 2237 3 is_stmt 1 view .LVU1809
 6443              		.loc 1 2237 6 is_stmt 0 view .LVU1810
 6444 00d6 B5EE400B 		vcmp.f64	d0, #0
 6445 00da F1EE10FA 		vmrs	APSR_nzcv, FPSCR
 6446 00de 5DD0     		beq	.L604
2238:../Drivers/ISP/isp/Src/isp_services.c ****   {
2239:../Drivers/ISP/isp/Src/isp_services.c ****     return 0;
2240:../Drivers/ISP/isp/Src/isp_services.c ****   }
2241:../Drivers/ISP/isp/Src/isp_services.c **** 
2242:../Drivers/ISP/isp/Src/isp_services.c ****   lux = (int32_t)((double)IQParamConfig->luxRef.calibFactor * (a * globalExposure + b) * averageL /
 6447              		.loc 1 2242 3 is_stmt 1 view .LVU1811
 6448              		.loc 1 2242 48 is_stmt 0 view .LVU1812
 6449 00e0 94EDA45A 		vldr.32	s10, [r4, #656]
 6450              		.loc 1 2242 19 view .LVU1813
 6451 00e4 B7EEC55A 		vcvt.f64.f32	d5, s10
 6452              		.loc 1 2242 83 view .LVU1814
 6453 00e8 B0EE4A6B 		vmov.f64	d6, d10
 6454 00ec 09EE006B 		vmla.f64	d6, d9, d0
 6455              		.loc 1 2242 61 view .LVU1815
 6456 00f0 25EE066B 		vmul.f64	d6, d5, d6
 6457              		.loc 1 2242 88 view .LVU1816
 6458 00f4 DDED017A 		vldr.32	s15, [sp, #4]	@ int
 6459 00f8 B8EEE74B 		vcvt.f64.s32	d4, s15
 6460 00fc 26EE046B 		vmul.f64	d6, d6, d4
 6461              		.loc 1 2242 99 view .LVU1817
 6462 0100 86EE007B 		vdiv.f64	d7, d6, d0
 6463              		.loc 1 2242 7 view .LVU1818
 6464 0104 BDEEC77B 		vcvt.s32.f64	s14, d7
 6465              	.LVL596:
2243:../Drivers/ISP/isp/Src/isp_services.c **** 
2244:../Drivers/ISP/isp/Src/isp_services.c ****   if (lux <= IQParamConfig->luxRef.HL_LuxRef * 0.9)
 6466              		.loc 1 2244 3 is_stmt 1 view .LVU1819
 6467              		.loc 1 2244 11 is_stmt 0 view .LVU1820
 6468 0108 B8EEC76B 		vcvt.f64.s32	d6, s14
 6469              		.loc 1 2244 46 view .LVU1821
 6470 010c 9FED263B 		vldr.64	d3, .L607+8
 6471 0110 28EE038B 		vmul.f64	d8, d8, d3
 6472              		.loc 1 2244 6 view .LVU1822
 6473 0114 B4EEC86B 		vcmpe.f64	d6, d8
 6474 0118 F1EE10FA 		vmrs	APSR_nzcv, FPSCR
 6475 011c 31D8     		bhi	.L602
2245:../Drivers/ISP/isp/Src/isp_services.c ****   {
2246:../Drivers/ISP/isp/Src/isp_services.c ****     /* Calculate a and b with the low lux references to improve precision when lux is under 90% of 
2247:../Drivers/ISP/isp/Src/isp_services.c ****     a = (IQParamConfig->luxRef.LL_LuxRef *
 6476              		.loc 1 2247 5 is_stmt 1 view .LVU1823
 6477              		.loc 1 2247 42 is_stmt 0 view .LVU1824
 6478 011e D4ED9F7A 		vldr.32	s15, [r4, #636]	@ int
 6479 0122 B8EE672B 		vcvt.f64.u32	d2, s15
2248:../Drivers/ISP/isp/Src/isp_services.c ****          ((double)IQParamConfig->luxRef.LL_Expo1 / IQParamConfig->luxRef.LL_Lum1 -
ARM GAS  /tmp/ccAu1Zkx.s 			page 164


 6480              		.loc 1 2248 11 view .LVU1825
 6481 0126 07EE905A 		vmov	s15, r5	@ int
 6482 012a B8EE677B 		vcvt.f64.u32	d7, s15
 6483              	.LVL597:
 6484              		.loc 1 2248 50 view .LVU1826
 6485 012e 06EE907A 		vmov	s13, r7	@ int
 6486 0132 B8EEE63B 		vcvt.f64.s32	d3, s13
 6487 0136 87EE031B 		vdiv.f64	d1, d7, d3
2249:../Drivers/ISP/isp/Src/isp_services.c ****           (double)IQParamConfig->luxRef.LL_Expo2 / IQParamConfig->luxRef.LL_Lum2)) /
 6488              		.loc 1 2249 11 view .LVU1827
 6489 013a 06EE906A 		vmov	s13, r6	@ int
 6490 013e B8EE666B 		vcvt.f64.u32	d6, s13
 6491              		.loc 1 2249 73 view .LVU1828
 6492 0142 94F88C32 		ldrb	r3, [r4, #652]	@ zero_extendqisi2
 6493 0146 08EE103A 		vmov	s16, r3	@ int
 6494              		.loc 1 2249 50 view .LVU1829
 6495 014a B8EEC88B 		vcvt.f64.s32	d8, s16
 6496 014e 86EE089B 		vdiv.f64	d9, d6, d8
 6497              	.LVL598:
2248:../Drivers/ISP/isp/Src/isp_services.c ****          ((double)IQParamConfig->luxRef.LL_Expo1 / IQParamConfig->luxRef.LL_Lum1 -
 6498              		.loc 1 2248 82 view .LVU1830
 6499 0152 31EE491B 		vsub.f64	d1, d1, d9
2247:../Drivers/ISP/isp/Src/isp_services.c ****          ((double)IQParamConfig->luxRef.LL_Expo1 / IQParamConfig->luxRef.LL_Lum1 -
 6500              		.loc 1 2247 42 view .LVU1831
 6501 0156 22EE011B 		vmul.f64	d1, d2, d1
2250:../Drivers/ISP/isp/Src/isp_services.c ****         ((double)IQParamConfig->luxRef.LL_Expo1 - IQParamConfig->luxRef.LL_Expo2);
 6502              		.loc 1 2250 49 view .LVU1832
 6503 015a 37EE466B 		vsub.f64	d6, d7, d6
2247:../Drivers/ISP/isp/Src/isp_services.c ****          ((double)IQParamConfig->luxRef.LL_Expo1 / IQParamConfig->luxRef.LL_Lum1 -
 6504              		.loc 1 2247 7 view .LVU1833
 6505 015e 81EE068B 		vdiv.f64	d8, d1, d6
 6506              	.LVL599:
2251:../Drivers/ISP/isp/Src/isp_services.c **** 
2252:../Drivers/ISP/isp/Src/isp_services.c ****     b = (IQParamConfig->luxRef.LL_LuxRef * (double)IQParamConfig->luxRef.LL_Expo1 / IQParamConfig->
 6507              		.loc 1 2252 5 is_stmt 1 view .LVU1834
 6508              		.loc 1 2252 42 is_stmt 0 view .LVU1835
 6509 0162 22EE072B 		vmul.f64	d2, d2, d7
 6510              		.loc 1 2252 83 view .LVU1836
 6511 0166 82EE036B 		vdiv.f64	d6, d2, d3
 6512              		.loc 1 2252 7 view .LVU1837
 6513 016a 07EE486B 		vmls.f64	d6, d7, d8
 6514              	.LVL600:
2253:../Drivers/ISP/isp/Src/isp_services.c ****         (a * IQParamConfig->luxRef.LL_Expo1);
2254:../Drivers/ISP/isp/Src/isp_services.c **** 
2255:../Drivers/ISP/isp/Src/isp_services.c ****     lux = (int32_t)((double)IQParamConfig->luxRef.calibFactor * (a * globalExposure + b) * averageL
 6515              		.loc 1 2255 5 is_stmt 1 view .LVU1838
 6516              		.loc 1 2255 85 is_stmt 0 view .LVU1839
 6517 016e 00EE086B 		vmla.f64	d6, d0, d8
 6518              	.LVL601:
 6519              		.loc 1 2255 63 view .LVU1840
 6520 0172 25EE065B 		vmul.f64	d5, d5, d6
 6521              		.loc 1 2255 90 view .LVU1841
 6522 0176 24EE054B 		vmul.f64	d4, d4, d5
 6523              		.loc 1 2255 101 view .LVU1842
 6524 017a 84EE007B 		vdiv.f64	d7, d4, d0
 6525              	.LVL602:
 6526              		.loc 1 2255 9 view .LVU1843
ARM GAS  /tmp/ccAu1Zkx.s 			page 165


 6527 017e BDEEC77B 		vcvt.s32.f64	s14, d7
 6528              	.LVL603:
 6529              	.L602:
2256:../Drivers/ISP/isp/Src/isp_services.c ****   }
2257:../Drivers/ISP/isp/Src/isp_services.c **** 
2258:../Drivers/ISP/isp/Src/isp_services.c ****   Meta.lux = (uint32_t)((lux < 0) ? 0 : lux);
 6530              		.loc 1 2258 3 is_stmt 1 view .LVU1844
 6531              		.loc 1 2258 14 is_stmt 0 view .LVU1845
 6532 0182 17EE103A 		vmov	r3, s14	@ int
 6533 0186 23EAE370 		bic	r0, r3, r3, asr #31
 6534              		.loc 1 2258 12 view .LVU1846
 6535 018a 094B     		ldr	r3, .L607+16
 6536 018c 5861     		str	r0, [r3, #20]
2259:../Drivers/ISP/isp/Src/isp_services.c **** 
2260:../Drivers/ISP/isp/Src/isp_services.c ****   return (lux < 0) ? 0 : lux;
 6537              		.loc 1 2260 3 is_stmt 1 view .LVU1847
 6538              	.LVL604:
 6539              	.L598:
2261:../Drivers/ISP/isp/Src/isp_services.c **** }
 6540              		.loc 1 2261 1 is_stmt 0 view .LVU1848
 6541 018e 05B0     		add	sp, sp, #20
 6542              	.LCFI118:
 6543              		.cfi_remember_state
 6544              		.cfi_def_cfa_offset 52
 6545              		@ sp needed
 6546 0190 BDEC088B 		vldm	sp!, {d8-d11}
 6547              	.LCFI119:
 6548              		.cfi_restore 86
 6549              		.cfi_restore 87
 6550              		.cfi_restore 84
 6551              		.cfi_restore 85
 6552              		.cfi_restore 82
 6553              		.cfi_restore 83
 6554              		.cfi_restore 80
 6555              		.cfi_restore 81
 6556              		.cfi_def_cfa_offset 20
 6557 0194 F0BD     		pop	{r4, r5, r6, r7, pc}
 6558              	.LVL605:
 6559              	.L601:
 6560              	.LCFI120:
 6561              		.cfi_restore_state
2202:../Drivers/ISP/isp/Src/isp_services.c ****   }
 6562              		.loc 1 2202 12 view .LVU1849
 6563 0196 4FF0FF30 		mov	r0, #-1
 6564              	.LVL606:
2202:../Drivers/ISP/isp/Src/isp_services.c ****   }
 6565              		.loc 1 2202 12 view .LVU1850
 6566 019a F8E7     		b	.L598
 6567              	.LVL607:
 6568              	.L604:
2239:../Drivers/ISP/isp/Src/isp_services.c ****   }
 6569              		.loc 1 2239 12 view .LVU1851
 6570 019c 0020     		movs	r0, #0
 6571 019e F6E7     		b	.L598
 6572              	.L608:
 6573              		.align	3
 6574              	.L607:
ARM GAS  /tmp/ccAu1Zkx.s 			page 166


 6575 01a0 00000000 		.word	0
 6576 01a4 0088D340 		.word	1087604736
 6577 01a8 CDCCCCCC 		.word	-858993459
 6578 01ac CCCCEC3F 		.word	1072483532
 6579 01b0 00000000 		.word	Meta
 6580              		.cfi_endproc
 6581              	.LFE948:
 6583              		.section	.data.stagePrevious1.0,"aw"
 6586              	stagePrevious1.0:
 6587 0000 09       		.byte	9
 6588              		.section	.data.stagePrevious2.1,"aw"
 6591              	stagePrevious2.1:
 6592 0000 09       		.byte	9
 6593              		.section	.rodata.statConfDownBins_9_11,"a"
 6594              		.align	2
 6597              	statConfDownBins_9_11:
 6598 0000 80000000 		.word	128
 6599 0004 70000000 		.word	112
 6600 0008 0C000000 		.word	12
 6601              		.section	.rodata.statConfDownBins_6_8,"a"
 6602              		.align	2
 6605              	statConfDownBins_6_8:
 6606 0000 80000000 		.word	128
 6607 0004 70000000 		.word	112
 6608 0008 08000000 		.word	8
 6609              		.section	.rodata.statConfDownBins_3_5,"a"
 6610              		.align	2
 6613              	statConfDownBins_3_5:
 6614 0000 80000000 		.word	128
 6615 0004 70000000 		.word	112
 6616 0008 04000000 		.word	4
 6617              		.section	.rodata.statConfDownBins_0_2,"a"
 6618              		.align	2
 6621              	statConfDownBins_0_2:
 6622 0000 80000000 		.word	128
 6623 0004 70000000 		.word	112
 6624 0008 00000000 		.word	0
 6625              		.section	.rodata.statConfUpBins_9_11,"a"
 6626              		.align	2
 6629              	statConfUpBins_9_11:
 6630 0000 80000000 		.word	128
 6631 0004 30000000 		.word	48
 6632 0008 0C000000 		.word	12
 6633              		.section	.rodata.statConfUpBins_6_8,"a"
 6634              		.align	2
 6637              	statConfUpBins_6_8:
 6638 0000 80000000 		.word	128
 6639 0004 30000000 		.word	48
 6640 0008 08000000 		.word	8
 6641              		.section	.rodata.statConfUpBins_3_5,"a"
 6642              		.align	2
 6645              	statConfUpBins_3_5:
 6646 0000 80000000 		.word	128
 6647 0004 30000000 		.word	48
 6648 0008 04000000 		.word	4
 6649              		.section	.rodata.statConfUpBins_0_2,"a"
 6650              		.align	2
ARM GAS  /tmp/ccAu1Zkx.s 			page 167


 6653              	statConfUpBins_0_2:
 6654 0000 80000000 		.word	128
 6655 0004 30000000 		.word	48
 6656 0008 00000000 		.word	0
 6657              		.section	.rodata.avgRGBDown,"a"
 6658              		.align	2
 6661              	avgRGBDown:
 6662 0000 40000000 		.word	64
 6663 0004 50000000 		.word	80
 6664 0008 60000000 		.word	96
 6665              		.section	.rodata.avgRGBUp,"a"
 6666              		.align	2
 6669              	avgRGBUp:
 6670 0000 00000000 		.word	0
 6671 0004 10000000 		.word	16
 6672 0008 20000000 		.word	32
 6673              		.section	.bss.pISP_RestartState,"aw",%nobits
 6674              		.align	2
 6677              	pISP_RestartState:
 6678 0000 00000000 		.space	4
 6679              		.section	.bss.ISP_SensorDelayMeasureRun,"aw",%nobits
 6682              	ISP_SensorDelayMeasureRun:
 6683 0000 00       		.space	1
 6684              		.section	.bss.ISP_SVC_StatEngine,"aw",%nobits
 6685              		.align	2
 6688              	ISP_SVC_StatEngine:
 6689 0000 00000000 		.space	424
 6689      00000000 
 6689      00000000 
 6689      00000000 
 6689      00000000 
 6690              		.section	.bss.ISP_IQParamCache,"aw",%nobits
 6691              		.align	2
 6694              	ISP_IQParamCache:
 6695 0000 00000000 		.space	660
 6695      00000000 
 6695      00000000 
 6695      00000000 
 6695      00000000 
 6696              		.section	.data.ISP_DecimationValue,"aw"
 6697              		.align	2
 6700              	ISP_DecimationValue:
 6701 0000 01       		.byte	1
 6702              		.section	.bss.ISP_ManualWBRefColorTemp,"aw",%nobits
 6703              		.align	2
 6706              	ISP_ManualWBRefColorTemp:
 6707 0000 00000000 		.space	4
 6708              		.text
 6709              	.Letext0:
 6710              		.file 2 "/usr/arm-none-eabi/include/machine/_default_types.h"
 6711              		.file 3 "/usr/arm-none-eabi/include/sys/_stdint.h"
 6712              		.file 4 "../Drivers/CMSIS/Device/ST/STM32N6xx/Include/stm32n657xx.h"
 6713              		.file 5 "../Drivers/CMSIS/Device/ST/STM32N6xx/Include/stm32n6xx.h"
 6714              		.file 6 "../Drivers/STM32N6xx_HAL_Driver/Inc/stm32n6xx_hal_def.h"
 6715              		.file 7 "../Drivers/STM32N6xx_HAL_Driver/Inc/stm32n6xx_hal_dcmipp.h"
 6716              		.file 8 "../Drivers/ISP/isp/Inc/isp_core.h"
 6717              		.file 9 "../Drivers/ISP/isp/Inc/isp_services.h"
ARM GAS  /tmp/ccAu1Zkx.s 			page 168


 6718              		.file 10 "../Drivers/STM32N6xx_HAL_Driver/Inc/stm32n6xx_hal.h"
 6719              		.file 11 "/usr/arm-none-eabi/include/string.h"
 6720              		.file 12 "<built-in>"
 6721              		.file 13 "/usr/arm-none-eabi/include/math.h"
ARM GAS  /tmp/ccAu1Zkx.s 			page 169


DEFINED SYMBOLS
                            *ABS*:00000000 isp_services.c
     /tmp/ccAu1Zkx.s:26     .text.To_Shift_Multiplier:00000000 $t
     /tmp/ccAu1Zkx.s:31     .text.To_Shift_Multiplier:00000000 To_Shift_Multiplier
     /tmp/ccAu1Zkx.s:99     .text.To_Shift_Multiplier:00000038 $d
     /tmp/ccAu1Zkx.s:105    .text.From_Shift_Multiplier:00000000 $t
     /tmp/ccAu1Zkx.s:110    .text.From_Shift_Multiplier:00000000 From_Shift_Multiplier
     /tmp/ccAu1Zkx.s:147    .text.From_Shift_Multiplier:00000024 $d
     /tmp/ccAu1Zkx.s:152    .text.To_CConv_Reg:00000000 $t
     /tmp/ccAu1Zkx.s:157    .text.To_CConv_Reg:00000000 To_CConv_Reg
     /tmp/ccAu1Zkx.s:188    .text.To_CConv_Reg:00000010 $d
     /tmp/ccAu1Zkx.s:193    .text.From_CConv_Reg:00000000 $t
     /tmp/ccAu1Zkx.s:198    .text.From_CConv_Reg:00000000 From_CConv_Reg
     /tmp/ccAu1Zkx.s:218    .text.From_CConv_Reg:00000008 $d
     /tmp/ccAu1Zkx.s:223    .text.GetAvgStats:00000000 $t
     /tmp/ccAu1Zkx.s:228    .text.GetAvgStats:00000000 GetAvgStats
     /tmp/ccAu1Zkx.s:311    .text.GetAvgStats:00000048 $d
     /tmp/ccAu1Zkx.s:6700   .data.ISP_DecimationValue:00000000 ISP_DecimationValue
     /tmp/ccAu1Zkx.s:316    .text.SetStatConfig:00000000 $t
     /tmp/ccAu1Zkx.s:321    .text.SetStatConfig:00000000 SetStatConfig
     /tmp/ccAu1Zkx.s:368    .text.GetNextStatStage:00000000 $t
     /tmp/ccAu1Zkx.s:373    .text.GetNextStatStage:00000000 GetNextStatStage
     /tmp/ccAu1Zkx.s:404    .text.GetNextStatStage:00000020 $d
     /tmp/ccAu1Zkx.s:563    .text.GetNextStatStage:000000d0 $d
     /tmp/ccAu1Zkx.s:6688   .bss.ISP_SVC_StatEngine:00000000 ISP_SVC_StatEngine
     /tmp/ccAu1Zkx.s:568    .text.GetStatCycleStart:00000000 $t
     /tmp/ccAu1Zkx.s:573    .text.GetStatCycleStart:00000000 GetStatCycleStart
     /tmp/ccAu1Zkx.s:644    .text.GetStatCycleStart:00000040 $d
     /tmp/ccAu1Zkx.s:649    .text.GetStatCycleEnd:00000000 $t
     /tmp/ccAu1Zkx.s:654    .text.GetStatCycleEnd:00000000 GetStatCycleEnd
     /tmp/ccAu1Zkx.s:720    .text.GetStatCycleEnd:0000003c $d
     /tmp/ccAu1Zkx.s:725    .text.ReadStatHistogram:00000000 $t
     /tmp/ccAu1Zkx.s:730    .text.ReadStatHistogram:00000000 ReadStatHistogram
     /tmp/ccAu1Zkx.s:786    .text.LuminanceFromRGB:00000000 $t
     /tmp/ccAu1Zkx.s:792    .text.LuminanceFromRGB:00000000 LuminanceFromRGB
     /tmp/ccAu1Zkx.s:837    .text.LuminanceFromRGB:00000048 $d
     /tmp/ccAu1Zkx.s:847    .text.LuminanceFromRGBMono:00000000 $t
     /tmp/ccAu1Zkx.s:853    .text.LuminanceFromRGBMono:00000000 LuminanceFromRGBMono
     /tmp/ccAu1Zkx.s:888    .text.ISP_SVC_ISP_SetDemosaicing:00000000 $t
     /tmp/ccAu1Zkx.s:894    .text.ISP_SVC_ISP_SetDemosaicing:00000000 ISP_SVC_ISP_SetDemosaicing
     /tmp/ccAu1Zkx.s:954    .text.ISP_SVC_ISP_SetDemosaicing:00000036 $d
     /tmp/ccAu1Zkx.s:1098   .text.ISP_SVC_ISP_SetStatRemoval:00000000 $t
     /tmp/ccAu1Zkx.s:1104   .text.ISP_SVC_ISP_SetStatRemoval:00000000 ISP_SVC_ISP_SetStatRemoval
     /tmp/ccAu1Zkx.s:1208   .text.ISP_SVC_ISP_SetDecimation:00000000 $t
     /tmp/ccAu1Zkx.s:1214   .text.ISP_SVC_ISP_SetDecimation:00000000 ISP_SVC_ISP_SetDecimation
     /tmp/ccAu1Zkx.s:1250   .text.ISP_SVC_ISP_SetDecimation:0000001a $d
     /tmp/ccAu1Zkx.s:1258   .text.ISP_SVC_ISP_SetDecimation:00000022 $t
     /tmp/ccAu1Zkx.s:1368   .text.ISP_SVC_ISP_SetDecimation:00000074 $d
     /tmp/ccAu1Zkx.s:1373   .text.ISP_SVC_ISP_GetDecimation:00000000 $t
     /tmp/ccAu1Zkx.s:1379   .text.ISP_SVC_ISP_GetDecimation:00000000 ISP_SVC_ISP_GetDecimation
     /tmp/ccAu1Zkx.s:1403   .text.ISP_SVC_ISP_GetDecimation:0000000c $d
     /tmp/ccAu1Zkx.s:1408   .text.ISP_SVC_ISP_SetContrast:00000000 $t
     /tmp/ccAu1Zkx.s:1414   .text.ISP_SVC_ISP_SetContrast:00000000 ISP_SVC_ISP_SetContrast
     /tmp/ccAu1Zkx.s:1661   .text.ISP_SVC_ISP_SetContrast:00000124 $d
     /tmp/ccAu1Zkx.s:1666   .text.ISP_SVC_ISP_SetStatArea:00000000 $t
     /tmp/ccAu1Zkx.s:1672   .text.ISP_SVC_ISP_SetStatArea:00000000 ISP_SVC_ISP_SetStatArea
     /tmp/ccAu1Zkx.s:1842   .text.ISP_SVC_ISP_SetStatArea:000000ac $d
ARM GAS  /tmp/ccAu1Zkx.s 			page 170


     /tmp/ccAu1Zkx.s:1847   .text.ISP_SVC_ISP_GetStatArea:00000000 $t
     /tmp/ccAu1Zkx.s:1853   .text.ISP_SVC_ISP_GetStatArea:00000000 ISP_SVC_ISP_GetStatArea
     /tmp/ccAu1Zkx.s:1976   .text.ISP_SVC_ISP_GetStatArea:0000005c $d
     /tmp/ccAu1Zkx.s:1981   .text.ISP_SVC_ISP_SetBadPixel:00000000 $t
     /tmp/ccAu1Zkx.s:1987   .text.ISP_SVC_ISP_SetBadPixel:00000000 ISP_SVC_ISP_SetBadPixel
     /tmp/ccAu1Zkx.s:2095   .text.ISP_SVC_ISP_GetBadPixel:00000000 $t
     /tmp/ccAu1Zkx.s:2101   .text.ISP_SVC_ISP_GetBadPixel:00000000 ISP_SVC_ISP_GetBadPixel
     /tmp/ccAu1Zkx.s:2189   .text.ISP_SVC_ISP_SetBlackLevel:00000000 $t
     /tmp/ccAu1Zkx.s:2195   .text.ISP_SVC_ISP_SetBlackLevel:00000000 ISP_SVC_ISP_SetBlackLevel
     /tmp/ccAu1Zkx.s:2325   .text.ISP_SVC_ISP_GetBlackLevel:00000000 $t
     /tmp/ccAu1Zkx.s:2331   .text.ISP_SVC_ISP_GetBlackLevel:00000000 ISP_SVC_ISP_GetBlackLevel
     /tmp/ccAu1Zkx.s:2426   .text.ISP_SVC_ISP_SetGain:00000000 $t
     /tmp/ccAu1Zkx.s:2432   .text.ISP_SVC_ISP_SetGain:00000000 ISP_SVC_ISP_SetGain
     /tmp/ccAu1Zkx.s:2575   .text.ISP_SVC_ISP_SetGain:0000007c $d
     /tmp/ccAu1Zkx.s:2580   .text.ISP_SVC_ISP_GetGain:00000000 $t
     /tmp/ccAu1Zkx.s:2586   .text.ISP_SVC_ISP_GetGain:00000000 ISP_SVC_ISP_GetGain
     /tmp/ccAu1Zkx.s:2690   .text.ISP_SVC_ISP_SetColorConv:00000000 $t
     /tmp/ccAu1Zkx.s:2696   .text.ISP_SVC_ISP_SetColorConv:00000000 ISP_SVC_ISP_SetColorConv
     /tmp/ccAu1Zkx.s:2906   .text.ISP_SVC_ISP_SetColorConv:000000d8 $d
     /tmp/ccAu1Zkx.s:2912   .text.ISP_SVC_ISP_GetColorConv:00000000 $t
     /tmp/ccAu1Zkx.s:2918   .text.ISP_SVC_ISP_GetColorConv:00000000 ISP_SVC_ISP_GetColorConv
     /tmp/ccAu1Zkx.s:3063   .text.ISP_SVC_Sensor_GetInfo:00000000 $t
     /tmp/ccAu1Zkx.s:3069   .text.ISP_SVC_Sensor_GetInfo:00000000 ISP_SVC_Sensor_GetInfo
     /tmp/ccAu1Zkx.s:3138   .text.ISP_SVC_Sensor_SetGain:00000000 $t
     /tmp/ccAu1Zkx.s:3144   .text.ISP_SVC_Sensor_SetGain:00000000 ISP_SVC_Sensor_SetGain
     /tmp/ccAu1Zkx.s:3219   .text.ISP_SVC_Sensor_SetGain:0000002c $d
     /tmp/ccAu1Zkx.s:3224   .text.ISP_SVC_Sensor_GetGain:00000000 $t
     /tmp/ccAu1Zkx.s:3230   .text.ISP_SVC_Sensor_GetGain:00000000 ISP_SVC_Sensor_GetGain
     /tmp/ccAu1Zkx.s:3299   .text.ISP_SVC_Sensor_SetExposure:00000000 $t
     /tmp/ccAu1Zkx.s:3305   .text.ISP_SVC_Sensor_SetExposure:00000000 ISP_SVC_Sensor_SetExposure
     /tmp/ccAu1Zkx.s:3380   .text.ISP_SVC_Sensor_SetExposure:0000002c $d
     /tmp/ccAu1Zkx.s:3385   .text.ISP_SVC_Sensor_GetExposure:00000000 $t
     /tmp/ccAu1Zkx.s:3391   .text.ISP_SVC_Sensor_GetExposure:00000000 ISP_SVC_Sensor_GetExposure
     /tmp/ccAu1Zkx.s:3460   .text.ISP_SVC_Sensor_SetTestPattern:00000000 $t
     /tmp/ccAu1Zkx.s:3466   .text.ISP_SVC_Sensor_SetTestPattern:00000000 ISP_SVC_Sensor_SetTestPattern
     /tmp/ccAu1Zkx.s:3538   .text.ISP_SVC_Misc_GetDCMIPPVersion:00000000 $t
     /tmp/ccAu1Zkx.s:3544   .text.ISP_SVC_Misc_GetDCMIPPVersion:00000000 ISP_SVC_Misc_GetDCMIPPVersion
     /tmp/ccAu1Zkx.s:3598   .text.ISP_SVC_Misc_IsDCMIPPReady:00000000 $t
     /tmp/ccAu1Zkx.s:3604   .text.ISP_SVC_Misc_IsDCMIPPReady:00000000 ISP_SVC_Misc_IsDCMIPPReady
     /tmp/ccAu1Zkx.s:3658   .text.ISP_SVC_Misc_GetFirmwareConfig:00000000 $t
     /tmp/ccAu1Zkx.s:3664   .text.ISP_SVC_Misc_GetFirmwareConfig:00000000 ISP_SVC_Misc_GetFirmwareConfig
     /tmp/ccAu1Zkx.s:3773   .text.ISP_SVC_Misc_IncMainFrameId:00000000 $t
     /tmp/ccAu1Zkx.s:3779   .text.ISP_SVC_Misc_IncMainFrameId:00000000 ISP_SVC_Misc_IncMainFrameId
     /tmp/ccAu1Zkx.s:3799   .text.ISP_SVC_Misc_GetMainFrameId:00000000 $t
     /tmp/ccAu1Zkx.s:3805   .text.ISP_SVC_Misc_GetMainFrameId:00000000 ISP_SVC_Misc_GetMainFrameId
     /tmp/ccAu1Zkx.s:3823   .text.ISP_SVC_Misc_IncAncillaryFrameId:00000000 $t
     /tmp/ccAu1Zkx.s:3829   .text.ISP_SVC_Misc_IncAncillaryFrameId:00000000 ISP_SVC_Misc_IncAncillaryFrameId
     /tmp/ccAu1Zkx.s:3849   .text.ISP_SVC_Misc_GetAncillaryFrameId:00000000 $t
     /tmp/ccAu1Zkx.s:3855   .text.ISP_SVC_Misc_GetAncillaryFrameId:00000000 ISP_SVC_Misc_GetAncillaryFrameId
     /tmp/ccAu1Zkx.s:3873   .text.ISP_SVC_Misc_IncDumpFrameId:00000000 $t
     /tmp/ccAu1Zkx.s:3879   .text.ISP_SVC_Misc_IncDumpFrameId:00000000 ISP_SVC_Misc_IncDumpFrameId
     /tmp/ccAu1Zkx.s:3899   .text.ISP_SVC_Misc_GetDumpFrameId:00000000 $t
     /tmp/ccAu1Zkx.s:3905   .text.ISP_SVC_Misc_GetDumpFrameId:00000000 ISP_SVC_Misc_GetDumpFrameId
     /tmp/ccAu1Zkx.s:3923   .text.ISP_SVC_Misc_SetWBRefMode:00000000 $t
     /tmp/ccAu1Zkx.s:3929   .text.ISP_SVC_Misc_SetWBRefMode:00000000 ISP_SVC_Misc_SetWBRefMode
     /tmp/ccAu1Zkx.s:3951   .text.ISP_SVC_Misc_SetWBRefMode:00000008 $d
     /tmp/ccAu1Zkx.s:6706   .bss.ISP_ManualWBRefColorTemp:00000000 ISP_ManualWBRefColorTemp
ARM GAS  /tmp/ccAu1Zkx.s 			page 171


     /tmp/ccAu1Zkx.s:3956   .text.ISP_SVC_Misc_GetWBRefMode:00000000 $t
     /tmp/ccAu1Zkx.s:3962   .text.ISP_SVC_Misc_GetWBRefMode:00000000 ISP_SVC_Misc_GetWBRefMode
     /tmp/ccAu1Zkx.s:3985   .text.ISP_SVC_Misc_GetWBRefMode:0000000c $d
     /tmp/ccAu1Zkx.s:3990   .text.ISP_SVC_Misc_SensorDelayMeasureStart:00000000 $t
     /tmp/ccAu1Zkx.s:3996   .text.ISP_SVC_Misc_SensorDelayMeasureStart:00000000 ISP_SVC_Misc_SensorDelayMeasureStart
     /tmp/ccAu1Zkx.s:4013   .text.ISP_SVC_Misc_SensorDelayMeasureStart:00000008 $d
     /tmp/ccAu1Zkx.s:6682   .bss.ISP_SensorDelayMeasureRun:00000000 ISP_SensorDelayMeasureRun
     /tmp/ccAu1Zkx.s:4018   .text.ISP_SVC_Misc_SensorDelayMeasureStop:00000000 $t
     /tmp/ccAu1Zkx.s:4024   .text.ISP_SVC_Misc_SensorDelayMeasureStop:00000000 ISP_SVC_Misc_SensorDelayMeasureStop
     /tmp/ccAu1Zkx.s:4041   .text.ISP_SVC_Misc_SensorDelayMeasureStop:00000008 $d
     /tmp/ccAu1Zkx.s:4046   .text.ISP_SVC_Misc_SensorDelayMeasureIsRunning:00000000 $t
     /tmp/ccAu1Zkx.s:4052   .text.ISP_SVC_Misc_SensorDelayMeasureIsRunning:00000000 ISP_SVC_Misc_SensorDelayMeasureIsRunning
     /tmp/ccAu1Zkx.s:4067   .text.ISP_SVC_Misc_SensorDelayMeasureIsRunning:00000008 $d
     /tmp/ccAu1Zkx.s:4072   .text.ISP_SVC_Misc_SendSensorDelayMeasure:00000000 $t
     /tmp/ccAu1Zkx.s:4078   .text.ISP_SVC_Misc_SendSensorDelayMeasure:00000000 ISP_SVC_Misc_SendSensorDelayMeasure
     /tmp/ccAu1Zkx.s:4098   .text.ISP_SVC_Misc_StopPreview:00000000 $t
     /tmp/ccAu1Zkx.s:4104   .text.ISP_SVC_Misc_StopPreview:00000000 ISP_SVC_Misc_StopPreview
     /tmp/ccAu1Zkx.s:4161   .text.ISP_SVC_Misc_StartPreview:00000000 $t
     /tmp/ccAu1Zkx.s:4167   .text.ISP_SVC_Misc_StartPreview:00000000 ISP_SVC_Misc_StartPreview
     /tmp/ccAu1Zkx.s:4224   .text.ISP_SVC_Misc_IsGammaEnabled:00000000 $t
     /tmp/ccAu1Zkx.s:4230   .text.ISP_SVC_Misc_IsGammaEnabled:00000000 ISP_SVC_Misc_IsGammaEnabled
     /tmp/ccAu1Zkx.s:4311   .text.ISP_SVC_ISP_SetGamma:00000000 $t
     /tmp/ccAu1Zkx.s:4317   .text.ISP_SVC_ISP_SetGamma:00000000 ISP_SVC_ISP_SetGamma
     /tmp/ccAu1Zkx.s:4413   .text.ISP_SVC_Dump_GetFrame:00000000 $t
     /tmp/ccAu1Zkx.s:4419   .text.ISP_SVC_Dump_GetFrame:00000000 ISP_SVC_Dump_GetFrame
     /tmp/ccAu1Zkx.s:4509   .text.ISP_SVC_IQParam_Init:00000000 $t
     /tmp/ccAu1Zkx.s:4515   .text.ISP_SVC_IQParam_Init:00000000 ISP_SVC_IQParam_Init
     /tmp/ccAu1Zkx.s:4544   .text.ISP_SVC_IQParam_Init:00000010 $d
     /tmp/ccAu1Zkx.s:6694   .bss.ISP_IQParamCache:00000000 ISP_IQParamCache
     /tmp/ccAu1Zkx.s:4549   .text.ISP_SVC_IQParam_Get:00000000 $t
     /tmp/ccAu1Zkx.s:4555   .text.ISP_SVC_IQParam_Get:00000000 ISP_SVC_IQParam_Get
     /tmp/ccAu1Zkx.s:4573   .text.ISP_SVC_IQParam_Get:00000004 $d
     /tmp/ccAu1Zkx.s:4578   .text.ISP_SVC_GetRestartState:00000000 $t
     /tmp/ccAu1Zkx.s:4584   .text.ISP_SVC_GetRestartState:00000000 ISP_SVC_GetRestartState
     /tmp/ccAu1Zkx.s:4603   .text.ISP_SVC_GetRestartState:00000008 $d
     /tmp/ccAu1Zkx.s:6677   .bss.pISP_RestartState:00000000 pISP_RestartState
     /tmp/ccAu1Zkx.s:4608   .text.ISP_SVC_SetRestartState:00000000 $t
     /tmp/ccAu1Zkx.s:4614   .text.ISP_SVC_SetRestartState:00000000 ISP_SVC_SetRestartState
     /tmp/ccAu1Zkx.s:4636   .text.ISP_SVC_SetRestartState:00000008 $d
     /tmp/ccAu1Zkx.s:4641   .text.ISP_SVC_Stats_Init:00000000 $t
     /tmp/ccAu1Zkx.s:4647   .text.ISP_SVC_Stats_Init:00000000 ISP_SVC_Stats_Init
     /tmp/ccAu1Zkx.s:4674   .text.ISP_SVC_Stats_Init:00000010 $d
     /tmp/ccAu1Zkx.s:4679   .rodata.ISP_SVC_Stats_Gather.str1.4:00000000 $d
     /tmp/ccAu1Zkx.s:4696   .text.ISP_SVC_Stats_Gather:00000000 $t
     /tmp/ccAu1Zkx.s:4702   .text.ISP_SVC_Stats_Gather:00000000 ISP_SVC_Stats_Gather
     /tmp/ccAu1Zkx.s:4748   .text.ISP_SVC_Stats_Gather:0000001e $d
     /tmp/ccAu1Zkx.s:4759   .text.ISP_SVC_Stats_Gather:00000028 $t
     /tmp/ccAu1Zkx.s:4845   .text.ISP_SVC_Stats_Gather:000000ac $d
     /tmp/ccAu1Zkx.s:4855   .text.ISP_SVC_Stats_Gather:000000c0 $t
     /tmp/ccAu1Zkx.s:5256   .text.ISP_SVC_Stats_Gather:000002d4 $d
     /tmp/ccAu1Zkx.s:6591   .data.stagePrevious2.1:00000000 stagePrevious2.1
     /tmp/ccAu1Zkx.s:6669   .rodata.avgRGBUp:00000000 avgRGBUp
     /tmp/ccAu1Zkx.s:6653   .rodata.statConfUpBins_0_2:00000000 statConfUpBins_0_2
     /tmp/ccAu1Zkx.s:6645   .rodata.statConfUpBins_3_5:00000000 statConfUpBins_3_5
     /tmp/ccAu1Zkx.s:6637   .rodata.statConfUpBins_6_8:00000000 statConfUpBins_6_8
     /tmp/ccAu1Zkx.s:6629   .rodata.statConfUpBins_9_11:00000000 statConfUpBins_9_11
     /tmp/ccAu1Zkx.s:6661   .rodata.avgRGBDown:00000000 avgRGBDown
ARM GAS  /tmp/ccAu1Zkx.s 			page 172


     /tmp/ccAu1Zkx.s:6621   .rodata.statConfDownBins_0_2:00000000 statConfDownBins_0_2
     /tmp/ccAu1Zkx.s:6613   .rodata.statConfDownBins_3_5:00000000 statConfDownBins_3_5
     /tmp/ccAu1Zkx.s:6605   .rodata.statConfDownBins_6_8:00000000 statConfDownBins_6_8
     /tmp/ccAu1Zkx.s:6597   .rodata.statConfDownBins_9_11:00000000 statConfDownBins_9_11
     /tmp/ccAu1Zkx.s:5287   .text.ISP_SVC_Stats_Gather:00000344 $t
     /tmp/ccAu1Zkx.s:5522   .text.ISP_SVC_Stats_Gather:0000049c $d
     /tmp/ccAu1Zkx.s:6586   .data.stagePrevious1.0:00000000 stagePrevious1.0
     /tmp/ccAu1Zkx.s:5529   .text.ISP_SVC_Stats_ProcessCallbacks:00000000 $t
     /tmp/ccAu1Zkx.s:5535   .text.ISP_SVC_Stats_ProcessCallbacks:00000000 ISP_SVC_Stats_ProcessCallbacks
     /tmp/ccAu1Zkx.s:5705   .text.ISP_SVC_Stats_ProcessCallbacks:000000d0 $d
     /tmp/ccAu1Zkx.s:5710   .text.ISP_SVC_Stats_GetLatest:00000000 $t
     /tmp/ccAu1Zkx.s:5716   .text.ISP_SVC_Stats_GetLatest:00000000 ISP_SVC_Stats_GetLatest
     /tmp/ccAu1Zkx.s:5773   .text.ISP_SVC_Stats_GetLatest:00000020 $d
     /tmp/ccAu1Zkx.s:5778   .text.ISP_SVC_Stats_GetNext:00000000 $t
     /tmp/ccAu1Zkx.s:5784   .text.ISP_SVC_Stats_GetNext:00000000 ISP_SVC_Stats_GetNext
     /tmp/ccAu1Zkx.s:5952   .text.ISP_SVC_Stats_GetNext:000000c4 $d
     /tmp/ccAu1Zkx.s:5957   .text.ISP_SVC_Stats_WeightedAverageL:00000000 $t
     /tmp/ccAu1Zkx.s:5963   .text.ISP_SVC_Stats_WeightedAverageL:00000000 ISP_SVC_Stats_WeightedAverageL
     /tmp/ccAu1Zkx.s:6054   .text.ISP_SVC_Stats_WeightedAverageL:00000060 $d
     /tmp/ccAu1Zkx.s:6059   .text.ISP_SVC_Stats_EvaluateUp:00000000 $t
     /tmp/ccAu1Zkx.s:6065   .text.ISP_SVC_Stats_EvaluateUp:00000000 ISP_SVC_Stats_EvaluateUp
     /tmp/ccAu1Zkx.s:6278   .text.ISP_SVC_Stats_EvaluateUp:00000120 $d
     /tmp/ccAu1Zkx.s:6286   .text.ISP_SVC_Misc_GetEstimatedLux:00000000 $t
     /tmp/ccAu1Zkx.s:6292   .text.ISP_SVC_Misc_GetEstimatedLux:00000000 ISP_SVC_Misc_GetEstimatedLux
     /tmp/ccAu1Zkx.s:6575   .text.ISP_SVC_Misc_GetEstimatedLux:000001a0 $d
     /tmp/ccAu1Zkx.s:6594   .rodata.statConfDownBins_9_11:00000000 $d
     /tmp/ccAu1Zkx.s:6602   .rodata.statConfDownBins_6_8:00000000 $d
     /tmp/ccAu1Zkx.s:6610   .rodata.statConfDownBins_3_5:00000000 $d
     /tmp/ccAu1Zkx.s:6618   .rodata.statConfDownBins_0_2:00000000 $d
     /tmp/ccAu1Zkx.s:6626   .rodata.statConfUpBins_9_11:00000000 $d
     /tmp/ccAu1Zkx.s:6634   .rodata.statConfUpBins_6_8:00000000 $d
     /tmp/ccAu1Zkx.s:6642   .rodata.statConfUpBins_3_5:00000000 $d
     /tmp/ccAu1Zkx.s:6650   .rodata.statConfUpBins_0_2:00000000 $d
     /tmp/ccAu1Zkx.s:6658   .rodata.avgRGBDown:00000000 $d
     /tmp/ccAu1Zkx.s:6666   .rodata.avgRGBUp:00000000 $d
     /tmp/ccAu1Zkx.s:6674   .bss.pISP_RestartState:00000000 $d
     /tmp/ccAu1Zkx.s:6683   .bss.ISP_SensorDelayMeasureRun:00000000 $d
     /tmp/ccAu1Zkx.s:6685   .bss.ISP_SVC_StatEngine:00000000 $d
     /tmp/ccAu1Zkx.s:6691   .bss.ISP_IQParamCache:00000000 $d
     /tmp/ccAu1Zkx.s:6697   .data.ISP_DecimationValue:00000000 $d
     /tmp/ccAu1Zkx.s:6703   .bss.ISP_ManualWBRefColorTemp:00000000 $d
     /tmp/ccAu1Zkx.s:415    .text.GetNextStatStage:0000002b $d
     /tmp/ccAu1Zkx.s:415    .text.GetNextStatStage:0000002c $t
     /tmp/ccAu1Zkx.s:959    .text.ISP_SVC_ISP_SetDemosaicing:0000003b $d
     /tmp/ccAu1Zkx.s:959    .text.ISP_SVC_ISP_SetDemosaicing:0000003c $t

UNDEFINED SYMBOLS
__aeabi_uldivmod
__aeabi_ldivmod
HAL_DCMIPP_PIPE_GetISPAccumulatedStatisticsCounter
HAL_DCMIPP_PIPE_DisableISPRawBayer2RGB
HAL_DCMIPP_PIPE_SetISPRawBayer2RGBConfig
HAL_DCMIPP_PIPE_EnableISPRawBayer2RGB
HAL_DCMIPP_PIPE_DisableISPRemovalStatistic
HAL_DCMIPP_PIPE_SetISPRemovalStatisticConfig
HAL_DCMIPP_PIPE_EnableISPRemovalStatistic
HAL_DCMIPP_PIPE_SetISPDecimationConfig
ARM GAS  /tmp/ccAu1Zkx.s 			page 173


HAL_DCMIPP_PIPE_EnableISPDecimation
HAL_DCMIPP_PIPE_DisableISPCtrlContrast
HAL_DCMIPP_PIPE_SetISPCtrlContrastConfig
HAL_DCMIPP_PIPE_EnableISPCtrlContrast
HAL_DCMIPP_PIPE_SetISPAreaStatisticExtractionConfig
HAL_DCMIPP_PIPE_EnableISPAreaStatisticExtraction
HAL_DCMIPP_PIPE_IsEnabledISPAreaStatisticExtraction
HAL_DCMIPP_PIPE_GetISPAreaStatisticExtractionConfig
HAL_DCMIPP_PIPE_DisableISPBadPixelRemoval
HAL_DCMIPP_PIPE_SetISPBadPixelRemovalConfig
HAL_DCMIPP_PIPE_EnableISPBadPixelRemoval
HAL_DCMIPP_PIPE_IsEnabledISPBadPixelRemoval
HAL_DCMIPP_PIPE_GetISPBadPixelRemovalConfig
HAL_DCMIPP_PIPE_GetISPRemovedBadPixelCounter
HAL_DCMIPP_PIPE_DisableISPBlackLevelCalibration
HAL_DCMIPP_PIPE_SetISPBlackLevelCalibrationConfig
HAL_DCMIPP_PIPE_EnableISPBlackLevelCalibration
HAL_DCMIPP_PIPE_IsEnabledISPBlackLevelCalibration
HAL_DCMIPP_PIPE_GetISPBlackLevelCalibrationConfig
HAL_DCMIPP_PIPE_DisableISPExposure
HAL_DCMIPP_PIPE_SetISPExposureConfig
HAL_DCMIPP_PIPE_EnableISPExposure
HAL_DCMIPP_PIPE_IsEnabledISPExposure
HAL_DCMIPP_PIPE_GetISPExposureConfig
HAL_DCMIPP_PIPE_DisableISPColorConversion
HAL_DCMIPP_PIPE_SetISPColorConversionConfig
HAL_DCMIPP_PIPE_EnableISPColorConversion
HAL_DCMIPP_PIPE_IsEnabledISPColorConversion
HAL_DCMIPP_PIPE_GetISPColorConversionConfig
Meta
HAL_DCMIPP_GetState
HAL_GetDEVID
HAL_GetUIDw0
HAL_GetUIDw1
HAL_GetUIDw2
HAL_DCMIPP_PIPE_IsEnabledGammaConversion
HAL_DCMIPP_PIPE_DisableGammaConversion
HAL_DCMIPP_PIPE_EnableGammaConversion
memcpy
memset
puts
HAL_DCMIPP_PIPE_SetISPStatisticExtractionConfig
HAL_DCMIPP_PIPE_EnableISPStatisticExtraction
pow
