ARM GAS  /tmp/ccAu1Zkx.s 			page 1


   1              		.arch armv8.1-m.main
   2              		.fpu fpv5-d16
   3              		.arch_extension dsp
   4              		.arch_extension fp
   5              		.arch_extension fp.dp
   6              		.arch_extension mve
   7              		.arch_extension mve.fp
   8              		.eabi_attribute 5, "cortex-m55"
   9              		.eabi_attribute 28, 1
  10              		.eabi_attribute 20, 1
  11              		.eabi_attribute 21, 1
  12              		.eabi_attribute 23, 3
  13              		.eabi_attribute 24, 1
  14              		.eabi_attribute 25, 1
  15              		.eabi_attribute 26, 1
  16              		.eabi_attribute 30, 1
  17              		.eabi_attribute 34, 1
  18              		.eabi_attribute 38, 1
  19              		.eabi_attribute 18, 4
  20              		.file	"isp_services.c"
  21              		.text
  22              	.Ltext0:
  23              		.cfi_sections	.debug_frame
  24              		.file 1 "../Drivers/ISP/isp/Src/isp_services.c"
  25              		.section	.text.To_Shift_Multiplier,"ax",%progbits
  26              		.align	1
  27              		.syntax unified
  28              		.thumb
  29              		.thumb_func
  31              	To_Shift_Multiplier:
  32              	.LVL0:
  33              	.LFB884:
   1:../Drivers/ISP/isp/Src/isp_services.c **** /**
   2:../Drivers/ISP/isp/Src/isp_services.c ****  ******************************************************************************
   3:../Drivers/ISP/isp/Src/isp_services.c ****  * @file    isp_services.c
   4:../Drivers/ISP/isp/Src/isp_services.c ****  * @author  AIS Application Team
   5:../Drivers/ISP/isp/Src/isp_services.c ****  * @brief   Services of the ISP middleware
   6:../Drivers/ISP/isp/Src/isp_services.c ****  ******************************************************************************
   7:../Drivers/ISP/isp/Src/isp_services.c ****  * @attention
   8:../Drivers/ISP/isp/Src/isp_services.c ****  *
   9:../Drivers/ISP/isp/Src/isp_services.c ****  * Copyright (c) 2023 STMicroelectronics.
  10:../Drivers/ISP/isp/Src/isp_services.c ****  * All rights reserved.
  11:../Drivers/ISP/isp/Src/isp_services.c ****  *
  12:../Drivers/ISP/isp/Src/isp_services.c ****  * This software is licensed under terms that can be found in the LICENSE file
  13:../Drivers/ISP/isp/Src/isp_services.c ****  * in the root directory of this software component.
  14:../Drivers/ISP/isp/Src/isp_services.c ****  * If no LICENSE file comes with this software, it is provided AS-IS.
  15:../Drivers/ISP/isp/Src/isp_services.c ****  *
  16:../Drivers/ISP/isp/Src/isp_services.c ****  ******************************************************************************
  17:../Drivers/ISP/isp/Src/isp_services.c ****  */
  18:../Drivers/ISP/isp/Src/isp_services.c **** 
  19:../Drivers/ISP/isp/Src/isp_services.c **** /* Includes ------------------------------------------------------------------*/
  20:../Drivers/ISP/isp/Src/isp_services.c **** #include "isp_core.h"
  21:../Drivers/ISP/isp/Src/isp_services.c **** #include "isp_services.h"
  22:../Drivers/ISP/isp/Src/isp_services.c **** #ifdef ISP_MW_TUNING_TOOL_SUPPORT
  23:../Drivers/ISP/isp/Src/isp_services.c **** #include "isp_cmd_parser.h"
  24:../Drivers/ISP/isp/Src/isp_services.c **** #endif
  25:../Drivers/ISP/isp/Src/isp_services.c **** 
ARM GAS  /tmp/ccAu1Zkx.s 			page 2


  26:../Drivers/ISP/isp/Src/isp_services.c **** /* Private types -------------------------------------------------------------*/
  27:../Drivers/ISP/isp/Src/isp_services.c **** typedef enum {
  28:../Drivers/ISP/isp/Src/isp_services.c ****   ISP_STAT_CFG_UP_AVG = 0,      /* Configure @Up   for average    */
  29:../Drivers/ISP/isp/Src/isp_services.c ****   ISP_STAT_CFG_UP_BINS_0_2,     /* Configure @Up   for bins[0:2]  */
  30:../Drivers/ISP/isp/Src/isp_services.c ****   ISP_STAT_CFG_UP_BINS_3_5,     /* Configure @Up   for bins[3:5]  */
  31:../Drivers/ISP/isp/Src/isp_services.c ****   ISP_STAT_CFG_UP_BINS_6_8,     /* Configure @Up   for bins[6:8]  */
  32:../Drivers/ISP/isp/Src/isp_services.c ****   ISP_STAT_CFG_UP_BINS_9_11,    /* Configure @Up   for bins[9:11] */
  33:../Drivers/ISP/isp/Src/isp_services.c ****   ISP_STAT_CFG_DOWN_AVG,        /* Configure @Down for average    */
  34:../Drivers/ISP/isp/Src/isp_services.c ****   ISP_STAT_CFG_DOWN_BINS_0_2,   /* Configure @Down for bins[0:2]  */
  35:../Drivers/ISP/isp/Src/isp_services.c ****   ISP_STAT_CFG_DOWN_BINS_3_5,   /* Configure @Down for bins[3:5]  */
  36:../Drivers/ISP/isp/Src/isp_services.c ****   ISP_STAT_CFG_DOWN_BINS_6_8,   /* Configure @Down for bins[6:8]  */
  37:../Drivers/ISP/isp/Src/isp_services.c ****   ISP_STAT_CFG_DOWN_BINS_9_11,  /* Configure @Down for bins[9:11] */
  38:../Drivers/ISP/isp/Src/isp_services.c ****   ISP_STAT_CFG_LAST = ISP_STAT_CFG_DOWN_BINS_9_11,
  39:../Drivers/ISP/isp/Src/isp_services.c ****   ISP_STAT_CFG_CYCLE_SIZE,
  40:../Drivers/ISP/isp/Src/isp_services.c **** } ISP_SVC_StatEngineStage;
  41:../Drivers/ISP/isp/Src/isp_services.c **** 
  42:../Drivers/ISP/isp/Src/isp_services.c **** typedef enum {
  43:../Drivers/ISP/isp/Src/isp_services.c ****   ISP_RED,
  44:../Drivers/ISP/isp/Src/isp_services.c ****   ISP_GREEN,
  45:../Drivers/ISP/isp/Src/isp_services.c ****   ISP_BLUE,
  46:../Drivers/ISP/isp/Src/isp_services.c **** } ISP_SVC_Component;
  47:../Drivers/ISP/isp/Src/isp_services.c **** 
  48:../Drivers/ISP/isp/Src/isp_services.c **** typedef struct {
  49:../Drivers/ISP/isp/Src/isp_services.c ****   ISP_stat_ready_cb callback;           /* Callback to inform that stats are ready */
  50:../Drivers/ISP/isp/Src/isp_services.c ****   ISP_AlgoTypeDef *pAlgo;               /* Callback context parameter */
  51:../Drivers/ISP/isp/Src/isp_services.c ****   ISP_SVC_StatStateTypeDef *pStats;     /* Output statistics */
  52:../Drivers/ISP/isp/Src/isp_services.c ****   uint32_t refFrameId;                  /* Frame reference for which stats are requested */
  53:../Drivers/ISP/isp/Src/isp_services.c ****   ISP_SVC_StatLocation location;        /* Location where stats are requested */
  54:../Drivers/ISP/isp/Src/isp_services.c ****   ISP_SVC_StatType type;                /* Type of requested stats */
  55:../Drivers/ISP/isp/Src/isp_services.c **** } ISP_SVC_StatRegisteredClient;
  56:../Drivers/ISP/isp/Src/isp_services.c **** 
  57:../Drivers/ISP/isp/Src/isp_services.c **** #define ISP_SVC_STAT_MAX_CB       (5U)
  58:../Drivers/ISP/isp/Src/isp_services.c **** typedef struct {
  59:../Drivers/ISP/isp/Src/isp_services.c ****   ISP_SVC_StatEngineStage stage;        /* Internal processing stage */
  60:../Drivers/ISP/isp/Src/isp_services.c ****   ISP_SVC_StatStateTypeDef last;        /* Last available statistics */
  61:../Drivers/ISP/isp/Src/isp_services.c ****   ISP_SVC_StatStateTypeDef ongoing;     /* Statistics being updated */
  62:../Drivers/ISP/isp/Src/isp_services.c ****   ISP_SVC_StatRegisteredClient client[ISP_SVC_STAT_MAX_CB]; /* Client waiting for stats */
  63:../Drivers/ISP/isp/Src/isp_services.c ****   ISP_SVC_StatType upRequest;           /* Type of statistics request at Up location */
  64:../Drivers/ISP/isp/Src/isp_services.c ****   ISP_SVC_StatType downRequest;         /* Type of statistics request at Down location */
  65:../Drivers/ISP/isp/Src/isp_services.c ****   uint32_t requestAllCounter;           /* Counter for the temporary "request all stats" mode */
  66:../Drivers/ISP/isp/Src/isp_services.c ****   ISP_StatAreaTypeDef upStatArea;       /* Stat area configured at upRequest */
  67:../Drivers/ISP/isp/Src/isp_services.c ****   ISP_StatAreaTypeDef downStatArea;     /* Stat area configured at downRequest */
  68:../Drivers/ISP/isp/Src/isp_services.c **** } ISP_SVC_StatEngineTypeDef;
  69:../Drivers/ISP/isp/Src/isp_services.c **** 
  70:../Drivers/ISP/isp/Src/isp_services.c **** /* Private constants ---------------------------------------------------------*/
  71:../Drivers/ISP/isp/Src/isp_services.c **** #define ISP_SVC_CONFIG_ORDER_RGB      0
  72:../Drivers/ISP/isp/Src/isp_services.c **** #define ISP_SVC_CONFIG_ORDER_BGR      1
  73:../Drivers/ISP/isp/Src/isp_services.c **** 
  74:../Drivers/ISP/isp/Src/isp_services.c **** #define ISP_SVC_CONFIG_DEVICE_N6      0x00000000
  75:../Drivers/ISP/isp/Src/isp_services.c **** #define ISP_SVC_CONFIG_DEVICE_MP25    0x00000001
  76:../Drivers/ISP/isp/Src/isp_services.c **** #define ISP_SVC_CONFIG_DEVICE_UNKNOWN 0xFFFFFFFF
  77:../Drivers/ISP/isp/Src/isp_services.c **** 
  78:../Drivers/ISP/isp/Src/isp_services.c **** /* Private macro -------------------------------------------------------------*/
  79:../Drivers/ISP/isp/Src/isp_services.c **** /* Private function prototypes -----------------------------------------------*/
  80:../Drivers/ISP/isp/Src/isp_services.c **** static void To_Shift_Multiplier(uint32_t Factor, uint8_t *pShift, uint8_t *pMultiplier);
  81:../Drivers/ISP/isp/Src/isp_services.c **** static uint32_t From_Shift_Multiplier(uint8_t Shift, uint8_t Multiplier);
  82:../Drivers/ISP/isp/Src/isp_services.c **** static int16_t To_CConv_Reg(int32_t Coeff);
ARM GAS  /tmp/ccAu1Zkx.s 			page 3


  83:../Drivers/ISP/isp/Src/isp_services.c **** static int32_t From_CConv_Reg(int16_t Reg);
  84:../Drivers/ISP/isp/Src/isp_services.c **** 
  85:../Drivers/ISP/isp/Src/isp_services.c **** /* Private variables ---------------------------------------------------------*/
  86:../Drivers/ISP/isp/Src/isp_services.c **** static uint32_t ISP_ManualWBRefColorTemp = 0;
  87:../Drivers/ISP/isp/Src/isp_services.c **** static ISP_DecimationTypeDef ISP_DecimationValue = {ISP_DECIM_FACTOR_1};
  88:../Drivers/ISP/isp/Src/isp_services.c **** static ISP_IQParamTypeDef ISP_IQParamCache;
  89:../Drivers/ISP/isp/Src/isp_services.c **** static ISP_SVC_StatEngineTypeDef ISP_SVC_StatEngine;
  90:../Drivers/ISP/isp/Src/isp_services.c **** static bool ISP_SensorDelayMeasureRun;
  91:../Drivers/ISP/isp/Src/isp_services.c **** static ISP_RestartStateTypeDef *pISP_RestartState;
  92:../Drivers/ISP/isp/Src/isp_services.c **** 
  93:../Drivers/ISP/isp/Src/isp_services.c **** static const uint32_t avgRGBUp[] = {
  94:../Drivers/ISP/isp/Src/isp_services.c ****     DCMIPP_STAT_EXT_SOURCE_PRE_BLKLVL_R, DCMIPP_STAT_EXT_SOURCE_PRE_BLKLVL_G, DCMIPP_STAT_EXT_SOURC
  95:../Drivers/ISP/isp/Src/isp_services.c **** };
  96:../Drivers/ISP/isp/Src/isp_services.c **** 
  97:../Drivers/ISP/isp/Src/isp_services.c **** static const uint32_t avgRGBDown[] = {
  98:../Drivers/ISP/isp/Src/isp_services.c ****     DCMIPP_STAT_EXT_SOURCE_POST_DEMOS_R, DCMIPP_STAT_EXT_SOURCE_POST_DEMOS_G, DCMIPP_STAT_EXT_SOURC
  99:../Drivers/ISP/isp/Src/isp_services.c **** };
 100:../Drivers/ISP/isp/Src/isp_services.c **** 
 101:../Drivers/ISP/isp/Src/isp_services.c **** static const DCMIPP_StatisticExtractionConfTypeDef statConfUpBins_0_2 = {
 102:../Drivers/ISP/isp/Src/isp_services.c ****     .Mode = DCMIPP_STAT_EXT_MODE_BINS,
 103:../Drivers/ISP/isp/Src/isp_services.c ****     .Source = DCMIPP_STAT_EXT_SOURCE_PRE_BLKLVL_L,
 104:../Drivers/ISP/isp/Src/isp_services.c ****     .Bins = DCMIPP_STAT_EXT_BINS_MODE_LOWER_BINS
 105:../Drivers/ISP/isp/Src/isp_services.c **** };
 106:../Drivers/ISP/isp/Src/isp_services.c **** 
 107:../Drivers/ISP/isp/Src/isp_services.c **** static const DCMIPP_StatisticExtractionConfTypeDef statConfUpBins_3_5 = {
 108:../Drivers/ISP/isp/Src/isp_services.c ****     .Mode = DCMIPP_STAT_EXT_MODE_BINS,
 109:../Drivers/ISP/isp/Src/isp_services.c ****     .Source = DCMIPP_STAT_EXT_SOURCE_PRE_BLKLVL_L,
 110:../Drivers/ISP/isp/Src/isp_services.c ****     .Bins = DCMIPP_STAT_EXT_BINS_MODE_LOWMID_BINS
 111:../Drivers/ISP/isp/Src/isp_services.c **** };
 112:../Drivers/ISP/isp/Src/isp_services.c **** 
 113:../Drivers/ISP/isp/Src/isp_services.c **** static const DCMIPP_StatisticExtractionConfTypeDef statConfUpBins_6_8 = {
 114:../Drivers/ISP/isp/Src/isp_services.c ****     .Mode = DCMIPP_STAT_EXT_MODE_BINS,
 115:../Drivers/ISP/isp/Src/isp_services.c ****     .Source = DCMIPP_STAT_EXT_SOURCE_PRE_BLKLVL_L,
 116:../Drivers/ISP/isp/Src/isp_services.c ****     .Bins = DCMIPP_STAT_EXT_BINS_MODE_UPMID_BINS
 117:../Drivers/ISP/isp/Src/isp_services.c **** };
 118:../Drivers/ISP/isp/Src/isp_services.c **** 
 119:../Drivers/ISP/isp/Src/isp_services.c **** static const DCMIPP_StatisticExtractionConfTypeDef statConfUpBins_9_11 = {
 120:../Drivers/ISP/isp/Src/isp_services.c ****     .Mode = DCMIPP_STAT_EXT_MODE_BINS,
 121:../Drivers/ISP/isp/Src/isp_services.c ****     .Source = DCMIPP_STAT_EXT_SOURCE_PRE_BLKLVL_L,
 122:../Drivers/ISP/isp/Src/isp_services.c ****     .Bins = DCMIPP_STAT_EXT_BINS_MODE_UP_BINS
 123:../Drivers/ISP/isp/Src/isp_services.c **** };
 124:../Drivers/ISP/isp/Src/isp_services.c **** 
 125:../Drivers/ISP/isp/Src/isp_services.c **** static const DCMIPP_StatisticExtractionConfTypeDef statConfDownBins_0_2 = {
 126:../Drivers/ISP/isp/Src/isp_services.c ****     .Mode = DCMIPP_STAT_EXT_MODE_BINS,
 127:../Drivers/ISP/isp/Src/isp_services.c ****     .Source = DCMIPP_STAT_EXT_SOURCE_POST_DEMOS_L,
 128:../Drivers/ISP/isp/Src/isp_services.c ****     .Bins = DCMIPP_STAT_EXT_BINS_MODE_LOWER_BINS
 129:../Drivers/ISP/isp/Src/isp_services.c **** };
 130:../Drivers/ISP/isp/Src/isp_services.c **** 
 131:../Drivers/ISP/isp/Src/isp_services.c **** static const DCMIPP_StatisticExtractionConfTypeDef statConfDownBins_3_5 = {
 132:../Drivers/ISP/isp/Src/isp_services.c ****     .Mode = DCMIPP_STAT_EXT_MODE_BINS,
 133:../Drivers/ISP/isp/Src/isp_services.c ****     .Source = DCMIPP_STAT_EXT_SOURCE_POST_DEMOS_L,
 134:../Drivers/ISP/isp/Src/isp_services.c ****     .Bins = DCMIPP_STAT_EXT_BINS_MODE_LOWMID_BINS
 135:../Drivers/ISP/isp/Src/isp_services.c **** };
 136:../Drivers/ISP/isp/Src/isp_services.c **** 
 137:../Drivers/ISP/isp/Src/isp_services.c **** static const DCMIPP_StatisticExtractionConfTypeDef statConfDownBins_6_8 = {
 138:../Drivers/ISP/isp/Src/isp_services.c ****     .Mode = DCMIPP_STAT_EXT_MODE_BINS,
 139:../Drivers/ISP/isp/Src/isp_services.c ****     .Source = DCMIPP_STAT_EXT_SOURCE_POST_DEMOS_L,
ARM GAS  /tmp/ccAu1Zkx.s 			page 4


 140:../Drivers/ISP/isp/Src/isp_services.c ****     .Bins = DCMIPP_STAT_EXT_BINS_MODE_UPMID_BINS
 141:../Drivers/ISP/isp/Src/isp_services.c **** };
 142:../Drivers/ISP/isp/Src/isp_services.c **** 
 143:../Drivers/ISP/isp/Src/isp_services.c **** static const DCMIPP_StatisticExtractionConfTypeDef statConfDownBins_9_11 = {
 144:../Drivers/ISP/isp/Src/isp_services.c ****     .Mode = DCMIPP_STAT_EXT_MODE_BINS,
 145:../Drivers/ISP/isp/Src/isp_services.c ****     .Source = DCMIPP_STAT_EXT_SOURCE_POST_DEMOS_L,
 146:../Drivers/ISP/isp/Src/isp_services.c ****     .Bins = DCMIPP_STAT_EXT_BINS_MODE_UP_BINS
 147:../Drivers/ISP/isp/Src/isp_services.c **** };
 148:../Drivers/ISP/isp/Src/isp_services.c **** 
 149:../Drivers/ISP/isp/Src/isp_services.c **** /* Exported variables --------------------------------------------------------*/
 150:../Drivers/ISP/isp/Src/isp_services.c **** extern ISP_MetaTypeDef Meta;
 151:../Drivers/ISP/isp/Src/isp_services.c **** 
 152:../Drivers/ISP/isp/Src/isp_services.c **** /* Private functions ---------------------------------------------------------*/
 153:../Drivers/ISP/isp/Src/isp_services.c **** static void To_Shift_Multiplier(uint32_t Factor, uint8_t *pShift, uint8_t *pMultiplier)
 154:../Drivers/ISP/isp/Src/isp_services.c **** {
  34              		.loc 1 154 1 view -0
  35              		.cfi_startproc
  36              		@ args = 0, pretend = 0, frame = 0
  37              		@ frame_needed = 0, uses_anonymous_args = 0
  38              		.loc 1 154 1 is_stmt 0 view .LVU1
  39 0000 38B5     		push	{r3, r4, r5, lr}
  40              	.LCFI0:
  41              		.cfi_def_cfa_offset 16
  42              		.cfi_offset 3, -16
  43              		.cfi_offset 4, -12
  44              		.cfi_offset 5, -8
  45              		.cfi_offset 14, -4
  46 0002 0C46     		mov	r4, r1
  47 0004 1546     		mov	r5, r2
 155:../Drivers/ISP/isp/Src/isp_services.c ****   /* Convert Factor (Unit = 100000000 for "x1.0") to Multiplier (where 128 means "x1.0") */
 156:../Drivers/ISP/isp/Src/isp_services.c ****   uint64_t Val = Factor;
  48              		.loc 1 156 3 is_stmt 1 view .LVU2
  49              		.loc 1 156 12 is_stmt 0 view .LVU3
  50 0006 0021     		movs	r1, #0
  51              	.LVL1:
 157:../Drivers/ISP/isp/Src/isp_services.c ****   Val = (Val * 128) / ISP_GAIN_PRECISION_FACTOR;
  52              		.loc 1 157 3 is_stmt 1 view .LVU4
  53              		.loc 1 157 7 is_stmt 0 view .LVU5
  54 0008 0BA3     		adr	r3, .L5
  55 000a D3E90023 		ldrd	r2, [r3]
  56              	.LVL2:
  57              		.loc 1 157 7 view .LVU6
  58 000e 50EACF11 		lsll	r0, r1, #7
  59              	.LVL3:
  60              		.loc 1 157 7 view .LVU7
  61 0012 FFF7FEFF 		bl	__aeabi_uldivmod
  62              	.LVL4:
  63 0016 0246     		mov	r2, r0
  64 0018 0B46     		mov	r3, r1
  65              	.LVL5:
 158:../Drivers/ISP/isp/Src/isp_services.c **** 
 159:../Drivers/ISP/isp/Src/isp_services.c ****   /* Get Shift + Multiplier where Multiplier < 256 */
 160:../Drivers/ISP/isp/Src/isp_services.c ****   *pShift = 0;
  66              		.loc 1 160 3 is_stmt 1 view .LVU8
  67              		.loc 1 160 11 is_stmt 0 view .LVU9
  68 001a 0021     		movs	r1, #0
  69 001c 2170     		strb	r1, [r4]
ARM GAS  /tmp/ccAu1Zkx.s 			page 5


 161:../Drivers/ISP/isp/Src/isp_services.c ****   while (Val >= 256)
  70              		.loc 1 161 3 is_stmt 1 view .LVU10
  71              		.loc 1 161 9 is_stmt 0 view .LVU11
  72 001e 04E0     		b	.L2
  73              	.L3:
 162:../Drivers/ISP/isp/Src/isp_services.c ****   {
 163:../Drivers/ISP/isp/Src/isp_services.c ****     Val /= 2;
  74              		.loc 1 163 5 is_stmt 1 view .LVU12
  75              		.loc 1 163 9 is_stmt 0 view .LVU13
  76 0020 52EA5F03 		lsrl	r2, r3, #1
  77              	.LVL6:
 164:../Drivers/ISP/isp/Src/isp_services.c ****     (*pShift)++;
  78              		.loc 1 164 5 is_stmt 1 view .LVU14
  79              		.loc 1 164 6 is_stmt 0 view .LVU15
  80 0024 2078     		ldrb	r0, [r4]	@ zero_extendqisi2
  81              		.loc 1 164 14 view .LVU16
  82 0026 0130     		adds	r0, r0, #1
  83 0028 2070     		strb	r0, [r4]
  84              	.L2:
 161:../Drivers/ISP/isp/Src/isp_services.c ****   while (Val >= 256)
  85              		.loc 1 161 14 is_stmt 1 discriminator 1 view .LVU17
  86 002a B2F5807F 		cmp	r2, #256
  87 002e 73F10001 		sbcs	r1, r3, #0
  88 0032 F5D2     		bcs	.L3
 165:../Drivers/ISP/isp/Src/isp_services.c ****   }
 166:../Drivers/ISP/isp/Src/isp_services.c **** 
 167:../Drivers/ISP/isp/Src/isp_services.c ****   *pMultiplier = (uint8_t)Val;
  89              		.loc 1 167 3 view .LVU18
  90              		.loc 1 167 16 is_stmt 0 view .LVU19
  91 0034 2A70     		strb	r2, [r5]
 168:../Drivers/ISP/isp/Src/isp_services.c **** }
  92              		.loc 1 168 1 view .LVU20
  93 0036 38BD     		pop	{r3, r4, r5, pc}
  94              	.LVL7:
  95              	.L6:
  96              		.loc 1 168 1 view .LVU21
  97              		.align	3
  98              	.L5:
  99 0038 00E1F505 		.word	100000000
 100 003c 00000000 		.word	0
 101              		.cfi_endproc
 102              	.LFE884:
 104              		.section	.text.From_Shift_Multiplier,"ax",%progbits
 105              		.align	1
 106              		.syntax unified
 107              		.thumb
 108              		.thumb_func
 110              	From_Shift_Multiplier:
 111              	.LVL8:
 112              	.LFB885:
 169:../Drivers/ISP/isp/Src/isp_services.c **** 
 170:../Drivers/ISP/isp/Src/isp_services.c **** static uint32_t From_Shift_Multiplier(uint8_t Shift, uint8_t Multiplier)
 171:../Drivers/ISP/isp/Src/isp_services.c **** {
 113              		.loc 1 171 1 is_stmt 1 view -0
 114              		.cfi_startproc
 115              		@ args = 0, pretend = 0, frame = 0
 116              		@ frame_needed = 0, uses_anonymous_args = 0
ARM GAS  /tmp/ccAu1Zkx.s 			page 6


 117              		@ link register save eliminated.
 172:../Drivers/ISP/isp/Src/isp_services.c ****   /* Convert Shift + Multiplier to Factor (Unit = 100000000 for "x1.0") */
 173:../Drivers/ISP/isp/Src/isp_services.c ****   uint64_t Val = (1 << Shift);
 118              		.loc 1 173 3 view .LVU23
 119              		.loc 1 173 21 is_stmt 0 view .LVU24
 120 0000 0123     		movs	r3, #1
 121 0002 03FA00F0 		lsl	r0, r3, r0
 122              	.LVL9:
 123              		.loc 1 173 12 view .LVU25
 124 0006 4FEAE07C 		asr	ip, r0, #31
 125              	.LVL10:
 174:../Drivers/ISP/isp/Src/isp_services.c ****   Val = (Val * Multiplier * ISP_GAIN_PRECISION_FACTOR) / 128;
 126              		.loc 1 174 3 is_stmt 1 view .LVU26
 127              		.loc 1 174 14 is_stmt 0 view .LVU27
 128 000a A1FB0032 		umull	r3, r2, r1, r0
 129 000e 01FB0C22 		mla	r2, r1, ip, r2
 130              		.loc 1 174 27 view .LVU28
 131 0012 DFF810C0 		ldr	ip, .L8
 132              	.LVL11:
 133              		.loc 1 174 27 view .LVU29
 134 0016 A3FB0C01 		umull	r0, r1, r3, ip
 135              	.LVL12:
 136              		.loc 1 174 27 view .LVU30
 137 001a 0CFB0211 		mla	r1, ip, r2, r1
 138              		.loc 1 174 7 view .LVU31
 139 001e 50EADF11 		lsrl	r0, r1, #7
 140              	.LVL13:
 175:../Drivers/ISP/isp/Src/isp_services.c ****   return (uint32_t) Val;
 141              		.loc 1 175 3 is_stmt 1 view .LVU32
 176:../Drivers/ISP/isp/Src/isp_services.c **** }
 142              		.loc 1 176 1 is_stmt 0 view .LVU33
 143 0022 7047     		bx	lr
 144              	.L9:
 145              		.align	2
 146              	.L8:
 147 0024 00E1F505 		.word	100000000
 148              		.cfi_endproc
 149              	.LFE885:
 151              		.section	.text.To_CConv_Reg,"ax",%progbits
 152              		.align	1
 153              		.syntax unified
 154              		.thumb
 155              		.thumb_func
 157              	To_CConv_Reg:
 158              	.LVL14:
 159              	.LFB886:
 177:../Drivers/ISP/isp/Src/isp_services.c **** 
 178:../Drivers/ISP/isp/Src/isp_services.c **** static int16_t To_CConv_Reg(int32_t Coeff)
 179:../Drivers/ISP/isp/Src/isp_services.c **** {
 160              		.loc 1 179 1 is_stmt 1 view -0
 161              		.cfi_startproc
 162              		@ args = 0, pretend = 0, frame = 0
 163              		@ frame_needed = 0, uses_anonymous_args = 0
 164              		.loc 1 179 1 is_stmt 0 view .LVU35
 165 0000 08B5     		push	{r3, lr}
 166              	.LCFI1:
 167              		.cfi_def_cfa_offset 8
ARM GAS  /tmp/ccAu1Zkx.s 			page 7


 168              		.cfi_offset 3, -8
 169              		.cfi_offset 14, -4
 180:../Drivers/ISP/isp/Src/isp_services.c ****   /* Convert Coefficient (Unit = 100000000 for "x1.0") to register format */
 181:../Drivers/ISP/isp/Src/isp_services.c ****   int64_t Val = Coeff;
 170              		.loc 1 181 3 is_stmt 1 view .LVU36
 171              	.LVL15:
 182:../Drivers/ISP/isp/Src/isp_services.c **** 
 183:../Drivers/ISP/isp/Src/isp_services.c ****   Val = (Val * 256) / ISP_CCM_PRECISION_FACTOR;
 172              		.loc 1 183 3 view .LVU37
 173              		.loc 1 183 7 is_stmt 0 view .LVU38
 174 0002 034A     		ldr	r2, .L12
 175 0004 0023     		movs	r3, #0
 176 0006 C117     		asrs	r1, r0, #31
 177 0008 FFF7FEFF 		bl	__aeabi_ldivmod
 178              	.LVL16:
 184:../Drivers/ISP/isp/Src/isp_services.c **** 
 185:../Drivers/ISP/isp/Src/isp_services.c ****   return (int16_t) Val;
 179              		.loc 1 185 3 is_stmt 1 view .LVU39
 186:../Drivers/ISP/isp/Src/isp_services.c **** }
 180              		.loc 1 186 1 is_stmt 0 view .LVU40
 181 000c 00B2     		sxth	r0, r0
 182              	.LVL17:
 183              		.loc 1 186 1 view .LVU41
 184 000e 08BD     		pop	{r3, pc}
 185              	.L13:
 186              		.align	2
 187              	.L12:
 188 0010 E1F50500 		.word	390625
 189              		.cfi_endproc
 190              	.LFE886:
 192              		.section	.text.From_CConv_Reg,"ax",%progbits
 193              		.align	1
 194              		.syntax unified
 195              		.thumb
 196              		.thumb_func
 198              	From_CConv_Reg:
 199              	.LVL18:
 200              	.LFB887:
 187:../Drivers/ISP/isp/Src/isp_services.c **** 
 188:../Drivers/ISP/isp/Src/isp_services.c **** static int32_t From_CConv_Reg(int16_t Reg)
 189:../Drivers/ISP/isp/Src/isp_services.c **** {
 201              		.loc 1 189 1 is_stmt 1 view -0
 202              		.cfi_startproc
 203              		@ args = 0, pretend = 0, frame = 0
 204              		@ frame_needed = 0, uses_anonymous_args = 0
 205              		@ link register save eliminated.
 190:../Drivers/ISP/isp/Src/isp_services.c ****   /* Convert from register format to Coefficient (Unit = 100000000 for "x1.0") */
 191:../Drivers/ISP/isp/Src/isp_services.c ****   int64_t Val = Reg;
 206              		.loc 1 191 3 view .LVU43
 192:../Drivers/ISP/isp/Src/isp_services.c **** 
 193:../Drivers/ISP/isp/Src/isp_services.c ****   Val = (Val * ISP_CCM_PRECISION_FACTOR) / 256;
 207              		.loc 1 193 3 view .LVU44
 194:../Drivers/ISP/isp/Src/isp_services.c **** 
 195:../Drivers/ISP/isp/Src/isp_services.c ****   return (int32_t) Val;
 208              		.loc 1 195 3 view .LVU45
 196:../Drivers/ISP/isp/Src/isp_services.c **** }
 209              		.loc 1 196 1 is_stmt 0 view .LVU46
ARM GAS  /tmp/ccAu1Zkx.s 			page 8


 210 0000 014B     		ldr	r3, .L15
 211 0002 03FB00F0 		mul	r0, r3, r0
 212              	.LVL19:
 213              		.loc 1 196 1 view .LVU47
 214 0006 7047     		bx	lr
 215              	.L16:
 216              		.align	2
 217              	.L15:
 218 0008 E1F50500 		.word	390625
 219              		.cfi_endproc
 220              	.LFE887:
 222              		.section	.text.GetAvgStats,"ax",%progbits
 223              		.align	1
 224              		.syntax unified
 225              		.thumb
 226              		.thumb_func
 228              	GetAvgStats:
 229              	.LVL20:
 230              	.LFB888:
 197:../Drivers/ISP/isp/Src/isp_services.c **** 
 198:../Drivers/ISP/isp/Src/isp_services.c **** static uint8_t GetAvgStats(ISP_StatAreaTypeDef *pStatArea, ISP_SVC_StatLocation location, ISP_SVC_C
 199:../Drivers/ISP/isp/Src/isp_services.c **** {
 231              		.loc 1 199 1 is_stmt 1 view -0
 232              		.cfi_startproc
 233              		@ args = 0, pretend = 0, frame = 0
 234              		@ frame_needed = 0, uses_anonymous_args = 0
 235              		@ link register save eliminated.
 236              		.loc 1 199 1 is_stmt 0 view .LVU49
 237 0000 8446     		mov	ip, r0
 200:../Drivers/ISP/isp/Src/isp_services.c ****   uint32_t nb_comp_pix, comp_divider;
 238              		.loc 1 200 3 is_stmt 1 view .LVU50
 201:../Drivers/ISP/isp/Src/isp_services.c **** 
 202:../Drivers/ISP/isp/Src/isp_services.c ****   /* Number of pixels computed from Stat Area and considering decimation */
 203:../Drivers/ISP/isp/Src/isp_services.c ****   nb_comp_pix = pStatArea->XSize * pStatArea->YSize;
 239              		.loc 1 203 3 view .LVU51
 240              		.loc 1 203 26 is_stmt 0 view .LVU52
 241 0002 8068     		ldr	r0, [r0, #8]
 242              	.LVL21:
 243              		.loc 1 203 45 view .LVU53
 244 0004 DCF80CC0 		ldr	ip, [ip, #12]
 245              	.LVL22:
 246              		.loc 1 203 15 view .LVU54
 247 0008 0CFB00F0 		mul	r0, ip, r0
 248              	.LVL23:
 204:../Drivers/ISP/isp/Src/isp_services.c ****   nb_comp_pix /= ISP_DecimationValue.factor * ISP_DecimationValue.factor;
 249              		.loc 1 204 3 is_stmt 1 view .LVU55
 250              		.loc 1 204 37 is_stmt 0 view .LVU56
 251 000c DFF838C0 		ldr	ip, .L24
 252 0010 9CF800C0 		ldrb	ip, [ip]	@ zero_extendqisi2
 253              		.loc 1 204 45 view .LVU57
 254 0014 0CFB0CFC 		mul	ip, ip, ip
 255              		.loc 1 204 15 view .LVU58
 256 0018 B0FBFCF0 		udiv	r0, r0, ip
 257              	.LVL24:
 205:../Drivers/ISP/isp/Src/isp_services.c **** 
 206:../Drivers/ISP/isp/Src/isp_services.c ****   if (location == ISP_STAT_LOC_DOWN)
 258              		.loc 1 206 3 is_stmt 1 view .LVU59
ARM GAS  /tmp/ccAu1Zkx.s 			page 9


 259              		.loc 1 206 6 is_stmt 0 view .LVU60
 260 001c 0229     		cmp	r1, #2
 261 001e 0FD0     		beq	.L20
 207:../Drivers/ISP/isp/Src/isp_services.c ****   {
 208:../Drivers/ISP/isp/Src/isp_services.c ****     /* RGB format after demosaicing : 1 component per pixel */
 209:../Drivers/ISP/isp/Src/isp_services.c ****     comp_divider = 1;
 210:../Drivers/ISP/isp/Src/isp_services.c ****   }
 211:../Drivers/ISP/isp/Src/isp_services.c ****   else
 212:../Drivers/ISP/isp/Src/isp_services.c ****   {
 213:../Drivers/ISP/isp/Src/isp_services.c ****     /* Only raw bayer sensor expected */
 214:../Drivers/ISP/isp/Src/isp_services.c ****     /* raw bayer: RGB component not present for all pixels */
 215:../Drivers/ISP/isp/Src/isp_services.c ****     comp_divider = (component == ISP_GREEN) ? 2 : 4;
 262              		.loc 1 215 5 is_stmt 1 view .LVU61
 263              		.loc 1 215 49 is_stmt 0 view .LVU62
 264 0020 012A     		cmp	r2, #1
 265 0022 0BD0     		beq	.L23
 266              		.loc 1 215 18 discriminator 2 view .LVU63
 267 0024 0422     		movs	r2, #4
 268              	.LVL25:
 269              	.L18:
 216:../Drivers/ISP/isp/Src/isp_services.c ****   }
 217:../Drivers/ISP/isp/Src/isp_services.c **** 
 218:../Drivers/ISP/isp/Src/isp_services.c ****   /* Number of pixels per component */
 219:../Drivers/ISP/isp/Src/isp_services.c ****   nb_comp_pix /= comp_divider;
 270              		.loc 1 219 3 is_stmt 1 view .LVU64
 271              		.loc 1 219 15 is_stmt 0 view .LVU65
 272 0026 B0FBF2F1 		udiv	r1, r0, r2
 273              	.LVL26:
 220:../Drivers/ISP/isp/Src/isp_services.c **** 
 221:../Drivers/ISP/isp/Src/isp_services.c ****   /* Compute average (rounding to closest integer) */
 222:../Drivers/ISP/isp/Src/isp_services.c ****   if (nb_comp_pix == 0)
 274              		.loc 1 222 3 is_stmt 1 view .LVU66
 275              		.loc 1 222 6 is_stmt 0 view .LVU67
 276 002a 8242     		cmp	r2, r0
 277 002c 0AD8     		bhi	.L22
 223:../Drivers/ISP/isp/Src/isp_services.c ****   {
 224:../Drivers/ISP/isp/Src/isp_services.c ****     return 0;
 225:../Drivers/ISP/isp/Src/isp_services.c ****   }
 226:../Drivers/ISP/isp/Src/isp_services.c **** 
 227:../Drivers/ISP/isp/Src/isp_services.c ****   return (uint8_t)(((accu * 256) + (nb_comp_pix / 2)) / nb_comp_pix);
 278              		.loc 1 227 3 is_stmt 1 view .LVU68
 279              		.loc 1 227 49 is_stmt 0 view .LVU69
 280 002e 4808     		lsrs	r0, r1, #1
 281              		.loc 1 227 34 view .LVU70
 282 0030 00EB0320 		add	r0, r0, r3, lsl #8
 283              		.loc 1 227 55 view .LVU71
 284 0034 B0FBF1F0 		udiv	r0, r0, r1
 285              		.loc 1 227 10 view .LVU72
 286 0038 C0B2     		uxtb	r0, r0
 287 003a 7047     		bx	lr
 288              	.LVL27:
 289              	.L23:
 215:../Drivers/ISP/isp/Src/isp_services.c ****   }
 290              		.loc 1 215 18 discriminator 1 view .LVU73
 291 003c 0222     		movs	r2, #2
 292              	.LVL28:
 215:../Drivers/ISP/isp/Src/isp_services.c ****   }
ARM GAS  /tmp/ccAu1Zkx.s 			page 10


 293              		.loc 1 215 18 discriminator 1 view .LVU74
 294 003e F2E7     		b	.L18
 295              	.LVL29:
 296              	.L20:
 209:../Drivers/ISP/isp/Src/isp_services.c ****   }
 297              		.loc 1 209 18 view .LVU75
 298 0040 0122     		movs	r2, #1
 299              	.LVL30:
 209:../Drivers/ISP/isp/Src/isp_services.c ****   }
 300              		.loc 1 209 18 view .LVU76
 301 0042 F0E7     		b	.L18
 302              	.LVL31:
 303              	.L22:
 224:../Drivers/ISP/isp/Src/isp_services.c ****   }
 304              		.loc 1 224 12 view .LVU77
 305 0044 0020     		movs	r0, #0
 228:../Drivers/ISP/isp/Src/isp_services.c **** }
 306              		.loc 1 228 1 view .LVU78
 307 0046 7047     		bx	lr
 308              	.L25:
 309              		.align	2
 310              	.L24:
 311 0048 00000000 		.word	ISP_DecimationValue
 312              		.cfi_endproc
 313              	.LFE888:
 315              		.section	.text.SetStatConfig,"ax",%progbits
 316              		.align	1
 317              		.syntax unified
 318              		.thumb
 319              		.thumb_func
 321              	SetStatConfig:
 322              	.LVL32:
 323              	.LFB890:
 229:../Drivers/ISP/isp/Src/isp_services.c **** 
 230:../Drivers/ISP/isp/Src/isp_services.c **** static void ReadStatHistogram(ISP_HandleTypeDef *hIsp, uint32_t *histogram)
 231:../Drivers/ISP/isp/Src/isp_services.c **** {
 232:../Drivers/ISP/isp/Src/isp_services.c ****   for (uint8_t i = DCMIPP_STATEXT_MODULE1; i <= DCMIPP_STATEXT_MODULE3; i++)
 233:../Drivers/ISP/isp/Src/isp_services.c ****   {
 234:../Drivers/ISP/isp/Src/isp_services.c ****     HAL_DCMIPP_PIPE_GetISPAccumulatedStatisticsCounter(hIsp->hDcmipp, DCMIPP_PIPE1, i, &(histogram[
 235:../Drivers/ISP/isp/Src/isp_services.c ****   }
 236:../Drivers/ISP/isp/Src/isp_services.c **** }
 237:../Drivers/ISP/isp/Src/isp_services.c **** 
 238:../Drivers/ISP/isp/Src/isp_services.c **** static void SetStatConfig(DCMIPP_StatisticExtractionConfTypeDef *statConf, const DCMIPP_StatisticEx
 239:../Drivers/ISP/isp/Src/isp_services.c **** {
 324              		.loc 1 239 1 is_stmt 1 view -0
 325              		.cfi_startproc
 326              		@ args = 0, pretend = 0, frame = 0
 327              		@ frame_needed = 0, uses_anonymous_args = 0
 328              		.loc 1 239 1 is_stmt 0 view .LVU80
 329 0000 10B5     		push	{r4, lr}
 330              	.LCFI2:
 331              		.cfi_def_cfa_offset 8
 332              		.cfi_offset 4, -8
 333              		.cfi_offset 14, -4
 334 0002 0446     		mov	r4, r0
 335 0004 8E46     		mov	lr, r1
 240:../Drivers/ISP/isp/Src/isp_services.c ****   for (int i = 0; i < 3; i++)
ARM GAS  /tmp/ccAu1Zkx.s 			page 11


 336              		.loc 1 240 3 is_stmt 1 view .LVU81
 337              	.LBB2:
 338              		.loc 1 240 8 view .LVU82
 339              	.LVL33:
 340              		.loc 1 240 12 is_stmt 0 view .LVU83
 341 0006 4FF0000C 		mov	ip, #0
 342              		.loc 1 240 3 view .LVU84
 343 000a 09E0     		b	.L27
 344              	.LVL34:
 345              	.L28:
 241:../Drivers/ISP/isp/Src/isp_services.c ****   {
 242:../Drivers/ISP/isp/Src/isp_services.c ****     statConf[i] = *refConfig;
 346              		.loc 1 242 5 is_stmt 1 view .LVU85
 347              		.loc 1 242 13 is_stmt 0 view .LVU86
 348 000c 0CEB4C03 		add	r3, ip, ip, lsl #1
 349 0010 04EB8303 		add	r3, r4, r3, lsl #2
 350              		.loc 1 242 17 view .LVU87
 351 0014 9EE80700 		ldm	lr, {r0, r1, r2}
 352 0018 83E80700 		stm	r3, {r0, r1, r2}
 240:../Drivers/ISP/isp/Src/isp_services.c ****   for (int i = 0; i < 3; i++)
 353              		.loc 1 240 27 is_stmt 1 discriminator 1 view .LVU88
 354 001c 0CF1010C 		add	ip, ip, #1
 355              	.LVL35:
 356              	.L27:
 240:../Drivers/ISP/isp/Src/isp_services.c ****   for (int i = 0; i < 3; i++)
 357              		.loc 1 240 21 discriminator 2 view .LVU89
 358 0020 BCF1020F 		cmp	ip, #2
 359 0024 F2DD     		ble	.L28
 360              	.LBE2:
 243:../Drivers/ISP/isp/Src/isp_services.c ****   }
 244:../Drivers/ISP/isp/Src/isp_services.c **** }
 361              		.loc 1 244 1 is_stmt 0 view .LVU90
 362 0026 10BD     		pop	{r4, pc}
 363              		.loc 1 244 1 view .LVU91
 364              		.cfi_endproc
 365              	.LFE890:
 367              		.section	.text.GetNextStatStage,"ax",%progbits
 368              		.align	1
 369              		.syntax unified
 370              		.thumb
 371              		.thumb_func
 373              	GetNextStatStage:
 374              	.LVL36:
 375              	.LFB891:
 245:../Drivers/ISP/isp/Src/isp_services.c **** 
 246:../Drivers/ISP/isp/Src/isp_services.c **** static ISP_SVC_StatEngineStage GetNextStatStage(ISP_SVC_StatEngineStage current)
 247:../Drivers/ISP/isp/Src/isp_services.c **** {
 376              		.loc 1 247 1 is_stmt 1 view -0
 377              		.cfi_startproc
 378              		@ args = 0, pretend = 0, frame = 0
 379              		@ frame_needed = 0, uses_anonymous_args = 0
 380              		@ link register save eliminated.
 381              		.loc 1 247 1 is_stmt 0 view .LVU93
 382 0000 0346     		mov	r3, r0
 248:../Drivers/ISP/isp/Src/isp_services.c ****   ISP_SVC_StatEngineStage next = ISP_STAT_CFG_LAST;
 383              		.loc 1 248 3 is_stmt 1 view .LVU94
 384              	.LVL37:
ARM GAS  /tmp/ccAu1Zkx.s 			page 12


 249:../Drivers/ISP/isp/Src/isp_services.c **** 
 250:../Drivers/ISP/isp/Src/isp_services.c ****   /* Special mode for IQ tuning tool asking for all stats : go the the next step, no skip */
 251:../Drivers/ISP/isp/Src/isp_services.c ****   if ((ISP_SVC_StatEngine.upRequest & ISP_STAT_TYPE_ALL_TMP) ||
 385              		.loc 1 251 3 view .LVU95
 386              		.loc 1 251 26 is_stmt 0 view .LVU96
 387 0002 334A     		ldr	r2, .L53
 388 0004 92F88011 		ldrb	r1, [r2, #384]	@ zero_extendqisi2
 389              		.loc 1 251 6 view .LVU97
 390 0008 11F0040F 		tst	r1, #4
 391 000c 0ED1     		bne	.L31
 252:../Drivers/ISP/isp/Src/isp_services.c ****       (ISP_SVC_StatEngine.downRequest & ISP_STAT_TYPE_ALL_TMP))
 392              		.loc 1 252 26 view .LVU98
 393 000e 92F88121 		ldrb	r2, [r2, #385]	@ zero_extendqisi2
 251:../Drivers/ISP/isp/Src/isp_services.c ****       (ISP_SVC_StatEngine.downRequest & ISP_STAT_TYPE_ALL_TMP))
 394              		.loc 1 251 62 discriminator 1 view .LVU99
 395 0012 12F00400 		ands	r0, r2, #4
 396              	.LVL38:
 251:../Drivers/ISP/isp/Src/isp_services.c ****       (ISP_SVC_StatEngine.downRequest & ISP_STAT_TYPE_ALL_TMP))
 397              		.loc 1 251 62 discriminator 1 view .LVU100
 398 0016 09D1     		bne	.L31
 253:../Drivers/ISP/isp/Src/isp_services.c ****   {
 254:../Drivers/ISP/isp/Src/isp_services.c ****     next = (ISP_SVC_StatEngineStage) ((current < ISP_STAT_CFG_LAST) ? current + 1 : ISP_STAT_CFG_UP
 255:../Drivers/ISP/isp/Src/isp_services.c ****     return next;
 256:../Drivers/ISP/isp/Src/isp_services.c ****   }
 257:../Drivers/ISP/isp/Src/isp_services.c **** 
 258:../Drivers/ISP/isp/Src/isp_services.c ****   /* Follow the below stage cycle, skipping steps where stats are not requested:
 259:../Drivers/ISP/isp/Src/isp_services.c ****    * - ISP_STAT_CFG_UP_AVG
 260:../Drivers/ISP/isp/Src/isp_services.c ****    * - ISP_STAT_CFG_UP_BINS_0_2 + BINS_3_5 + BINS_6_8 + BINS_9_11
 261:../Drivers/ISP/isp/Src/isp_services.c ****    * - ISP_STAT_CFG_DOWN_AVG
 262:../Drivers/ISP/isp/Src/isp_services.c ****    * - ISP_STAT_CFG_DOWN_BINS_0_2 + BINS_3_5 + BINS_6_8 + BINS_9_11
 263:../Drivers/ISP/isp/Src/isp_services.c ****   */
 264:../Drivers/ISP/isp/Src/isp_services.c ****   switch (current)
 399              		.loc 1 264 3 is_stmt 1 view .LVU101
 400 0018 0A2B     		cmp	r3, #10
 401 001a 4DD8     		bhi	.L34
 402 001c DFE803F0 		tbb	[pc, r3]
 403              	.L35:
 404 0020 0B       		.byte	(.L39-.L35)/2
 405 0021 4C       		.byte	(.L34-.L35)/2
 406 0022 4C       		.byte	(.L34-.L35)/2
 407 0023 4C       		.byte	(.L34-.L35)/2
 408 0024 1C       		.byte	(.L38-.L35)/2
 409 0025 2E       		.byte	(.L37-.L35)/2
 410 0026 4C       		.byte	(.L34-.L35)/2
 411 0027 4C       		.byte	(.L34-.L35)/2
 412 0028 4C       		.byte	(.L34-.L35)/2
 413 0029 3E       		.byte	(.L36-.L35)/2
 414 002a 51       		.byte	(.L47-.L35)/2
 415 002b 00       		.p2align 1
 416              	.L31:
 254:../Drivers/ISP/isp/Src/isp_services.c ****     return next;
 417              		.loc 1 254 5 view .LVU102
 254:../Drivers/ISP/isp/Src/isp_services.c ****     return next;
 418              		.loc 1 254 12 is_stmt 0 view .LVU103
 419 002c 082B     		cmp	r3, #8
 420 002e 46D8     		bhi	.L46
 254:../Drivers/ISP/isp/Src/isp_services.c ****     return next;
ARM GAS  /tmp/ccAu1Zkx.s 			page 13


 421              		.loc 1 254 10 discriminator 1 view .LVU104
 422 0030 0133     		adds	r3, r3, #1
 423              	.LVL39:
 254:../Drivers/ISP/isp/Src/isp_services.c ****     return next;
 424              		.loc 1 254 10 discriminator 1 view .LVU105
 425 0032 D8B2     		uxtb	r0, r3
 426              	.LVL40:
 254:../Drivers/ISP/isp/Src/isp_services.c ****     return next;
 427              		.loc 1 254 10 discriminator 1 view .LVU106
 428 0034 7047     		bx	lr
 429              	.LVL41:
 430              	.L39:
 265:../Drivers/ISP/isp/Src/isp_services.c ****   {
 266:../Drivers/ISP/isp/Src/isp_services.c ****   case ISP_STAT_CFG_UP_AVG:
 267:../Drivers/ISP/isp/Src/isp_services.c ****     /* Try Up Bins */
 268:../Drivers/ISP/isp/Src/isp_services.c ****     if (ISP_SVC_StatEngine.upRequest & ISP_STAT_TYPE_BINS)
 431              		.loc 1 268 5 is_stmt 1 view .LVU107
 432              		.loc 1 268 8 is_stmt 0 view .LVU108
 433 0036 11F0020F 		tst	r1, #2
 434 003a 28D1     		bne	.L40
 269:../Drivers/ISP/isp/Src/isp_services.c ****     {
 270:../Drivers/ISP/isp/Src/isp_services.c ****       next = ISP_STAT_CFG_UP_BINS_0_2;
 271:../Drivers/ISP/isp/Src/isp_services.c ****     }
 272:../Drivers/ISP/isp/Src/isp_services.c ****     /* Skip Up Bins : try Down Avg */
 273:../Drivers/ISP/isp/Src/isp_services.c ****     else if (ISP_SVC_StatEngine.downRequest & ISP_STAT_TYPE_AVG)
 435              		.loc 1 273 10 is_stmt 1 view .LVU109
 436              		.loc 1 273 13 is_stmt 0 view .LVU110
 437 003c 12F0010F 		tst	r2, #1
 438 0040 06D1     		bne	.L43
 274:../Drivers/ISP/isp/Src/isp_services.c ****     {
 275:../Drivers/ISP/isp/Src/isp_services.c ****       next = ISP_STAT_CFG_DOWN_AVG;
 276:../Drivers/ISP/isp/Src/isp_services.c ****     }
 277:../Drivers/ISP/isp/Src/isp_services.c ****     /* Skip Down Avg : try Down Bins */
 278:../Drivers/ISP/isp/Src/isp_services.c ****     else if (ISP_SVC_StatEngine.downRequest & ISP_STAT_TYPE_BINS)
 439              		.loc 1 278 10 is_stmt 1 view .LVU111
 440              		.loc 1 278 13 is_stmt 0 view .LVU112
 441 0042 12F00200 		ands	r0, r2, #2
 442 0046 15D1     		bne	.L42
 279:../Drivers/ISP/isp/Src/isp_services.c ****     {
 280:../Drivers/ISP/isp/Src/isp_services.c ****       next = ISP_STAT_CFG_DOWN_BINS_0_2;
 281:../Drivers/ISP/isp/Src/isp_services.c ****     }
 282:../Drivers/ISP/isp/Src/isp_services.c ****     /* Skip Down Bins : try Up Avg */
 283:../Drivers/ISP/isp/Src/isp_services.c ****     else if (ISP_SVC_StatEngine.upRequest & ISP_STAT_TYPE_AVG)
 443              		.loc 1 283 10 is_stmt 1 view .LVU113
 444              		.loc 1 283 13 is_stmt 0 view .LVU114
 445 0048 11F0010F 		tst	r1, #1
 446 004c 02D0     		beq	.L51
 447              	.L33:
 448              	.LVL42:
 284:../Drivers/ISP/isp/Src/isp_services.c ****     {
 285:../Drivers/ISP/isp/Src/isp_services.c ****       next = ISP_STAT_CFG_UP_AVG;
 286:../Drivers/ISP/isp/Src/isp_services.c ****     }
 287:../Drivers/ISP/isp/Src/isp_services.c ****     break;
 288:../Drivers/ISP/isp/Src/isp_services.c **** 
 289:../Drivers/ISP/isp/Src/isp_services.c ****   case ISP_STAT_CFG_UP_BINS_9_11:
 290:../Drivers/ISP/isp/Src/isp_services.c ****     /* Try Down Avg */
 291:../Drivers/ISP/isp/Src/isp_services.c ****     if (ISP_SVC_StatEngine.downRequest & ISP_STAT_TYPE_AVG)
ARM GAS  /tmp/ccAu1Zkx.s 			page 14


 292:../Drivers/ISP/isp/Src/isp_services.c ****     {
 293:../Drivers/ISP/isp/Src/isp_services.c ****       next = ISP_STAT_CFG_DOWN_AVG;
 294:../Drivers/ISP/isp/Src/isp_services.c ****     }
 295:../Drivers/ISP/isp/Src/isp_services.c ****     /* Skip Down Avg : try Down Bins */
 296:../Drivers/ISP/isp/Src/isp_services.c ****     else if (ISP_SVC_StatEngine.downRequest & ISP_STAT_TYPE_BINS)
 297:../Drivers/ISP/isp/Src/isp_services.c ****     {
 298:../Drivers/ISP/isp/Src/isp_services.c ****       next = ISP_STAT_CFG_DOWN_BINS_0_2;
 299:../Drivers/ISP/isp/Src/isp_services.c ****     }
 300:../Drivers/ISP/isp/Src/isp_services.c ****     /* Skip Down Bins : try Up Avg */
 301:../Drivers/ISP/isp/Src/isp_services.c ****     else if (ISP_SVC_StatEngine.upRequest & ISP_STAT_TYPE_AVG)
 302:../Drivers/ISP/isp/Src/isp_services.c ****     {
 303:../Drivers/ISP/isp/Src/isp_services.c ****       next = ISP_STAT_CFG_UP_AVG;
 304:../Drivers/ISP/isp/Src/isp_services.c ****     }
 305:../Drivers/ISP/isp/Src/isp_services.c ****     /* Skip Up Avg : try on Up Bins */
 306:../Drivers/ISP/isp/Src/isp_services.c ****     else if (ISP_SVC_StatEngine.upRequest & ISP_STAT_TYPE_BINS)
 307:../Drivers/ISP/isp/Src/isp_services.c ****     {
 308:../Drivers/ISP/isp/Src/isp_services.c ****       next = ISP_STAT_CFG_UP_BINS_0_2;
 309:../Drivers/ISP/isp/Src/isp_services.c ****     }
 310:../Drivers/ISP/isp/Src/isp_services.c ****     break;
 311:../Drivers/ISP/isp/Src/isp_services.c **** 
 312:../Drivers/ISP/isp/Src/isp_services.c ****   case ISP_STAT_CFG_DOWN_AVG:
 313:../Drivers/ISP/isp/Src/isp_services.c ****     /* Try Down Bins */
 314:../Drivers/ISP/isp/Src/isp_services.c ****     if (ISP_SVC_StatEngine.downRequest & ISP_STAT_TYPE_BINS)
 315:../Drivers/ISP/isp/Src/isp_services.c ****     {
 316:../Drivers/ISP/isp/Src/isp_services.c ****       next = ISP_STAT_CFG_DOWN_BINS_0_2;
 317:../Drivers/ISP/isp/Src/isp_services.c ****     }
 318:../Drivers/ISP/isp/Src/isp_services.c ****     /* Skip Down Bins : try Up Avg */
 319:../Drivers/ISP/isp/Src/isp_services.c ****     else if (ISP_SVC_StatEngine.upRequest & ISP_STAT_TYPE_AVG)
 320:../Drivers/ISP/isp/Src/isp_services.c ****     {
 321:../Drivers/ISP/isp/Src/isp_services.c ****       next = ISP_STAT_CFG_UP_AVG;
 322:../Drivers/ISP/isp/Src/isp_services.c ****     }
 323:../Drivers/ISP/isp/Src/isp_services.c ****     /* Skip Up Avg : try Up Bins */
 324:../Drivers/ISP/isp/Src/isp_services.c ****     else if (ISP_SVC_StatEngine.upRequest & ISP_STAT_TYPE_BINS)
 325:../Drivers/ISP/isp/Src/isp_services.c ****     {
 326:../Drivers/ISP/isp/Src/isp_services.c ****       next = ISP_STAT_CFG_UP_BINS_0_2;
 327:../Drivers/ISP/isp/Src/isp_services.c ****     }
 328:../Drivers/ISP/isp/Src/isp_services.c ****     /* Skip Up Bins : try Down Avg */
 329:../Drivers/ISP/isp/Src/isp_services.c ****     else if (ISP_SVC_StatEngine.downRequest & ISP_STAT_TYPE_AVG)
 330:../Drivers/ISP/isp/Src/isp_services.c ****     {
 331:../Drivers/ISP/isp/Src/isp_services.c ****       next = ISP_STAT_CFG_DOWN_AVG;
 332:../Drivers/ISP/isp/Src/isp_services.c ****     }
 333:../Drivers/ISP/isp/Src/isp_services.c ****     break;
 334:../Drivers/ISP/isp/Src/isp_services.c **** 
 335:../Drivers/ISP/isp/Src/isp_services.c ****   case ISP_STAT_CFG_DOWN_BINS_9_11:
 336:../Drivers/ISP/isp/Src/isp_services.c ****     /* Try Up Avg */
 337:../Drivers/ISP/isp/Src/isp_services.c ****     if (ISP_SVC_StatEngine.upRequest & ISP_STAT_TYPE_AVG)
 338:../Drivers/ISP/isp/Src/isp_services.c ****     {
 339:../Drivers/ISP/isp/Src/isp_services.c ****       next = ISP_STAT_CFG_UP_AVG;
 340:../Drivers/ISP/isp/Src/isp_services.c ****     }
 341:../Drivers/ISP/isp/Src/isp_services.c ****     /* Skip Up Avg : try Up Bins */
 342:../Drivers/ISP/isp/Src/isp_services.c ****     else if (ISP_SVC_StatEngine.upRequest & ISP_STAT_TYPE_BINS)
 343:../Drivers/ISP/isp/Src/isp_services.c ****     {
 344:../Drivers/ISP/isp/Src/isp_services.c ****       next = ISP_STAT_CFG_UP_BINS_0_2;
 345:../Drivers/ISP/isp/Src/isp_services.c ****     }
 346:../Drivers/ISP/isp/Src/isp_services.c ****     /* Skip Up Bins : try Down Avg */
 347:../Drivers/ISP/isp/Src/isp_services.c ****     else if (ISP_SVC_StatEngine.downRequest & ISP_STAT_TYPE_AVG)
 348:../Drivers/ISP/isp/Src/isp_services.c ****     {
ARM GAS  /tmp/ccAu1Zkx.s 			page 15


 349:../Drivers/ISP/isp/Src/isp_services.c ****       next = ISP_STAT_CFG_DOWN_AVG;
 350:../Drivers/ISP/isp/Src/isp_services.c ****     }
 351:../Drivers/ISP/isp/Src/isp_services.c ****     /* Skip Down Avg : try Down Bins */
 352:../Drivers/ISP/isp/Src/isp_services.c ****     else if (ISP_SVC_StatEngine.downRequest & ISP_STAT_TYPE_BINS)
 353:../Drivers/ISP/isp/Src/isp_services.c ****     {
 354:../Drivers/ISP/isp/Src/isp_services.c ****       next = ISP_STAT_CFG_DOWN_BINS_0_2;
 355:../Drivers/ISP/isp/Src/isp_services.c ****     }
 356:../Drivers/ISP/isp/Src/isp_services.c ****     break;
 357:../Drivers/ISP/isp/Src/isp_services.c **** 
 358:../Drivers/ISP/isp/Src/isp_services.c ****   case ISP_STAT_CFG_CYCLE_SIZE:
 359:../Drivers/ISP/isp/Src/isp_services.c ****     /* Shall not happen, just add this case to silence a Wswitch-enum warning */
 360:../Drivers/ISP/isp/Src/isp_services.c ****     break;
 361:../Drivers/ISP/isp/Src/isp_services.c **** 
 362:../Drivers/ISP/isp/Src/isp_services.c ****   case ISP_STAT_CFG_UP_BINS_0_2:
 363:../Drivers/ISP/isp/Src/isp_services.c ****   case ISP_STAT_CFG_UP_BINS_3_5:
 364:../Drivers/ISP/isp/Src/isp_services.c ****   case ISP_STAT_CFG_UP_BINS_6_8:
 365:../Drivers/ISP/isp/Src/isp_services.c ****   case ISP_STAT_CFG_DOWN_BINS_0_2:
 366:../Drivers/ISP/isp/Src/isp_services.c ****   case ISP_STAT_CFG_DOWN_BINS_3_5:
 367:../Drivers/ISP/isp/Src/isp_services.c ****   case ISP_STAT_CFG_DOWN_BINS_6_8:
 368:../Drivers/ISP/isp/Src/isp_services.c ****   default:
 369:../Drivers/ISP/isp/Src/isp_services.c ****     /* In the middle of the bins measurement: continue with the next bins part */
 370:../Drivers/ISP/isp/Src/isp_services.c ****     next = (ISP_SVC_StatEngineStage) (current + 1);
 371:../Drivers/ISP/isp/Src/isp_services.c ****     break;
 372:../Drivers/ISP/isp/Src/isp_services.c ****   }
 373:../Drivers/ISP/isp/Src/isp_services.c **** 
 374:../Drivers/ISP/isp/Src/isp_services.c ****   return next;
 375:../Drivers/ISP/isp/Src/isp_services.c **** }
 449              		.loc 1 375 1 view .LVU115
 450 004e 7047     		bx	lr
 451              	.LVL43:
 452              	.L43:
 275:../Drivers/ISP/isp/Src/isp_services.c ****     }
 453              		.loc 1 275 12 view .LVU116
 454 0050 0520     		movs	r0, #5
 455 0052 7047     		bx	lr
 456              	.L51:
 248:../Drivers/ISP/isp/Src/isp_services.c **** 
 457              		.loc 1 248 27 view .LVU117
 458 0054 0920     		movs	r0, #9
 459 0056 7047     		bx	lr
 460              	.L38:
 291:../Drivers/ISP/isp/Src/isp_services.c ****     {
 461              		.loc 1 291 5 is_stmt 1 view .LVU118
 291:../Drivers/ISP/isp/Src/isp_services.c ****     {
 462              		.loc 1 291 8 is_stmt 0 view .LVU119
 463 0058 12F0010F 		tst	r2, #1
 464 005c F8D1     		bne	.L43
 296:../Drivers/ISP/isp/Src/isp_services.c ****     {
 465              		.loc 1 296 10 is_stmt 1 view .LVU120
 296:../Drivers/ISP/isp/Src/isp_services.c ****     {
 466              		.loc 1 296 13 is_stmt 0 view .LVU121
 467 005e 12F00200 		ands	r0, r2, #2
 468 0062 07D1     		bne	.L42
 301:../Drivers/ISP/isp/Src/isp_services.c ****     {
 469              		.loc 1 301 10 is_stmt 1 view .LVU122
 301:../Drivers/ISP/isp/Src/isp_services.c ****     {
 470              		.loc 1 301 13 is_stmt 0 view .LVU123
ARM GAS  /tmp/ccAu1Zkx.s 			page 16


 471 0064 11F0010F 		tst	r1, #1
 472 0068 F1D1     		bne	.L33
 306:../Drivers/ISP/isp/Src/isp_services.c ****     {
 473              		.loc 1 306 10 is_stmt 1 view .LVU124
 306:../Drivers/ISP/isp/Src/isp_services.c ****     {
 474              		.loc 1 306 13 is_stmt 0 view .LVU125
 475 006a 11F0020F 		tst	r1, #2
 476 006e 03D0     		beq	.L52
 308:../Drivers/ISP/isp/Src/isp_services.c ****     }
 477              		.loc 1 308 12 view .LVU126
 478 0070 0120     		movs	r0, #1
 479 0072 7047     		bx	lr
 480              	.L42:
 298:../Drivers/ISP/isp/Src/isp_services.c ****     }
 481              		.loc 1 298 12 view .LVU127
 482 0074 0620     		movs	r0, #6
 483 0076 7047     		bx	lr
 484              	.L52:
 248:../Drivers/ISP/isp/Src/isp_services.c **** 
 485              		.loc 1 248 27 view .LVU128
 486 0078 0920     		movs	r0, #9
 487 007a 7047     		bx	lr
 488              	.L37:
 314:../Drivers/ISP/isp/Src/isp_services.c ****     {
 489              		.loc 1 314 5 is_stmt 1 view .LVU129
 314:../Drivers/ISP/isp/Src/isp_services.c ****     {
 490              		.loc 1 314 8 is_stmt 0 view .LVU130
 491 007c 12F00200 		ands	r0, r2, #2
 492 0080 F8D1     		bne	.L42
 319:../Drivers/ISP/isp/Src/isp_services.c ****     {
 493              		.loc 1 319 10 is_stmt 1 view .LVU131
 319:../Drivers/ISP/isp/Src/isp_services.c ****     {
 494              		.loc 1 319 13 is_stmt 0 view .LVU132
 495 0082 11F0010F 		tst	r1, #1
 496 0086 E2D1     		bne	.L33
 324:../Drivers/ISP/isp/Src/isp_services.c ****     {
 497              		.loc 1 324 10 is_stmt 1 view .LVU133
 324:../Drivers/ISP/isp/Src/isp_services.c ****     {
 498              		.loc 1 324 13 is_stmt 0 view .LVU134
 499 0088 11F0020F 		tst	r1, #2
 500 008c 01D0     		beq	.L45
 501              	.L40:
 326:../Drivers/ISP/isp/Src/isp_services.c ****     }
 502              		.loc 1 326 12 view .LVU135
 503 008e 0120     		movs	r0, #1
 504 0090 7047     		bx	lr
 505              	.L45:
 329:../Drivers/ISP/isp/Src/isp_services.c ****     {
 506              		.loc 1 329 10 is_stmt 1 view .LVU136
 329:../Drivers/ISP/isp/Src/isp_services.c ****     {
 507              		.loc 1 329 13 is_stmt 0 view .LVU137
 508 0092 12F0010F 		tst	r2, #1
 509 0096 16D1     		bne	.L49
 248:../Drivers/ISP/isp/Src/isp_services.c **** 
 510              		.loc 1 248 27 view .LVU138
 511 0098 0920     		movs	r0, #9
 512 009a 7047     		bx	lr
ARM GAS  /tmp/ccAu1Zkx.s 			page 17


 513              	.L36:
 337:../Drivers/ISP/isp/Src/isp_services.c ****     {
 514              		.loc 1 337 5 is_stmt 1 view .LVU139
 337:../Drivers/ISP/isp/Src/isp_services.c ****     {
 515              		.loc 1 337 8 is_stmt 0 view .LVU140
 516 009c 11F0010F 		tst	r1, #1
 517 00a0 D5D1     		bne	.L33
 342:../Drivers/ISP/isp/Src/isp_services.c ****     {
 518              		.loc 1 342 10 is_stmt 1 view .LVU141
 342:../Drivers/ISP/isp/Src/isp_services.c ****     {
 519              		.loc 1 342 13 is_stmt 0 view .LVU142
 520 00a2 11F0020F 		tst	r1, #2
 521 00a6 F2D1     		bne	.L40
 347:../Drivers/ISP/isp/Src/isp_services.c ****     {
 522              		.loc 1 347 10 is_stmt 1 view .LVU143
 347:../Drivers/ISP/isp/Src/isp_services.c ****     {
 523              		.loc 1 347 13 is_stmt 0 view .LVU144
 524 00a8 12F0010F 		tst	r2, #1
 525 00ac D0D1     		bne	.L43
 352:../Drivers/ISP/isp/Src/isp_services.c ****     {
 526              		.loc 1 352 10 is_stmt 1 view .LVU145
 352:../Drivers/ISP/isp/Src/isp_services.c ****     {
 527              		.loc 1 352 13 is_stmt 0 view .LVU146
 528 00ae 12F0020F 		tst	r2, #2
 529 00b2 0AD1     		bne	.L50
 248:../Drivers/ISP/isp/Src/isp_services.c **** 
 530              		.loc 1 248 27 view .LVU147
 531 00b4 1846     		mov	r0, r3
 532 00b6 7047     		bx	lr
 533              	.L34:
 370:../Drivers/ISP/isp/Src/isp_services.c ****     break;
 534              		.loc 1 370 5 is_stmt 1 view .LVU148
 370:../Drivers/ISP/isp/Src/isp_services.c ****     break;
 535              		.loc 1 370 10 is_stmt 0 view .LVU149
 536 00b8 0133     		adds	r3, r3, #1
 537              	.LVL44:
 370:../Drivers/ISP/isp/Src/isp_services.c ****     break;
 538              		.loc 1 370 10 view .LVU150
 539 00ba D8B2     		uxtb	r0, r3
 540              	.LVL45:
 371:../Drivers/ISP/isp/Src/isp_services.c ****   }
 541              		.loc 1 371 5 is_stmt 1 view .LVU151
 542 00bc 7047     		bx	lr
 543              	.LVL46:
 544              	.L46:
 254:../Drivers/ISP/isp/Src/isp_services.c ****     return next;
 545              		.loc 1 254 10 is_stmt 0 discriminator 2 view .LVU152
 546 00be 0020     		movs	r0, #0
 547 00c0 7047     		bx	lr
 548              	.L47:
 264:../Drivers/ISP/isp/Src/isp_services.c ****   {
 549              		.loc 1 264 3 view .LVU153
 550 00c2 0920     		movs	r0, #9
 551 00c4 7047     		bx	lr
 552              	.L49:
 331:../Drivers/ISP/isp/Src/isp_services.c ****     }
 553              		.loc 1 331 12 view .LVU154
ARM GAS  /tmp/ccAu1Zkx.s 			page 18


 554 00c6 1846     		mov	r0, r3
 555 00c8 7047     		bx	lr
 556              	.L50:
 354:../Drivers/ISP/isp/Src/isp_services.c ****     }
 557              		.loc 1 354 12 view .LVU155
 558 00ca 0620     		movs	r0, #6
 559 00cc BFE7     		b	.L33
 560              	.L54:
 561 00ce 00BF     		.align	2
 562              	.L53:
 563 00d0 00000000 		.word	ISP_SVC_StatEngine
 564              		.cfi_endproc
 565              	.LFE891:
 567              		.section	.text.GetStatCycleStart,"ax",%progbits
 568              		.align	1
 569              		.syntax unified
 570              		.thumb
 571              		.thumb_func
 573              	GetStatCycleStart:
 574              	.LVL47:
 575              	.LFB892:
 376:../Drivers/ISP/isp/Src/isp_services.c **** 
 377:../Drivers/ISP/isp/Src/isp_services.c **** static ISP_SVC_StatEngineStage GetStatCycleStart(ISP_SVC_StatLocation location)
 378:../Drivers/ISP/isp/Src/isp_services.c **** {
 576              		.loc 1 378 1 is_stmt 1 view -0
 577              		.cfi_startproc
 578              		@ args = 0, pretend = 0, frame = 0
 579              		@ frame_needed = 0, uses_anonymous_args = 0
 580              		@ link register save eliminated.
 581              		.loc 1 378 1 is_stmt 0 view .LVU157
 582 0000 0346     		mov	r3, r0
 379:../Drivers/ISP/isp/Src/isp_services.c ****   ISP_SVC_StatEngineStage stage;
 583              		.loc 1 379 3 is_stmt 1 view .LVU158
 380:../Drivers/ISP/isp/Src/isp_services.c **** 
 381:../Drivers/ISP/isp/Src/isp_services.c ****   if (location == ISP_STAT_LOC_UP)
 584              		.loc 1 381 3 view .LVU159
 585              		.loc 1 381 6 is_stmt 0 view .LVU160
 586 0002 0128     		cmp	r0, #1
 587 0004 0AD0     		beq	.L62
 382:../Drivers/ISP/isp/Src/isp_services.c ****   {
 383:../Drivers/ISP/isp/Src/isp_services.c ****     if ((ISP_SVC_StatEngine.upRequest & ISP_STAT_TYPE_AVG) ||
 384:../Drivers/ISP/isp/Src/isp_services.c ****         (ISP_SVC_StatEngine.upRequest & ISP_STAT_TYPE_ALL_TMP))
 385:../Drivers/ISP/isp/Src/isp_services.c ****     {
 386:../Drivers/ISP/isp/Src/isp_services.c ****       /* Stat up cycle starts with AVG measurement */
 387:../Drivers/ISP/isp/Src/isp_services.c ****       stage = ISP_STAT_CFG_UP_AVG;
 388:../Drivers/ISP/isp/Src/isp_services.c ****     }
 389:../Drivers/ISP/isp/Src/isp_services.c ****     else
 390:../Drivers/ISP/isp/Src/isp_services.c ****     {
 391:../Drivers/ISP/isp/Src/isp_services.c ****       /* Stat up cycle starts with 1st BIN measurement */
 392:../Drivers/ISP/isp/Src/isp_services.c ****       stage = ISP_STAT_CFG_UP_BINS_0_2;
 393:../Drivers/ISP/isp/Src/isp_services.c ****     }
 394:../Drivers/ISP/isp/Src/isp_services.c ****   }
 395:../Drivers/ISP/isp/Src/isp_services.c ****   else
 396:../Drivers/ISP/isp/Src/isp_services.c ****   {
 397:../Drivers/ISP/isp/Src/isp_services.c ****     if ((ISP_SVC_StatEngine.downRequest & ISP_STAT_TYPE_AVG) ||
 588              		.loc 1 397 5 is_stmt 1 view .LVU161
 589              		.loc 1 397 28 is_stmt 0 view .LVU162
ARM GAS  /tmp/ccAu1Zkx.s 			page 19


 590 0006 0E4B     		ldr	r3, .L63
 591 0008 93F88131 		ldrb	r3, [r3, #385]	@ zero_extendqisi2
 592              		.loc 1 397 8 view .LVU163
 593 000c 13F0010F 		tst	r3, #1
 594 0010 12D1     		bne	.L60
 595              		.loc 1 397 62 discriminator 1 view .LVU164
 596 0012 13F0040F 		tst	r3, #4
 597 0016 11D0     		beq	.L61
 398:../Drivers/ISP/isp/Src/isp_services.c ****         (ISP_SVC_StatEngine.downRequest & ISP_STAT_TYPE_ALL_TMP))
 399:../Drivers/ISP/isp/Src/isp_services.c ****     {
 400:../Drivers/ISP/isp/Src/isp_services.c ****       /* Stat down cycle starts with AVG measurement */
 401:../Drivers/ISP/isp/Src/isp_services.c ****       stage = ISP_STAT_CFG_DOWN_AVG;
 598              		.loc 1 401 13 view .LVU165
 599 0018 0520     		movs	r0, #5
 600              	.LVL48:
 601              		.loc 1 401 13 view .LVU166
 602 001a 7047     		bx	lr
 603              	.LVL49:
 604              	.L62:
 383:../Drivers/ISP/isp/Src/isp_services.c ****         (ISP_SVC_StatEngine.upRequest & ISP_STAT_TYPE_ALL_TMP))
 605              		.loc 1 383 5 is_stmt 1 view .LVU167
 383:../Drivers/ISP/isp/Src/isp_services.c ****         (ISP_SVC_StatEngine.upRequest & ISP_STAT_TYPE_ALL_TMP))
 606              		.loc 1 383 28 is_stmt 0 view .LVU168
 607 001c 084A     		ldr	r2, .L63
 608 001e 92F88021 		ldrb	r2, [r2, #384]	@ zero_extendqisi2
 383:../Drivers/ISP/isp/Src/isp_services.c ****         (ISP_SVC_StatEngine.upRequest & ISP_STAT_TYPE_ALL_TMP))
 609              		.loc 1 383 8 view .LVU169
 610 0022 12F00100 		ands	r0, r2, #1
 611              	.LVL50:
 383:../Drivers/ISP/isp/Src/isp_services.c ****         (ISP_SVC_StatEngine.upRequest & ISP_STAT_TYPE_ALL_TMP))
 612              		.loc 1 383 8 view .LVU170
 613 0026 03D1     		bne	.L58
 383:../Drivers/ISP/isp/Src/isp_services.c ****         (ISP_SVC_StatEngine.upRequest & ISP_STAT_TYPE_ALL_TMP))
 614              		.loc 1 383 60 discriminator 1 view .LVU171
 615 0028 12F0040F 		tst	r2, #4
 616 002c 02D0     		beq	.L59
 617 002e 7047     		bx	lr
 618              	.L58:
 387:../Drivers/ISP/isp/Src/isp_services.c ****     }
 619              		.loc 1 387 13 view .LVU172
 620 0030 0020     		movs	r0, #0
 621 0032 7047     		bx	lr
 622              	.L59:
 392:../Drivers/ISP/isp/Src/isp_services.c ****     }
 623              		.loc 1 392 13 view .LVU173
 624 0034 1846     		mov	r0, r3
 625 0036 7047     		bx	lr
 626              	.LVL51:
 627              	.L60:
 628              		.loc 1 401 13 view .LVU174
 629 0038 0520     		movs	r0, #5
 630              	.LVL52:
 631              		.loc 1 401 13 view .LVU175
 632 003a 7047     		bx	lr
 633              	.LVL53:
 634              	.L61:
 402:../Drivers/ISP/isp/Src/isp_services.c ****     }
ARM GAS  /tmp/ccAu1Zkx.s 			page 20


 403:../Drivers/ISP/isp/Src/isp_services.c ****     else
 404:../Drivers/ISP/isp/Src/isp_services.c ****     {
 405:../Drivers/ISP/isp/Src/isp_services.c ****       /* Stat down cycle starts with 1st BIN measurement */
 406:../Drivers/ISP/isp/Src/isp_services.c ****       stage = ISP_STAT_CFG_DOWN_BINS_0_2;
 635              		.loc 1 406 13 view .LVU176
 636 003c 0620     		movs	r0, #6
 637              	.LVL54:
 407:../Drivers/ISP/isp/Src/isp_services.c ****     }
 408:../Drivers/ISP/isp/Src/isp_services.c ****   }
 409:../Drivers/ISP/isp/Src/isp_services.c ****   return stage;
 638              		.loc 1 409 3 is_stmt 1 view .LVU177
 410:../Drivers/ISP/isp/Src/isp_services.c **** }
 639              		.loc 1 410 1 is_stmt 0 view .LVU178
 640 003e 7047     		bx	lr
 641              	.L64:
 642              		.align	2
 643              	.L63:
 644 0040 00000000 		.word	ISP_SVC_StatEngine
 645              		.cfi_endproc
 646              	.LFE892:
 648              		.section	.text.GetStatCycleEnd,"ax",%progbits
 649              		.align	1
 650              		.syntax unified
 651              		.thumb
 652              		.thumb_func
 654              	GetStatCycleEnd:
 655              	.LVL55:
 656              	.LFB893:
 411:../Drivers/ISP/isp/Src/isp_services.c **** 
 412:../Drivers/ISP/isp/Src/isp_services.c **** static ISP_SVC_StatEngineStage GetStatCycleEnd(ISP_SVC_StatLocation location)
 413:../Drivers/ISP/isp/Src/isp_services.c **** {
 657              		.loc 1 413 1 is_stmt 1 view -0
 658              		.cfi_startproc
 659              		@ args = 0, pretend = 0, frame = 0
 660              		@ frame_needed = 0, uses_anonymous_args = 0
 661              		@ link register save eliminated.
 414:../Drivers/ISP/isp/Src/isp_services.c ****   ISP_SVC_StatEngineStage stage;
 662              		.loc 1 414 3 view .LVU180
 415:../Drivers/ISP/isp/Src/isp_services.c **** 
 416:../Drivers/ISP/isp/Src/isp_services.c ****   if (location == ISP_STAT_LOC_UP)
 663              		.loc 1 416 3 view .LVU181
 664              		.loc 1 416 6 is_stmt 0 view .LVU182
 665 0000 0128     		cmp	r0, #1
 666 0002 0AD0     		beq	.L71
 417:../Drivers/ISP/isp/Src/isp_services.c ****   {
 418:../Drivers/ISP/isp/Src/isp_services.c ****     if ((ISP_SVC_StatEngine.upRequest & ISP_STAT_TYPE_BINS) ||
 419:../Drivers/ISP/isp/Src/isp_services.c ****         (ISP_SVC_StatEngine.upRequest & ISP_STAT_TYPE_ALL_TMP))
 420:../Drivers/ISP/isp/Src/isp_services.c ****     {
 421:../Drivers/ISP/isp/Src/isp_services.c ****       /* Stat up cycle ends with last BINS measurement */
 422:../Drivers/ISP/isp/Src/isp_services.c ****       stage = ISP_STAT_CFG_UP_BINS_9_11;
 423:../Drivers/ISP/isp/Src/isp_services.c ****     }
 424:../Drivers/ISP/isp/Src/isp_services.c ****     else
 425:../Drivers/ISP/isp/Src/isp_services.c ****     {
 426:../Drivers/ISP/isp/Src/isp_services.c ****       /* Stat up cycle ends with AVG measurement */
 427:../Drivers/ISP/isp/Src/isp_services.c ****       stage = ISP_STAT_CFG_UP_AVG;
 428:../Drivers/ISP/isp/Src/isp_services.c ****     }
 429:../Drivers/ISP/isp/Src/isp_services.c ****   }
ARM GAS  /tmp/ccAu1Zkx.s 			page 21


 430:../Drivers/ISP/isp/Src/isp_services.c ****   else
 431:../Drivers/ISP/isp/Src/isp_services.c ****   {
 432:../Drivers/ISP/isp/Src/isp_services.c ****     if ((ISP_SVC_StatEngine.downRequest & ISP_STAT_TYPE_BINS) ||
 667              		.loc 1 432 5 is_stmt 1 view .LVU183
 668              		.loc 1 432 28 is_stmt 0 view .LVU184
 669 0004 0D4B     		ldr	r3, .L72
 670 0006 93F88131 		ldrb	r3, [r3, #385]	@ zero_extendqisi2
 671              		.loc 1 432 8 view .LVU185
 672 000a 13F0020F 		tst	r3, #2
 673 000e 11D1     		bne	.L69
 674              		.loc 1 432 63 discriminator 1 view .LVU186
 675 0010 13F0040F 		tst	r3, #4
 676 0014 10D0     		beq	.L70
 433:../Drivers/ISP/isp/Src/isp_services.c ****         (ISP_SVC_StatEngine.downRequest & ISP_STAT_TYPE_ALL_TMP))
 434:../Drivers/ISP/isp/Src/isp_services.c ****     {
 435:../Drivers/ISP/isp/Src/isp_services.c ****       /* Stat down cycle ends with last BINS measurement */
 436:../Drivers/ISP/isp/Src/isp_services.c ****       stage = ISP_STAT_CFG_DOWN_BINS_9_11;
 677              		.loc 1 436 13 view .LVU187
 678 0016 0920     		movs	r0, #9
 679              	.LVL56:
 680              		.loc 1 436 13 view .LVU188
 681 0018 7047     		bx	lr
 682              	.LVL57:
 683              	.L71:
 418:../Drivers/ISP/isp/Src/isp_services.c ****         (ISP_SVC_StatEngine.upRequest & ISP_STAT_TYPE_ALL_TMP))
 684              		.loc 1 418 5 is_stmt 1 view .LVU189
 418:../Drivers/ISP/isp/Src/isp_services.c ****         (ISP_SVC_StatEngine.upRequest & ISP_STAT_TYPE_ALL_TMP))
 685              		.loc 1 418 28 is_stmt 0 view .LVU190
 686 001a 084B     		ldr	r3, .L72
 687 001c 93F88001 		ldrb	r0, [r3, #384]	@ zero_extendqisi2
 688              	.LVL58:
 418:../Drivers/ISP/isp/Src/isp_services.c ****         (ISP_SVC_StatEngine.upRequest & ISP_STAT_TYPE_ALL_TMP))
 689              		.loc 1 418 8 view .LVU191
 690 0020 10F0020F 		tst	r0, #2
 691 0024 04D1     		bne	.L68
 418:../Drivers/ISP/isp/Src/isp_services.c ****         (ISP_SVC_StatEngine.upRequest & ISP_STAT_TYPE_ALL_TMP))
 692              		.loc 1 418 61 discriminator 1 view .LVU192
 693 0026 10F00400 		ands	r0, r0, #4
 694 002a 06D0     		beq	.L67
 422:../Drivers/ISP/isp/Src/isp_services.c ****     }
 695              		.loc 1 422 13 view .LVU193
 696 002c 0420     		movs	r0, #4
 697 002e 7047     		bx	lr
 698              	.L68:
 699 0030 0420     		movs	r0, #4
 700 0032 7047     		bx	lr
 701              	.LVL59:
 702              	.L69:
 703              		.loc 1 436 13 view .LVU194
 704 0034 0920     		movs	r0, #9
 705              	.LVL60:
 706              		.loc 1 436 13 view .LVU195
 707 0036 7047     		bx	lr
 708              	.LVL61:
 709              	.L70:
 437:../Drivers/ISP/isp/Src/isp_services.c ****     }
 438:../Drivers/ISP/isp/Src/isp_services.c ****     else
ARM GAS  /tmp/ccAu1Zkx.s 			page 22


 439:../Drivers/ISP/isp/Src/isp_services.c ****     {
 440:../Drivers/ISP/isp/Src/isp_services.c ****       /* Stat down cycle ends with AVG measurement */
 441:../Drivers/ISP/isp/Src/isp_services.c ****       stage = ISP_STAT_CFG_DOWN_AVG;
 710              		.loc 1 441 13 view .LVU196
 711 0038 0520     		movs	r0, #5
 712              	.LVL62:
 713              	.L67:
 442:../Drivers/ISP/isp/Src/isp_services.c ****     }
 443:../Drivers/ISP/isp/Src/isp_services.c ****   }
 444:../Drivers/ISP/isp/Src/isp_services.c ****   return stage;
 714              		.loc 1 444 3 is_stmt 1 view .LVU197
 445:../Drivers/ISP/isp/Src/isp_services.c **** }
 715              		.loc 1 445 1 is_stmt 0 view .LVU198
 716 003a 7047     		bx	lr
 717              	.L73:
 718              		.align	2
 719              	.L72:
 720 003c 00000000 		.word	ISP_SVC_StatEngine
 721              		.cfi_endproc
 722              	.LFE893:
 724              		.section	.text.ReadStatHistogram,"ax",%progbits
 725              		.align	1
 726              		.syntax unified
 727              		.thumb
 728              		.thumb_func
 730              	ReadStatHistogram:
 731              	.LVL63:
 732              	.LFB889:
 231:../Drivers/ISP/isp/Src/isp_services.c ****   for (uint8_t i = DCMIPP_STATEXT_MODULE1; i <= DCMIPP_STATEXT_MODULE3; i++)
 733              		.loc 1 231 1 is_stmt 1 view -0
 734              		.cfi_startproc
 735              		@ args = 0, pretend = 0, frame = 0
 736              		@ frame_needed = 0, uses_anonymous_args = 0
 231:../Drivers/ISP/isp/Src/isp_services.c ****   for (uint8_t i = DCMIPP_STATEXT_MODULE1; i <= DCMIPP_STATEXT_MODULE3; i++)
 737              		.loc 1 231 1 is_stmt 0 view .LVU200
 738 0000 70B5     		push	{r4, r5, r6, lr}
 739              	.LCFI3:
 740              		.cfi_def_cfa_offset 16
 741              		.cfi_offset 4, -16
 742              		.cfi_offset 5, -12
 743              		.cfi_offset 6, -8
 744              		.cfi_offset 14, -4
 745 0002 0646     		mov	r6, r0
 746 0004 0D46     		mov	r5, r1
 232:../Drivers/ISP/isp/Src/isp_services.c ****   {
 747              		.loc 1 232 3 is_stmt 1 view .LVU201
 748              	.LBB3:
 232:../Drivers/ISP/isp/Src/isp_services.c ****   {
 749              		.loc 1 232 8 view .LVU202
 750              	.LVL64:
 232:../Drivers/ISP/isp/Src/isp_services.c ****   {
 751              		.loc 1 232 16 is_stmt 0 view .LVU203
 752 0006 0124     		movs	r4, #1
 232:../Drivers/ISP/isp/Src/isp_services.c ****   {
 753              		.loc 1 232 3 view .LVU204
 754 0008 0BE0     		b	.L75
 755              	.LVL65:
ARM GAS  /tmp/ccAu1Zkx.s 			page 23


 756              	.L76:
 234:../Drivers/ISP/isp/Src/isp_services.c ****   }
 757              		.loc 1 234 5 is_stmt 1 view .LVU205
 234:../Drivers/ISP/isp/Src/isp_services.c ****   }
 758              		.loc 1 234 102 is_stmt 0 view .LVU206
 759 000a 04F18043 		add	r3, r4, #1073741824
 760 000e 013B     		subs	r3, r3, #1
 234:../Drivers/ISP/isp/Src/isp_services.c ****   }
 761              		.loc 1 234 5 view .LVU207
 762 0010 05EB8303 		add	r3, r5, r3, lsl #2
 763 0014 2246     		mov	r2, r4
 764 0016 0121     		movs	r1, #1
 765 0018 3068     		ldr	r0, [r6]
 766 001a FFF7FEFF 		bl	HAL_DCMIPP_PIPE_GetISPAccumulatedStatisticsCounter
 767              	.LVL66:
 232:../Drivers/ISP/isp/Src/isp_services.c ****   {
 768              		.loc 1 232 74 is_stmt 1 discriminator 1 view .LVU208
 769 001e 0134     		adds	r4, r4, #1
 770              	.LVL67:
 232:../Drivers/ISP/isp/Src/isp_services.c ****   {
 771              		.loc 1 232 74 is_stmt 0 discriminator 1 view .LVU209
 772 0020 E4B2     		uxtb	r4, r4
 773              	.LVL68:
 774              	.L75:
 232:../Drivers/ISP/isp/Src/isp_services.c ****   {
 775              		.loc 1 232 46 is_stmt 1 discriminator 2 view .LVU210
 776 0022 032C     		cmp	r4, #3
 777 0024 F1D9     		bls	.L76
 778              	.LBE3:
 236:../Drivers/ISP/isp/Src/isp_services.c **** 
 779              		.loc 1 236 1 is_stmt 0 view .LVU211
 780 0026 70BD     		pop	{r4, r5, r6, pc}
 236:../Drivers/ISP/isp/Src/isp_services.c **** 
 781              		.loc 1 236 1 view .LVU212
 782              		.cfi_endproc
 783              	.LFE889:
 785              		.section	.text.LuminanceFromRGB,"ax",%progbits
 786              		.align	1
 787              		.global	LuminanceFromRGB
 788              		.syntax unified
 789              		.thumb
 790              		.thumb_func
 792              	LuminanceFromRGB:
 793              	.LVL69:
 794              	.LFB894:
 446:../Drivers/ISP/isp/Src/isp_services.c **** 
 447:../Drivers/ISP/isp/Src/isp_services.c **** uint8_t LuminanceFromRGB(uint8_t r, uint8_t g, uint8_t b)
 448:../Drivers/ISP/isp/Src/isp_services.c **** {
 795              		.loc 1 448 1 is_stmt 1 view -0
 796              		.cfi_startproc
 797              		@ args = 0, pretend = 0, frame = 8
 798              		@ frame_needed = 0, uses_anonymous_args = 0
 799              		@ link register save eliminated.
 800              		.loc 1 448 1 is_stmt 0 view .LVU214
 801 0000 82B0     		sub	sp, sp, #8
 802              	.LCFI4:
 803              		.cfi_def_cfa_offset 8
ARM GAS  /tmp/ccAu1Zkx.s 			page 24


 804 0002 05EE100A 		vmov	s10, r0	@ int
 805 0006 07EE101A 		vmov	s14, r1	@ int
 806 000a 06EE102A 		vmov	s12, r2	@ int
 449:../Drivers/ISP/isp/Src/isp_services.c ****   /* Compute luminance from RGB components (BT.601) */
 450:../Drivers/ISP/isp/Src/isp_services.c ****   return (uint8_t) (r * 0.299 + g * 0.587 + b * 0.114);
 807              		.loc 1 450 3 is_stmt 1 view .LVU215
 808              		.loc 1 450 23 is_stmt 0 view .LVU216
 809 000e B8EEC55B 		vcvt.f64.s32	d5, s10
 810              		.loc 1 450 35 view .LVU217
 811 0012 B8EEC77B 		vcvt.f64.s32	d7, s14
 812 0016 9FED0C4B 		vldr.64	d4, .L80
 813 001a 27EE047B 		vmul.f64	d7, d7, d4
 814              		.loc 1 450 31 view .LVU218
 815 001e 9FED0C4B 		vldr.64	d4, .L80+8
 816 0022 05EE047B 		vmla.f64	d7, d5, d4
 817              		.loc 1 450 47 view .LVU219
 818 0026 B8EEC66B 		vcvt.f64.s32	d6, s12
 819              		.loc 1 450 43 view .LVU220
 820 002a 9FED0B5B 		vldr.64	d5, .L80+16
 821 002e 06EE057B 		vmla.f64	d7, d6, d5
 822              		.loc 1 450 10 view .LVU221
 823 0032 FCEEC77B 		vcvt.u32.f64	s15, d7
 824 0036 CDED017A 		vstr.32	s15, [sp, #4]	@ int
 451:../Drivers/ISP/isp/Src/isp_services.c **** }
 825              		.loc 1 451 1 view .LVU222
 826 003a 9DF80400 		ldrb	r0, [sp, #4]	@ zero_extendqisi2
 827              	.LVL70:
 828              		.loc 1 451 1 view .LVU223
 829 003e 02B0     		add	sp, sp, #8
 830              	.LCFI5:
 831              		.cfi_def_cfa_offset 0
 832              		@ sp needed
 833 0040 7047     		bx	lr
 834              	.L81:
 835 0042 00BFAFF3 		.align	3
 835      0080
 836              	.L80:
 837 0048 62105839 		.word	962072674
 838 004c B4C8E23F 		.word	1071827124
 839 0050 894160E5 		.word	-446676599
 840 0054 D022D33F 		.word	1070801616
 841 0058 C976BE9F 		.word	-1614907703
 842 005c 1A2FBD3F 		.word	1069362970
 843              		.cfi_endproc
 844              	.LFE894:
 846              		.section	.text.LuminanceFromRGBMono,"ax",%progbits
 847              		.align	1
 848              		.global	LuminanceFromRGBMono
 849              		.syntax unified
 850              		.thumb
 851              		.thumb_func
 853              	LuminanceFromRGBMono:
 854              	.LVL71:
 855              	.LFB895:
 452:../Drivers/ISP/isp/Src/isp_services.c **** 
 453:../Drivers/ISP/isp/Src/isp_services.c **** uint8_t LuminanceFromRGBMono(uint8_t r, uint8_t g, uint8_t b)
 454:../Drivers/ISP/isp/Src/isp_services.c **** {
ARM GAS  /tmp/ccAu1Zkx.s 			page 25


 856              		.loc 1 454 1 is_stmt 1 view -0
 857              		.cfi_startproc
 858              		@ args = 0, pretend = 0, frame = 0
 859              		@ frame_needed = 0, uses_anonymous_args = 0
 860              		@ link register save eliminated.
 455:../Drivers/ISP/isp/Src/isp_services.c ****   /* Compute luminance from RGB components
 456:../Drivers/ISP/isp/Src/isp_services.c ****    * by adding together R, G, B components for monochrome sensor */
 457:../Drivers/ISP/isp/Src/isp_services.c ****   uint32_t lum = (uint32_t)r + g + b;
 861              		.loc 1 457 3 view .LVU225
 862              		.loc 1 457 30 is_stmt 0 view .LVU226
 863 0000 0844     		add	r0, r0, r1
 864              	.LVL72:
 865              		.loc 1 457 12 view .LVU227
 866 0002 1044     		add	r0, r0, r2
 867              	.LVL73:
 458:../Drivers/ISP/isp/Src/isp_services.c ****   return (uint8_t)((lum > 255)? 255 : lum);
 868              		.loc 1 458 3 is_stmt 1 view .LVU228
 869              		.loc 1 458 10 is_stmt 0 view .LVU229
 870 0004 FF28     		cmp	r0, #255
 871 0006 01D8     		bhi	.L84
 872              		.loc 1 458 10 discriminator 1 view .LVU230
 873 0008 C0B2     		uxtb	r0, r0
 874              	.LVL74:
 875              		.loc 1 458 10 discriminator 1 view .LVU231
 876 000a 7047     		bx	lr
 877              	.LVL75:
 878              	.L84:
 879              		.loc 1 458 10 discriminator 2 view .LVU232
 880 000c FF20     		movs	r0, #255
 881              	.LVL76:
 459:../Drivers/ISP/isp/Src/isp_services.c **** }
 882              		.loc 1 459 1 view .LVU233
 883 000e 7047     		bx	lr
 884              		.cfi_endproc
 885              	.LFE895:
 887              		.section	.text.ISP_SVC_ISP_SetDemosaicing,"ax",%progbits
 888              		.align	1
 889              		.global	ISP_SVC_ISP_SetDemosaicing
 890              		.syntax unified
 891              		.thumb
 892              		.thumb_func
 894              	ISP_SVC_ISP_SetDemosaicing:
 895              	.LVL77:
 896              	.LFB896:
 460:../Drivers/ISP/isp/Src/isp_services.c **** 
 461:../Drivers/ISP/isp/Src/isp_services.c **** /* Exported functions --------------------------------------------------------*/
 462:../Drivers/ISP/isp/Src/isp_services.c **** /**
 463:../Drivers/ISP/isp/Src/isp_services.c ****   * @brief  ISP_SVC_ISP_SetDemosaicing
 464:../Drivers/ISP/isp/Src/isp_services.c ****   *         Set the ISP demosaicing configuration
 465:../Drivers/ISP/isp/Src/isp_services.c ****   * @param  hIsp: ISP device handle
 466:../Drivers/ISP/isp/Src/isp_services.c ****   * @param  pConfig: Pointer to the demosaicing configuration
 467:../Drivers/ISP/isp/Src/isp_services.c ****   * @retval operation result
 468:../Drivers/ISP/isp/Src/isp_services.c ****   */
 469:../Drivers/ISP/isp/Src/isp_services.c **** ISP_StatusTypeDef ISP_SVC_ISP_SetDemosaicing(ISP_HandleTypeDef *hIsp, ISP_DemosaicingTypeDef *pConf
 470:../Drivers/ISP/isp/Src/isp_services.c **** {
 897              		.loc 1 470 1 is_stmt 1 view -0
 898              		.cfi_startproc
ARM GAS  /tmp/ccAu1Zkx.s 			page 26


 899              		@ args = 0, pretend = 0, frame = 24
 900              		@ frame_needed = 0, uses_anonymous_args = 0
 471:../Drivers/ISP/isp/Src/isp_services.c ****   HAL_StatusTypeDef halStatus;
 901              		.loc 1 471 3 view .LVU235
 472:../Drivers/ISP/isp/Src/isp_services.c ****   DCMIPP_RawBayer2RGBConfTypeDef rawBayerCfg;
 902              		.loc 1 472 3 view .LVU236
 473:../Drivers/ISP/isp/Src/isp_services.c **** 
 474:../Drivers/ISP/isp/Src/isp_services.c ****   if ((hIsp == NULL) || (pConfig == NULL) ||
 903              		.loc 1 474 3 view .LVU237
 904              		.loc 1 474 6 is_stmt 0 view .LVU238
 905 0000 0028     		cmp	r0, #0
 906 0002 49D0     		beq	.L103
 470:../Drivers/ISP/isp/Src/isp_services.c ****   HAL_StatusTypeDef halStatus;
 907              		.loc 1 470 1 view .LVU239
 908 0004 10B5     		push	{r4, lr}
 909              	.LCFI6:
 910              		.cfi_def_cfa_offset 8
 911              		.cfi_offset 4, -8
 912              		.cfi_offset 14, -4
 913 0006 86B0     		sub	sp, sp, #24
 914              	.LCFI7:
 915              		.cfi_def_cfa_offset 32
 916 0008 0446     		mov	r4, r0
 917              		.loc 1 474 22 discriminator 1 view .LVU240
 918 000a B9B1     		cbz	r1, .L86
 475:../Drivers/ISP/isp/Src/isp_services.c ****       (pConfig->peak > ISP_DEMOS_STRENGTH_MAX) || (pConfig->lineV > ISP_DEMOS_STRENGTH_MAX) ||
 919              		.loc 1 475 15 view .LVU241
 920 000c 8B78     		ldrb	r3, [r1, #2]	@ zero_extendqisi2
 474:../Drivers/ISP/isp/Src/isp_services.c ****       (pConfig->peak > ISP_DEMOS_STRENGTH_MAX) || (pConfig->lineV > ISP_DEMOS_STRENGTH_MAX) ||
 921              		.loc 1 474 43 discriminator 2 view .LVU242
 922 000e 072B     		cmp	r3, #7
 923 0010 14D8     		bhi	.L86
 924              		.loc 1 475 59 discriminator 1 view .LVU243
 925 0012 CB78     		ldrb	r3, [r1, #3]	@ zero_extendqisi2
 926              		.loc 1 475 48 discriminator 1 view .LVU244
 927 0014 072B     		cmp	r3, #7
 928 0016 11D8     		bhi	.L86
 476:../Drivers/ISP/isp/Src/isp_services.c ****       (pConfig->lineH > ISP_DEMOS_STRENGTH_MAX) || (pConfig->edge > ISP_DEMOS_STRENGTH_MAX))
 929              		.loc 1 476 15 view .LVU245
 930 0018 0B79     		ldrb	r3, [r1, #4]	@ zero_extendqisi2
 475:../Drivers/ISP/isp/Src/isp_services.c ****       (pConfig->peak > ISP_DEMOS_STRENGTH_MAX) || (pConfig->lineV > ISP_DEMOS_STRENGTH_MAX) ||
 931              		.loc 1 475 93 discriminator 2 view .LVU246
 932 001a 072B     		cmp	r3, #7
 933 001c 0ED8     		bhi	.L86
 934              		.loc 1 476 60 discriminator 1 view .LVU247
 935 001e 4B79     		ldrb	r3, [r1, #5]	@ zero_extendqisi2
 936              		.loc 1 476 49 discriminator 1 view .LVU248
 937 0020 072B     		cmp	r3, #7
 938 0022 0BD8     		bhi	.L86
 477:../Drivers/ISP/isp/Src/isp_services.c ****   {
 478:../Drivers/ISP/isp/Src/isp_services.c ****     return ISP_ERR_DEMOSAICING_EINVAL;
 479:../Drivers/ISP/isp/Src/isp_services.c ****   }
 480:../Drivers/ISP/isp/Src/isp_services.c **** 
 481:../Drivers/ISP/isp/Src/isp_services.c ****   /* Do not enable demosaicing if the camera sensor is a monochrome sensor */
 482:../Drivers/ISP/isp/Src/isp_services.c ****   if ((pConfig->enable == 0) || (pConfig->type == ISP_DEMOS_TYPE_MONO))
 939              		.loc 1 482 3 is_stmt 1 view .LVU249
 940              		.loc 1 482 15 is_stmt 0 view .LVU250
ARM GAS  /tmp/ccAu1Zkx.s 			page 27


 941 0024 0B78     		ldrb	r3, [r1]	@ zero_extendqisi2
 942              		.loc 1 482 6 view .LVU251
 943 0026 63B1     		cbz	r3, .L89
 944              		.loc 1 482 41 discriminator 1 view .LVU252
 945 0028 4B78     		ldrb	r3, [r1, #1]	@ zero_extendqisi2
 946              		.loc 1 482 30 discriminator 1 view .LVU253
 947 002a 042B     		cmp	r3, #4
 948 002c 09D0     		beq	.L89
 483:../Drivers/ISP/isp/Src/isp_services.c ****   {
 484:../Drivers/ISP/isp/Src/isp_services.c ****     halStatus = HAL_DCMIPP_PIPE_DisableISPRawBayer2RGB(hIsp->hDcmipp, DCMIPP_PIPE1);
 485:../Drivers/ISP/isp/Src/isp_services.c ****   }
 486:../Drivers/ISP/isp/Src/isp_services.c ****   else
 487:../Drivers/ISP/isp/Src/isp_services.c ****   {
 488:../Drivers/ISP/isp/Src/isp_services.c ****     switch(pConfig->type)
 949              		.loc 1 488 5 is_stmt 1 view .LVU254
 950 002e 042B     		cmp	r3, #4
 951 0030 2DD8     		bhi	.L92
 952 0032 DFE803F0 		tbb	[pc, r3]
 953              	.L94:
 954 0036 0E       		.byte	(.L98-.L94)/2
 955 0037 23       		.byte	(.L97-.L94)/2
 956 0038 26       		.byte	(.L96-.L94)/2
 957 0039 29       		.byte	(.L95-.L94)/2
 958 003a 10       		.byte	(.L93-.L94)/2
 959 003b 00       		.p2align 1
 960              	.L86:
 478:../Drivers/ISP/isp/Src/isp_services.c ****   }
 961              		.loc 1 478 12 is_stmt 0 view .LVU255
 962 003c 0A20     		movs	r0, #10
 963              	.LVL78:
 964              	.L88:
 489:../Drivers/ISP/isp/Src/isp_services.c ****     {
 490:../Drivers/ISP/isp/Src/isp_services.c ****       case ISP_DEMOS_TYPE_RGGB:
 491:../Drivers/ISP/isp/Src/isp_services.c ****         rawBayerCfg.RawBayerType = DCMIPP_RAWBAYER_RGGB;
 492:../Drivers/ISP/isp/Src/isp_services.c ****         break;
 493:../Drivers/ISP/isp/Src/isp_services.c ****       case ISP_DEMOS_TYPE_GRBG:
 494:../Drivers/ISP/isp/Src/isp_services.c ****         rawBayerCfg.RawBayerType = DCMIPP_RAWBAYER_GRBG;
 495:../Drivers/ISP/isp/Src/isp_services.c ****         break;
 496:../Drivers/ISP/isp/Src/isp_services.c ****       case ISP_DEMOS_TYPE_GBRG:
 497:../Drivers/ISP/isp/Src/isp_services.c ****         rawBayerCfg.RawBayerType = DCMIPP_RAWBAYER_GBRG;
 498:../Drivers/ISP/isp/Src/isp_services.c ****         break;
 499:../Drivers/ISP/isp/Src/isp_services.c ****       case ISP_DEMOS_TYPE_BGGR:
 500:../Drivers/ISP/isp/Src/isp_services.c ****         rawBayerCfg.RawBayerType = DCMIPP_RAWBAYER_BGGR;
 501:../Drivers/ISP/isp/Src/isp_services.c ****         break;
 502:../Drivers/ISP/isp/Src/isp_services.c ****       case ISP_DEMOS_TYPE_MONO:
 503:../Drivers/ISP/isp/Src/isp_services.c ****         /* Shall not happen, just add this case to silence a Wswitch-enum warning */
 504:../Drivers/ISP/isp/Src/isp_services.c ****         break;
 505:../Drivers/ISP/isp/Src/isp_services.c ****       default:
 506:../Drivers/ISP/isp/Src/isp_services.c ****         rawBayerCfg.RawBayerType = DCMIPP_RAWBAYER_RGGB;
 507:../Drivers/ISP/isp/Src/isp_services.c ****         break;
 508:../Drivers/ISP/isp/Src/isp_services.c ****     }
 509:../Drivers/ISP/isp/Src/isp_services.c **** 
 510:../Drivers/ISP/isp/Src/isp_services.c ****     rawBayerCfg.PeakStrength = (uint32_t) pConfig->peak;
 511:../Drivers/ISP/isp/Src/isp_services.c ****     rawBayerCfg.VLineStrength = (uint32_t) pConfig->lineV;
 512:../Drivers/ISP/isp/Src/isp_services.c ****     rawBayerCfg.HLineStrength = (uint32_t) pConfig->lineH;
 513:../Drivers/ISP/isp/Src/isp_services.c ****     rawBayerCfg.EdgeStrength = (uint32_t) pConfig->edge;
 514:../Drivers/ISP/isp/Src/isp_services.c ****     halStatus = HAL_DCMIPP_PIPE_SetISPRawBayer2RGBConfig(hIsp->hDcmipp, DCMIPP_PIPE1, &rawBayerCfg)
ARM GAS  /tmp/ccAu1Zkx.s 			page 28


 515:../Drivers/ISP/isp/Src/isp_services.c **** 
 516:../Drivers/ISP/isp/Src/isp_services.c ****     if (halStatus == HAL_OK)
 517:../Drivers/ISP/isp/Src/isp_services.c ****     {
 518:../Drivers/ISP/isp/Src/isp_services.c ****       halStatus = HAL_DCMIPP_PIPE_EnableISPRawBayer2RGB(hIsp->hDcmipp, DCMIPP_PIPE1);
 519:../Drivers/ISP/isp/Src/isp_services.c ****     }
 520:../Drivers/ISP/isp/Src/isp_services.c ****   }
 521:../Drivers/ISP/isp/Src/isp_services.c **** 
 522:../Drivers/ISP/isp/Src/isp_services.c ****   if (halStatus != HAL_OK)
 523:../Drivers/ISP/isp/Src/isp_services.c ****   {
 524:../Drivers/ISP/isp/Src/isp_services.c ****     return ISP_ERR_DEMOSAICING_HAL;
 525:../Drivers/ISP/isp/Src/isp_services.c ****   }
 526:../Drivers/ISP/isp/Src/isp_services.c **** 
 527:../Drivers/ISP/isp/Src/isp_services.c ****   return ISP_OK;
 528:../Drivers/ISP/isp/Src/isp_services.c **** }
 965              		.loc 1 528 1 view .LVU256
 966 003e 06B0     		add	sp, sp, #24
 967              	.LCFI8:
 968              		.cfi_remember_state
 969              		.cfi_def_cfa_offset 8
 970              		@ sp needed
 971 0040 10BD     		pop	{r4, pc}
 972              	.LVL79:
 973              	.L89:
 974              	.LCFI9:
 975              		.cfi_restore_state
 484:../Drivers/ISP/isp/Src/isp_services.c ****   }
 976              		.loc 1 484 5 is_stmt 1 view .LVU257
 484:../Drivers/ISP/isp/Src/isp_services.c ****   }
 977              		.loc 1 484 17 is_stmt 0 view .LVU258
 978 0042 0121     		movs	r1, #1
 979              	.LVL80:
 484:../Drivers/ISP/isp/Src/isp_services.c ****   }
 980              		.loc 1 484 17 view .LVU259
 981 0044 2068     		ldr	r0, [r4]
 982              	.LVL81:
 484:../Drivers/ISP/isp/Src/isp_services.c ****   }
 983              		.loc 1 484 17 view .LVU260
 984 0046 FFF7FEFF 		bl	HAL_DCMIPP_PIPE_DisableISPRawBayer2RGB
 985              	.LVL82:
 986              	.L91:
 522:../Drivers/ISP/isp/Src/isp_services.c ****   {
 987              		.loc 1 522 3 is_stmt 1 view .LVU261
 522:../Drivers/ISP/isp/Src/isp_services.c ****   {
 988              		.loc 1 522 6 is_stmt 0 view .LVU262
 989 004a 0028     		cmp	r0, #0
 990 004c F7D0     		beq	.L88
 524:../Drivers/ISP/isp/Src/isp_services.c ****   }
 991              		.loc 1 524 12 view .LVU263
 992 004e 0B20     		movs	r0, #11
 993              	.LVL83:
 524:../Drivers/ISP/isp/Src/isp_services.c ****   }
 994              		.loc 1 524 12 view .LVU264
 995 0050 F5E7     		b	.L88
 996              	.LVL84:
 997              	.L98:
 491:../Drivers/ISP/isp/Src/isp_services.c ****         break;
 998              		.loc 1 491 9 is_stmt 1 view .LVU265
ARM GAS  /tmp/ccAu1Zkx.s 			page 29


 491:../Drivers/ISP/isp/Src/isp_services.c ****         break;
 999              		.loc 1 491 34 is_stmt 0 view .LVU266
 1000 0052 0023     		movs	r3, #0
 1001 0054 0393     		str	r3, [sp, #12]
 492:../Drivers/ISP/isp/Src/isp_services.c ****       case ISP_DEMOS_TYPE_GRBG:
 1002              		.loc 1 492 9 is_stmt 1 view .LVU267
 1003              	.L93:
 510:../Drivers/ISP/isp/Src/isp_services.c ****     rawBayerCfg.VLineStrength = (uint32_t) pConfig->lineV;
 1004              		.loc 1 510 5 view .LVU268
 510:../Drivers/ISP/isp/Src/isp_services.c ****     rawBayerCfg.VLineStrength = (uint32_t) pConfig->lineV;
 1005              		.loc 1 510 50 is_stmt 0 view .LVU269
 1006 0056 8B78     		ldrb	r3, [r1, #2]	@ zero_extendqisi2
 510:../Drivers/ISP/isp/Src/isp_services.c ****     rawBayerCfg.VLineStrength = (uint32_t) pConfig->lineV;
 1007              		.loc 1 510 30 view .LVU270
 1008 0058 0493     		str	r3, [sp, #16]
 511:../Drivers/ISP/isp/Src/isp_services.c ****     rawBayerCfg.HLineStrength = (uint32_t) pConfig->lineH;
 1009              		.loc 1 511 5 is_stmt 1 view .LVU271
 511:../Drivers/ISP/isp/Src/isp_services.c ****     rawBayerCfg.HLineStrength = (uint32_t) pConfig->lineH;
 1010              		.loc 1 511 51 is_stmt 0 view .LVU272
 1011 005a CB78     		ldrb	r3, [r1, #3]	@ zero_extendqisi2
 511:../Drivers/ISP/isp/Src/isp_services.c ****     rawBayerCfg.HLineStrength = (uint32_t) pConfig->lineH;
 1012              		.loc 1 511 31 view .LVU273
 1013 005c 0193     		str	r3, [sp, #4]
 512:../Drivers/ISP/isp/Src/isp_services.c ****     rawBayerCfg.EdgeStrength = (uint32_t) pConfig->edge;
 1014              		.loc 1 512 5 is_stmt 1 view .LVU274
 512:../Drivers/ISP/isp/Src/isp_services.c ****     rawBayerCfg.EdgeStrength = (uint32_t) pConfig->edge;
 1015              		.loc 1 512 51 is_stmt 0 view .LVU275
 1016 005e 0B79     		ldrb	r3, [r1, #4]	@ zero_extendqisi2
 512:../Drivers/ISP/isp/Src/isp_services.c ****     rawBayerCfg.EdgeStrength = (uint32_t) pConfig->edge;
 1017              		.loc 1 512 31 view .LVU276
 1018 0060 0293     		str	r3, [sp, #8]
 513:../Drivers/ISP/isp/Src/isp_services.c ****     halStatus = HAL_DCMIPP_PIPE_SetISPRawBayer2RGBConfig(hIsp->hDcmipp, DCMIPP_PIPE1, &rawBayerCfg)
 1019              		.loc 1 513 5 is_stmt 1 view .LVU277
 513:../Drivers/ISP/isp/Src/isp_services.c ****     halStatus = HAL_DCMIPP_PIPE_SetISPRawBayer2RGBConfig(hIsp->hDcmipp, DCMIPP_PIPE1, &rawBayerCfg)
 1020              		.loc 1 513 50 is_stmt 0 view .LVU278
 1021 0062 4B79     		ldrb	r3, [r1, #5]	@ zero_extendqisi2
 513:../Drivers/ISP/isp/Src/isp_services.c ****     halStatus = HAL_DCMIPP_PIPE_SetISPRawBayer2RGBConfig(hIsp->hDcmipp, DCMIPP_PIPE1, &rawBayerCfg)
 1022              		.loc 1 513 30 view .LVU279
 1023 0064 0593     		str	r3, [sp, #20]
 514:../Drivers/ISP/isp/Src/isp_services.c **** 
 1024              		.loc 1 514 5 is_stmt 1 view .LVU280
 514:../Drivers/ISP/isp/Src/isp_services.c **** 
 1025              		.loc 1 514 17 is_stmt 0 view .LVU281
 1026 0066 01AA     		add	r2, sp, #4
 1027 0068 0121     		movs	r1, #1
 1028              	.LVL85:
 514:../Drivers/ISP/isp/Src/isp_services.c **** 
 1029              		.loc 1 514 17 view .LVU282
 1030 006a 2068     		ldr	r0, [r4]
 1031              	.LVL86:
 514:../Drivers/ISP/isp/Src/isp_services.c **** 
 1032              		.loc 1 514 17 view .LVU283
 1033 006c FFF7FEFF 		bl	HAL_DCMIPP_PIPE_SetISPRawBayer2RGBConfig
 1034              	.LVL87:
 516:../Drivers/ISP/isp/Src/isp_services.c ****     {
 1035              		.loc 1 516 5 is_stmt 1 view .LVU284
 516:../Drivers/ISP/isp/Src/isp_services.c ****     {
ARM GAS  /tmp/ccAu1Zkx.s 			page 30


 1036              		.loc 1 516 8 is_stmt 0 view .LVU285
 1037 0070 80B9     		cbnz	r0, .L99
 518:../Drivers/ISP/isp/Src/isp_services.c ****     }
 1038              		.loc 1 518 7 is_stmt 1 view .LVU286
 518:../Drivers/ISP/isp/Src/isp_services.c ****     }
 1039              		.loc 1 518 19 is_stmt 0 view .LVU287
 1040 0072 0121     		movs	r1, #1
 1041 0074 2068     		ldr	r0, [r4]
 1042              	.LVL88:
 518:../Drivers/ISP/isp/Src/isp_services.c ****     }
 1043              		.loc 1 518 19 view .LVU288
 1044 0076 FFF7FEFF 		bl	HAL_DCMIPP_PIPE_EnableISPRawBayer2RGB
 1045              	.LVL89:
 1046 007a E6E7     		b	.L91
 1047              	.LVL90:
 1048              	.L97:
 494:../Drivers/ISP/isp/Src/isp_services.c ****         break;
 1049              		.loc 1 494 9 is_stmt 1 view .LVU289
 494:../Drivers/ISP/isp/Src/isp_services.c ****         break;
 1050              		.loc 1 494 34 is_stmt 0 view .LVU290
 1051 007c 0223     		movs	r3, #2
 1052 007e 0393     		str	r3, [sp, #12]
 495:../Drivers/ISP/isp/Src/isp_services.c ****       case ISP_DEMOS_TYPE_GBRG:
 1053              		.loc 1 495 9 is_stmt 1 view .LVU291
 1054 0080 E9E7     		b	.L93
 1055              	.L96:
 497:../Drivers/ISP/isp/Src/isp_services.c ****         break;
 1056              		.loc 1 497 9 view .LVU292
 497:../Drivers/ISP/isp/Src/isp_services.c ****         break;
 1057              		.loc 1 497 34 is_stmt 0 view .LVU293
 1058 0082 0423     		movs	r3, #4
 1059 0084 0393     		str	r3, [sp, #12]
 498:../Drivers/ISP/isp/Src/isp_services.c ****       case ISP_DEMOS_TYPE_BGGR:
 1060              		.loc 1 498 9 is_stmt 1 view .LVU294
 1061 0086 E6E7     		b	.L93
 1062              	.L95:
 500:../Drivers/ISP/isp/Src/isp_services.c ****         break;
 1063              		.loc 1 500 9 view .LVU295
 500:../Drivers/ISP/isp/Src/isp_services.c ****         break;
 1064              		.loc 1 500 34 is_stmt 0 view .LVU296
 1065 0088 0623     		movs	r3, #6
 1066 008a 0393     		str	r3, [sp, #12]
 501:../Drivers/ISP/isp/Src/isp_services.c ****       case ISP_DEMOS_TYPE_MONO:
 1067              		.loc 1 501 9 is_stmt 1 view .LVU297
 1068 008c E3E7     		b	.L93
 1069              	.L92:
 506:../Drivers/ISP/isp/Src/isp_services.c ****         break;
 1070              		.loc 1 506 9 view .LVU298
 506:../Drivers/ISP/isp/Src/isp_services.c ****         break;
 1071              		.loc 1 506 34 is_stmt 0 view .LVU299
 1072 008e 0023     		movs	r3, #0
 1073 0090 0393     		str	r3, [sp, #12]
 507:../Drivers/ISP/isp/Src/isp_services.c ****     }
 1074              		.loc 1 507 9 is_stmt 1 view .LVU300
 1075 0092 E0E7     		b	.L93
 1076              	.LVL91:
 1077              	.L99:
ARM GAS  /tmp/ccAu1Zkx.s 			page 31


 524:../Drivers/ISP/isp/Src/isp_services.c ****   }
 1078              		.loc 1 524 12 is_stmt 0 view .LVU301
 1079 0094 0B20     		movs	r0, #11
 1080              	.LVL92:
 524:../Drivers/ISP/isp/Src/isp_services.c ****   }
 1081              		.loc 1 524 12 view .LVU302
 1082 0096 D2E7     		b	.L88
 1083              	.LVL93:
 1084              	.L103:
 1085              	.LCFI10:
 1086              		.cfi_def_cfa_offset 0
 1087              		.cfi_restore 4
 1088              		.cfi_restore 14
 478:../Drivers/ISP/isp/Src/isp_services.c ****   }
 1089              		.loc 1 478 12 view .LVU303
 1090 0098 0A20     		movs	r0, #10
 1091              	.LVL94:
 1092              		.loc 1 528 1 view .LVU304
 1093 009a 7047     		bx	lr
 1094              		.cfi_endproc
 1095              	.LFE896:
 1097              		.section	.text.ISP_SVC_ISP_SetStatRemoval,"ax",%progbits
 1098              		.align	1
 1099              		.global	ISP_SVC_ISP_SetStatRemoval
 1100              		.syntax unified
 1101              		.thumb
 1102              		.thumb_func
 1104              	ISP_SVC_ISP_SetStatRemoval:
 1105              	.LVL95:
 1106              	.LFB897:
 529:../Drivers/ISP/isp/Src/isp_services.c **** 
 530:../Drivers/ISP/isp/Src/isp_services.c **** /**
 531:../Drivers/ISP/isp/Src/isp_services.c ****   * @brief  ISP_SVC_ISP_SetStatRemoval
 532:../Drivers/ISP/isp/Src/isp_services.c ****   *         Set the ISP Stat Removal configuration
 533:../Drivers/ISP/isp/Src/isp_services.c ****   * @param  hIsp: ISP device handle
 534:../Drivers/ISP/isp/Src/isp_services.c ****   * @param  pConfig: Pointer to the Stat Removal configuration
 535:../Drivers/ISP/isp/Src/isp_services.c ****   * @retval operation result
 536:../Drivers/ISP/isp/Src/isp_services.c ****   */
 537:../Drivers/ISP/isp/Src/isp_services.c **** ISP_StatusTypeDef ISP_SVC_ISP_SetStatRemoval(ISP_HandleTypeDef *hIsp, ISP_StatRemovalTypeDef *pConf
 538:../Drivers/ISP/isp/Src/isp_services.c **** {
 1107              		.loc 1 538 1 is_stmt 1 view -0
 1108              		.cfi_startproc
 1109              		@ args = 0, pretend = 0, frame = 0
 1110              		@ frame_needed = 0, uses_anonymous_args = 0
 539:../Drivers/ISP/isp/Src/isp_services.c ****   HAL_StatusTypeDef halStatus;
 1111              		.loc 1 539 3 view .LVU306
 540:../Drivers/ISP/isp/Src/isp_services.c **** 
 541:../Drivers/ISP/isp/Src/isp_services.c ****   if ((hIsp == NULL) || (pConfig == NULL) ||
 1112              		.loc 1 541 3 view .LVU307
 1113              		.loc 1 541 6 is_stmt 0 view .LVU308
 1114 0000 08B3     		cbz	r0, .L115
 538:../Drivers/ISP/isp/Src/isp_services.c ****   HAL_StatusTypeDef halStatus;
 1115              		.loc 1 538 1 view .LVU309
 1116 0002 10B5     		push	{r4, lr}
 1117              	.LCFI11:
 1118              		.cfi_def_cfa_offset 8
 1119              		.cfi_offset 4, -8
ARM GAS  /tmp/ccAu1Zkx.s 			page 32


 1120              		.cfi_offset 14, -4
 1121 0004 0446     		mov	r4, r0
 1122              		.loc 1 541 22 discriminator 1 view .LVU310
 1123 0006 81B1     		cbz	r1, .L107
 542:../Drivers/ISP/isp/Src/isp_services.c ****       (pConfig->nbHeadLines > ISP_STATREMOVAL_HEADLINES_MAX) || (pConfig->nbValidLines > ISP_STATRE
 1124              		.loc 1 542 15 view .LVU311
 1125 0008 4A68     		ldr	r2, [r1, #4]
 541:../Drivers/ISP/isp/Src/isp_services.c ****       (pConfig->nbHeadLines > ISP_STATREMOVAL_HEADLINES_MAX) || (pConfig->nbValidLines > ISP_STATRE
 1126              		.loc 1 541 43 discriminator 2 view .LVU312
 1127 000a 072A     		cmp	r2, #7
 1128 000c 0DD8     		bhi	.L107
 1129              		.loc 1 542 73 discriminator 1 view .LVU313
 1130 000e 8B68     		ldr	r3, [r1, #8]
 1131              		.loc 1 542 62 discriminator 1 view .LVU314
 1132 0010 40F6FE70 		movw	r0, #4094
 1133              	.LVL96:
 1134              		.loc 1 542 62 discriminator 1 view .LVU315
 1135 0014 8342     		cmp	r3, r0
 1136 0016 08D8     		bhi	.L107
 543:../Drivers/ISP/isp/Src/isp_services.c ****   {
 544:../Drivers/ISP/isp/Src/isp_services.c ****     return ISP_ERR_STATREMOVAL_EINVAL;
 545:../Drivers/ISP/isp/Src/isp_services.c ****   }
 546:../Drivers/ISP/isp/Src/isp_services.c **** 
 547:../Drivers/ISP/isp/Src/isp_services.c ****   if (pConfig->enable == 0)
 1137              		.loc 1 547 3 is_stmt 1 view .LVU316
 1138              		.loc 1 547 14 is_stmt 0 view .LVU317
 1139 0018 0978     		ldrb	r1, [r1]	@ zero_extendqisi2
 1140              	.LVL97:
 1141              		.loc 1 547 6 view .LVU318
 1142 001a 41B9     		cbnz	r1, .L110
 548:../Drivers/ISP/isp/Src/isp_services.c ****   {
 549:../Drivers/ISP/isp/Src/isp_services.c ****     halStatus = HAL_DCMIPP_PIPE_DisableISPRemovalStatistic(hIsp->hDcmipp, DCMIPP_PIPE1);
 1143              		.loc 1 549 5 is_stmt 1 view .LVU319
 1144              		.loc 1 549 17 is_stmt 0 view .LVU320
 1145 001c 0121     		movs	r1, #1
 1146 001e 2068     		ldr	r0, [r4]
 1147 0020 FFF7FEFF 		bl	HAL_DCMIPP_PIPE_DisableISPRemovalStatistic
 1148              	.LVL98:
 1149              	.L111:
 550:../Drivers/ISP/isp/Src/isp_services.c ****   }
 551:../Drivers/ISP/isp/Src/isp_services.c ****   else
 552:../Drivers/ISP/isp/Src/isp_services.c ****   {
 553:../Drivers/ISP/isp/Src/isp_services.c ****     halStatus = HAL_DCMIPP_PIPE_SetISPRemovalStatisticConfig(hIsp->hDcmipp, DCMIPP_PIPE1, pConfig->
 554:../Drivers/ISP/isp/Src/isp_services.c **** 
 555:../Drivers/ISP/isp/Src/isp_services.c ****     if (halStatus == HAL_OK)
 556:../Drivers/ISP/isp/Src/isp_services.c ****     {
 557:../Drivers/ISP/isp/Src/isp_services.c ****       halStatus = HAL_DCMIPP_PIPE_EnableISPRemovalStatistic(hIsp->hDcmipp, DCMIPP_PIPE1);
 558:../Drivers/ISP/isp/Src/isp_services.c ****     }
 559:../Drivers/ISP/isp/Src/isp_services.c ****   }
 560:../Drivers/ISP/isp/Src/isp_services.c **** 
 561:../Drivers/ISP/isp/Src/isp_services.c ****   if (halStatus != HAL_OK)
 1150              		.loc 1 561 3 is_stmt 1 view .LVU321
 1151              		.loc 1 561 6 is_stmt 0 view .LVU322
 1152 0024 10B1     		cbz	r0, .L109
 562:../Drivers/ISP/isp/Src/isp_services.c ****   {
 563:../Drivers/ISP/isp/Src/isp_services.c ****     return ISP_ERR_STATREMOVAL_HAL;
 1153              		.loc 1 563 12 view .LVU323
ARM GAS  /tmp/ccAu1Zkx.s 			page 33


 1154 0026 1520     		movs	r0, #21
 1155              	.LVL99:
 1156              		.loc 1 563 12 view .LVU324
 1157 0028 00E0     		b	.L109
 1158              	.LVL100:
 1159              	.L107:
 544:../Drivers/ISP/isp/Src/isp_services.c ****   }
 1160              		.loc 1 544 12 view .LVU325
 1161 002a 1420     		movs	r0, #20
 1162              	.LVL101:
 1163              	.L109:
 564:../Drivers/ISP/isp/Src/isp_services.c ****   }
 565:../Drivers/ISP/isp/Src/isp_services.c **** 
 566:../Drivers/ISP/isp/Src/isp_services.c ****   return ISP_OK;
 567:../Drivers/ISP/isp/Src/isp_services.c **** }
 1164              		.loc 1 567 1 view .LVU326
 1165 002c 10BD     		pop	{r4, pc}
 1166              	.LVL102:
 1167              	.L110:
 553:../Drivers/ISP/isp/Src/isp_services.c **** 
 1168              		.loc 1 553 5 is_stmt 1 view .LVU327
 553:../Drivers/ISP/isp/Src/isp_services.c **** 
 1169              		.loc 1 553 17 is_stmt 0 view .LVU328
 1170 002e 0121     		movs	r1, #1
 1171 0030 2068     		ldr	r0, [r4]
 1172 0032 FFF7FEFF 		bl	HAL_DCMIPP_PIPE_SetISPRemovalStatisticConfig
 1173              	.LVL103:
 555:../Drivers/ISP/isp/Src/isp_services.c ****     {
 1174              		.loc 1 555 5 is_stmt 1 view .LVU329
 555:../Drivers/ISP/isp/Src/isp_services.c ****     {
 1175              		.loc 1 555 8 is_stmt 0 view .LVU330
 1176 0036 20B9     		cbnz	r0, .L112
 557:../Drivers/ISP/isp/Src/isp_services.c ****     }
 1177              		.loc 1 557 7 is_stmt 1 view .LVU331
 557:../Drivers/ISP/isp/Src/isp_services.c ****     }
 1178              		.loc 1 557 19 is_stmt 0 view .LVU332
 1179 0038 0121     		movs	r1, #1
 1180 003a 2068     		ldr	r0, [r4]
 1181              	.LVL104:
 557:../Drivers/ISP/isp/Src/isp_services.c ****     }
 1182              		.loc 1 557 19 view .LVU333
 1183 003c FFF7FEFF 		bl	HAL_DCMIPP_PIPE_EnableISPRemovalStatistic
 1184              	.LVL105:
 1185 0040 F0E7     		b	.L111
 1186              	.LVL106:
 1187              	.L112:
 563:../Drivers/ISP/isp/Src/isp_services.c ****   }
 1188              		.loc 1 563 12 view .LVU334
 1189 0042 1520     		movs	r0, #21
 1190              	.LVL107:
 563:../Drivers/ISP/isp/Src/isp_services.c ****   }
 1191              		.loc 1 563 12 view .LVU335
 1192 0044 F2E7     		b	.L109
 1193              	.LVL108:
 1194              	.L115:
 1195              	.LCFI12:
 1196              		.cfi_def_cfa_offset 0
ARM GAS  /tmp/ccAu1Zkx.s 			page 34


 1197              		.cfi_restore 4
 1198              		.cfi_restore 14
 544:../Drivers/ISP/isp/Src/isp_services.c ****   }
 1199              		.loc 1 544 12 view .LVU336
 1200 0046 1420     		movs	r0, #20
 1201              	.LVL109:
 1202              		.loc 1 567 1 view .LVU337
 1203 0048 7047     		bx	lr
 1204              		.cfi_endproc
 1205              	.LFE897:
 1207              		.section	.text.ISP_SVC_ISP_SetDecimation,"ax",%progbits
 1208              		.align	1
 1209              		.global	ISP_SVC_ISP_SetDecimation
 1210              		.syntax unified
 1211              		.thumb
 1212              		.thumb_func
 1214              	ISP_SVC_ISP_SetDecimation:
 1215              	.LVL110:
 1216              	.LFB898:
 568:../Drivers/ISP/isp/Src/isp_services.c **** 
 569:../Drivers/ISP/isp/Src/isp_services.c **** /**
 570:../Drivers/ISP/isp/Src/isp_services.c ****   * @brief  ISP_SVC_ISP_SetDecimation
 571:../Drivers/ISP/isp/Src/isp_services.c ****   *         Set the ISP Decimation configuration
 572:../Drivers/ISP/isp/Src/isp_services.c ****   * @param  hIsp: ISP device handle
 573:../Drivers/ISP/isp/Src/isp_services.c ****   * @param  pConfig: Pointer to the decimation configuration
 574:../Drivers/ISP/isp/Src/isp_services.c ****   * @retval operation result
 575:../Drivers/ISP/isp/Src/isp_services.c ****   */
 576:../Drivers/ISP/isp/Src/isp_services.c **** ISP_StatusTypeDef ISP_SVC_ISP_SetDecimation(ISP_HandleTypeDef *hIsp, ISP_DecimationTypeDef *pConfig
 577:../Drivers/ISP/isp/Src/isp_services.c **** {
 1217              		.loc 1 577 1 is_stmt 1 view -0
 1218              		.cfi_startproc
 1219              		@ args = 0, pretend = 0, frame = 8
 1220              		@ frame_needed = 0, uses_anonymous_args = 0
 578:../Drivers/ISP/isp/Src/isp_services.c ****   DCMIPP_DecimationConfTypeDef decimationCfg;
 1221              		.loc 1 578 3 view .LVU339
 579:../Drivers/ISP/isp/Src/isp_services.c ****   ISP_StatusTypeDef ret = ISP_OK;
 1222              		.loc 1 579 3 view .LVU340
 580:../Drivers/ISP/isp/Src/isp_services.c **** 
 581:../Drivers/ISP/isp/Src/isp_services.c ****   /* Check handles validity */
 582:../Drivers/ISP/isp/Src/isp_services.c ****   if ((hIsp == NULL) || (pConfig == NULL))
 1223              		.loc 1 582 3 view .LVU341
 1224              		.loc 1 582 6 is_stmt 0 view .LVU342
 1225 0000 0028     		cmp	r0, #0
 1226 0002 34D0     		beq	.L132
 577:../Drivers/ISP/isp/Src/isp_services.c ****   DCMIPP_DecimationConfTypeDef decimationCfg;
 1227              		.loc 1 577 1 view .LVU343
 1228 0004 30B5     		push	{r4, r5, lr}
 1229              	.LCFI13:
 1230              		.cfi_def_cfa_offset 12
 1231              		.cfi_offset 4, -12
 1232              		.cfi_offset 5, -8
 1233              		.cfi_offset 14, -4
 1234 0006 83B0     		sub	sp, sp, #12
 1235              	.LCFI14:
 1236              		.cfi_def_cfa_offset 24
 1237 0008 0C46     		mov	r4, r1
 1238 000a 0546     		mov	r5, r0
ARM GAS  /tmp/ccAu1Zkx.s 			page 35


 1239              		.loc 1 582 22 discriminator 1 view .LVU344
 1240 000c 49B1     		cbz	r1, .L119
 583:../Drivers/ISP/isp/Src/isp_services.c ****   {
 584:../Drivers/ISP/isp/Src/isp_services.c ****     return ISP_ERR_DECIMATION_EINVAL;
 585:../Drivers/ISP/isp/Src/isp_services.c ****   }
 586:../Drivers/ISP/isp/Src/isp_services.c **** 
 587:../Drivers/ISP/isp/Src/isp_services.c ****   switch (pConfig->factor)
 1241              		.loc 1 587 3 is_stmt 1 view .LVU345
 1242              		.loc 1 587 18 is_stmt 0 view .LVU346
 1243 000e 0B78     		ldrb	r3, [r1]	@ zero_extendqisi2
 1244              		.loc 1 587 3 view .LVU347
 1245 0010 013B     		subs	r3, r3, #1
 1246 0012 072B     		cmp	r3, #7
 1247 0014 05D8     		bhi	.L119
 1248 0016 DFE803F0 		tbb	[pc, r3]
 1249              	.L123:
 1250 001a 07       		.byte	(.L126-.L123)/2
 1251 001b 19       		.byte	(.L125-.L123)/2
 1252 001c 04       		.byte	(.L119-.L123)/2
 1253 001d 1E       		.byte	(.L124-.L123)/2
 1254 001e 04       		.byte	(.L119-.L123)/2
 1255 001f 04       		.byte	(.L119-.L123)/2
 1256 0020 04       		.byte	(.L119-.L123)/2
 1257 0021 23       		.byte	(.L122-.L123)/2
 1258              		.p2align 1
 1259              	.L119:
 584:../Drivers/ISP/isp/Src/isp_services.c ****   }
 1260              		.loc 1 584 12 view .LVU348
 1261 0022 1E20     		movs	r0, #30
 1262              	.LVL111:
 1263              	.L121:
 588:../Drivers/ISP/isp/Src/isp_services.c ****   {
 589:../Drivers/ISP/isp/Src/isp_services.c ****   case ISP_DECIM_FACTOR_1:
 590:../Drivers/ISP/isp/Src/isp_services.c ****     decimationCfg.VRatio = DCMIPP_VDEC_ALL;
 591:../Drivers/ISP/isp/Src/isp_services.c ****     decimationCfg.HRatio = DCMIPP_HDEC_ALL;
 592:../Drivers/ISP/isp/Src/isp_services.c ****     break;
 593:../Drivers/ISP/isp/Src/isp_services.c **** 
 594:../Drivers/ISP/isp/Src/isp_services.c ****   case ISP_DECIM_FACTOR_2:
 595:../Drivers/ISP/isp/Src/isp_services.c ****     decimationCfg.VRatio = DCMIPP_VDEC_1_OUT_2;
 596:../Drivers/ISP/isp/Src/isp_services.c ****     decimationCfg.HRatio = DCMIPP_HDEC_1_OUT_2;
 597:../Drivers/ISP/isp/Src/isp_services.c ****     break;
 598:../Drivers/ISP/isp/Src/isp_services.c **** 
 599:../Drivers/ISP/isp/Src/isp_services.c ****   case ISP_DECIM_FACTOR_4:
 600:../Drivers/ISP/isp/Src/isp_services.c ****     decimationCfg.VRatio = DCMIPP_VDEC_1_OUT_4;
 601:../Drivers/ISP/isp/Src/isp_services.c ****     decimationCfg.HRatio = DCMIPP_HDEC_1_OUT_4;
 602:../Drivers/ISP/isp/Src/isp_services.c ****     break;
 603:../Drivers/ISP/isp/Src/isp_services.c **** 
 604:../Drivers/ISP/isp/Src/isp_services.c ****   case ISP_DECIM_FACTOR_8:
 605:../Drivers/ISP/isp/Src/isp_services.c ****     decimationCfg.VRatio = DCMIPP_VDEC_1_OUT_8;
 606:../Drivers/ISP/isp/Src/isp_services.c ****     decimationCfg.HRatio = DCMIPP_HDEC_1_OUT_8;
 607:../Drivers/ISP/isp/Src/isp_services.c ****     break;
 608:../Drivers/ISP/isp/Src/isp_services.c **** 
 609:../Drivers/ISP/isp/Src/isp_services.c ****   default:
 610:../Drivers/ISP/isp/Src/isp_services.c ****     return ISP_ERR_DECIMATION_EINVAL;
 611:../Drivers/ISP/isp/Src/isp_services.c ****   }
 612:../Drivers/ISP/isp/Src/isp_services.c **** 
 613:../Drivers/ISP/isp/Src/isp_services.c ****   if (HAL_DCMIPP_PIPE_SetISPDecimationConfig(hIsp->hDcmipp, DCMIPP_PIPE1, &decimationCfg) != HAL_OK
ARM GAS  /tmp/ccAu1Zkx.s 			page 36


 614:../Drivers/ISP/isp/Src/isp_services.c ****   {
 615:../Drivers/ISP/isp/Src/isp_services.c ****     return ISP_ERR_DECIMATION_HAL;
 616:../Drivers/ISP/isp/Src/isp_services.c ****   }
 617:../Drivers/ISP/isp/Src/isp_services.c **** 
 618:../Drivers/ISP/isp/Src/isp_services.c ****   if (HAL_DCMIPP_PIPE_EnableISPDecimation(hIsp->hDcmipp, DCMIPP_PIPE1) != HAL_OK)
 619:../Drivers/ISP/isp/Src/isp_services.c ****   {
 620:../Drivers/ISP/isp/Src/isp_services.c ****     return ISP_ERR_DECIMATION_HAL;
 621:../Drivers/ISP/isp/Src/isp_services.c ****   }
 622:../Drivers/ISP/isp/Src/isp_services.c **** 
 623:../Drivers/ISP/isp/Src/isp_services.c ****   /* Save decimation value */
 624:../Drivers/ISP/isp/Src/isp_services.c ****   ISP_DecimationValue.factor = pConfig->factor;
 625:../Drivers/ISP/isp/Src/isp_services.c **** 
 626:../Drivers/ISP/isp/Src/isp_services.c ****   return ret;
 627:../Drivers/ISP/isp/Src/isp_services.c **** }
 1264              		.loc 1 627 1 view .LVU349
 1265 0024 03B0     		add	sp, sp, #12
 1266              	.LCFI15:
 1267              		.cfi_remember_state
 1268              		.cfi_def_cfa_offset 12
 1269              		@ sp needed
 1270 0026 30BD     		pop	{r4, r5, pc}
 1271              	.LVL112:
 1272              	.L126:
 1273              	.LCFI16:
 1274              		.cfi_restore_state
 590:../Drivers/ISP/isp/Src/isp_services.c ****     decimationCfg.HRatio = DCMIPP_HDEC_ALL;
 1275              		.loc 1 590 5 is_stmt 1 view .LVU350
 590:../Drivers/ISP/isp/Src/isp_services.c ****     decimationCfg.HRatio = DCMIPP_HDEC_ALL;
 1276              		.loc 1 590 26 is_stmt 0 view .LVU351
 1277 0028 0023     		movs	r3, #0
 1278 002a 0093     		str	r3, [sp]
 591:../Drivers/ISP/isp/Src/isp_services.c ****     break;
 1279              		.loc 1 591 5 is_stmt 1 view .LVU352
 591:../Drivers/ISP/isp/Src/isp_services.c ****     break;
 1280              		.loc 1 591 26 is_stmt 0 view .LVU353
 1281 002c 0193     		str	r3, [sp, #4]
 592:../Drivers/ISP/isp/Src/isp_services.c **** 
 1282              		.loc 1 592 5 is_stmt 1 view .LVU354
 1283              	.L127:
 613:../Drivers/ISP/isp/Src/isp_services.c ****   {
 1284              		.loc 1 613 3 view .LVU355
 613:../Drivers/ISP/isp/Src/isp_services.c ****   {
 1285              		.loc 1 613 7 is_stmt 0 view .LVU356
 1286 002e 6A46     		mov	r2, sp
 1287 0030 0121     		movs	r1, #1
 1288              	.LVL113:
 613:../Drivers/ISP/isp/Src/isp_services.c ****   {
 1289              		.loc 1 613 7 view .LVU357
 1290 0032 2868     		ldr	r0, [r5]
 1291              	.LVL114:
 613:../Drivers/ISP/isp/Src/isp_services.c ****   {
 1292              		.loc 1 613 7 view .LVU358
 1293 0034 FFF7FEFF 		bl	HAL_DCMIPP_PIPE_SetISPDecimationConfig
 1294              	.LVL115:
 613:../Drivers/ISP/isp/Src/isp_services.c ****   {
 1295              		.loc 1 613 6 discriminator 1 view .LVU359
 1296 0038 B8B9     		cbnz	r0, .L129
ARM GAS  /tmp/ccAu1Zkx.s 			page 37


 618:../Drivers/ISP/isp/Src/isp_services.c ****   {
 1297              		.loc 1 618 3 is_stmt 1 view .LVU360
 618:../Drivers/ISP/isp/Src/isp_services.c ****   {
 1298              		.loc 1 618 7 is_stmt 0 view .LVU361
 1299 003a 0121     		movs	r1, #1
 1300 003c 2868     		ldr	r0, [r5]
 1301 003e FFF7FEFF 		bl	HAL_DCMIPP_PIPE_EnableISPDecimation
 1302              	.LVL116:
 618:../Drivers/ISP/isp/Src/isp_services.c ****   {
 1303              		.loc 1 618 6 discriminator 1 view .LVU362
 1304 0042 90B9     		cbnz	r0, .L129
 624:../Drivers/ISP/isp/Src/isp_services.c **** 
 1305              		.loc 1 624 3 is_stmt 1 view .LVU363
 624:../Drivers/ISP/isp/Src/isp_services.c **** 
 1306              		.loc 1 624 39 is_stmt 0 view .LVU364
 1307 0044 2278     		ldrb	r2, [r4]	@ zero_extendqisi2
 624:../Drivers/ISP/isp/Src/isp_services.c **** 
 1308              		.loc 1 624 30 view .LVU365
 1309 0046 0B4B     		ldr	r3, .L135
 1310 0048 1A70     		strb	r2, [r3]
 626:../Drivers/ISP/isp/Src/isp_services.c **** }
 1311              		.loc 1 626 3 is_stmt 1 view .LVU366
 626:../Drivers/ISP/isp/Src/isp_services.c **** }
 1312              		.loc 1 626 10 is_stmt 0 view .LVU367
 1313 004a EBE7     		b	.L121
 1314              	.LVL117:
 1315              	.L125:
 595:../Drivers/ISP/isp/Src/isp_services.c ****     decimationCfg.HRatio = DCMIPP_HDEC_1_OUT_2;
 1316              		.loc 1 595 5 is_stmt 1 view .LVU368
 595:../Drivers/ISP/isp/Src/isp_services.c ****     decimationCfg.HRatio = DCMIPP_HDEC_1_OUT_2;
 1317              		.loc 1 595 26 is_stmt 0 view .LVU369
 1318 004c 0823     		movs	r3, #8
 1319 004e 0093     		str	r3, [sp]
 596:../Drivers/ISP/isp/Src/isp_services.c ****     break;
 1320              		.loc 1 596 5 is_stmt 1 view .LVU370
 596:../Drivers/ISP/isp/Src/isp_services.c ****     break;
 1321              		.loc 1 596 26 is_stmt 0 view .LVU371
 1322 0050 0223     		movs	r3, #2
 1323 0052 0193     		str	r3, [sp, #4]
 597:../Drivers/ISP/isp/Src/isp_services.c **** 
 1324              		.loc 1 597 5 is_stmt 1 view .LVU372
 1325 0054 EBE7     		b	.L127
 1326              	.L124:
 600:../Drivers/ISP/isp/Src/isp_services.c ****     decimationCfg.HRatio = DCMIPP_HDEC_1_OUT_4;
 1327              		.loc 1 600 5 view .LVU373
 600:../Drivers/ISP/isp/Src/isp_services.c ****     decimationCfg.HRatio = DCMIPP_HDEC_1_OUT_4;
 1328              		.loc 1 600 26 is_stmt 0 view .LVU374
 1329 0056 1023     		movs	r3, #16
 1330 0058 0093     		str	r3, [sp]
 601:../Drivers/ISP/isp/Src/isp_services.c ****     break;
 1331              		.loc 1 601 5 is_stmt 1 view .LVU375
 601:../Drivers/ISP/isp/Src/isp_services.c ****     break;
 1332              		.loc 1 601 26 is_stmt 0 view .LVU376
 1333 005a 0423     		movs	r3, #4
 1334 005c 0193     		str	r3, [sp, #4]
 602:../Drivers/ISP/isp/Src/isp_services.c **** 
 1335              		.loc 1 602 5 is_stmt 1 view .LVU377
ARM GAS  /tmp/ccAu1Zkx.s 			page 38


 1336 005e E6E7     		b	.L127
 1337              	.L122:
 605:../Drivers/ISP/isp/Src/isp_services.c ****     decimationCfg.HRatio = DCMIPP_HDEC_1_OUT_8;
 1338              		.loc 1 605 5 view .LVU378
 605:../Drivers/ISP/isp/Src/isp_services.c ****     decimationCfg.HRatio = DCMIPP_HDEC_1_OUT_8;
 1339              		.loc 1 605 26 is_stmt 0 view .LVU379
 1340 0060 1823     		movs	r3, #24
 1341 0062 0093     		str	r3, [sp]
 606:../Drivers/ISP/isp/Src/isp_services.c ****     break;
 1342              		.loc 1 606 5 is_stmt 1 view .LVU380
 606:../Drivers/ISP/isp/Src/isp_services.c ****     break;
 1343              		.loc 1 606 26 is_stmt 0 view .LVU381
 1344 0064 0623     		movs	r3, #6
 1345 0066 0193     		str	r3, [sp, #4]
 607:../Drivers/ISP/isp/Src/isp_services.c **** 
 1346              		.loc 1 607 5 is_stmt 1 view .LVU382
 1347 0068 E1E7     		b	.L127
 1348              	.LVL118:
 1349              	.L129:
 615:../Drivers/ISP/isp/Src/isp_services.c ****   }
 1350              		.loc 1 615 12 is_stmt 0 view .LVU383
 1351 006a 1F20     		movs	r0, #31
 1352 006c DAE7     		b	.L121
 1353              	.LVL119:
 1354              	.L132:
 1355              	.LCFI17:
 1356              		.cfi_def_cfa_offset 0
 1357              		.cfi_restore 4
 1358              		.cfi_restore 5
 1359              		.cfi_restore 14
 584:../Drivers/ISP/isp/Src/isp_services.c ****   }
 1360              		.loc 1 584 12 view .LVU384
 1361 006e 1E20     		movs	r0, #30
 1362              	.LVL120:
 1363              		.loc 1 627 1 view .LVU385
 1364 0070 7047     		bx	lr
 1365              	.L136:
 1366 0072 00BF     		.align	2
 1367              	.L135:
 1368 0074 00000000 		.word	ISP_DecimationValue
 1369              		.cfi_endproc
 1370              	.LFE898:
 1372              		.section	.text.ISP_SVC_ISP_GetDecimation,"ax",%progbits
 1373              		.align	1
 1374              		.global	ISP_SVC_ISP_GetDecimation
 1375              		.syntax unified
 1376              		.thumb
 1377              		.thumb_func
 1379              	ISP_SVC_ISP_GetDecimation:
 1380              	.LVL121:
 1381              	.LFB899:
 628:../Drivers/ISP/isp/Src/isp_services.c **** 
 629:../Drivers/ISP/isp/Src/isp_services.c **** /**
 630:../Drivers/ISP/isp/Src/isp_services.c ****   * @brief  ISP_SVC_ISP_GetDecimation
 631:../Drivers/ISP/isp/Src/isp_services.c ****   *         Get the ISP Decimation configuration
 632:../Drivers/ISP/isp/Src/isp_services.c ****   * @param  hIsp: ISP device handle
 633:../Drivers/ISP/isp/Src/isp_services.c ****   * @param  pConfig: Pointer to the decimation configuration
ARM GAS  /tmp/ccAu1Zkx.s 			page 39


 634:../Drivers/ISP/isp/Src/isp_services.c ****   * @retval operation result
 635:../Drivers/ISP/isp/Src/isp_services.c ****   */
 636:../Drivers/ISP/isp/Src/isp_services.c **** ISP_StatusTypeDef ISP_SVC_ISP_GetDecimation(ISP_HandleTypeDef *hIsp, ISP_DecimationTypeDef *pConfig
 637:../Drivers/ISP/isp/Src/isp_services.c **** {
 1382              		.loc 1 637 1 is_stmt 1 view -0
 1383              		.cfi_startproc
 1384              		@ args = 0, pretend = 0, frame = 0
 1385              		@ frame_needed = 0, uses_anonymous_args = 0
 1386              		@ link register save eliminated.
 638:../Drivers/ISP/isp/Src/isp_services.c ****   UNUSED(hIsp);
 1387              		.loc 1 638 3 view .LVU387
 639:../Drivers/ISP/isp/Src/isp_services.c ****   pConfig->factor = ISP_DecimationValue.factor;
 1388              		.loc 1 639 3 view .LVU388
 1389              		.loc 1 639 40 is_stmt 0 view .LVU389
 1390 0000 024B     		ldr	r3, .L138
 1391 0002 1B78     		ldrb	r3, [r3]	@ zero_extendqisi2
 1392              		.loc 1 639 19 view .LVU390
 1393 0004 0B70     		strb	r3, [r1]
 640:../Drivers/ISP/isp/Src/isp_services.c **** 
 641:../Drivers/ISP/isp/Src/isp_services.c ****   return ISP_OK;
 1394              		.loc 1 641 3 is_stmt 1 view .LVU391
 642:../Drivers/ISP/isp/Src/isp_services.c **** }
 1395              		.loc 1 642 1 is_stmt 0 view .LVU392
 1396 0006 0020     		movs	r0, #0
 1397              	.LVL122:
 1398              		.loc 1 642 1 view .LVU393
 1399 0008 7047     		bx	lr
 1400              	.L139:
 1401 000a 00BF     		.align	2
 1402              	.L138:
 1403 000c 00000000 		.word	ISP_DecimationValue
 1404              		.cfi_endproc
 1405              	.LFE899:
 1407              		.section	.text.ISP_SVC_ISP_SetContrast,"ax",%progbits
 1408              		.align	1
 1409              		.global	ISP_SVC_ISP_SetContrast
 1410              		.syntax unified
 1411              		.thumb
 1412              		.thumb_func
 1414              	ISP_SVC_ISP_SetContrast:
 1415              	.LVL123:
 1416              	.LFB900:
 643:../Drivers/ISP/isp/Src/isp_services.c **** 
 644:../Drivers/ISP/isp/Src/isp_services.c **** /**
 645:../Drivers/ISP/isp/Src/isp_services.c ****   * @brief  ISP_SVC_ISP_SetContrast
 646:../Drivers/ISP/isp/Src/isp_services.c ****   *         Set the ISP Contrast luminance coefficients
 647:../Drivers/ISP/isp/Src/isp_services.c ****   * @param  hIsp: ISP device handle
 648:../Drivers/ISP/isp/Src/isp_services.c ****   * @param  pConfig: Pointer to the contrast configuration
 649:../Drivers/ISP/isp/Src/isp_services.c ****   * @retval operation result
 650:../Drivers/ISP/isp/Src/isp_services.c ****   */
 651:../Drivers/ISP/isp/Src/isp_services.c **** ISP_StatusTypeDef ISP_SVC_ISP_SetContrast(ISP_HandleTypeDef *hIsp, ISP_ContrastTypeDef *pConfig)
 652:../Drivers/ISP/isp/Src/isp_services.c **** {
 1417              		.loc 1 652 1 is_stmt 1 view -0
 1418              		.cfi_startproc
 1419              		@ args = 0, pretend = 0, frame = 16
 1420              		@ frame_needed = 0, uses_anonymous_args = 0
 653:../Drivers/ISP/isp/Src/isp_services.c ****   HAL_StatusTypeDef halStatus;
ARM GAS  /tmp/ccAu1Zkx.s 			page 40


 1421              		.loc 1 653 3 view .LVU395
 654:../Drivers/ISP/isp/Src/isp_services.c ****   DCMIPP_ContrastConfTypeDef contrast;
 1422              		.loc 1 654 3 view .LVU396
 655:../Drivers/ISP/isp/Src/isp_services.c **** 
 656:../Drivers/ISP/isp/Src/isp_services.c ****   if ((hIsp == NULL) || (pConfig == NULL) ||
 1423              		.loc 1 656 3 view .LVU397
 1424              		.loc 1 656 6 is_stmt 0 view .LVU398
 1425 0000 0028     		cmp	r0, #0
 1426 0002 00F08D80 		beq	.L149
 652:../Drivers/ISP/isp/Src/isp_services.c ****   HAL_StatusTypeDef halStatus;
 1427              		.loc 1 652 1 view .LVU399
 1428 0006 2DE9F043 		push	{r4, r5, r6, r7, r8, r9, lr}
 1429              	.LCFI18:
 1430              		.cfi_def_cfa_offset 28
 1431              		.cfi_offset 4, -28
 1432              		.cfi_offset 5, -24
 1433              		.cfi_offset 6, -20
 1434              		.cfi_offset 7, -16
 1435              		.cfi_offset 8, -12
 1436              		.cfi_offset 9, -8
 1437              		.cfi_offset 14, -4
 1438 000a 85B0     		sub	sp, sp, #20
 1439              	.LCFI19:
 1440              		.cfi_def_cfa_offset 48
 1441 000c 0546     		mov	r5, r0
 1442              		.loc 1 656 22 discriminator 1 view .LVU400
 1443 000e 91B3     		cbz	r1, .L141
 657:../Drivers/ISP/isp/Src/isp_services.c ****       (pConfig->coeff.LUM_0 > ISP_CONTRAST_LUMCOEFF_MAX) || (pConfig->coeff.LUM_32 > ISP_CONTRAST_L
 1444              		.loc 1 657 22 view .LVU401
 1445 0010 4B68     		ldr	r3, [r1, #4]
 656:../Drivers/ISP/isp/Src/isp_services.c ****       (pConfig->coeff.LUM_0 > ISP_CONTRAST_LUMCOEFF_MAX) || (pConfig->coeff.LUM_32 > ISP_CONTRAST_L
 1446              		.loc 1 656 43 discriminator 2 view .LVU402
 1447 0012 B3F5C57F 		cmp	r3, #394
 1448 0016 2ED8     		bhi	.L141
 1449              		.loc 1 657 76 discriminator 1 view .LVU403
 1450 0018 8A68     		ldr	r2, [r1, #8]
 1451              		.loc 1 657 58 discriminator 1 view .LVU404
 1452 001a B2F5C57F 		cmp	r2, #394
 1453 001e 2AD8     		bhi	.L141
 658:../Drivers/ISP/isp/Src/isp_services.c ****       (pConfig->coeff.LUM_64 > ISP_CONTRAST_LUMCOEFF_MAX) || (pConfig->coeff.LUM_96 > ISP_CONTRAST_
 1454              		.loc 1 658 22 view .LVU405
 1455 0020 C868     		ldr	r0, [r1, #12]
 1456              	.LVL124:
 657:../Drivers/ISP/isp/Src/isp_services.c ****       (pConfig->coeff.LUM_0 > ISP_CONTRAST_LUMCOEFF_MAX) || (pConfig->coeff.LUM_32 > ISP_CONTRAST_L
 1457              		.loc 1 657 113 discriminator 2 view .LVU406
 1458 0022 B0F5C57F 		cmp	r0, #394
 1459 0026 26D8     		bhi	.L141
 1460              		.loc 1 658 77 discriminator 1 view .LVU407
 1461 0028 D1F810C0 		ldr	ip, [r1, #16]
 1462              		.loc 1 658 59 discriminator 1 view .LVU408
 1463 002c BCF5C57F 		cmp	ip, #394
 1464 0030 21D8     		bhi	.L141
 659:../Drivers/ISP/isp/Src/isp_services.c ****       (pConfig->coeff.LUM_128 > ISP_CONTRAST_LUMCOEFF_MAX) || (pConfig->coeff.LUM_160 > ISP_CONTRAS
 1465              		.loc 1 659 22 view .LVU409
 1466 0032 D1F814E0 		ldr	lr, [r1, #20]
 658:../Drivers/ISP/isp/Src/isp_services.c ****       (pConfig->coeff.LUM_64 > ISP_CONTRAST_LUMCOEFF_MAX) || (pConfig->coeff.LUM_96 > ISP_CONTRAST_
 1467              		.loc 1 658 114 discriminator 2 view .LVU410
ARM GAS  /tmp/ccAu1Zkx.s 			page 41


 1468 0036 BEF5C57F 		cmp	lr, #394
 1469 003a 1CD8     		bhi	.L141
 1470              		.loc 1 659 78 discriminator 1 view .LVU411
 1471 003c 8C69     		ldr	r4, [r1, #24]
 1472 003e 2646     		mov	r6, r4
 1473              		.loc 1 659 60 discriminator 1 view .LVU412
 1474 0040 B4F5C57F 		cmp	r4, #394
 1475 0044 17D8     		bhi	.L141
 660:../Drivers/ISP/isp/Src/isp_services.c ****       (pConfig->coeff.LUM_192 > ISP_CONTRAST_LUMCOEFF_MAX) || (pConfig->coeff.LUM_224 > ISP_CONTRAS
 1476              		.loc 1 660 22 view .LVU413
 1477 0046 CC69     		ldr	r4, [r1, #28]
 1478 0048 2746     		mov	r7, r4
 659:../Drivers/ISP/isp/Src/isp_services.c ****       (pConfig->coeff.LUM_128 > ISP_CONTRAST_LUMCOEFF_MAX) || (pConfig->coeff.LUM_160 > ISP_CONTRAS
 1479              		.loc 1 659 116 discriminator 2 view .LVU414
 1480 004a B4F5C57F 		cmp	r4, #394
 1481 004e 12D8     		bhi	.L141
 1482              		.loc 1 660 78 discriminator 1 view .LVU415
 1483 0050 0C6A     		ldr	r4, [r1, #32]
 1484 0052 A046     		mov	r8, r4
 1485              		.loc 1 660 60 discriminator 1 view .LVU416
 1486 0054 B4F5C57F 		cmp	r4, #394
 1487 0058 0DD8     		bhi	.L141
 661:../Drivers/ISP/isp/Src/isp_services.c ****       (pConfig->coeff.LUM_256 > ISP_CONTRAST_LUMCOEFF_MAX))
 1488              		.loc 1 661 22 view .LVU417
 1489 005a 4C6A     		ldr	r4, [r1, #36]
 1490 005c A146     		mov	r9, r4
 660:../Drivers/ISP/isp/Src/isp_services.c ****       (pConfig->coeff.LUM_192 > ISP_CONTRAST_LUMCOEFF_MAX) || (pConfig->coeff.LUM_224 > ISP_CONTRAS
 1491              		.loc 1 660 116 discriminator 2 view .LVU418
 1492 005e B4F5C57F 		cmp	r4, #394
 1493 0062 08D8     		bhi	.L141
 662:../Drivers/ISP/isp/Src/isp_services.c ****   {
 663:../Drivers/ISP/isp/Src/isp_services.c ****     return ISP_ERR_CONTRAST_EINVAL;
 664:../Drivers/ISP/isp/Src/isp_services.c ****   }
 665:../Drivers/ISP/isp/Src/isp_services.c **** 
 666:../Drivers/ISP/isp/Src/isp_services.c ****   if (pConfig->enable == 0)
 1494              		.loc 1 666 3 is_stmt 1 view .LVU419
 1495              		.loc 1 666 14 is_stmt 0 view .LVU420
 1496 0064 0978     		ldrb	r1, [r1]	@ zero_extendqisi2
 1497              	.LVL125:
 1498              		.loc 1 666 6 view .LVU421
 1499 0066 51B9     		cbnz	r1, .L144
 667:../Drivers/ISP/isp/Src/isp_services.c ****   {
 668:../Drivers/ISP/isp/Src/isp_services.c ****     halStatus = HAL_DCMIPP_PIPE_DisableISPCtrlContrast(hIsp->hDcmipp, DCMIPP_PIPE1);
 1500              		.loc 1 668 5 is_stmt 1 view .LVU422
 1501              		.loc 1 668 17 is_stmt 0 view .LVU423
 1502 0068 0121     		movs	r1, #1
 1503 006a 2868     		ldr	r0, [r5]
 1504 006c FFF7FEFF 		bl	HAL_DCMIPP_PIPE_DisableISPCtrlContrast
 1505              	.LVL126:
 1506              	.L145:
 669:../Drivers/ISP/isp/Src/isp_services.c ****   }
 670:../Drivers/ISP/isp/Src/isp_services.c ****   else
 671:../Drivers/ISP/isp/Src/isp_services.c ****   {
 672:../Drivers/ISP/isp/Src/isp_services.c ****     /* Convert coefficient unit from "percentage" to "6 bit" */
 673:../Drivers/ISP/isp/Src/isp_services.c ****     contrast.LUM_0 = (uint8_t)((pConfig->coeff.LUM_0 * 16) / 100);
 674:../Drivers/ISP/isp/Src/isp_services.c ****     contrast.LUM_32 = (uint8_t)((pConfig->coeff.LUM_32 * 16) / 100);
 675:../Drivers/ISP/isp/Src/isp_services.c ****     contrast.LUM_64 = (uint8_t)((pConfig->coeff.LUM_64 * 16) / 100);
ARM GAS  /tmp/ccAu1Zkx.s 			page 42


 676:../Drivers/ISP/isp/Src/isp_services.c ****     contrast.LUM_96 = (uint8_t)((pConfig->coeff.LUM_96 * 16) / 100);
 677:../Drivers/ISP/isp/Src/isp_services.c ****     contrast.LUM_128 = (uint8_t)((pConfig->coeff.LUM_128 * 16) / 100);
 678:../Drivers/ISP/isp/Src/isp_services.c ****     contrast.LUM_160 = (uint8_t)((pConfig->coeff.LUM_160 * 16) / 100);
 679:../Drivers/ISP/isp/Src/isp_services.c ****     contrast.LUM_192 = (uint8_t)((pConfig->coeff.LUM_192 * 16) / 100);
 680:../Drivers/ISP/isp/Src/isp_services.c ****     contrast.LUM_224 = (uint8_t)((pConfig->coeff.LUM_224 * 16) / 100);
 681:../Drivers/ISP/isp/Src/isp_services.c ****     contrast.LUM_256 = (uint8_t)((pConfig->coeff.LUM_256 * 16) / 100);
 682:../Drivers/ISP/isp/Src/isp_services.c ****     halStatus = HAL_DCMIPP_PIPE_SetISPCtrlContrastConfig(hIsp->hDcmipp, DCMIPP_PIPE1, &contrast);
 683:../Drivers/ISP/isp/Src/isp_services.c **** 
 684:../Drivers/ISP/isp/Src/isp_services.c ****     if (halStatus == HAL_OK)
 685:../Drivers/ISP/isp/Src/isp_services.c ****     {
 686:../Drivers/ISP/isp/Src/isp_services.c ****       halStatus = HAL_DCMIPP_PIPE_EnableISPCtrlContrast(hIsp->hDcmipp, DCMIPP_PIPE1);
 687:../Drivers/ISP/isp/Src/isp_services.c ****     }
 688:../Drivers/ISP/isp/Src/isp_services.c ****   }
 689:../Drivers/ISP/isp/Src/isp_services.c **** 
 690:../Drivers/ISP/isp/Src/isp_services.c ****   if (halStatus != HAL_OK)
 1507              		.loc 1 690 3 is_stmt 1 view .LVU424
 1508              		.loc 1 690 6 is_stmt 0 view .LVU425
 1509 0070 10B1     		cbz	r0, .L143
 691:../Drivers/ISP/isp/Src/isp_services.c ****   {
 692:../Drivers/ISP/isp/Src/isp_services.c ****     return ISP_ERR_CONTRAST_HAL;
 1510              		.loc 1 692 12 view .LVU426
 1511 0072 2920     		movs	r0, #41
 1512              	.LVL127:
 1513              		.loc 1 692 12 view .LVU427
 1514 0074 00E0     		b	.L143
 1515              	.LVL128:
 1516              	.L141:
 663:../Drivers/ISP/isp/Src/isp_services.c ****   }
 1517              		.loc 1 663 12 view .LVU428
 1518 0076 2820     		movs	r0, #40
 1519              	.LVL129:
 1520              	.L143:
 693:../Drivers/ISP/isp/Src/isp_services.c ****   }
 694:../Drivers/ISP/isp/Src/isp_services.c **** 
 695:../Drivers/ISP/isp/Src/isp_services.c ****   return ISP_OK;
 696:../Drivers/ISP/isp/Src/isp_services.c **** }
 1521              		.loc 1 696 1 view .LVU429
 1522 0078 05B0     		add	sp, sp, #20
 1523              	.LCFI20:
 1524              		.cfi_remember_state
 1525              		.cfi_def_cfa_offset 28
 1526              		@ sp needed
 1527 007a BDE8F083 		pop	{r4, r5, r6, r7, r8, r9, pc}
 1528              	.LVL130:
 1529              	.L144:
 1530              	.LCFI21:
 1531              		.cfi_restore_state
 673:../Drivers/ISP/isp/Src/isp_services.c ****     contrast.LUM_32 = (uint8_t)((pConfig->coeff.LUM_32 * 16) / 100);
 1532              		.loc 1 673 5 is_stmt 1 view .LVU430
 673:../Drivers/ISP/isp/Src/isp_services.c ****     contrast.LUM_32 = (uint8_t)((pConfig->coeff.LUM_32 * 16) / 100);
 1533              		.loc 1 673 54 is_stmt 0 view .LVU431
 1534 007e 1B01     		lsls	r3, r3, #4
 673:../Drivers/ISP/isp/Src/isp_services.c ****     contrast.LUM_32 = (uint8_t)((pConfig->coeff.LUM_32 * 16) / 100);
 1535              		.loc 1 673 60 view .LVU432
 1536 0080 2849     		ldr	r1, .L152
 1537 0082 A1FB0343 		umull	r4, r3, r1, r3
 673:../Drivers/ISP/isp/Src/isp_services.c ****     contrast.LUM_32 = (uint8_t)((pConfig->coeff.LUM_32 * 16) / 100);
ARM GAS  /tmp/ccAu1Zkx.s 			page 43


 1538              		.loc 1 673 22 view .LVU433
 1539 0086 C3F34713 		ubfx	r3, r3, #5, #8
 673:../Drivers/ISP/isp/Src/isp_services.c ****     contrast.LUM_32 = (uint8_t)((pConfig->coeff.LUM_32 * 16) / 100);
 1540              		.loc 1 673 20 view .LVU434
 1541 008a 8DF80430 		strb	r3, [sp, #4]
 674:../Drivers/ISP/isp/Src/isp_services.c ****     contrast.LUM_64 = (uint8_t)((pConfig->coeff.LUM_64 * 16) / 100);
 1542              		.loc 1 674 5 is_stmt 1 view .LVU435
 674:../Drivers/ISP/isp/Src/isp_services.c ****     contrast.LUM_64 = (uint8_t)((pConfig->coeff.LUM_64 * 16) / 100);
 1543              		.loc 1 674 56 is_stmt 0 view .LVU436
 1544 008e 1301     		lsls	r3, r2, #4
 674:../Drivers/ISP/isp/Src/isp_services.c ****     contrast.LUM_64 = (uint8_t)((pConfig->coeff.LUM_64 * 16) / 100);
 1545              		.loc 1 674 62 view .LVU437
 1546 0090 A1FB0323 		umull	r2, r3, r1, r3
 674:../Drivers/ISP/isp/Src/isp_services.c ****     contrast.LUM_64 = (uint8_t)((pConfig->coeff.LUM_64 * 16) / 100);
 1547              		.loc 1 674 23 view .LVU438
 1548 0094 C3F34713 		ubfx	r3, r3, #5, #8
 674:../Drivers/ISP/isp/Src/isp_services.c ****     contrast.LUM_64 = (uint8_t)((pConfig->coeff.LUM_64 * 16) / 100);
 1549              		.loc 1 674 21 view .LVU439
 1550 0098 8DF80530 		strb	r3, [sp, #5]
 675:../Drivers/ISP/isp/Src/isp_services.c ****     contrast.LUM_96 = (uint8_t)((pConfig->coeff.LUM_96 * 16) / 100);
 1551              		.loc 1 675 5 is_stmt 1 view .LVU440
 675:../Drivers/ISP/isp/Src/isp_services.c ****     contrast.LUM_96 = (uint8_t)((pConfig->coeff.LUM_96 * 16) / 100);
 1552              		.loc 1 675 56 is_stmt 0 view .LVU441
 1553 009c 0301     		lsls	r3, r0, #4
 675:../Drivers/ISP/isp/Src/isp_services.c ****     contrast.LUM_96 = (uint8_t)((pConfig->coeff.LUM_96 * 16) / 100);
 1554              		.loc 1 675 62 view .LVU442
 1555 009e A1FB0323 		umull	r2, r3, r1, r3
 675:../Drivers/ISP/isp/Src/isp_services.c ****     contrast.LUM_96 = (uint8_t)((pConfig->coeff.LUM_96 * 16) / 100);
 1556              		.loc 1 675 23 view .LVU443
 1557 00a2 C3F34713 		ubfx	r3, r3, #5, #8
 675:../Drivers/ISP/isp/Src/isp_services.c ****     contrast.LUM_96 = (uint8_t)((pConfig->coeff.LUM_96 * 16) / 100);
 1558              		.loc 1 675 21 view .LVU444
 1559 00a6 8DF80630 		strb	r3, [sp, #6]
 676:../Drivers/ISP/isp/Src/isp_services.c ****     contrast.LUM_128 = (uint8_t)((pConfig->coeff.LUM_128 * 16) / 100);
 1560              		.loc 1 676 5 is_stmt 1 view .LVU445
 676:../Drivers/ISP/isp/Src/isp_services.c ****     contrast.LUM_128 = (uint8_t)((pConfig->coeff.LUM_128 * 16) / 100);
 1561              		.loc 1 676 56 is_stmt 0 view .LVU446
 1562 00aa 4FEA0C13 		lsl	r3, ip, #4
 676:../Drivers/ISP/isp/Src/isp_services.c ****     contrast.LUM_128 = (uint8_t)((pConfig->coeff.LUM_128 * 16) / 100);
 1563              		.loc 1 676 62 view .LVU447
 1564 00ae A1FB0323 		umull	r2, r3, r1, r3
 676:../Drivers/ISP/isp/Src/isp_services.c ****     contrast.LUM_128 = (uint8_t)((pConfig->coeff.LUM_128 * 16) / 100);
 1565              		.loc 1 676 23 view .LVU448
 1566 00b2 C3F34713 		ubfx	r3, r3, #5, #8
 676:../Drivers/ISP/isp/Src/isp_services.c ****     contrast.LUM_128 = (uint8_t)((pConfig->coeff.LUM_128 * 16) / 100);
 1567              		.loc 1 676 21 view .LVU449
 1568 00b6 8DF80730 		strb	r3, [sp, #7]
 677:../Drivers/ISP/isp/Src/isp_services.c ****     contrast.LUM_160 = (uint8_t)((pConfig->coeff.LUM_160 * 16) / 100);
 1569              		.loc 1 677 5 is_stmt 1 view .LVU450
 677:../Drivers/ISP/isp/Src/isp_services.c ****     contrast.LUM_160 = (uint8_t)((pConfig->coeff.LUM_160 * 16) / 100);
 1570              		.loc 1 677 58 is_stmt 0 view .LVU451
 1571 00ba 4FEA0E13 		lsl	r3, lr, #4
 677:../Drivers/ISP/isp/Src/isp_services.c ****     contrast.LUM_160 = (uint8_t)((pConfig->coeff.LUM_160 * 16) / 100);
 1572              		.loc 1 677 64 view .LVU452
 1573 00be A1FB0323 		umull	r2, r3, r1, r3
 677:../Drivers/ISP/isp/Src/isp_services.c ****     contrast.LUM_160 = (uint8_t)((pConfig->coeff.LUM_160 * 16) / 100);
 1574              		.loc 1 677 24 view .LVU453
ARM GAS  /tmp/ccAu1Zkx.s 			page 44


 1575 00c2 C3F34713 		ubfx	r3, r3, #5, #8
 677:../Drivers/ISP/isp/Src/isp_services.c ****     contrast.LUM_160 = (uint8_t)((pConfig->coeff.LUM_160 * 16) / 100);
 1576              		.loc 1 677 22 view .LVU454
 1577 00c6 8DF80830 		strb	r3, [sp, #8]
 678:../Drivers/ISP/isp/Src/isp_services.c ****     contrast.LUM_192 = (uint8_t)((pConfig->coeff.LUM_192 * 16) / 100);
 1578              		.loc 1 678 5 is_stmt 1 view .LVU455
 678:../Drivers/ISP/isp/Src/isp_services.c ****     contrast.LUM_192 = (uint8_t)((pConfig->coeff.LUM_192 * 16) / 100);
 1579              		.loc 1 678 58 is_stmt 0 view .LVU456
 1580 00ca 3301     		lsls	r3, r6, #4
 678:../Drivers/ISP/isp/Src/isp_services.c ****     contrast.LUM_192 = (uint8_t)((pConfig->coeff.LUM_192 * 16) / 100);
 1581              		.loc 1 678 64 view .LVU457
 1582 00cc A1FB0323 		umull	r2, r3, r1, r3
 678:../Drivers/ISP/isp/Src/isp_services.c ****     contrast.LUM_192 = (uint8_t)((pConfig->coeff.LUM_192 * 16) / 100);
 1583              		.loc 1 678 24 view .LVU458
 1584 00d0 C3F34713 		ubfx	r3, r3, #5, #8
 678:../Drivers/ISP/isp/Src/isp_services.c ****     contrast.LUM_192 = (uint8_t)((pConfig->coeff.LUM_192 * 16) / 100);
 1585              		.loc 1 678 22 view .LVU459
 1586 00d4 8DF80930 		strb	r3, [sp, #9]
 679:../Drivers/ISP/isp/Src/isp_services.c ****     contrast.LUM_224 = (uint8_t)((pConfig->coeff.LUM_224 * 16) / 100);
 1587              		.loc 1 679 5 is_stmt 1 view .LVU460
 679:../Drivers/ISP/isp/Src/isp_services.c ****     contrast.LUM_224 = (uint8_t)((pConfig->coeff.LUM_224 * 16) / 100);
 1588              		.loc 1 679 58 is_stmt 0 view .LVU461
 1589 00d8 3B01     		lsls	r3, r7, #4
 679:../Drivers/ISP/isp/Src/isp_services.c ****     contrast.LUM_224 = (uint8_t)((pConfig->coeff.LUM_224 * 16) / 100);
 1590              		.loc 1 679 64 view .LVU462
 1591 00da A1FB0323 		umull	r2, r3, r1, r3
 679:../Drivers/ISP/isp/Src/isp_services.c ****     contrast.LUM_224 = (uint8_t)((pConfig->coeff.LUM_224 * 16) / 100);
 1592              		.loc 1 679 24 view .LVU463
 1593 00de C3F34713 		ubfx	r3, r3, #5, #8
 679:../Drivers/ISP/isp/Src/isp_services.c ****     contrast.LUM_224 = (uint8_t)((pConfig->coeff.LUM_224 * 16) / 100);
 1594              		.loc 1 679 22 view .LVU464
 1595 00e2 8DF80A30 		strb	r3, [sp, #10]
 680:../Drivers/ISP/isp/Src/isp_services.c ****     contrast.LUM_256 = (uint8_t)((pConfig->coeff.LUM_256 * 16) / 100);
 1596              		.loc 1 680 5 is_stmt 1 view .LVU465
 680:../Drivers/ISP/isp/Src/isp_services.c ****     contrast.LUM_256 = (uint8_t)((pConfig->coeff.LUM_256 * 16) / 100);
 1597              		.loc 1 680 58 is_stmt 0 view .LVU466
 1598 00e6 4346     		mov	r3, r8
 1599 00e8 1B01     		lsls	r3, r3, #4
 680:../Drivers/ISP/isp/Src/isp_services.c ****     contrast.LUM_256 = (uint8_t)((pConfig->coeff.LUM_256 * 16) / 100);
 1600              		.loc 1 680 64 view .LVU467
 1601 00ea A1FB0323 		umull	r2, r3, r1, r3
 680:../Drivers/ISP/isp/Src/isp_services.c ****     contrast.LUM_256 = (uint8_t)((pConfig->coeff.LUM_256 * 16) / 100);
 1602              		.loc 1 680 24 view .LVU468
 1603 00ee C3F34713 		ubfx	r3, r3, #5, #8
 680:../Drivers/ISP/isp/Src/isp_services.c ****     contrast.LUM_256 = (uint8_t)((pConfig->coeff.LUM_256 * 16) / 100);
 1604              		.loc 1 680 22 view .LVU469
 1605 00f2 8DF80B30 		strb	r3, [sp, #11]
 681:../Drivers/ISP/isp/Src/isp_services.c ****     halStatus = HAL_DCMIPP_PIPE_SetISPCtrlContrastConfig(hIsp->hDcmipp, DCMIPP_PIPE1, &contrast);
 1606              		.loc 1 681 5 is_stmt 1 view .LVU470
 681:../Drivers/ISP/isp/Src/isp_services.c ****     halStatus = HAL_DCMIPP_PIPE_SetISPCtrlContrastConfig(hIsp->hDcmipp, DCMIPP_PIPE1, &contrast);
 1607              		.loc 1 681 58 is_stmt 0 view .LVU471
 1608 00f6 4B46     		mov	r3, r9
 1609 00f8 1B01     		lsls	r3, r3, #4
 681:../Drivers/ISP/isp/Src/isp_services.c ****     halStatus = HAL_DCMIPP_PIPE_SetISPCtrlContrastConfig(hIsp->hDcmipp, DCMIPP_PIPE1, &contrast);
 1610              		.loc 1 681 64 view .LVU472
 1611 00fa A1FB0313 		umull	r1, r3, r1, r3
 681:../Drivers/ISP/isp/Src/isp_services.c ****     halStatus = HAL_DCMIPP_PIPE_SetISPCtrlContrastConfig(hIsp->hDcmipp, DCMIPP_PIPE1, &contrast);
ARM GAS  /tmp/ccAu1Zkx.s 			page 45


 1612              		.loc 1 681 24 view .LVU473
 1613 00fe C3F34713 		ubfx	r3, r3, #5, #8
 681:../Drivers/ISP/isp/Src/isp_services.c ****     halStatus = HAL_DCMIPP_PIPE_SetISPCtrlContrastConfig(hIsp->hDcmipp, DCMIPP_PIPE1, &contrast);
 1614              		.loc 1 681 22 view .LVU474
 1615 0102 8DF80C30 		strb	r3, [sp, #12]
 682:../Drivers/ISP/isp/Src/isp_services.c **** 
 1616              		.loc 1 682 5 is_stmt 1 view .LVU475
 682:../Drivers/ISP/isp/Src/isp_services.c **** 
 1617              		.loc 1 682 17 is_stmt 0 view .LVU476
 1618 0106 01AA     		add	r2, sp, #4
 1619 0108 0121     		movs	r1, #1
 1620 010a 2868     		ldr	r0, [r5]
 1621 010c FFF7FEFF 		bl	HAL_DCMIPP_PIPE_SetISPCtrlContrastConfig
 1622              	.LVL131:
 684:../Drivers/ISP/isp/Src/isp_services.c ****     {
 1623              		.loc 1 684 5 is_stmt 1 view .LVU477
 684:../Drivers/ISP/isp/Src/isp_services.c ****     {
 1624              		.loc 1 684 8 is_stmt 0 view .LVU478
 1625 0110 20B9     		cbnz	r0, .L146
 686:../Drivers/ISP/isp/Src/isp_services.c ****     }
 1626              		.loc 1 686 7 is_stmt 1 view .LVU479
 686:../Drivers/ISP/isp/Src/isp_services.c ****     }
 1627              		.loc 1 686 19 is_stmt 0 view .LVU480
 1628 0112 0121     		movs	r1, #1
 1629 0114 2868     		ldr	r0, [r5]
 1630              	.LVL132:
 686:../Drivers/ISP/isp/Src/isp_services.c ****     }
 1631              		.loc 1 686 19 view .LVU481
 1632 0116 FFF7FEFF 		bl	HAL_DCMIPP_PIPE_EnableISPCtrlContrast
 1633              	.LVL133:
 1634 011a A9E7     		b	.L145
 1635              	.LVL134:
 1636              	.L146:
 692:../Drivers/ISP/isp/Src/isp_services.c ****   }
 1637              		.loc 1 692 12 view .LVU482
 1638 011c 2920     		movs	r0, #41
 1639              	.LVL135:
 692:../Drivers/ISP/isp/Src/isp_services.c ****   }
 1640              		.loc 1 692 12 view .LVU483
 1641 011e ABE7     		b	.L143
 1642              	.LVL136:
 1643              	.L149:
 1644              	.LCFI22:
 1645              		.cfi_def_cfa_offset 0
 1646              		.cfi_restore 4
 1647              		.cfi_restore 5
 1648              		.cfi_restore 6
 1649              		.cfi_restore 7
 1650              		.cfi_restore 8
 1651              		.cfi_restore 9
 1652              		.cfi_restore 14
 663:../Drivers/ISP/isp/Src/isp_services.c ****   }
 1653              		.loc 1 663 12 view .LVU484
 1654 0120 2820     		movs	r0, #40
 1655              	.LVL137:
 1656              		.loc 1 696 1 view .LVU485
 1657 0122 7047     		bx	lr
ARM GAS  /tmp/ccAu1Zkx.s 			page 46


 1658              	.L153:
 1659              		.align	2
 1660              	.L152:
 1661 0124 1F85EB51 		.word	1374389535
 1662              		.cfi_endproc
 1663              	.LFE900:
 1665              		.section	.text.ISP_SVC_ISP_SetStatArea,"ax",%progbits
 1666              		.align	1
 1667              		.global	ISP_SVC_ISP_SetStatArea
 1668              		.syntax unified
 1669              		.thumb
 1670              		.thumb_func
 1672              	ISP_SVC_ISP_SetStatArea:
 1673              	.LVL138:
 1674              	.LFB901:
 697:../Drivers/ISP/isp/Src/isp_services.c **** 
 698:../Drivers/ISP/isp/Src/isp_services.c **** /**
 699:../Drivers/ISP/isp/Src/isp_services.c ****   * @brief  ISP_SVC_ISP_SetStatArea
 700:../Drivers/ISP/isp/Src/isp_services.c ****   *         Set the ISP Statistic area
 701:../Drivers/ISP/isp/Src/isp_services.c ****   * @param  hIsp: ISP device handle
 702:../Drivers/ISP/isp/Src/isp_services.c ****   * @param  pConfig: Pointer to statistic area used by the IQ algorithms
 703:../Drivers/ISP/isp/Src/isp_services.c ****   * @retval operation result
 704:../Drivers/ISP/isp/Src/isp_services.c ****   */
 705:../Drivers/ISP/isp/Src/isp_services.c **** ISP_StatusTypeDef ISP_SVC_ISP_SetStatArea(ISP_HandleTypeDef *hIsp, ISP_StatAreaTypeDef *pConfig)
 706:../Drivers/ISP/isp/Src/isp_services.c **** {
 1675              		.loc 1 706 1 is_stmt 1 view -0
 1676              		.cfi_startproc
 1677              		@ args = 0, pretend = 0, frame = 16
 1678              		@ frame_needed = 0, uses_anonymous_args = 0
 707:../Drivers/ISP/isp/Src/isp_services.c ****   HAL_StatusTypeDef halStatus;
 1679              		.loc 1 707 3 view .LVU487
 708:../Drivers/ISP/isp/Src/isp_services.c ****   DCMIPP_StatisticExtractionAreaConfTypeDef currentStatAreaCfg;
 1680              		.loc 1 708 3 view .LVU488
 709:../Drivers/ISP/isp/Src/isp_services.c ****   ISP_StatusTypeDef ret = ISP_OK;
 1681              		.loc 1 709 3 view .LVU489
 710:../Drivers/ISP/isp/Src/isp_services.c **** 
 711:../Drivers/ISP/isp/Src/isp_services.c ****   if ((hIsp == NULL) || (pConfig == NULL) ||
 1682              		.loc 1 711 3 view .LVU490
 1683              		.loc 1 711 6 is_stmt 0 view .LVU491
 1684 0000 0028     		cmp	r0, #0
 1685 0002 4FD0     		beq	.L161
 706:../Drivers/ISP/isp/Src/isp_services.c ****   HAL_StatusTypeDef halStatus;
 1686              		.loc 1 706 1 view .LVU492
 1687 0004 70B5     		push	{r4, r5, r6, lr}
 1688              	.LCFI23:
 1689              		.cfi_def_cfa_offset 16
 1690              		.cfi_offset 4, -16
 1691              		.cfi_offset 5, -12
 1692              		.cfi_offset 6, -8
 1693              		.cfi_offset 14, -4
 1694 0006 84B0     		sub	sp, sp, #16
 1695              	.LCFI24:
 1696              		.cfi_def_cfa_offset 32
 1697 0008 0C46     		mov	r4, r1
 1698 000a 0546     		mov	r5, r0
 1699              		.loc 1 711 22 discriminator 1 view .LVU493
 1700 000c 0029     		cmp	r1, #0
ARM GAS  /tmp/ccAu1Zkx.s 			page 47


 1701 000e 41D0     		beq	.L155
 712:../Drivers/ISP/isp/Src/isp_services.c ****       (pConfig->X0 > ISP_STATWINDOW_MAX) ||
 1702              		.loc 1 712 15 view .LVU494
 1703 0010 0B68     		ldr	r3, [r1]
 711:../Drivers/ISP/isp/Src/isp_services.c ****       (pConfig->X0 > ISP_STATWINDOW_MAX) ||
 1704              		.loc 1 711 43 discriminator 2 view .LVU495
 1705 0012 40F6FE72 		movw	r2, #4094
 1706 0016 9342     		cmp	r3, r2
 1707 0018 3CD8     		bhi	.L155
 713:../Drivers/ISP/isp/Src/isp_services.c ****       (pConfig->Y0 > ISP_STATWINDOW_MAX) ||
 1708              		.loc 1 713 15 view .LVU496
 1709 001a 4968     		ldr	r1, [r1, #4]
 1710              	.LVL139:
 712:../Drivers/ISP/isp/Src/isp_services.c ****       (pConfig->X0 > ISP_STATWINDOW_MAX) ||
 1711              		.loc 1 712 42 discriminator 1 view .LVU497
 1712 001c 9142     		cmp	r1, r2
 1713 001e 39D8     		bhi	.L155
 714:../Drivers/ISP/isp/Src/isp_services.c ****       (pConfig->XSize > ISP_STATWINDOW_MAX) ||
 1714              		.loc 1 714 15 view .LVU498
 1715 0020 A268     		ldr	r2, [r4, #8]
 713:../Drivers/ISP/isp/Src/isp_services.c ****       (pConfig->Y0 > ISP_STATWINDOW_MAX) ||
 1716              		.loc 1 713 42 discriminator 1 view .LVU499
 1717 0022 40F6FE70 		movw	r0, #4094
 1718              	.LVL140:
 713:../Drivers/ISP/isp/Src/isp_services.c ****       (pConfig->Y0 > ISP_STATWINDOW_MAX) ||
 1719              		.loc 1 713 42 discriminator 1 view .LVU500
 1720 0026 8242     		cmp	r2, r0
 1721 0028 34D8     		bhi	.L155
 715:../Drivers/ISP/isp/Src/isp_services.c ****       (pConfig->YSize > ISP_STATWINDOW_MAX) ||
 1722              		.loc 1 715 15 view .LVU501
 1723 002a E068     		ldr	r0, [r4, #12]
 714:../Drivers/ISP/isp/Src/isp_services.c ****       (pConfig->XSize > ISP_STATWINDOW_MAX) ||
 1724              		.loc 1 714 45 discriminator 1 view .LVU502
 1725 002c 40F6FE7C 		movw	ip, #4094
 1726 0030 6045     		cmp	r0, ip
 1727 0032 2FD8     		bhi	.L155
 1728              		.loc 1 715 45 discriminator 1 view .LVU503
 1729 0034 032A     		cmp	r2, #3
 1730 0036 2DD9     		bls	.L155
 716:../Drivers/ISP/isp/Src/isp_services.c ****       (pConfig->XSize < ISP_STATWINDOW_MIN) ||
 1731              		.loc 1 716 45 discriminator 1 view .LVU504
 1732 0038 0328     		cmp	r0, #3
 1733 003a 2BD9     		bls	.L155
 717:../Drivers/ISP/isp/Src/isp_services.c ****       (pConfig->YSize < ISP_STATWINDOW_MIN) ||
 718:../Drivers/ISP/isp/Src/isp_services.c ****       (pConfig->X0 + pConfig->XSize > hIsp->sensorInfo.width) ||
 1734              		.loc 1 718 20 view .LVU505
 1735 003c 03EB020C 		add	ip, r3, r2
 1736              		.loc 1 718 55 view .LVU506
 1737 0040 6E6F     		ldr	r6, [r5, #116]
 717:../Drivers/ISP/isp/Src/isp_services.c ****       (pConfig->YSize < ISP_STATWINDOW_MIN) ||
 1738              		.loc 1 717 45 discriminator 1 view .LVU507
 1739 0042 B445     		cmp	ip, r6
 1740 0044 26D8     		bhi	.L155
 719:../Drivers/ISP/isp/Src/isp_services.c ****       (pConfig->Y0 + pConfig->YSize > hIsp->sensorInfo.height))
 1741              		.loc 1 719 20 view .LVU508
 1742 0046 0144     		add	r1, r1, r0
 1743              		.loc 1 719 55 view .LVU509
ARM GAS  /tmp/ccAu1Zkx.s 			page 48


 1744 0048 A86F     		ldr	r0, [r5, #120]
 718:../Drivers/ISP/isp/Src/isp_services.c ****       (pConfig->Y0 + pConfig->YSize > hIsp->sensorInfo.height))
 1745              		.loc 1 718 63 discriminator 1 view .LVU510
 1746 004a 8142     		cmp	r1, r0
 1747 004c 22D8     		bhi	.L155
 720:../Drivers/ISP/isp/Src/isp_services.c ****   {
 721:../Drivers/ISP/isp/Src/isp_services.c ****     return ISP_ERR_STATAREA_EINVAL;
 722:../Drivers/ISP/isp/Src/isp_services.c ****   }
 723:../Drivers/ISP/isp/Src/isp_services.c **** 
 724:../Drivers/ISP/isp/Src/isp_services.c ****   /* Set coordinates in the 'decimated' referential */
 725:../Drivers/ISP/isp/Src/isp_services.c ****   currentStatAreaCfg.HStart = pConfig->X0 / ISP_DecimationValue.factor;
 1748              		.loc 1 725 3 is_stmt 1 view .LVU511
 1749              		.loc 1 725 64 is_stmt 0 view .LVU512
 1750 004e 1749     		ldr	r1, .L164
 1751 0050 0978     		ldrb	r1, [r1]	@ zero_extendqisi2
 1752              		.loc 1 725 43 view .LVU513
 1753 0052 B3FBF1F3 		udiv	r3, r3, r1
 1754              		.loc 1 725 29 view .LVU514
 1755 0056 0193     		str	r3, [sp, #4]
 726:../Drivers/ISP/isp/Src/isp_services.c ****   currentStatAreaCfg.VStart = pConfig->Y0 / ISP_DecimationValue.factor;
 1756              		.loc 1 726 3 is_stmt 1 view .LVU515
 1757              		.loc 1 726 38 is_stmt 0 view .LVU516
 1758 0058 6368     		ldr	r3, [r4, #4]
 1759              		.loc 1 726 43 view .LVU517
 1760 005a B3FBF1F3 		udiv	r3, r3, r1
 1761              		.loc 1 726 29 view .LVU518
 1762 005e 0093     		str	r3, [sp]
 727:../Drivers/ISP/isp/Src/isp_services.c ****   currentStatAreaCfg.HSize = pConfig->XSize / ISP_DecimationValue.factor;
 1763              		.loc 1 727 3 is_stmt 1 view .LVU519
 1764              		.loc 1 727 45 is_stmt 0 view .LVU520
 1765 0060 B2FBF1F2 		udiv	r2, r2, r1
 1766              		.loc 1 727 28 view .LVU521
 1767 0064 0392     		str	r2, [sp, #12]
 728:../Drivers/ISP/isp/Src/isp_services.c ****   currentStatAreaCfg.VSize = pConfig->YSize / ISP_DecimationValue.factor;
 1768              		.loc 1 728 3 is_stmt 1 view .LVU522
 1769              		.loc 1 728 37 is_stmt 0 view .LVU523
 1770 0066 E368     		ldr	r3, [r4, #12]
 1771              		.loc 1 728 45 view .LVU524
 1772 0068 B3FBF1F3 		udiv	r3, r3, r1
 1773              		.loc 1 728 28 view .LVU525
 1774 006c 0293     		str	r3, [sp, #8]
 729:../Drivers/ISP/isp/Src/isp_services.c **** 
 730:../Drivers/ISP/isp/Src/isp_services.c ****   if (HAL_DCMIPP_PIPE_SetISPAreaStatisticExtractionConfig(hIsp->hDcmipp, DCMIPP_PIPE1,
 1775              		.loc 1 730 3 is_stmt 1 view .LVU526
 1776              		.loc 1 730 7 is_stmt 0 view .LVU527
 1777 006e 6A46     		mov	r2, sp
 1778 0070 0121     		movs	r1, #1
 1779 0072 2868     		ldr	r0, [r5]
 1780 0074 FFF7FEFF 		bl	HAL_DCMIPP_PIPE_SetISPAreaStatisticExtractionConfig
 1781              	.LVL141:
 1782              		.loc 1 730 6 discriminator 1 view .LVU528
 1783 0078 88B9     		cbnz	r0, .L159
 731:../Drivers/ISP/isp/Src/isp_services.c ****                                                           &currentStatAreaCfg) != HAL_OK)
 732:../Drivers/ISP/isp/Src/isp_services.c ****   {
 733:../Drivers/ISP/isp/Src/isp_services.c ****     return ISP_ERR_STATAREA_HAL;
 734:../Drivers/ISP/isp/Src/isp_services.c ****   }
 735:../Drivers/ISP/isp/Src/isp_services.c ****   else
ARM GAS  /tmp/ccAu1Zkx.s 			page 49


 736:../Drivers/ISP/isp/Src/isp_services.c ****   {
 737:../Drivers/ISP/isp/Src/isp_services.c ****     halStatus = HAL_DCMIPP_PIPE_EnableISPAreaStatisticExtraction(hIsp->hDcmipp, DCMIPP_PIPE1);
 1784              		.loc 1 737 5 is_stmt 1 view .LVU529
 1785              		.loc 1 737 17 is_stmt 0 view .LVU530
 1786 007a 0121     		movs	r1, #1
 1787 007c 2868     		ldr	r0, [r5]
 1788 007e FFF7FEFF 		bl	HAL_DCMIPP_PIPE_EnableISPAreaStatisticExtraction
 1789              	.LVL142:
 738:../Drivers/ISP/isp/Src/isp_services.c ****   }
 739:../Drivers/ISP/isp/Src/isp_services.c **** 
 740:../Drivers/ISP/isp/Src/isp_services.c ****   if (halStatus != HAL_OK)
 1790              		.loc 1 740 3 is_stmt 1 view .LVU531
 1791              		.loc 1 740 6 is_stmt 0 view .LVU532
 1792 0082 8446     		mov	ip, r0
 1793 0084 58B9     		cbnz	r0, .L159
 741:../Drivers/ISP/isp/Src/isp_services.c ****   {
 742:../Drivers/ISP/isp/Src/isp_services.c ****     return ISP_ERR_STATAREA_HAL;
 743:../Drivers/ISP/isp/Src/isp_services.c ****   }
 744:../Drivers/ISP/isp/Src/isp_services.c **** 
 745:../Drivers/ISP/isp/Src/isp_services.c ****   /* Update internal state */
 746:../Drivers/ISP/isp/Src/isp_services.c ****   hIsp->statArea = *pConfig;
 1794              		.loc 1 746 3 is_stmt 1 view .LVU533
 1795              		.loc 1 746 18 is_stmt 0 view .LVU534
 1796 0086 05F1080E 		add	lr, r5, #8
 1797 008a 94E80F00 		ldm	r4, {r0, r1, r2, r3}
 1798              	.LVL143:
 1799              		.loc 1 746 18 view .LVU535
 1800 008e 8EE80F00 		stm	lr, {r0, r1, r2, r3}
 747:../Drivers/ISP/isp/Src/isp_services.c **** 
 748:../Drivers/ISP/isp/Src/isp_services.c ****   return ret;
 1801              		.loc 1 748 3 is_stmt 1 view .LVU536
 1802              		.loc 1 748 10 is_stmt 0 view .LVU537
 1803 0092 01E0     		b	.L157
 1804              	.LVL144:
 1805              	.L155:
 721:../Drivers/ISP/isp/Src/isp_services.c ****   }
 1806              		.loc 1 721 12 view .LVU538
 1807 0094 4FF0320C 		mov	ip, #50
 1808              	.L157:
 749:../Drivers/ISP/isp/Src/isp_services.c **** }
 1809              		.loc 1 749 1 view .LVU539
 1810 0098 6046     		mov	r0, ip
 1811 009a 04B0     		add	sp, sp, #16
 1812              	.LCFI25:
 1813              		.cfi_remember_state
 1814              		.cfi_def_cfa_offset 16
 1815              		@ sp needed
 1816 009c 70BD     		pop	{r4, r5, r6, pc}
 1817              	.LVL145:
 1818              	.L159:
 1819              	.LCFI26:
 1820              		.cfi_restore_state
 733:../Drivers/ISP/isp/Src/isp_services.c ****   }
 1821              		.loc 1 733 12 view .LVU540
 1822 009e 4FF0330C 		mov	ip, #51
 1823 00a2 F9E7     		b	.L157
 1824              	.LVL146:
ARM GAS  /tmp/ccAu1Zkx.s 			page 50


 1825              	.L161:
 1826              	.LCFI27:
 1827              		.cfi_def_cfa_offset 0
 1828              		.cfi_restore 4
 1829              		.cfi_restore 5
 1830              		.cfi_restore 6
 1831              		.cfi_restore 14
 721:../Drivers/ISP/isp/Src/isp_services.c ****   }
 1832              		.loc 1 721 12 view .LVU541
 1833 00a4 4FF0320C 		mov	ip, #50
 1834              		.loc 1 749 1 view .LVU542
 1835 00a8 6046     		mov	r0, ip
 1836              	.LVL147:
 1837              		.loc 1 749 1 view .LVU543
 1838 00aa 7047     		bx	lr
 1839              	.L165:
 1840              		.align	2
 1841              	.L164:
 1842 00ac 00000000 		.word	ISP_DecimationValue
 1843              		.cfi_endproc
 1844              	.LFE901:
 1846              		.section	.text.ISP_SVC_ISP_GetStatArea,"ax",%progbits
 1847              		.align	1
 1848              		.global	ISP_SVC_ISP_GetStatArea
 1849              		.syntax unified
 1850              		.thumb
 1851              		.thumb_func
 1853              	ISP_SVC_ISP_GetStatArea:
 1854              	.LVL148:
 1855              	.LFB902:
 750:../Drivers/ISP/isp/Src/isp_services.c **** 
 751:../Drivers/ISP/isp/Src/isp_services.c **** /**
 752:../Drivers/ISP/isp/Src/isp_services.c ****   * @brief  ISP_SVC_ISP_GetStatArea
 753:../Drivers/ISP/isp/Src/isp_services.c ****   *         Get the ISP Statistic area
 754:../Drivers/ISP/isp/Src/isp_services.c ****   * @param  hIsp: ISP device handle
 755:../Drivers/ISP/isp/Src/isp_services.c ****   * @param  pConfig: Pointer to statistic area used by the IQ algorithms
 756:../Drivers/ISP/isp/Src/isp_services.c ****   * @retval operation result
 757:../Drivers/ISP/isp/Src/isp_services.c ****   */
 758:../Drivers/ISP/isp/Src/isp_services.c **** ISP_StatusTypeDef ISP_SVC_ISP_GetStatArea(ISP_HandleTypeDef *hIsp, ISP_StatAreaTypeDef *pConfig)
 759:../Drivers/ISP/isp/Src/isp_services.c **** {
 1856              		.loc 1 759 1 is_stmt 1 view -0
 1857              		.cfi_startproc
 1858              		@ args = 0, pretend = 0, frame = 16
 1859              		@ frame_needed = 0, uses_anonymous_args = 0
 760:../Drivers/ISP/isp/Src/isp_services.c ****   DCMIPP_StatisticExtractionAreaConfTypeDef currentStatAreaCfg;
 1860              		.loc 1 760 3 view .LVU545
 761:../Drivers/ISP/isp/Src/isp_services.c **** 
 762:../Drivers/ISP/isp/Src/isp_services.c ****   /* Check handles validity */
 763:../Drivers/ISP/isp/Src/isp_services.c ****   if ((hIsp == NULL) || (pConfig == NULL))
 1861              		.loc 1 763 3 view .LVU546
 1862              		.loc 1 763 6 is_stmt 0 view .LVU547
 1863 0000 50B3     		cbz	r0, .L173
 759:../Drivers/ISP/isp/Src/isp_services.c ****   DCMIPP_StatisticExtractionAreaConfTypeDef currentStatAreaCfg;
 1864              		.loc 1 759 1 view .LVU548
 1865 0002 30B5     		push	{r4, r5, lr}
 1866              	.LCFI28:
 1867              		.cfi_def_cfa_offset 12
ARM GAS  /tmp/ccAu1Zkx.s 			page 51


 1868              		.cfi_offset 4, -12
 1869              		.cfi_offset 5, -8
 1870              		.cfi_offset 14, -4
 1871 0004 85B0     		sub	sp, sp, #20
 1872              	.LCFI29:
 1873              		.cfi_def_cfa_offset 32
 1874 0006 0C46     		mov	r4, r1
 1875 0008 0546     		mov	r5, r0
 1876              		.loc 1 763 22 discriminator 1 view .LVU549
 1877 000a 59B1     		cbz	r1, .L176
 764:../Drivers/ISP/isp/Src/isp_services.c ****   {
 765:../Drivers/ISP/isp/Src/isp_services.c ****     return ISP_ERR_STATAREA_EINVAL;
 766:../Drivers/ISP/isp/Src/isp_services.c ****   }
 767:../Drivers/ISP/isp/Src/isp_services.c **** 
 768:../Drivers/ISP/isp/Src/isp_services.c ****   if (HAL_DCMIPP_PIPE_IsEnabledISPAreaStatisticExtraction(hIsp->hDcmipp, DCMIPP_PIPE1) == 0)
 1878              		.loc 1 768 3 is_stmt 1 view .LVU550
 1879              		.loc 1 768 7 is_stmt 0 view .LVU551
 1880 000c 0121     		movs	r1, #1
 1881              	.LVL149:
 1882              		.loc 1 768 7 view .LVU552
 1883 000e 0068     		ldr	r0, [r0]
 1884              	.LVL150:
 1885              		.loc 1 768 7 view .LVU553
 1886 0010 FFF7FEFF 		bl	HAL_DCMIPP_PIPE_IsEnabledISPAreaStatisticExtraction
 1887              	.LVL151:
 1888              		.loc 1 768 6 discriminator 1 view .LVU554
 1889 0014 40B9     		cbnz	r0, .L170
 769:../Drivers/ISP/isp/Src/isp_services.c ****   {
 770:../Drivers/ISP/isp/Src/isp_services.c ****     pConfig->X0 = 0;
 1890              		.loc 1 770 5 is_stmt 1 view .LVU555
 1891              		.loc 1 770 17 is_stmt 0 view .LVU556
 1892 0016 2060     		str	r0, [r4]
 771:../Drivers/ISP/isp/Src/isp_services.c ****     pConfig->Y0 = 0;
 1893              		.loc 1 771 5 is_stmt 1 view .LVU557
 1894              		.loc 1 771 17 is_stmt 0 view .LVU558
 1895 0018 6060     		str	r0, [r4, #4]
 772:../Drivers/ISP/isp/Src/isp_services.c ****     pConfig->XSize = 0;
 1896              		.loc 1 772 5 is_stmt 1 view .LVU559
 1897              		.loc 1 772 20 is_stmt 0 view .LVU560
 1898 001a A060     		str	r0, [r4, #8]
 773:../Drivers/ISP/isp/Src/isp_services.c ****     pConfig->YSize = 0;
 1899              		.loc 1 773 5 is_stmt 1 view .LVU561
 1900              		.loc 1 773 20 is_stmt 0 view .LVU562
 1901 001c E060     		str	r0, [r4, #12]
 1902              	.L171:
 774:../Drivers/ISP/isp/Src/isp_services.c ****   }
 775:../Drivers/ISP/isp/Src/isp_services.c ****   else
 776:../Drivers/ISP/isp/Src/isp_services.c ****   {
 777:../Drivers/ISP/isp/Src/isp_services.c ****     HAL_DCMIPP_PIPE_GetISPAreaStatisticExtractionConfig(hIsp->hDcmipp, DCMIPP_PIPE1,
 778:../Drivers/ISP/isp/Src/isp_services.c ****                                                         &currentStatAreaCfg);
 779:../Drivers/ISP/isp/Src/isp_services.c **** 
 780:../Drivers/ISP/isp/Src/isp_services.c ****     /* Consider decimation */
 781:../Drivers/ISP/isp/Src/isp_services.c ****     pConfig->X0 = currentStatAreaCfg.HStart * ISP_DecimationValue.factor;
 782:../Drivers/ISP/isp/Src/isp_services.c ****     pConfig->Y0 = currentStatAreaCfg.VStart * ISP_DecimationValue.factor;
 783:../Drivers/ISP/isp/Src/isp_services.c ****     pConfig->XSize = currentStatAreaCfg.HSize * ISP_DecimationValue.factor;
 784:../Drivers/ISP/isp/Src/isp_services.c ****     pConfig->YSize = currentStatAreaCfg.VSize * ISP_DecimationValue.factor;
 785:../Drivers/ISP/isp/Src/isp_services.c ****   }
ARM GAS  /tmp/ccAu1Zkx.s 			page 52


 786:../Drivers/ISP/isp/Src/isp_services.c **** 
 787:../Drivers/ISP/isp/Src/isp_services.c ****   return ISP_OK;
 1903              		.loc 1 787 10 view .LVU563
 1904 001e 0020     		movs	r0, #0
 1905              	.L169:
 788:../Drivers/ISP/isp/Src/isp_services.c **** }
 1906              		.loc 1 788 1 view .LVU564
 1907 0020 05B0     		add	sp, sp, #20
 1908              	.LCFI30:
 1909              		.cfi_remember_state
 1910              		.cfi_def_cfa_offset 12
 1911              		@ sp needed
 1912 0022 30BD     		pop	{r4, r5, pc}
 1913              	.LVL152:
 1914              	.L176:
 1915              	.LCFI31:
 1916              		.cfi_restore_state
 765:../Drivers/ISP/isp/Src/isp_services.c ****   }
 1917              		.loc 1 765 12 view .LVU565
 1918 0024 3220     		movs	r0, #50
 1919              	.LVL153:
 765:../Drivers/ISP/isp/Src/isp_services.c ****   }
 1920              		.loc 1 765 12 view .LVU566
 1921 0026 FBE7     		b	.L169
 1922              	.LVL154:
 1923              	.L170:
 777:../Drivers/ISP/isp/Src/isp_services.c ****                                                         &currentStatAreaCfg);
 1924              		.loc 1 777 5 is_stmt 1 view .LVU567
 1925 0028 6A46     		mov	r2, sp
 1926 002a 0121     		movs	r1, #1
 1927 002c 2868     		ldr	r0, [r5]
 1928 002e FFF7FEFF 		bl	HAL_DCMIPP_PIPE_GetISPAreaStatisticExtractionConfig
 1929              	.LVL155:
 781:../Drivers/ISP/isp/Src/isp_services.c ****     pConfig->Y0 = currentStatAreaCfg.VStart * ISP_DecimationValue.factor;
 1930              		.loc 1 781 5 view .LVU568
 781:../Drivers/ISP/isp/Src/isp_services.c ****     pConfig->Y0 = currentStatAreaCfg.VStart * ISP_DecimationValue.factor;
 1931              		.loc 1 781 66 is_stmt 0 view .LVU569
 1932 0032 0A4B     		ldr	r3, .L177
 1933 0034 1B78     		ldrb	r3, [r3]	@ zero_extendqisi2
 781:../Drivers/ISP/isp/Src/isp_services.c ****     pConfig->Y0 = currentStatAreaCfg.VStart * ISP_DecimationValue.factor;
 1934              		.loc 1 781 45 view .LVU570
 1935 0036 019A     		ldr	r2, [sp, #4]
 1936 0038 03FB02F2 		mul	r2, r3, r2
 781:../Drivers/ISP/isp/Src/isp_services.c ****     pConfig->Y0 = currentStatAreaCfg.VStart * ISP_DecimationValue.factor;
 1937              		.loc 1 781 17 view .LVU571
 1938 003c 2260     		str	r2, [r4]
 782:../Drivers/ISP/isp/Src/isp_services.c ****     pConfig->XSize = currentStatAreaCfg.HSize * ISP_DecimationValue.factor;
 1939              		.loc 1 782 5 is_stmt 1 view .LVU572
 782:../Drivers/ISP/isp/Src/isp_services.c ****     pConfig->XSize = currentStatAreaCfg.HSize * ISP_DecimationValue.factor;
 1940              		.loc 1 782 37 is_stmt 0 view .LVU573
 1941 003e 009A     		ldr	r2, [sp]
 782:../Drivers/ISP/isp/Src/isp_services.c ****     pConfig->XSize = currentStatAreaCfg.HSize * ISP_DecimationValue.factor;
 1942              		.loc 1 782 45 view .LVU574
 1943 0040 03FB02F2 		mul	r2, r3, r2
 782:../Drivers/ISP/isp/Src/isp_services.c ****     pConfig->XSize = currentStatAreaCfg.HSize * ISP_DecimationValue.factor;
 1944              		.loc 1 782 17 view .LVU575
 1945 0044 6260     		str	r2, [r4, #4]
ARM GAS  /tmp/ccAu1Zkx.s 			page 53


 783:../Drivers/ISP/isp/Src/isp_services.c ****     pConfig->YSize = currentStatAreaCfg.VSize * ISP_DecimationValue.factor;
 1946              		.loc 1 783 5 is_stmt 1 view .LVU576
 783:../Drivers/ISP/isp/Src/isp_services.c ****     pConfig->YSize = currentStatAreaCfg.VSize * ISP_DecimationValue.factor;
 1947              		.loc 1 783 40 is_stmt 0 view .LVU577
 1948 0046 039A     		ldr	r2, [sp, #12]
 783:../Drivers/ISP/isp/Src/isp_services.c ****     pConfig->YSize = currentStatAreaCfg.VSize * ISP_DecimationValue.factor;
 1949              		.loc 1 783 47 view .LVU578
 1950 0048 03FB02F2 		mul	r2, r3, r2
 783:../Drivers/ISP/isp/Src/isp_services.c ****     pConfig->YSize = currentStatAreaCfg.VSize * ISP_DecimationValue.factor;
 1951              		.loc 1 783 20 view .LVU579
 1952 004c A260     		str	r2, [r4, #8]
 784:../Drivers/ISP/isp/Src/isp_services.c ****   }
 1953              		.loc 1 784 5 is_stmt 1 view .LVU580
 784:../Drivers/ISP/isp/Src/isp_services.c ****   }
 1954              		.loc 1 784 40 is_stmt 0 view .LVU581
 1955 004e 029A     		ldr	r2, [sp, #8]
 784:../Drivers/ISP/isp/Src/isp_services.c ****   }
 1956              		.loc 1 784 47 view .LVU582
 1957 0050 02FB03F3 		mul	r3, r2, r3
 784:../Drivers/ISP/isp/Src/isp_services.c ****   }
 1958              		.loc 1 784 20 view .LVU583
 1959 0054 E360     		str	r3, [r4, #12]
 1960 0056 E2E7     		b	.L171
 1961              	.LVL156:
 1962              	.L173:
 1963              	.LCFI32:
 1964              		.cfi_def_cfa_offset 0
 1965              		.cfi_restore 4
 1966              		.cfi_restore 5
 1967              		.cfi_restore 14
 765:../Drivers/ISP/isp/Src/isp_services.c ****   }
 1968              		.loc 1 765 12 view .LVU584
 1969 0058 3220     		movs	r0, #50
 1970              	.LVL157:
 1971              		.loc 1 788 1 view .LVU585
 1972 005a 7047     		bx	lr
 1973              	.L178:
 1974              		.align	2
 1975              	.L177:
 1976 005c 00000000 		.word	ISP_DecimationValue
 1977              		.cfi_endproc
 1978              	.LFE902:
 1980              		.section	.text.ISP_SVC_ISP_SetBadPixel,"ax",%progbits
 1981              		.align	1
 1982              		.global	ISP_SVC_ISP_SetBadPixel
 1983              		.syntax unified
 1984              		.thumb
 1985              		.thumb_func
 1987              	ISP_SVC_ISP_SetBadPixel:
 1988              	.LVL158:
 1989              	.LFB903:
 789:../Drivers/ISP/isp/Src/isp_services.c **** 
 790:../Drivers/ISP/isp/Src/isp_services.c **** /**
 791:../Drivers/ISP/isp/Src/isp_services.c ****   * @brief  ISP_SVC_ISP_SetBadPixel
 792:../Drivers/ISP/isp/Src/isp_services.c ****   *         Set the ISP Bad pixel control configuration
 793:../Drivers/ISP/isp/Src/isp_services.c ****   * @param  hIsp: ISP device handle
 794:../Drivers/ISP/isp/Src/isp_services.c ****   * @param  pConfig: Pointer to the bad pixel configuration
ARM GAS  /tmp/ccAu1Zkx.s 			page 54


 795:../Drivers/ISP/isp/Src/isp_services.c ****   * @retval operation result
 796:../Drivers/ISP/isp/Src/isp_services.c ****   */
 797:../Drivers/ISP/isp/Src/isp_services.c **** ISP_StatusTypeDef ISP_SVC_ISP_SetBadPixel(ISP_HandleTypeDef *hIsp, ISP_BadPixelTypeDef *pConfig)
 798:../Drivers/ISP/isp/Src/isp_services.c **** {
 1990              		.loc 1 798 1 is_stmt 1 view -0
 1991              		.cfi_startproc
 1992              		@ args = 0, pretend = 0, frame = 0
 1993              		@ frame_needed = 0, uses_anonymous_args = 0
 799:../Drivers/ISP/isp/Src/isp_services.c ****   HAL_StatusTypeDef halStatus;
 1994              		.loc 1 799 3 view .LVU587
 800:../Drivers/ISP/isp/Src/isp_services.c **** 
 801:../Drivers/ISP/isp/Src/isp_services.c ****   if ((hIsp == NULL) || (pConfig == NULL) || (pConfig->strength > ISP_BADPIXEL_STRENGTH_MAX))
 1995              		.loc 1 801 3 view .LVU588
 1996              		.loc 1 801 6 is_stmt 0 view .LVU589
 1997 0000 E8B1     		cbz	r0, .L188
 798:../Drivers/ISP/isp/Src/isp_services.c ****   HAL_StatusTypeDef halStatus;
 1998              		.loc 1 798 1 view .LVU590
 1999 0002 10B5     		push	{r4, lr}
 2000              	.LCFI33:
 2001              		.cfi_def_cfa_offset 8
 2002              		.cfi_offset 4, -8
 2003              		.cfi_offset 14, -4
 2004 0004 0446     		mov	r4, r0
 2005              		.loc 1 801 22 discriminator 1 view .LVU591
 2006 0006 51B1     		cbz	r1, .L180
 2007              		.loc 1 801 54 discriminator 2 view .LVU592
 2008 0008 4A78     		ldrb	r2, [r1, #1]	@ zero_extendqisi2
 2009              		.loc 1 801 43 discriminator 2 view .LVU593
 2010 000a 072A     		cmp	r2, #7
 2011 000c 07D8     		bhi	.L180
 802:../Drivers/ISP/isp/Src/isp_services.c ****   {
 803:../Drivers/ISP/isp/Src/isp_services.c ****     return ISP_ERR_BADPIXEL_EINVAL;
 804:../Drivers/ISP/isp/Src/isp_services.c ****   }
 805:../Drivers/ISP/isp/Src/isp_services.c **** 
 806:../Drivers/ISP/isp/Src/isp_services.c ****   if (pConfig->enable == 0)
 2012              		.loc 1 806 3 is_stmt 1 view .LVU594
 2013              		.loc 1 806 14 is_stmt 0 view .LVU595
 2014 000e 0B78     		ldrb	r3, [r1]	@ zero_extendqisi2
 2015              		.loc 1 806 6 view .LVU596
 2016 0010 3BB9     		cbnz	r3, .L183
 807:../Drivers/ISP/isp/Src/isp_services.c ****   {
 808:../Drivers/ISP/isp/Src/isp_services.c ****     halStatus = HAL_DCMIPP_PIPE_DisableISPBadPixelRemoval(hIsp->hDcmipp, DCMIPP_PIPE1);
 2017              		.loc 1 808 5 is_stmt 1 view .LVU597
 2018              		.loc 1 808 17 is_stmt 0 view .LVU598
 2019 0012 0121     		movs	r1, #1
 2020              	.LVL159:
 2021              		.loc 1 808 17 view .LVU599
 2022 0014 0068     		ldr	r0, [r0]
 2023              	.LVL160:
 2024              		.loc 1 808 17 view .LVU600
 2025 0016 FFF7FEFF 		bl	HAL_DCMIPP_PIPE_DisableISPBadPixelRemoval
 2026              	.LVL161:
 2027              	.L184:
 809:../Drivers/ISP/isp/Src/isp_services.c ****   }
 810:../Drivers/ISP/isp/Src/isp_services.c ****   else
 811:../Drivers/ISP/isp/Src/isp_services.c ****   {
 812:../Drivers/ISP/isp/Src/isp_services.c ****     halStatus = HAL_DCMIPP_PIPE_SetISPBadPixelRemovalConfig(hIsp->hDcmipp, DCMIPP_PIPE1, pConfig->s
ARM GAS  /tmp/ccAu1Zkx.s 			page 55


 813:../Drivers/ISP/isp/Src/isp_services.c **** 
 814:../Drivers/ISP/isp/Src/isp_services.c ****     if (halStatus != HAL_OK)
 815:../Drivers/ISP/isp/Src/isp_services.c ****     {
 816:../Drivers/ISP/isp/Src/isp_services.c ****       return ISP_ERR_BADPIXEL_HAL;
 817:../Drivers/ISP/isp/Src/isp_services.c ****     }
 818:../Drivers/ISP/isp/Src/isp_services.c **** 
 819:../Drivers/ISP/isp/Src/isp_services.c ****     halStatus = HAL_DCMIPP_PIPE_EnableISPBadPixelRemoval(hIsp->hDcmipp, DCMIPP_PIPE1);
 820:../Drivers/ISP/isp/Src/isp_services.c ****   }
 821:../Drivers/ISP/isp/Src/isp_services.c **** 
 822:../Drivers/ISP/isp/Src/isp_services.c ****   if (halStatus != HAL_OK)
 2028              		.loc 1 822 3 is_stmt 1 view .LVU601
 2029              		.loc 1 822 6 is_stmt 0 view .LVU602
 2030 001a 70B9     		cbnz	r0, .L191
 2031              	.LVL162:
 2032              	.L182:
 823:../Drivers/ISP/isp/Src/isp_services.c ****   {
 824:../Drivers/ISP/isp/Src/isp_services.c ****     return ISP_ERR_BADPIXEL_HAL;
 825:../Drivers/ISP/isp/Src/isp_services.c ****   }
 826:../Drivers/ISP/isp/Src/isp_services.c **** 
 827:../Drivers/ISP/isp/Src/isp_services.c ****   return ISP_OK;
 828:../Drivers/ISP/isp/Src/isp_services.c **** }
 2033              		.loc 1 828 1 view .LVU603
 2034 001c 10BD     		pop	{r4, pc}
 2035              	.LVL163:
 2036              	.L180:
 803:../Drivers/ISP/isp/Src/isp_services.c ****   }
 2037              		.loc 1 803 12 view .LVU604
 2038 001e 3C20     		movs	r0, #60
 2039              	.LVL164:
 803:../Drivers/ISP/isp/Src/isp_services.c ****   }
 2040              		.loc 1 803 12 view .LVU605
 2041 0020 FCE7     		b	.L182
 2042              	.LVL165:
 2043              	.L183:
 812:../Drivers/ISP/isp/Src/isp_services.c **** 
 2044              		.loc 1 812 5 is_stmt 1 view .LVU606
 812:../Drivers/ISP/isp/Src/isp_services.c **** 
 2045              		.loc 1 812 17 is_stmt 0 view .LVU607
 2046 0022 0121     		movs	r1, #1
 2047              	.LVL166:
 812:../Drivers/ISP/isp/Src/isp_services.c **** 
 2048              		.loc 1 812 17 view .LVU608
 2049 0024 0068     		ldr	r0, [r0]
 2050              	.LVL167:
 812:../Drivers/ISP/isp/Src/isp_services.c **** 
 2051              		.loc 1 812 17 view .LVU609
 2052 0026 FFF7FEFF 		bl	HAL_DCMIPP_PIPE_SetISPBadPixelRemovalConfig
 2053              	.LVL168:
 814:../Drivers/ISP/isp/Src/isp_services.c ****     {
 2054              		.loc 1 814 5 is_stmt 1 view .LVU610
 814:../Drivers/ISP/isp/Src/isp_services.c ****     {
 2055              		.loc 1 814 8 is_stmt 0 view .LVU611
 2056 002a 20B9     		cbnz	r0, .L185
 819:../Drivers/ISP/isp/Src/isp_services.c ****   }
 2057              		.loc 1 819 5 is_stmt 1 view .LVU612
 819:../Drivers/ISP/isp/Src/isp_services.c ****   }
 2058              		.loc 1 819 17 is_stmt 0 view .LVU613
ARM GAS  /tmp/ccAu1Zkx.s 			page 56


 2059 002c 0121     		movs	r1, #1
 2060 002e 2068     		ldr	r0, [r4]
 2061              	.LVL169:
 819:../Drivers/ISP/isp/Src/isp_services.c ****   }
 2062              		.loc 1 819 17 view .LVU614
 2063 0030 FFF7FEFF 		bl	HAL_DCMIPP_PIPE_EnableISPBadPixelRemoval
 2064              	.LVL170:
 2065 0034 F1E7     		b	.L184
 2066              	.LVL171:
 2067              	.L185:
 816:../Drivers/ISP/isp/Src/isp_services.c ****     }
 2068              		.loc 1 816 14 view .LVU615
 2069 0036 3D20     		movs	r0, #61
 2070              	.LVL172:
 816:../Drivers/ISP/isp/Src/isp_services.c ****     }
 2071              		.loc 1 816 14 view .LVU616
 2072 0038 F0E7     		b	.L182
 2073              	.LVL173:
 2074              	.L191:
 824:../Drivers/ISP/isp/Src/isp_services.c ****   }
 2075              		.loc 1 824 12 view .LVU617
 2076 003a 3D20     		movs	r0, #61
 2077              	.LVL174:
 824:../Drivers/ISP/isp/Src/isp_services.c ****   }
 2078              		.loc 1 824 12 view .LVU618
 2079 003c EEE7     		b	.L182
 2080              	.LVL175:
 2081              	.L188:
 2082              	.LCFI34:
 2083              		.cfi_def_cfa_offset 0
 2084              		.cfi_restore 4
 2085              		.cfi_restore 14
 803:../Drivers/ISP/isp/Src/isp_services.c ****   }
 2086              		.loc 1 803 12 view .LVU619
 2087 003e 3C20     		movs	r0, #60
 2088              	.LVL176:
 2089              		.loc 1 828 1 view .LVU620
 2090 0040 7047     		bx	lr
 2091              		.cfi_endproc
 2092              	.LFE903:
 2094              		.section	.text.ISP_SVC_ISP_GetBadPixel,"ax",%progbits
 2095              		.align	1
 2096              		.global	ISP_SVC_ISP_GetBadPixel
 2097              		.syntax unified
 2098              		.thumb
 2099              		.thumb_func
 2101              	ISP_SVC_ISP_GetBadPixel:
 2102              	.LVL177:
 2103              	.LFB904:
 829:../Drivers/ISP/isp/Src/isp_services.c **** 
 830:../Drivers/ISP/isp/Src/isp_services.c **** /**
 831:../Drivers/ISP/isp/Src/isp_services.c ****   * @brief  ISP_SVC_ISP_GetBadPixel
 832:../Drivers/ISP/isp/Src/isp_services.c ****   *         Get the ISP Bad pixel control configuration
 833:../Drivers/ISP/isp/Src/isp_services.c ****   * @param  hIsp: ISP device handle
 834:../Drivers/ISP/isp/Src/isp_services.c ****   * @param  pConfig: Pointer to the bad pixel configuration
 835:../Drivers/ISP/isp/Src/isp_services.c ****   * @retval operation result
 836:../Drivers/ISP/isp/Src/isp_services.c ****   */
ARM GAS  /tmp/ccAu1Zkx.s 			page 57


 837:../Drivers/ISP/isp/Src/isp_services.c **** ISP_StatusTypeDef ISP_SVC_ISP_GetBadPixel(ISP_HandleTypeDef *hIsp, ISP_BadPixelTypeDef *pConfig)
 838:../Drivers/ISP/isp/Src/isp_services.c **** {
 2104              		.loc 1 838 1 is_stmt 1 view -0
 2105              		.cfi_startproc
 2106              		@ args = 0, pretend = 0, frame = 0
 2107              		@ frame_needed = 0, uses_anonymous_args = 0
 839:../Drivers/ISP/isp/Src/isp_services.c ****   HAL_StatusTypeDef halStatus;
 2108              		.loc 1 839 3 view .LVU622
 840:../Drivers/ISP/isp/Src/isp_services.c **** 
 841:../Drivers/ISP/isp/Src/isp_services.c ****   /* Check handle validity */
 842:../Drivers/ISP/isp/Src/isp_services.c ****   if ((hIsp == NULL) || (pConfig == NULL))
 2109              		.loc 1 842 3 view .LVU623
 2110              		.loc 1 842 6 is_stmt 0 view .LVU624
 2111 0000 C0B1     		cbz	r0, .L198
 838:../Drivers/ISP/isp/Src/isp_services.c ****   HAL_StatusTypeDef halStatus;
 2112              		.loc 1 838 1 view .LVU625
 2113 0002 38B5     		push	{r3, r4, r5, lr}
 2114              	.LCFI35:
 2115              		.cfi_def_cfa_offset 16
 2116              		.cfi_offset 3, -16
 2117              		.cfi_offset 4, -12
 2118              		.cfi_offset 5, -8
 2119              		.cfi_offset 14, -4
 2120 0004 0C46     		mov	r4, r1
 2121 0006 0546     		mov	r5, r0
 2122              		.loc 1 842 22 discriminator 1 view .LVU626
 2123 0008 81B1     		cbz	r1, .L201
 843:../Drivers/ISP/isp/Src/isp_services.c ****   {
 844:../Drivers/ISP/isp/Src/isp_services.c ****     return ISP_ERR_BADPIXEL_EINVAL;
 845:../Drivers/ISP/isp/Src/isp_services.c ****   }
 846:../Drivers/ISP/isp/Src/isp_services.c **** 
 847:../Drivers/ISP/isp/Src/isp_services.c ****   pConfig->enable = (uint8_t) HAL_DCMIPP_PIPE_IsEnabledISPBadPixelRemoval(hIsp->hDcmipp, DCMIPP_PIP
 2124              		.loc 1 847 3 is_stmt 1 view .LVU627
 2125              		.loc 1 847 31 is_stmt 0 view .LVU628
 2126 000a 0121     		movs	r1, #1
 2127              	.LVL178:
 2128              		.loc 1 847 31 view .LVU629
 2129 000c 0068     		ldr	r0, [r0]
 2130              	.LVL179:
 2131              		.loc 1 847 31 view .LVU630
 2132 000e FFF7FEFF 		bl	HAL_DCMIPP_PIPE_IsEnabledISPBadPixelRemoval
 2133              	.LVL180:
 2134              		.loc 1 847 19 discriminator 1 view .LVU631
 2135 0012 2070     		strb	r0, [r4]
 848:../Drivers/ISP/isp/Src/isp_services.c ****   pConfig->strength = (uint8_t) HAL_DCMIPP_PIPE_GetISPBadPixelRemovalConfig(hIsp->hDcmipp, DCMIPP_P
 2136              		.loc 1 848 3 is_stmt 1 view .LVU632
 2137              		.loc 1 848 33 is_stmt 0 view .LVU633
 2138 0014 0121     		movs	r1, #1
 2139 0016 2868     		ldr	r0, [r5]
 2140 0018 FFF7FEFF 		bl	HAL_DCMIPP_PIPE_GetISPBadPixelRemovalConfig
 2141              	.LVL181:
 2142              		.loc 1 848 21 discriminator 1 view .LVU634
 2143 001c 6070     		strb	r0, [r4, #1]
 849:../Drivers/ISP/isp/Src/isp_services.c **** 
 850:../Drivers/ISP/isp/Src/isp_services.c ****   halStatus = HAL_DCMIPP_PIPE_GetISPRemovedBadPixelCounter(hIsp->hDcmipp, DCMIPP_PIPE1, &pConfig->c
 2144              		.loc 1 850 3 is_stmt 1 view .LVU635
 2145              		.loc 1 850 15 is_stmt 0 view .LVU636
ARM GAS  /tmp/ccAu1Zkx.s 			page 58


 2146 001e 221D     		adds	r2, r4, #4
 2147 0020 0121     		movs	r1, #1
 2148 0022 2868     		ldr	r0, [r5]
 2149 0024 FFF7FEFF 		bl	HAL_DCMIPP_PIPE_GetISPRemovedBadPixelCounter
 2150              	.LVL182:
 851:../Drivers/ISP/isp/Src/isp_services.c **** 
 852:../Drivers/ISP/isp/Src/isp_services.c ****   if (halStatus != HAL_OK)
 2151              		.loc 1 852 3 is_stmt 1 view .LVU637
 2152              		.loc 1 852 6 is_stmt 0 view .LVU638
 2153 0028 10B9     		cbnz	r0, .L202
 2154              	.LVL183:
 2155              	.L195:
 853:../Drivers/ISP/isp/Src/isp_services.c ****   {
 854:../Drivers/ISP/isp/Src/isp_services.c ****     return ISP_ERR_BADPIXEL_HAL;
 855:../Drivers/ISP/isp/Src/isp_services.c ****   }
 856:../Drivers/ISP/isp/Src/isp_services.c **** 
 857:../Drivers/ISP/isp/Src/isp_services.c ****   return ISP_OK;
 858:../Drivers/ISP/isp/Src/isp_services.c **** }
 2156              		.loc 1 858 1 view .LVU639
 2157 002a 38BD     		pop	{r3, r4, r5, pc}
 2158              	.LVL184:
 2159              	.L201:
 844:../Drivers/ISP/isp/Src/isp_services.c ****   }
 2160              		.loc 1 844 12 view .LVU640
 2161 002c 3C20     		movs	r0, #60
 2162              	.LVL185:
 844:../Drivers/ISP/isp/Src/isp_services.c ****   }
 2163              		.loc 1 844 12 view .LVU641
 2164 002e FCE7     		b	.L195
 2165              	.LVL186:
 2166              	.L202:
 854:../Drivers/ISP/isp/Src/isp_services.c ****   }
 2167              		.loc 1 854 12 view .LVU642
 2168 0030 3D20     		movs	r0, #61
 2169              	.LVL187:
 854:../Drivers/ISP/isp/Src/isp_services.c ****   }
 2170              		.loc 1 854 12 view .LVU643
 2171 0032 FAE7     		b	.L195
 2172              	.LVL188:
 2173              	.L198:
 2174              	.LCFI36:
 2175              		.cfi_def_cfa_offset 0
 2176              		.cfi_restore 3
 2177              		.cfi_restore 4
 2178              		.cfi_restore 5
 2179              		.cfi_restore 14
 844:../Drivers/ISP/isp/Src/isp_services.c ****   }
 2180              		.loc 1 844 12 view .LVU644
 2181 0034 3C20     		movs	r0, #60
 2182              	.LVL189:
 2183              		.loc 1 858 1 view .LVU645
 2184 0036 7047     		bx	lr
 2185              		.cfi_endproc
 2186              	.LFE904:
 2188              		.section	.text.ISP_SVC_ISP_SetBlackLevel,"ax",%progbits
 2189              		.align	1
 2190              		.global	ISP_SVC_ISP_SetBlackLevel
ARM GAS  /tmp/ccAu1Zkx.s 			page 59


 2191              		.syntax unified
 2192              		.thumb
 2193              		.thumb_func
 2195              	ISP_SVC_ISP_SetBlackLevel:
 2196              	.LVL190:
 2197              	.LFB905:
 859:../Drivers/ISP/isp/Src/isp_services.c **** 
 860:../Drivers/ISP/isp/Src/isp_services.c **** /**
 861:../Drivers/ISP/isp/Src/isp_services.c ****   * @brief  ISP_SVC_ISP_SetBlackLevel
 862:../Drivers/ISP/isp/Src/isp_services.c ****   *         Set the ISP Black Level calibration
 863:../Drivers/ISP/isp/Src/isp_services.c ****   * @param  hIsp: ISP device handle
 864:../Drivers/ISP/isp/Src/isp_services.c ****   * @param  pConfig: Pointer to the black level configuration
 865:../Drivers/ISP/isp/Src/isp_services.c ****   * @retval operation result
 866:../Drivers/ISP/isp/Src/isp_services.c ****   */
 867:../Drivers/ISP/isp/Src/isp_services.c **** ISP_StatusTypeDef ISP_SVC_ISP_SetBlackLevel(ISP_HandleTypeDef *hIsp, ISP_BlackLevelTypeDef *pConfig
 868:../Drivers/ISP/isp/Src/isp_services.c **** {
 2198              		.loc 1 868 1 is_stmt 1 view -0
 2199              		.cfi_startproc
 2200              		@ args = 0, pretend = 0, frame = 8
 2201              		@ frame_needed = 0, uses_anonymous_args = 0
 869:../Drivers/ISP/isp/Src/isp_services.c ****   HAL_StatusTypeDef halStatus;
 2202              		.loc 1 869 3 view .LVU647
 870:../Drivers/ISP/isp/Src/isp_services.c ****   DCMIPP_BlackLevelConfTypeDef blackLevelConfig;
 2203              		.loc 1 870 3 view .LVU648
 871:../Drivers/ISP/isp/Src/isp_services.c **** 
 872:../Drivers/ISP/isp/Src/isp_services.c ****   /* Check handle validity */
 873:../Drivers/ISP/isp/Src/isp_services.c ****   if ((hIsp == NULL) || (pConfig == NULL))
 2204              		.loc 1 873 3 view .LVU649
 2205              		.loc 1 873 6 is_stmt 0 view .LVU650
 2206 0000 30B3     		cbz	r0, .L212
 868:../Drivers/ISP/isp/Src/isp_services.c ****   HAL_StatusTypeDef halStatus;
 2207              		.loc 1 868 1 view .LVU651
 2208 0002 10B5     		push	{r4, lr}
 2209              	.LCFI37:
 2210              		.cfi_def_cfa_offset 8
 2211              		.cfi_offset 4, -8
 2212              		.cfi_offset 14, -4
 2213 0004 82B0     		sub	sp, sp, #8
 2214              	.LCFI38:
 2215              		.cfi_def_cfa_offset 16
 2216 0006 0446     		mov	r4, r0
 2217              		.loc 1 873 22 discriminator 1 view .LVU652
 2218 0008 41B1     		cbz	r1, .L215
 874:../Drivers/ISP/isp/Src/isp_services.c ****   {
 875:../Drivers/ISP/isp/Src/isp_services.c ****     return ISP_ERR_BLACKLEVEL_EINVAL;
 876:../Drivers/ISP/isp/Src/isp_services.c ****   }
 877:../Drivers/ISP/isp/Src/isp_services.c **** 
 878:../Drivers/ISP/isp/Src/isp_services.c ****   if (pConfig->enable == 0)
 2219              		.loc 1 878 3 is_stmt 1 view .LVU653
 2220              		.loc 1 878 14 is_stmt 0 view .LVU654
 2221 000a 0B78     		ldrb	r3, [r1]	@ zero_extendqisi2
 2222              		.loc 1 878 6 view .LVU655
 2223 000c 43B9     		cbnz	r3, .L207
 879:../Drivers/ISP/isp/Src/isp_services.c ****   {
 880:../Drivers/ISP/isp/Src/isp_services.c ****     halStatus = HAL_DCMIPP_PIPE_DisableISPBlackLevelCalibration(hIsp->hDcmipp, DCMIPP_PIPE1);
 2224              		.loc 1 880 5 is_stmt 1 view .LVU656
 2225              		.loc 1 880 17 is_stmt 0 view .LVU657
ARM GAS  /tmp/ccAu1Zkx.s 			page 60


 2226 000e 0121     		movs	r1, #1
 2227              	.LVL191:
 2228              		.loc 1 880 17 view .LVU658
 2229 0010 0068     		ldr	r0, [r0]
 2230              	.LVL192:
 2231              		.loc 1 880 17 view .LVU659
 2232 0012 FFF7FEFF 		bl	HAL_DCMIPP_PIPE_DisableISPBlackLevelCalibration
 2233              	.LVL193:
 2234              	.L208:
 881:../Drivers/ISP/isp/Src/isp_services.c ****   }
 882:../Drivers/ISP/isp/Src/isp_services.c ****   else
 883:../Drivers/ISP/isp/Src/isp_services.c ****   {
 884:../Drivers/ISP/isp/Src/isp_services.c ****     blackLevelConfig.RedCompBlackLevel = pConfig->BLCR;
 885:../Drivers/ISP/isp/Src/isp_services.c ****     blackLevelConfig.GreenCompBlackLevel = pConfig->BLCG;
 886:../Drivers/ISP/isp/Src/isp_services.c ****     blackLevelConfig.BlueCompBlackLevel = pConfig->BLCB;
 887:../Drivers/ISP/isp/Src/isp_services.c ****     halStatus = HAL_DCMIPP_PIPE_SetISPBlackLevelCalibrationConfig(hIsp->hDcmipp, DCMIPP_PIPE1, &bla
 888:../Drivers/ISP/isp/Src/isp_services.c **** 
 889:../Drivers/ISP/isp/Src/isp_services.c ****     if (halStatus == HAL_OK)
 890:../Drivers/ISP/isp/Src/isp_services.c ****     {
 891:../Drivers/ISP/isp/Src/isp_services.c ****       halStatus = HAL_DCMIPP_PIPE_EnableISPBlackLevelCalibration(hIsp->hDcmipp, DCMIPP_PIPE1);
 892:../Drivers/ISP/isp/Src/isp_services.c ****     }
 893:../Drivers/ISP/isp/Src/isp_services.c ****   }
 894:../Drivers/ISP/isp/Src/isp_services.c **** 
 895:../Drivers/ISP/isp/Src/isp_services.c ****   if (halStatus != HAL_OK)
 2235              		.loc 1 895 3 is_stmt 1 view .LVU660
 2236              		.loc 1 895 6 is_stmt 0 view .LVU661
 2237 0016 C8B9     		cbnz	r0, .L216
 2238              	.LVL194:
 2239              	.L206:
 896:../Drivers/ISP/isp/Src/isp_services.c ****   {
 897:../Drivers/ISP/isp/Src/isp_services.c ****     return ISP_ERR_BLACKLEVEL_HAL;
 898:../Drivers/ISP/isp/Src/isp_services.c ****   }
 899:../Drivers/ISP/isp/Src/isp_services.c **** 
 900:../Drivers/ISP/isp/Src/isp_services.c ****   return ISP_OK;
 901:../Drivers/ISP/isp/Src/isp_services.c **** }
 2240              		.loc 1 901 1 view .LVU662
 2241 0018 02B0     		add	sp, sp, #8
 2242              	.LCFI39:
 2243              		.cfi_remember_state
 2244              		.cfi_def_cfa_offset 8
 2245              		@ sp needed
 2246 001a 10BD     		pop	{r4, pc}
 2247              	.LVL195:
 2248              	.L215:
 2249              	.LCFI40:
 2250              		.cfi_restore_state
 875:../Drivers/ISP/isp/Src/isp_services.c ****   }
 2251              		.loc 1 875 12 view .LVU663
 2252 001c 4620     		movs	r0, #70
 2253              	.LVL196:
 875:../Drivers/ISP/isp/Src/isp_services.c ****   }
 2254              		.loc 1 875 12 view .LVU664
 2255 001e FBE7     		b	.L206
 2256              	.LVL197:
 2257              	.L207:
 884:../Drivers/ISP/isp/Src/isp_services.c ****     blackLevelConfig.GreenCompBlackLevel = pConfig->BLCG;
 2258              		.loc 1 884 5 is_stmt 1 view .LVU665
ARM GAS  /tmp/ccAu1Zkx.s 			page 61


 884:../Drivers/ISP/isp/Src/isp_services.c ****     blackLevelConfig.GreenCompBlackLevel = pConfig->BLCG;
 2259              		.loc 1 884 49 is_stmt 0 view .LVU666
 2260 0020 4B78     		ldrb	r3, [r1, #1]	@ zero_extendqisi2
 884:../Drivers/ISP/isp/Src/isp_services.c ****     blackLevelConfig.GreenCompBlackLevel = pConfig->BLCG;
 2261              		.loc 1 884 40 view .LVU667
 2262 0022 8DF80430 		strb	r3, [sp, #4]
 885:../Drivers/ISP/isp/Src/isp_services.c ****     blackLevelConfig.BlueCompBlackLevel = pConfig->BLCB;
 2263              		.loc 1 885 5 is_stmt 1 view .LVU668
 885:../Drivers/ISP/isp/Src/isp_services.c ****     blackLevelConfig.BlueCompBlackLevel = pConfig->BLCB;
 2264              		.loc 1 885 51 is_stmt 0 view .LVU669
 2265 0026 8B78     		ldrb	r3, [r1, #2]	@ zero_extendqisi2
 885:../Drivers/ISP/isp/Src/isp_services.c ****     blackLevelConfig.BlueCompBlackLevel = pConfig->BLCB;
 2266              		.loc 1 885 42 view .LVU670
 2267 0028 8DF80530 		strb	r3, [sp, #5]
 886:../Drivers/ISP/isp/Src/isp_services.c ****     halStatus = HAL_DCMIPP_PIPE_SetISPBlackLevelCalibrationConfig(hIsp->hDcmipp, DCMIPP_PIPE1, &bla
 2268              		.loc 1 886 5 is_stmt 1 view .LVU671
 886:../Drivers/ISP/isp/Src/isp_services.c ****     halStatus = HAL_DCMIPP_PIPE_SetISPBlackLevelCalibrationConfig(hIsp->hDcmipp, DCMIPP_PIPE1, &bla
 2269              		.loc 1 886 50 is_stmt 0 view .LVU672
 2270 002c CB78     		ldrb	r3, [r1, #3]	@ zero_extendqisi2
 886:../Drivers/ISP/isp/Src/isp_services.c ****     halStatus = HAL_DCMIPP_PIPE_SetISPBlackLevelCalibrationConfig(hIsp->hDcmipp, DCMIPP_PIPE1, &bla
 2271              		.loc 1 886 41 view .LVU673
 2272 002e 8DF80630 		strb	r3, [sp, #6]
 887:../Drivers/ISP/isp/Src/isp_services.c **** 
 2273              		.loc 1 887 5 is_stmt 1 view .LVU674
 887:../Drivers/ISP/isp/Src/isp_services.c **** 
 2274              		.loc 1 887 17 is_stmt 0 view .LVU675
 2275 0032 01AA     		add	r2, sp, #4
 2276 0034 0121     		movs	r1, #1
 2277              	.LVL198:
 887:../Drivers/ISP/isp/Src/isp_services.c **** 
 2278              		.loc 1 887 17 view .LVU676
 2279 0036 0068     		ldr	r0, [r0]
 2280              	.LVL199:
 887:../Drivers/ISP/isp/Src/isp_services.c **** 
 2281              		.loc 1 887 17 view .LVU677
 2282 0038 FFF7FEFF 		bl	HAL_DCMIPP_PIPE_SetISPBlackLevelCalibrationConfig
 2283              	.LVL200:
 889:../Drivers/ISP/isp/Src/isp_services.c ****     {
 2284              		.loc 1 889 5 is_stmt 1 view .LVU678
 889:../Drivers/ISP/isp/Src/isp_services.c ****     {
 2285              		.loc 1 889 8 is_stmt 0 view .LVU679
 2286 003c 20B9     		cbnz	r0, .L209
 891:../Drivers/ISP/isp/Src/isp_services.c ****     }
 2287              		.loc 1 891 7 is_stmt 1 view .LVU680
 891:../Drivers/ISP/isp/Src/isp_services.c ****     }
 2288              		.loc 1 891 19 is_stmt 0 view .LVU681
 2289 003e 0121     		movs	r1, #1
 2290 0040 2068     		ldr	r0, [r4]
 2291              	.LVL201:
 891:../Drivers/ISP/isp/Src/isp_services.c ****     }
 2292              		.loc 1 891 19 view .LVU682
 2293 0042 FFF7FEFF 		bl	HAL_DCMIPP_PIPE_EnableISPBlackLevelCalibration
 2294              	.LVL202:
 2295 0046 E6E7     		b	.L208
 2296              	.LVL203:
 2297              	.L209:
 897:../Drivers/ISP/isp/Src/isp_services.c ****   }
ARM GAS  /tmp/ccAu1Zkx.s 			page 62


 2298              		.loc 1 897 12 view .LVU683
 2299 0048 4720     		movs	r0, #71
 2300              	.LVL204:
 897:../Drivers/ISP/isp/Src/isp_services.c ****   }
 2301              		.loc 1 897 12 view .LVU684
 2302 004a E5E7     		b	.L206
 2303              	.LVL205:
 2304              	.L216:
 897:../Drivers/ISP/isp/Src/isp_services.c ****   }
 2305              		.loc 1 897 12 view .LVU685
 2306 004c 4720     		movs	r0, #71
 2307              	.LVL206:
 897:../Drivers/ISP/isp/Src/isp_services.c ****   }
 2308              		.loc 1 897 12 view .LVU686
 2309 004e E3E7     		b	.L206
 2310              	.LVL207:
 2311              	.L212:
 2312              	.LCFI41:
 2313              		.cfi_def_cfa_offset 0
 2314              		.cfi_restore 4
 2315              		.cfi_restore 14
 875:../Drivers/ISP/isp/Src/isp_services.c ****   }
 2316              		.loc 1 875 12 view .LVU687
 2317 0050 4620     		movs	r0, #70
 2318              	.LVL208:
 2319              		.loc 1 901 1 view .LVU688
 2320 0052 7047     		bx	lr
 2321              		.cfi_endproc
 2322              	.LFE905:
 2324              		.section	.text.ISP_SVC_ISP_GetBlackLevel,"ax",%progbits
 2325              		.align	1
 2326              		.global	ISP_SVC_ISP_GetBlackLevel
 2327              		.syntax unified
 2328              		.thumb
 2329              		.thumb_func
 2331              	ISP_SVC_ISP_GetBlackLevel:
 2332              	.LVL209:
 2333              	.LFB906:
 902:../Drivers/ISP/isp/Src/isp_services.c **** 
 903:../Drivers/ISP/isp/Src/isp_services.c **** /**
 904:../Drivers/ISP/isp/Src/isp_services.c ****   * @brief  ISP_SVC_ISP_GetBlackLevel
 905:../Drivers/ISP/isp/Src/isp_services.c ****   *         Get the ISP Black Level calibration
 906:../Drivers/ISP/isp/Src/isp_services.c ****   * @param  hIsp: ISP device handle
 907:../Drivers/ISP/isp/Src/isp_services.c ****   * @param  pConfig: Pointer to the black level configuration
 908:../Drivers/ISP/isp/Src/isp_services.c ****   * @retval operation result
 909:../Drivers/ISP/isp/Src/isp_services.c ****   */
 910:../Drivers/ISP/isp/Src/isp_services.c **** ISP_StatusTypeDef ISP_SVC_ISP_GetBlackLevel(ISP_HandleTypeDef *hIsp, ISP_BlackLevelTypeDef *pConfig
 911:../Drivers/ISP/isp/Src/isp_services.c **** {
 2334              		.loc 1 911 1 is_stmt 1 view -0
 2335              		.cfi_startproc
 2336              		@ args = 0, pretend = 0, frame = 8
 2337              		@ frame_needed = 0, uses_anonymous_args = 0
 912:../Drivers/ISP/isp/Src/isp_services.c ****   DCMIPP_BlackLevelConfTypeDef blackLevelConfig;
 2338              		.loc 1 912 3 view .LVU690
 913:../Drivers/ISP/isp/Src/isp_services.c **** 
 914:../Drivers/ISP/isp/Src/isp_services.c ****   /* Check handle validity */
 915:../Drivers/ISP/isp/Src/isp_services.c ****   if ((hIsp == NULL) || (pConfig == NULL))
ARM GAS  /tmp/ccAu1Zkx.s 			page 63


 2339              		.loc 1 915 3 view .LVU691
 2340              		.loc 1 915 6 is_stmt 0 view .LVU692
 2341 0000 E0B1     		cbz	r0, .L222
 911:../Drivers/ISP/isp/Src/isp_services.c ****   DCMIPP_BlackLevelConfTypeDef blackLevelConfig;
 2342              		.loc 1 911 1 view .LVU693
 2343 0002 30B5     		push	{r4, r5, lr}
 2344              	.LCFI42:
 2345              		.cfi_def_cfa_offset 12
 2346              		.cfi_offset 4, -12
 2347              		.cfi_offset 5, -8
 2348              		.cfi_offset 14, -4
 2349 0004 83B0     		sub	sp, sp, #12
 2350              	.LCFI43:
 2351              		.cfi_def_cfa_offset 24
 2352 0006 0C46     		mov	r4, r1
 2353              		.loc 1 915 22 discriminator 1 view .LVU694
 2354 0008 B1B1     		cbz	r1, .L225
 916:../Drivers/ISP/isp/Src/isp_services.c ****   {
 917:../Drivers/ISP/isp/Src/isp_services.c ****     return ISP_ERR_BLACKLEVEL_EINVAL;
 918:../Drivers/ISP/isp/Src/isp_services.c ****   }
 919:../Drivers/ISP/isp/Src/isp_services.c **** 
 920:../Drivers/ISP/isp/Src/isp_services.c ****   pConfig->enable = (uint8_t) HAL_DCMIPP_PIPE_IsEnabledISPBlackLevelCalibration(hIsp->hDcmipp, DCMI
 2355              		.loc 1 920 3 is_stmt 1 view .LVU695
 2356              		.loc 1 920 31 is_stmt 0 view .LVU696
 2357 000a 0121     		movs	r1, #1
 2358              	.LVL210:
 2359              		.loc 1 920 31 view .LVU697
 2360 000c 0546     		mov	r5, r0
 2361 000e 0068     		ldr	r0, [r0]
 2362              	.LVL211:
 2363              		.loc 1 920 31 view .LVU698
 2364 0010 FFF7FEFF 		bl	HAL_DCMIPP_PIPE_IsEnabledISPBlackLevelCalibration
 2365              	.LVL212:
 2366              		.loc 1 920 19 discriminator 1 view .LVU699
 2367 0014 2070     		strb	r0, [r4]
 921:../Drivers/ISP/isp/Src/isp_services.c **** 
 922:../Drivers/ISP/isp/Src/isp_services.c ****   HAL_DCMIPP_PIPE_GetISPBlackLevelCalibrationConfig(hIsp->hDcmipp, DCMIPP_PIPE1, &blackLevelConfig)
 2368              		.loc 1 922 3 is_stmt 1 view .LVU700
 2369 0016 01AA     		add	r2, sp, #4
 2370 0018 0121     		movs	r1, #1
 2371 001a 2868     		ldr	r0, [r5]
 2372 001c FFF7FEFF 		bl	HAL_DCMIPP_PIPE_GetISPBlackLevelCalibrationConfig
 2373              	.LVL213:
 923:../Drivers/ISP/isp/Src/isp_services.c **** 
 924:../Drivers/ISP/isp/Src/isp_services.c ****   pConfig->BLCR = blackLevelConfig.RedCompBlackLevel;
 2374              		.loc 1 924 3 view .LVU701
 2375              		.loc 1 924 35 is_stmt 0 view .LVU702
 2376 0020 9DF80430 		ldrb	r3, [sp, #4]	@ zero_extendqisi2
 2377              		.loc 1 924 17 view .LVU703
 2378 0024 6370     		strb	r3, [r4, #1]
 925:../Drivers/ISP/isp/Src/isp_services.c ****   pConfig->BLCG = blackLevelConfig.GreenCompBlackLevel;
 2379              		.loc 1 925 3 is_stmt 1 view .LVU704
 2380              		.loc 1 925 35 is_stmt 0 view .LVU705
 2381 0026 9DF80530 		ldrb	r3, [sp, #5]	@ zero_extendqisi2
 2382              		.loc 1 925 17 view .LVU706
 2383 002a A370     		strb	r3, [r4, #2]
 926:../Drivers/ISP/isp/Src/isp_services.c ****   pConfig->BLCB = blackLevelConfig.BlueCompBlackLevel;
ARM GAS  /tmp/ccAu1Zkx.s 			page 64


 2384              		.loc 1 926 3 is_stmt 1 view .LVU707
 2385              		.loc 1 926 35 is_stmt 0 view .LVU708
 2386 002c 9DF80630 		ldrb	r3, [sp, #6]	@ zero_extendqisi2
 2387              		.loc 1 926 17 view .LVU709
 2388 0030 E370     		strb	r3, [r4, #3]
 927:../Drivers/ISP/isp/Src/isp_services.c **** 
 928:../Drivers/ISP/isp/Src/isp_services.c ****   return ISP_OK;
 2389              		.loc 1 928 3 is_stmt 1 view .LVU710
 2390              		.loc 1 928 10 is_stmt 0 view .LVU711
 2391 0032 0020     		movs	r0, #0
 2392              	.LVL214:
 2393              	.L220:
 929:../Drivers/ISP/isp/Src/isp_services.c **** }
 2394              		.loc 1 929 1 view .LVU712
 2395 0034 03B0     		add	sp, sp, #12
 2396              	.LCFI44:
 2397              		.cfi_remember_state
 2398              		.cfi_def_cfa_offset 12
 2399              		@ sp needed
 2400 0036 30BD     		pop	{r4, r5, pc}
 2401              	.LVL215:
 2402              	.L225:
 2403              	.LCFI45:
 2404              		.cfi_restore_state
 917:../Drivers/ISP/isp/Src/isp_services.c ****   }
 2405              		.loc 1 917 12 view .LVU713
 2406 0038 4620     		movs	r0, #70
 2407              	.LVL216:
 917:../Drivers/ISP/isp/Src/isp_services.c ****   }
 2408              		.loc 1 917 12 view .LVU714
 2409 003a FBE7     		b	.L220
 2410              	.LVL217:
 2411              	.L222:
 2412              	.LCFI46:
 2413              		.cfi_def_cfa_offset 0
 2414              		.cfi_restore 4
 2415              		.cfi_restore 5
 2416              		.cfi_restore 14
 917:../Drivers/ISP/isp/Src/isp_services.c ****   }
 2417              		.loc 1 917 12 view .LVU715
 2418 003c 4620     		movs	r0, #70
 2419              	.LVL218:
 2420              		.loc 1 929 1 view .LVU716
 2421 003e 7047     		bx	lr
 2422              		.cfi_endproc
 2423              	.LFE906:
 2425              		.section	.text.ISP_SVC_ISP_SetGain,"ax",%progbits
 2426              		.align	1
 2427              		.global	ISP_SVC_ISP_SetGain
 2428              		.syntax unified
 2429              		.thumb
 2430              		.thumb_func
 2432              	ISP_SVC_ISP_SetGain:
 2433              	.LVL219:
 2434              	.LFB907:
 930:../Drivers/ISP/isp/Src/isp_services.c **** 
 931:../Drivers/ISP/isp/Src/isp_services.c **** /**
ARM GAS  /tmp/ccAu1Zkx.s 			page 65


 932:../Drivers/ISP/isp/Src/isp_services.c ****   * @brief  ISP_SVC_ISP_SetGain
 933:../Drivers/ISP/isp/Src/isp_services.c ****   *         Set the ISP Exposure and White Balance gains
 934:../Drivers/ISP/isp/Src/isp_services.c ****   * @param  hIsp: ISP device handle
 935:../Drivers/ISP/isp/Src/isp_services.c ****   * @param  pConfig: Pointer to the ISP gain configuration
 936:../Drivers/ISP/isp/Src/isp_services.c ****   * @retval operation result
 937:../Drivers/ISP/isp/Src/isp_services.c ****   */
 938:../Drivers/ISP/isp/Src/isp_services.c **** ISP_StatusTypeDef ISP_SVC_ISP_SetGain(ISP_HandleTypeDef *hIsp, ISP_ISPGainTypeDef *pConfig)
 939:../Drivers/ISP/isp/Src/isp_services.c **** {
 2435              		.loc 1 939 1 is_stmt 1 view -0
 2436              		.cfi_startproc
 2437              		@ args = 0, pretend = 0, frame = 8
 2438              		@ frame_needed = 0, uses_anonymous_args = 0
 940:../Drivers/ISP/isp/Src/isp_services.c ****   HAL_StatusTypeDef halStatus;
 2439              		.loc 1 940 3 view .LVU718
 941:../Drivers/ISP/isp/Src/isp_services.c ****   DCMIPP_ExposureConfTypeDef exposureConfig;
 2440              		.loc 1 941 3 view .LVU719
 942:../Drivers/ISP/isp/Src/isp_services.c **** 
 943:../Drivers/ISP/isp/Src/isp_services.c ****   if ((hIsp == NULL) || (pConfig == NULL) ||
 2441              		.loc 1 943 3 view .LVU720
 2442              		.loc 1 943 6 is_stmt 0 view .LVU721
 2443 0000 0028     		cmp	r0, #0
 2444 0002 39D0     		beq	.L235
 939:../Drivers/ISP/isp/Src/isp_services.c ****   HAL_StatusTypeDef halStatus;
 2445              		.loc 1 939 1 view .LVU722
 2446 0004 30B5     		push	{r4, r5, lr}
 2447              	.LCFI47:
 2448              		.cfi_def_cfa_offset 12
 2449              		.cfi_offset 4, -12
 2450              		.cfi_offset 5, -8
 2451              		.cfi_offset 14, -4
 2452 0006 83B0     		sub	sp, sp, #12
 2453              	.LCFI48:
 2454              		.cfi_def_cfa_offset 24
 2455 0008 0C46     		mov	r4, r1
 2456 000a 0546     		mov	r5, r0
 2457              		.loc 1 943 22 discriminator 1 view .LVU723
 2458 000c 91B1     		cbz	r1, .L227
 944:../Drivers/ISP/isp/Src/isp_services.c ****       (pConfig->ispGainR > ISP_EXPOSURE_GAIN_MAX) || (pConfig->ispGainG > ISP_EXPOSURE_GAIN_MAX) ||
 2459              		.loc 1 944 15 view .LVU724
 2460 000e 4868     		ldr	r0, [r1, #4]
 2461              	.LVL220:
 943:../Drivers/ISP/isp/Src/isp_services.c ****       (pConfig->ispGainR > ISP_EXPOSURE_GAIN_MAX) || (pConfig->ispGainG > ISP_EXPOSURE_GAIN_MAX) ||
 2462              		.loc 1 943 43 discriminator 2 view .LVU725
 2463 0010 1A4B     		ldr	r3, .L238
 2464 0012 9842     		cmp	r0, r3
 2465 0014 0ED8     		bhi	.L227
 2466              		.loc 1 944 62 discriminator 1 view .LVU726
 2467 0016 8A68     		ldr	r2, [r1, #8]
 2468              		.loc 1 944 51 discriminator 1 view .LVU727
 2469 0018 9A42     		cmp	r2, r3
 2470 001a 0BD8     		bhi	.L227
 2471              		.loc 1 944 109 discriminator 2 view .LVU728
 2472 001c CA68     		ldr	r2, [r1, #12]
 2473              		.loc 1 944 98 discriminator 2 view .LVU729
 2474 001e 9A42     		cmp	r2, r3
 2475 0020 08D8     		bhi	.L227
 945:../Drivers/ISP/isp/Src/isp_services.c ****   {
ARM GAS  /tmp/ccAu1Zkx.s 			page 66


 946:../Drivers/ISP/isp/Src/isp_services.c ****     return ISP_ERR_ISPGAIN_EINVAL;
 947:../Drivers/ISP/isp/Src/isp_services.c ****   }
 948:../Drivers/ISP/isp/Src/isp_services.c **** 
 949:../Drivers/ISP/isp/Src/isp_services.c ****   if (pConfig->enable == 0)
 2476              		.loc 1 949 3 is_stmt 1 view .LVU730
 2477              		.loc 1 949 14 is_stmt 0 view .LVU731
 2478 0022 0B78     		ldrb	r3, [r1]	@ zero_extendqisi2
 2479              		.loc 1 949 6 view .LVU732
 2480 0024 4BB9     		cbnz	r3, .L230
 950:../Drivers/ISP/isp/Src/isp_services.c ****   {
 951:../Drivers/ISP/isp/Src/isp_services.c ****     halStatus = HAL_DCMIPP_PIPE_DisableISPExposure(hIsp->hDcmipp, DCMIPP_PIPE1);
 2481              		.loc 1 951 5 is_stmt 1 view .LVU733
 2482              		.loc 1 951 17 is_stmt 0 view .LVU734
 2483 0026 0121     		movs	r1, #1
 2484              	.LVL221:
 2485              		.loc 1 951 17 view .LVU735
 2486 0028 2868     		ldr	r0, [r5]
 2487 002a FFF7FEFF 		bl	HAL_DCMIPP_PIPE_DisableISPExposure
 2488              	.LVL222:
 2489              	.L231:
 952:../Drivers/ISP/isp/Src/isp_services.c ****   }
 953:../Drivers/ISP/isp/Src/isp_services.c ****   else
 954:../Drivers/ISP/isp/Src/isp_services.c ****   {
 955:../Drivers/ISP/isp/Src/isp_services.c ****     To_Shift_Multiplier(pConfig->ispGainR, &exposureConfig.ShiftRed, &exposureConfig.MultiplierRed)
 956:../Drivers/ISP/isp/Src/isp_services.c ****     To_Shift_Multiplier(pConfig->ispGainG, &exposureConfig.ShiftGreen, &exposureConfig.MultiplierGr
 957:../Drivers/ISP/isp/Src/isp_services.c ****     To_Shift_Multiplier(pConfig->ispGainB, &exposureConfig.ShiftBlue, &exposureConfig.MultiplierBlu
 958:../Drivers/ISP/isp/Src/isp_services.c ****     halStatus = HAL_DCMIPP_PIPE_SetISPExposureConfig(hIsp->hDcmipp, DCMIPP_PIPE1, &exposureConfig);
 959:../Drivers/ISP/isp/Src/isp_services.c **** 
 960:../Drivers/ISP/isp/Src/isp_services.c ****     if (halStatus == HAL_OK)
 961:../Drivers/ISP/isp/Src/isp_services.c ****     {
 962:../Drivers/ISP/isp/Src/isp_services.c ****       halStatus = HAL_DCMIPP_PIPE_EnableISPExposure(hIsp->hDcmipp, DCMIPP_PIPE1);
 963:../Drivers/ISP/isp/Src/isp_services.c ****     }
 964:../Drivers/ISP/isp/Src/isp_services.c ****   }
 965:../Drivers/ISP/isp/Src/isp_services.c **** 
 966:../Drivers/ISP/isp/Src/isp_services.c ****   if (halStatus != HAL_OK)
 2490              		.loc 1 966 3 is_stmt 1 view .LVU736
 2491              		.loc 1 966 6 is_stmt 0 view .LVU737
 2492 002e 10B1     		cbz	r0, .L229
 967:../Drivers/ISP/isp/Src/isp_services.c ****   {
 968:../Drivers/ISP/isp/Src/isp_services.c ****     return ISP_ERR_ISPGAIN_HAL;
 2493              		.loc 1 968 12 view .LVU738
 2494 0030 5120     		movs	r0, #81
 2495              	.LVL223:
 2496              		.loc 1 968 12 view .LVU739
 2497 0032 00E0     		b	.L229
 2498              	.LVL224:
 2499              	.L227:
 946:../Drivers/ISP/isp/Src/isp_services.c ****   }
 2500              		.loc 1 946 12 view .LVU740
 2501 0034 5020     		movs	r0, #80
 2502              	.LVL225:
 2503              	.L229:
 969:../Drivers/ISP/isp/Src/isp_services.c ****   }
 970:../Drivers/ISP/isp/Src/isp_services.c **** 
 971:../Drivers/ISP/isp/Src/isp_services.c ****   return ISP_OK;
 972:../Drivers/ISP/isp/Src/isp_services.c **** }
 2504              		.loc 1 972 1 view .LVU741
ARM GAS  /tmp/ccAu1Zkx.s 			page 67


 2505 0036 03B0     		add	sp, sp, #12
 2506              	.LCFI49:
 2507              		.cfi_remember_state
 2508              		.cfi_def_cfa_offset 12
 2509              		@ sp needed
 2510 0038 30BD     		pop	{r4, r5, pc}
 2511              	.LVL226:
 2512              	.L230:
 2513              	.LCFI50:
 2514              		.cfi_restore_state
 955:../Drivers/ISP/isp/Src/isp_services.c ****     To_Shift_Multiplier(pConfig->ispGainG, &exposureConfig.ShiftGreen, &exposureConfig.MultiplierGr
 2515              		.loc 1 955 5 is_stmt 1 view .LVU742
 2516 003a 0DF10102 		add	r2, sp, #1
 2517 003e 6946     		mov	r1, sp
 2518              	.LVL227:
 955:../Drivers/ISP/isp/Src/isp_services.c ****     To_Shift_Multiplier(pConfig->ispGainG, &exposureConfig.ShiftGreen, &exposureConfig.MultiplierGr
 2519              		.loc 1 955 5 is_stmt 0 view .LVU743
 2520 0040 FFF7FEFF 		bl	To_Shift_Multiplier
 2521              	.LVL228:
 956:../Drivers/ISP/isp/Src/isp_services.c ****     To_Shift_Multiplier(pConfig->ispGainB, &exposureConfig.ShiftBlue, &exposureConfig.MultiplierBlu
 2522              		.loc 1 956 5 is_stmt 1 view .LVU744
 2523 0044 0DF10302 		add	r2, sp, #3
 2524 0048 0DF10201 		add	r1, sp, #2
 2525 004c A068     		ldr	r0, [r4, #8]
 2526 004e FFF7FEFF 		bl	To_Shift_Multiplier
 2527              	.LVL229:
 957:../Drivers/ISP/isp/Src/isp_services.c ****     halStatus = HAL_DCMIPP_PIPE_SetISPExposureConfig(hIsp->hDcmipp, DCMIPP_PIPE1, &exposureConfig);
 2528              		.loc 1 957 5 view .LVU745
 2529 0052 0DF10502 		add	r2, sp, #5
 2530 0056 01A9     		add	r1, sp, #4
 2531 0058 E068     		ldr	r0, [r4, #12]
 2532 005a FFF7FEFF 		bl	To_Shift_Multiplier
 2533              	.LVL230:
 958:../Drivers/ISP/isp/Src/isp_services.c **** 
 2534              		.loc 1 958 5 view .LVU746
 958:../Drivers/ISP/isp/Src/isp_services.c **** 
 2535              		.loc 1 958 17 is_stmt 0 view .LVU747
 2536 005e 6A46     		mov	r2, sp
 2537 0060 0121     		movs	r1, #1
 2538 0062 2868     		ldr	r0, [r5]
 2539 0064 FFF7FEFF 		bl	HAL_DCMIPP_PIPE_SetISPExposureConfig
 2540              	.LVL231:
 960:../Drivers/ISP/isp/Src/isp_services.c ****     {
 2541              		.loc 1 960 5 is_stmt 1 view .LVU748
 960:../Drivers/ISP/isp/Src/isp_services.c ****     {
 2542              		.loc 1 960 8 is_stmt 0 view .LVU749
 2543 0068 20B9     		cbnz	r0, .L232
 962:../Drivers/ISP/isp/Src/isp_services.c ****     }
 2544              		.loc 1 962 7 is_stmt 1 view .LVU750
 962:../Drivers/ISP/isp/Src/isp_services.c ****     }
 2545              		.loc 1 962 19 is_stmt 0 view .LVU751
 2546 006a 0121     		movs	r1, #1
 2547 006c 2868     		ldr	r0, [r5]
 2548              	.LVL232:
 962:../Drivers/ISP/isp/Src/isp_services.c ****     }
 2549              		.loc 1 962 19 view .LVU752
 2550 006e FFF7FEFF 		bl	HAL_DCMIPP_PIPE_EnableISPExposure
ARM GAS  /tmp/ccAu1Zkx.s 			page 68


 2551              	.LVL233:
 2552 0072 DCE7     		b	.L231
 2553              	.LVL234:
 2554              	.L232:
 968:../Drivers/ISP/isp/Src/isp_services.c ****   }
 2555              		.loc 1 968 12 view .LVU753
 2556 0074 5120     		movs	r0, #81
 2557              	.LVL235:
 968:../Drivers/ISP/isp/Src/isp_services.c ****   }
 2558              		.loc 1 968 12 view .LVU754
 2559 0076 DEE7     		b	.L229
 2560              	.LVL236:
 2561              	.L235:
 2562              	.LCFI51:
 2563              		.cfi_def_cfa_offset 0
 2564              		.cfi_restore 4
 2565              		.cfi_restore 5
 2566              		.cfi_restore 14
 946:../Drivers/ISP/isp/Src/isp_services.c ****   }
 2567              		.loc 1 946 12 view .LVU755
 2568 0078 5020     		movs	r0, #80
 2569              	.LVL237:
 2570              		.loc 1 972 1 view .LVU756
 2571 007a 7047     		bx	lr
 2572              	.L239:
 2573              		.align	2
 2574              	.L238:
 2575 007c 00105E5F 		.word	1600000000
 2576              		.cfi_endproc
 2577              	.LFE907:
 2579              		.section	.text.ISP_SVC_ISP_GetGain,"ax",%progbits
 2580              		.align	1
 2581              		.global	ISP_SVC_ISP_GetGain
 2582              		.syntax unified
 2583              		.thumb
 2584              		.thumb_func
 2586              	ISP_SVC_ISP_GetGain:
 2587              	.LVL238:
 2588              	.LFB908:
 973:../Drivers/ISP/isp/Src/isp_services.c **** 
 974:../Drivers/ISP/isp/Src/isp_services.c **** /**
 975:../Drivers/ISP/isp/Src/isp_services.c ****   * @brief  ISP_SVC_ISP_GetGain
 976:../Drivers/ISP/isp/Src/isp_services.c ****   *         Get the ISP Exposure and White Balance gains
 977:../Drivers/ISP/isp/Src/isp_services.c ****   * @param  hIsp: ISP device handle
 978:../Drivers/ISP/isp/Src/isp_services.c ****   * @param  pConfig: Pointer to the ISP gain configuration
 979:../Drivers/ISP/isp/Src/isp_services.c ****   * @retval operation result
 980:../Drivers/ISP/isp/Src/isp_services.c ****   */
 981:../Drivers/ISP/isp/Src/isp_services.c **** ISP_StatusTypeDef ISP_SVC_ISP_GetGain(ISP_HandleTypeDef *hIsp, ISP_ISPGainTypeDef *pConfig)
 982:../Drivers/ISP/isp/Src/isp_services.c **** {
 2589              		.loc 1 982 1 is_stmt 1 view -0
 2590              		.cfi_startproc
 2591              		@ args = 0, pretend = 0, frame = 8
 2592              		@ frame_needed = 0, uses_anonymous_args = 0
 983:../Drivers/ISP/isp/Src/isp_services.c ****   DCMIPP_ExposureConfTypeDef exposureConfig;
 2593              		.loc 1 983 3 view .LVU758
 984:../Drivers/ISP/isp/Src/isp_services.c **** 
 985:../Drivers/ISP/isp/Src/isp_services.c ****   /* Check handle validity */
ARM GAS  /tmp/ccAu1Zkx.s 			page 69


 986:../Drivers/ISP/isp/Src/isp_services.c ****   if ((hIsp == NULL) || (pConfig == NULL))
 2594              		.loc 1 986 3 view .LVU759
 2595              		.loc 1 986 6 is_stmt 0 view .LVU760
 2596 0000 40B3     		cbz	r0, .L245
 982:../Drivers/ISP/isp/Src/isp_services.c ****   DCMIPP_ExposureConfTypeDef exposureConfig;
 2597              		.loc 1 982 1 view .LVU761
 2598 0002 30B5     		push	{r4, r5, lr}
 2599              	.LCFI52:
 2600              		.cfi_def_cfa_offset 12
 2601              		.cfi_offset 4, -12
 2602              		.cfi_offset 5, -8
 2603              		.cfi_offset 14, -4
 2604 0004 83B0     		sub	sp, sp, #12
 2605              	.LCFI53:
 2606              		.cfi_def_cfa_offset 24
 2607 0006 0C46     		mov	r4, r1
 2608              		.loc 1 986 22 discriminator 1 view .LVU762
 2609 0008 11B3     		cbz	r1, .L248
 987:../Drivers/ISP/isp/Src/isp_services.c ****   {
 988:../Drivers/ISP/isp/Src/isp_services.c ****     return ISP_ERR_ISPGAIN_EINVAL;
 989:../Drivers/ISP/isp/Src/isp_services.c ****   }
 990:../Drivers/ISP/isp/Src/isp_services.c **** 
 991:../Drivers/ISP/isp/Src/isp_services.c ****   pConfig->enable = (uint8_t) HAL_DCMIPP_PIPE_IsEnabledISPExposure(hIsp->hDcmipp, DCMIPP_PIPE1);
 2610              		.loc 1 991 3 is_stmt 1 view .LVU763
 2611              		.loc 1 991 31 is_stmt 0 view .LVU764
 2612 000a 0121     		movs	r1, #1
 2613              	.LVL239:
 2614              		.loc 1 991 31 view .LVU765
 2615 000c 0546     		mov	r5, r0
 2616 000e 0068     		ldr	r0, [r0]
 2617              	.LVL240:
 2618              		.loc 1 991 31 view .LVU766
 2619 0010 FFF7FEFF 		bl	HAL_DCMIPP_PIPE_IsEnabledISPExposure
 2620              	.LVL241:
 2621              		.loc 1 991 19 discriminator 1 view .LVU767
 2622 0014 2070     		strb	r0, [r4]
 992:../Drivers/ISP/isp/Src/isp_services.c ****   HAL_DCMIPP_PIPE_GetISPExposureConfig(hIsp->hDcmipp, DCMIPP_PIPE1, &exposureConfig);
 2623              		.loc 1 992 3 is_stmt 1 view .LVU768
 2624 0016 6A46     		mov	r2, sp
 2625 0018 0121     		movs	r1, #1
 2626 001a 2868     		ldr	r0, [r5]
 2627 001c FFF7FEFF 		bl	HAL_DCMIPP_PIPE_GetISPExposureConfig
 2628              	.LVL242:
 993:../Drivers/ISP/isp/Src/isp_services.c **** 
 994:../Drivers/ISP/isp/Src/isp_services.c ****   pConfig->ispGainR = From_Shift_Multiplier(exposureConfig.ShiftRed, exposureConfig.MultiplierRed);
 2629              		.loc 1 994 3 view .LVU769
 2630              		.loc 1 994 23 is_stmt 0 view .LVU770
 2631 0020 9DF80110 		ldrb	r1, [sp, #1]	@ zero_extendqisi2
 2632 0024 9DF80000 		ldrb	r0, [sp]	@ zero_extendqisi2
 2633 0028 FFF7FEFF 		bl	From_Shift_Multiplier
 2634              	.LVL243:
 2635              		.loc 1 994 21 discriminator 1 view .LVU771
 2636 002c 6060     		str	r0, [r4, #4]
 995:../Drivers/ISP/isp/Src/isp_services.c ****   pConfig->ispGainG = From_Shift_Multiplier(exposureConfig.ShiftGreen, exposureConfig.MultiplierGre
 2637              		.loc 1 995 3 is_stmt 1 view .LVU772
 2638              		.loc 1 995 23 is_stmt 0 view .LVU773
 2639 002e 9DF80310 		ldrb	r1, [sp, #3]	@ zero_extendqisi2
ARM GAS  /tmp/ccAu1Zkx.s 			page 70


 2640 0032 9DF80200 		ldrb	r0, [sp, #2]	@ zero_extendqisi2
 2641 0036 FFF7FEFF 		bl	From_Shift_Multiplier
 2642              	.LVL244:
 2643              		.loc 1 995 21 discriminator 1 view .LVU774
 2644 003a A060     		str	r0, [r4, #8]
 996:../Drivers/ISP/isp/Src/isp_services.c ****   pConfig->ispGainB = From_Shift_Multiplier(exposureConfig.ShiftBlue, exposureConfig.MultiplierBlue
 2645              		.loc 1 996 3 is_stmt 1 view .LVU775
 2646              		.loc 1 996 23 is_stmt 0 view .LVU776
 2647 003c 9DF80510 		ldrb	r1, [sp, #5]	@ zero_extendqisi2
 2648 0040 9DF80400 		ldrb	r0, [sp, #4]	@ zero_extendqisi2
 2649 0044 FFF7FEFF 		bl	From_Shift_Multiplier
 2650              	.LVL245:
 2651              		.loc 1 996 21 discriminator 1 view .LVU777
 2652 0048 E060     		str	r0, [r4, #12]
 997:../Drivers/ISP/isp/Src/isp_services.c **** 
 998:../Drivers/ISP/isp/Src/isp_services.c ****   return ISP_OK;
 2653              		.loc 1 998 3 is_stmt 1 view .LVU778
 2654              		.loc 1 998 10 is_stmt 0 view .LVU779
 2655 004a 0020     		movs	r0, #0
 2656              	.LVL246:
 2657              	.L243:
 999:../Drivers/ISP/isp/Src/isp_services.c **** }
 2658              		.loc 1 999 1 view .LVU780
 2659 004c 03B0     		add	sp, sp, #12
 2660              	.LCFI54:
 2661              		.cfi_remember_state
 2662              		.cfi_def_cfa_offset 12
 2663              		@ sp needed
 2664 004e 30BD     		pop	{r4, r5, pc}
 2665              	.LVL247:
 2666              	.L248:
 2667              	.LCFI55:
 2668              		.cfi_restore_state
 988:../Drivers/ISP/isp/Src/isp_services.c ****   }
 2669              		.loc 1 988 12 view .LVU781
 2670 0050 5020     		movs	r0, #80
 2671              	.LVL248:
 988:../Drivers/ISP/isp/Src/isp_services.c ****   }
 2672              		.loc 1 988 12 view .LVU782
 2673 0052 FBE7     		b	.L243
 2674              	.LVL249:
 2675              	.L245:
 2676              	.LCFI56:
 2677              		.cfi_def_cfa_offset 0
 2678              		.cfi_restore 4
 2679              		.cfi_restore 5
 2680              		.cfi_restore 14
 988:../Drivers/ISP/isp/Src/isp_services.c ****   }
 2681              		.loc 1 988 12 view .LVU783
 2682 0054 5020     		movs	r0, #80
 2683              	.LVL250:
 2684              		.loc 1 999 1 view .LVU784
 2685 0056 7047     		bx	lr
 2686              		.cfi_endproc
 2687              	.LFE908:
 2689              		.section	.text.ISP_SVC_ISP_SetColorConv,"ax",%progbits
 2690              		.align	1
ARM GAS  /tmp/ccAu1Zkx.s 			page 71


 2691              		.global	ISP_SVC_ISP_SetColorConv
 2692              		.syntax unified
 2693              		.thumb
 2694              		.thumb_func
 2696              	ISP_SVC_ISP_SetColorConv:
 2697              	.LVL251:
 2698              	.LFB909:
1000:../Drivers/ISP/isp/Src/isp_services.c **** 
1001:../Drivers/ISP/isp/Src/isp_services.c **** /**
1002:../Drivers/ISP/isp/Src/isp_services.c ****   * @brief  ISP_SVC_ISP_SetColorConv
1003:../Drivers/ISP/isp/Src/isp_services.c ****   *         Set the ISP Color Conversion
1004:../Drivers/ISP/isp/Src/isp_services.c ****   * @param  hIsp: ISP device handle
1005:../Drivers/ISP/isp/Src/isp_services.c ****   * @param  pConfig: Pointer to the Color Conversion configuration
1006:../Drivers/ISP/isp/Src/isp_services.c ****   * @retval operation result
1007:../Drivers/ISP/isp/Src/isp_services.c ****   */
1008:../Drivers/ISP/isp/Src/isp_services.c **** ISP_StatusTypeDef ISP_SVC_ISP_SetColorConv(ISP_HandleTypeDef *hIsp, ISP_ColorConvTypeDef *pConfig)
1009:../Drivers/ISP/isp/Src/isp_services.c **** {
 2699              		.loc 1 1009 1 is_stmt 1 view -0
 2700              		.cfi_startproc
 2701              		@ args = 0, pretend = 0, frame = 32
 2702              		@ frame_needed = 0, uses_anonymous_args = 0
 2703              		.loc 1 1009 1 is_stmt 0 view .LVU786
 2704 0000 30B5     		push	{r4, r5, lr}
 2705              	.LCFI57:
 2706              		.cfi_def_cfa_offset 12
 2707              		.cfi_offset 4, -12
 2708              		.cfi_offset 5, -8
 2709              		.cfi_offset 14, -4
 2710 0002 89B0     		sub	sp, sp, #36
 2711              	.LCFI58:
 2712              		.cfi_def_cfa_offset 48
1010:../Drivers/ISP/isp/Src/isp_services.c ****   HAL_StatusTypeDef halStatus;
 2713              		.loc 1 1010 3 is_stmt 1 view .LVU787
1011:../Drivers/ISP/isp/Src/isp_services.c ****   DCMIPP_ColorConversionConfTypeDef colorConvConfig;
 2714              		.loc 1 1011 3 view .LVU788
1012:../Drivers/ISP/isp/Src/isp_services.c ****   uint32_t i, j;
 2715              		.loc 1 1012 3 view .LVU789
1013:../Drivers/ISP/isp/Src/isp_services.c **** 
1014:../Drivers/ISP/isp/Src/isp_services.c ****   memset(&colorConvConfig, 0, sizeof(colorConvConfig));
 2716              		.loc 1 1014 3 view .LVU790
 2717 0004 0023     		movs	r3, #0
 2718 0006 0193     		str	r3, [sp, #4]
 2719 0008 0293     		str	r3, [sp, #8]
 2720 000a 0393     		str	r3, [sp, #12]
 2721 000c 0493     		str	r3, [sp, #16]
 2722 000e 0593     		str	r3, [sp, #20]
 2723 0010 0693     		str	r3, [sp, #24]
 2724 0012 ADF81C30 		strh	r3, [sp, #28]	@ movhi
1015:../Drivers/ISP/isp/Src/isp_services.c **** 
1016:../Drivers/ISP/isp/Src/isp_services.c ****   /* Check handle validity */
1017:../Drivers/ISP/isp/Src/isp_services.c ****   if ((hIsp == NULL) || (pConfig == NULL))
 2725              		.loc 1 1017 3 view .LVU791
 2726              		.loc 1 1017 6 is_stmt 0 view .LVU792
 2727 0016 20B1     		cbz	r0, .L250
 2728 0018 0C46     		mov	r4, r1
 2729 001a 0546     		mov	r5, r0
 2730              		.loc 1 1017 22 discriminator 1 view .LVU793
ARM GAS  /tmp/ccAu1Zkx.s 			page 72


 2731 001c 09B1     		cbz	r1, .L250
1018:../Drivers/ISP/isp/Src/isp_services.c ****   {
1019:../Drivers/ISP/isp/Src/isp_services.c ****     return ISP_ERR_COLORCONV_EINVAL;
1020:../Drivers/ISP/isp/Src/isp_services.c ****   }
1021:../Drivers/ISP/isp/Src/isp_services.c **** 
1022:../Drivers/ISP/isp/Src/isp_services.c ****   for (i = 0; i < 3; i++)
 2732              		.loc 1 1022 10 view .LVU794
 2733 001e 0020     		movs	r0, #0
 2734              	.LVL252:
 2735              		.loc 1 1022 10 view .LVU795
 2736 0020 03E0     		b	.L251
 2737              	.LVL253:
 2738              	.L250:
1019:../Drivers/ISP/isp/Src/isp_services.c ****   }
 2739              		.loc 1 1019 12 view .LVU796
 2740 0022 5A20     		movs	r0, #90
 2741              	.L252:
1023:../Drivers/ISP/isp/Src/isp_services.c ****   {
1024:../Drivers/ISP/isp/Src/isp_services.c ****     for (j = 0; j < 3; j++)
1025:../Drivers/ISP/isp/Src/isp_services.c ****     {
1026:../Drivers/ISP/isp/Src/isp_services.c ****       if ((pConfig->coeff[i][j] > ISP_COLORCONV_MAX) || (pConfig->coeff[i][j] < -ISP_COLORCONV_MAX)
1027:../Drivers/ISP/isp/Src/isp_services.c ****       {
1028:../Drivers/ISP/isp/Src/isp_services.c ****         return ISP_ERR_COLORCONV_EINVAL;
1029:../Drivers/ISP/isp/Src/isp_services.c ****       }
1030:../Drivers/ISP/isp/Src/isp_services.c ****     }
1031:../Drivers/ISP/isp/Src/isp_services.c ****   }
1032:../Drivers/ISP/isp/Src/isp_services.c **** 
1033:../Drivers/ISP/isp/Src/isp_services.c ****   if (pConfig->enable == 0)
1034:../Drivers/ISP/isp/Src/isp_services.c ****   {
1035:../Drivers/ISP/isp/Src/isp_services.c ****     halStatus = HAL_DCMIPP_PIPE_DisableISPColorConversion(hIsp->hDcmipp, DCMIPP_PIPE1);
1036:../Drivers/ISP/isp/Src/isp_services.c ****   }
1037:../Drivers/ISP/isp/Src/isp_services.c ****   else
1038:../Drivers/ISP/isp/Src/isp_services.c ****   {
1039:../Drivers/ISP/isp/Src/isp_services.c ****     colorConvConfig.RR = To_CConv_Reg(pConfig->coeff[0][0]);
1040:../Drivers/ISP/isp/Src/isp_services.c ****     colorConvConfig.RG = To_CConv_Reg(pConfig->coeff[0][1]);
1041:../Drivers/ISP/isp/Src/isp_services.c ****     colorConvConfig.RB = To_CConv_Reg(pConfig->coeff[0][2]);
1042:../Drivers/ISP/isp/Src/isp_services.c ****     colorConvConfig.GR = To_CConv_Reg(pConfig->coeff[1][0]);
1043:../Drivers/ISP/isp/Src/isp_services.c ****     colorConvConfig.GG = To_CConv_Reg(pConfig->coeff[1][1]);
1044:../Drivers/ISP/isp/Src/isp_services.c ****     colorConvConfig.GB = To_CConv_Reg(pConfig->coeff[1][2]);
1045:../Drivers/ISP/isp/Src/isp_services.c ****     colorConvConfig.BR = To_CConv_Reg(pConfig->coeff[2][0]);
1046:../Drivers/ISP/isp/Src/isp_services.c ****     colorConvConfig.BG = To_CConv_Reg(pConfig->coeff[2][1]);
1047:../Drivers/ISP/isp/Src/isp_services.c ****     colorConvConfig.BB = To_CConv_Reg(pConfig->coeff[2][2]);
1048:../Drivers/ISP/isp/Src/isp_services.c ****     halStatus = HAL_DCMIPP_PIPE_SetISPColorConversionConfig(hIsp->hDcmipp, DCMIPP_PIPE1, &colorConv
1049:../Drivers/ISP/isp/Src/isp_services.c **** 
1050:../Drivers/ISP/isp/Src/isp_services.c ****     if (halStatus == HAL_OK)
1051:../Drivers/ISP/isp/Src/isp_services.c ****     {
1052:../Drivers/ISP/isp/Src/isp_services.c ****       halStatus = HAL_DCMIPP_PIPE_EnableISPColorConversion(hIsp->hDcmipp, DCMIPP_PIPE1);
1053:../Drivers/ISP/isp/Src/isp_services.c ****     }
1054:../Drivers/ISP/isp/Src/isp_services.c ****   }
1055:../Drivers/ISP/isp/Src/isp_services.c **** 
1056:../Drivers/ISP/isp/Src/isp_services.c ****   if (halStatus != HAL_OK)
1057:../Drivers/ISP/isp/Src/isp_services.c ****   {
1058:../Drivers/ISP/isp/Src/isp_services.c ****     return ISP_ERR_COLORCONV_HAL;
1059:../Drivers/ISP/isp/Src/isp_services.c ****   }
1060:../Drivers/ISP/isp/Src/isp_services.c **** 
1061:../Drivers/ISP/isp/Src/isp_services.c ****   return ISP_OK;
1062:../Drivers/ISP/isp/Src/isp_services.c **** }
ARM GAS  /tmp/ccAu1Zkx.s 			page 73


 2742              		.loc 1 1062 1 view .LVU797
 2743 0024 09B0     		add	sp, sp, #36
 2744              	.LCFI59:
 2745              		.cfi_remember_state
 2746              		.cfi_def_cfa_offset 12
 2747              		@ sp needed
 2748 0026 30BD     		pop	{r4, r5, pc}
 2749              	.LVL254:
 2750              	.L263:
 2751              	.LCFI60:
 2752              		.cfi_restore_state
1022:../Drivers/ISP/isp/Src/isp_services.c ****   {
 2753              		.loc 1 1022 23 is_stmt 1 discriminator 1 view .LVU798
 2754 0028 0130     		adds	r0, r0, #1
 2755              	.LVL255:
 2756              	.L251:
1022:../Drivers/ISP/isp/Src/isp_services.c ****   {
 2757              		.loc 1 1022 17 discriminator 2 view .LVU799
 2758 002a 0228     		cmp	r0, #2
 2759 002c 0FD8     		bhi	.L262
1024:../Drivers/ISP/isp/Src/isp_services.c ****     {
 2760              		.loc 1 1024 12 is_stmt 0 view .LVU800
 2761 002e 0022     		movs	r2, #0
 2762              	.L254:
 2763              	.LVL256:
1024:../Drivers/ISP/isp/Src/isp_services.c ****     {
 2764              		.loc 1 1024 19 is_stmt 1 discriminator 2 view .LVU801
 2765 0030 022A     		cmp	r2, #2
 2766 0032 F9D8     		bhi	.L263
1026:../Drivers/ISP/isp/Src/isp_services.c ****       {
 2767              		.loc 1 1026 7 view .LVU802
1026:../Drivers/ISP/isp/Src/isp_services.c ****       {
 2768              		.loc 1 1026 29 is_stmt 0 view .LVU803
 2769 0034 00EB4003 		add	r3, r0, r0, lsl #1
 2770 0038 1344     		add	r3, r3, r2
 2771 003a 04EB8303 		add	r3, r4, r3, lsl #2
 2772 003e 5968     		ldr	r1, [r3, #4]
1026:../Drivers/ISP/isp/Src/isp_services.c ****       {
 2773              		.loc 1 1026 54 view .LVU804
 2774 0040 254B     		ldr	r3, .L264
 2775 0042 0B44     		add	r3, r3, r1
1026:../Drivers/ISP/isp/Src/isp_services.c ****       {
 2776              		.loc 1 1026 10 view .LVU805
 2777 0044 2549     		ldr	r1, .L264+4
 2778 0046 8B42     		cmp	r3, r1
 2779 0048 EBD8     		bhi	.L250
1024:../Drivers/ISP/isp/Src/isp_services.c ****     {
 2780              		.loc 1 1024 25 is_stmt 1 discriminator 1 view .LVU806
 2781 004a 0132     		adds	r2, r2, #1
 2782              	.LVL257:
1024:../Drivers/ISP/isp/Src/isp_services.c ****     {
 2783              		.loc 1 1024 25 is_stmt 0 discriminator 1 view .LVU807
 2784 004c F0E7     		b	.L254
 2785              	.LVL258:
 2786              	.L262:
1033:../Drivers/ISP/isp/Src/isp_services.c ****   {
 2787              		.loc 1 1033 3 is_stmt 1 view .LVU808
ARM GAS  /tmp/ccAu1Zkx.s 			page 74


1033:../Drivers/ISP/isp/Src/isp_services.c ****   {
 2788              		.loc 1 1033 14 is_stmt 0 view .LVU809
 2789 004e 2378     		ldrb	r3, [r4]	@ zero_extendqisi2
1033:../Drivers/ISP/isp/Src/isp_services.c ****   {
 2790              		.loc 1 1033 6 view .LVU810
 2791 0050 3BB9     		cbnz	r3, .L255
1035:../Drivers/ISP/isp/Src/isp_services.c ****   }
 2792              		.loc 1 1035 5 is_stmt 1 view .LVU811
1035:../Drivers/ISP/isp/Src/isp_services.c ****   }
 2793              		.loc 1 1035 17 is_stmt 0 view .LVU812
 2794 0052 0121     		movs	r1, #1
 2795 0054 2868     		ldr	r0, [r5]
 2796              	.LVL259:
1035:../Drivers/ISP/isp/Src/isp_services.c ****   }
 2797              		.loc 1 1035 17 view .LVU813
 2798 0056 FFF7FEFF 		bl	HAL_DCMIPP_PIPE_DisableISPColorConversion
 2799              	.LVL260:
 2800              	.L256:
1056:../Drivers/ISP/isp/Src/isp_services.c ****   {
 2801              		.loc 1 1056 3 is_stmt 1 view .LVU814
1056:../Drivers/ISP/isp/Src/isp_services.c ****   {
 2802              		.loc 1 1056 6 is_stmt 0 view .LVU815
 2803 005a 0028     		cmp	r0, #0
 2804 005c E2D0     		beq	.L252
1058:../Drivers/ISP/isp/Src/isp_services.c ****   }
 2805              		.loc 1 1058 12 view .LVU816
 2806 005e 5B20     		movs	r0, #91
 2807              	.LVL261:
1058:../Drivers/ISP/isp/Src/isp_services.c ****   }
 2808              		.loc 1 1058 12 view .LVU817
 2809 0060 E0E7     		b	.L252
 2810              	.LVL262:
 2811              	.L255:
1039:../Drivers/ISP/isp/Src/isp_services.c ****     colorConvConfig.RG = To_CConv_Reg(pConfig->coeff[0][1]);
 2812              		.loc 1 1039 5 is_stmt 1 view .LVU818
1039:../Drivers/ISP/isp/Src/isp_services.c ****     colorConvConfig.RG = To_CConv_Reg(pConfig->coeff[0][1]);
 2813              		.loc 1 1039 26 is_stmt 0 view .LVU819
 2814 0062 6068     		ldr	r0, [r4, #4]
 2815              	.LVL263:
1039:../Drivers/ISP/isp/Src/isp_services.c ****     colorConvConfig.RG = To_CConv_Reg(pConfig->coeff[0][1]);
 2816              		.loc 1 1039 26 view .LVU820
 2817 0064 FFF7FEFF 		bl	To_CConv_Reg
 2818              	.LVL264:
1039:../Drivers/ISP/isp/Src/isp_services.c ****     colorConvConfig.RG = To_CConv_Reg(pConfig->coeff[0][1]);
 2819              		.loc 1 1039 24 discriminator 1 view .LVU821
 2820 0068 ADF80600 		strh	r0, [sp, #6]	@ movhi
1040:../Drivers/ISP/isp/Src/isp_services.c ****     colorConvConfig.RB = To_CConv_Reg(pConfig->coeff[0][2]);
 2821              		.loc 1 1040 5 is_stmt 1 view .LVU822
1040:../Drivers/ISP/isp/Src/isp_services.c ****     colorConvConfig.RB = To_CConv_Reg(pConfig->coeff[0][2]);
 2822              		.loc 1 1040 26 is_stmt 0 view .LVU823
 2823 006c A068     		ldr	r0, [r4, #8]
 2824 006e FFF7FEFF 		bl	To_CConv_Reg
 2825              	.LVL265:
1040:../Drivers/ISP/isp/Src/isp_services.c ****     colorConvConfig.RB = To_CConv_Reg(pConfig->coeff[0][2]);
 2826              		.loc 1 1040 24 discriminator 1 view .LVU824
 2827 0072 ADF80800 		strh	r0, [sp, #8]	@ movhi
1041:../Drivers/ISP/isp/Src/isp_services.c ****     colorConvConfig.GR = To_CConv_Reg(pConfig->coeff[1][0]);
ARM GAS  /tmp/ccAu1Zkx.s 			page 75


 2828              		.loc 1 1041 5 is_stmt 1 view .LVU825
1041:../Drivers/ISP/isp/Src/isp_services.c ****     colorConvConfig.GR = To_CConv_Reg(pConfig->coeff[1][0]);
 2829              		.loc 1 1041 26 is_stmt 0 view .LVU826
 2830 0076 E068     		ldr	r0, [r4, #12]
 2831 0078 FFF7FEFF 		bl	To_CConv_Reg
 2832              	.LVL266:
1041:../Drivers/ISP/isp/Src/isp_services.c ****     colorConvConfig.GR = To_CConv_Reg(pConfig->coeff[1][0]);
 2833              		.loc 1 1041 24 discriminator 1 view .LVU827
 2834 007c ADF80A00 		strh	r0, [sp, #10]	@ movhi
1042:../Drivers/ISP/isp/Src/isp_services.c ****     colorConvConfig.GG = To_CConv_Reg(pConfig->coeff[1][1]);
 2835              		.loc 1 1042 5 is_stmt 1 view .LVU828
1042:../Drivers/ISP/isp/Src/isp_services.c ****     colorConvConfig.GG = To_CConv_Reg(pConfig->coeff[1][1]);
 2836              		.loc 1 1042 26 is_stmt 0 view .LVU829
 2837 0080 2069     		ldr	r0, [r4, #16]
 2838 0082 FFF7FEFF 		bl	To_CConv_Reg
 2839              	.LVL267:
1042:../Drivers/ISP/isp/Src/isp_services.c ****     colorConvConfig.GG = To_CConv_Reg(pConfig->coeff[1][1]);
 2840              		.loc 1 1042 24 discriminator 1 view .LVU830
 2841 0086 ADF80E00 		strh	r0, [sp, #14]	@ movhi
1043:../Drivers/ISP/isp/Src/isp_services.c ****     colorConvConfig.GB = To_CConv_Reg(pConfig->coeff[1][2]);
 2842              		.loc 1 1043 5 is_stmt 1 view .LVU831
1043:../Drivers/ISP/isp/Src/isp_services.c ****     colorConvConfig.GB = To_CConv_Reg(pConfig->coeff[1][2]);
 2843              		.loc 1 1043 26 is_stmt 0 view .LVU832
 2844 008a 6069     		ldr	r0, [r4, #20]
 2845 008c FFF7FEFF 		bl	To_CConv_Reg
 2846              	.LVL268:
1043:../Drivers/ISP/isp/Src/isp_services.c ****     colorConvConfig.GB = To_CConv_Reg(pConfig->coeff[1][2]);
 2847              		.loc 1 1043 24 discriminator 1 view .LVU833
 2848 0090 ADF81000 		strh	r0, [sp, #16]	@ movhi
1044:../Drivers/ISP/isp/Src/isp_services.c ****     colorConvConfig.BR = To_CConv_Reg(pConfig->coeff[2][0]);
 2849              		.loc 1 1044 5 is_stmt 1 view .LVU834
1044:../Drivers/ISP/isp/Src/isp_services.c ****     colorConvConfig.BR = To_CConv_Reg(pConfig->coeff[2][0]);
 2850              		.loc 1 1044 26 is_stmt 0 view .LVU835
 2851 0094 A069     		ldr	r0, [r4, #24]
 2852 0096 FFF7FEFF 		bl	To_CConv_Reg
 2853              	.LVL269:
1044:../Drivers/ISP/isp/Src/isp_services.c ****     colorConvConfig.BR = To_CConv_Reg(pConfig->coeff[2][0]);
 2854              		.loc 1 1044 24 discriminator 1 view .LVU836
 2855 009a ADF81200 		strh	r0, [sp, #18]	@ movhi
1045:../Drivers/ISP/isp/Src/isp_services.c ****     colorConvConfig.BG = To_CConv_Reg(pConfig->coeff[2][1]);
 2856              		.loc 1 1045 5 is_stmt 1 view .LVU837
1045:../Drivers/ISP/isp/Src/isp_services.c ****     colorConvConfig.BG = To_CConv_Reg(pConfig->coeff[2][1]);
 2857              		.loc 1 1045 26 is_stmt 0 view .LVU838
 2858 009e E069     		ldr	r0, [r4, #28]
 2859 00a0 FFF7FEFF 		bl	To_CConv_Reg
 2860              	.LVL270:
1045:../Drivers/ISP/isp/Src/isp_services.c ****     colorConvConfig.BG = To_CConv_Reg(pConfig->coeff[2][1]);
 2861              		.loc 1 1045 24 discriminator 1 view .LVU839
 2862 00a4 ADF81600 		strh	r0, [sp, #22]	@ movhi
1046:../Drivers/ISP/isp/Src/isp_services.c ****     colorConvConfig.BB = To_CConv_Reg(pConfig->coeff[2][2]);
 2863              		.loc 1 1046 5 is_stmt 1 view .LVU840
1046:../Drivers/ISP/isp/Src/isp_services.c ****     colorConvConfig.BB = To_CConv_Reg(pConfig->coeff[2][2]);
 2864              		.loc 1 1046 26 is_stmt 0 view .LVU841
 2865 00a8 206A     		ldr	r0, [r4, #32]
 2866 00aa FFF7FEFF 		bl	To_CConv_Reg
 2867              	.LVL271:
1046:../Drivers/ISP/isp/Src/isp_services.c ****     colorConvConfig.BB = To_CConv_Reg(pConfig->coeff[2][2]);
ARM GAS  /tmp/ccAu1Zkx.s 			page 76


 2868              		.loc 1 1046 24 discriminator 1 view .LVU842
 2869 00ae ADF81800 		strh	r0, [sp, #24]	@ movhi
1047:../Drivers/ISP/isp/Src/isp_services.c ****     halStatus = HAL_DCMIPP_PIPE_SetISPColorConversionConfig(hIsp->hDcmipp, DCMIPP_PIPE1, &colorConv
 2870              		.loc 1 1047 5 is_stmt 1 view .LVU843
1047:../Drivers/ISP/isp/Src/isp_services.c ****     halStatus = HAL_DCMIPP_PIPE_SetISPColorConversionConfig(hIsp->hDcmipp, DCMIPP_PIPE1, &colorConv
 2871              		.loc 1 1047 26 is_stmt 0 view .LVU844
 2872 00b2 606A     		ldr	r0, [r4, #36]
 2873 00b4 FFF7FEFF 		bl	To_CConv_Reg
 2874              	.LVL272:
1047:../Drivers/ISP/isp/Src/isp_services.c ****     halStatus = HAL_DCMIPP_PIPE_SetISPColorConversionConfig(hIsp->hDcmipp, DCMIPP_PIPE1, &colorConv
 2875              		.loc 1 1047 24 discriminator 1 view .LVU845
 2876 00b8 ADF81A00 		strh	r0, [sp, #26]	@ movhi
1048:../Drivers/ISP/isp/Src/isp_services.c **** 
 2877              		.loc 1 1048 5 is_stmt 1 view .LVU846
1048:../Drivers/ISP/isp/Src/isp_services.c **** 
 2878              		.loc 1 1048 17 is_stmt 0 view .LVU847
 2879 00bc 01AA     		add	r2, sp, #4
 2880 00be 0121     		movs	r1, #1
 2881 00c0 2868     		ldr	r0, [r5]
 2882 00c2 FFF7FEFF 		bl	HAL_DCMIPP_PIPE_SetISPColorConversionConfig
 2883              	.LVL273:
1050:../Drivers/ISP/isp/Src/isp_services.c ****     {
 2884              		.loc 1 1050 5 is_stmt 1 view .LVU848
1050:../Drivers/ISP/isp/Src/isp_services.c ****     {
 2885              		.loc 1 1050 8 is_stmt 0 view .LVU849
 2886 00c6 20B9     		cbnz	r0, .L259
1052:../Drivers/ISP/isp/Src/isp_services.c ****     }
 2887              		.loc 1 1052 7 is_stmt 1 view .LVU850
1052:../Drivers/ISP/isp/Src/isp_services.c ****     }
 2888              		.loc 1 1052 19 is_stmt 0 view .LVU851
 2889 00c8 0121     		movs	r1, #1
 2890 00ca 2868     		ldr	r0, [r5]
 2891              	.LVL274:
1052:../Drivers/ISP/isp/Src/isp_services.c ****     }
 2892              		.loc 1 1052 19 view .LVU852
 2893 00cc FFF7FEFF 		bl	HAL_DCMIPP_PIPE_EnableISPColorConversion
 2894              	.LVL275:
 2895 00d0 C3E7     		b	.L256
 2896              	.LVL276:
 2897              	.L259:
1058:../Drivers/ISP/isp/Src/isp_services.c ****   }
 2898              		.loc 1 1058 12 view .LVU853
 2899 00d2 5B20     		movs	r0, #91
 2900              	.LVL277:
1058:../Drivers/ISP/isp/Src/isp_services.c ****   }
 2901              		.loc 1 1058 12 view .LVU854
 2902 00d4 A6E7     		b	.L252
 2903              	.L265:
 2904 00d6 00BF     		.align	2
 2905              	.L264:
 2906 00d8 C041C817 		.word	399000000
 2907 00dc 8083902F 		.word	798000000
 2908              		.cfi_endproc
 2909              	.LFE909:
 2911              		.section	.text.ISP_SVC_ISP_GetColorConv,"ax",%progbits
 2912              		.align	1
 2913              		.global	ISP_SVC_ISP_GetColorConv
ARM GAS  /tmp/ccAu1Zkx.s 			page 77


 2914              		.syntax unified
 2915              		.thumb
 2916              		.thumb_func
 2918              	ISP_SVC_ISP_GetColorConv:
 2919              	.LVL278:
 2920              	.LFB910:
1063:../Drivers/ISP/isp/Src/isp_services.c **** 
1064:../Drivers/ISP/isp/Src/isp_services.c **** /**
1065:../Drivers/ISP/isp/Src/isp_services.c ****   * @brief  ISP_SVC_ISP_GetColorConv
1066:../Drivers/ISP/isp/Src/isp_services.c ****   *         Get the ISP Color Conversion
1067:../Drivers/ISP/isp/Src/isp_services.c ****   * @param  hIsp: ISP device handle
1068:../Drivers/ISP/isp/Src/isp_services.c ****   * @param  pConfig: Pointer to the Color Conversion configuration
1069:../Drivers/ISP/isp/Src/isp_services.c ****   * @retval operation result
1070:../Drivers/ISP/isp/Src/isp_services.c ****   */
1071:../Drivers/ISP/isp/Src/isp_services.c **** ISP_StatusTypeDef ISP_SVC_ISP_GetColorConv(ISP_HandleTypeDef *hIsp, ISP_ColorConvTypeDef *pConfig)
1072:../Drivers/ISP/isp/Src/isp_services.c **** {
 2921              		.loc 1 1072 1 is_stmt 1 view -0
 2922              		.cfi_startproc
 2923              		@ args = 0, pretend = 0, frame = 32
 2924              		@ frame_needed = 0, uses_anonymous_args = 0
1073:../Drivers/ISP/isp/Src/isp_services.c ****   DCMIPP_ColorConversionConfTypeDef colorConvConfig;
 2925              		.loc 1 1073 3 view .LVU856
1074:../Drivers/ISP/isp/Src/isp_services.c **** 
1075:../Drivers/ISP/isp/Src/isp_services.c ****   /* Check handle validity */
1076:../Drivers/ISP/isp/Src/isp_services.c ****   if ((hIsp == NULL) || (pConfig == NULL))
 2926              		.loc 1 1076 3 view .LVU857
 2927              		.loc 1 1076 6 is_stmt 0 view .LVU858
 2928 0000 0028     		cmp	r0, #0
 2929 0002 41D0     		beq	.L271
1072:../Drivers/ISP/isp/Src/isp_services.c ****   DCMIPP_ColorConversionConfTypeDef colorConvConfig;
 2930              		.loc 1 1072 1 view .LVU859
 2931 0004 30B5     		push	{r4, r5, lr}
 2932              	.LCFI61:
 2933              		.cfi_def_cfa_offset 12
 2934              		.cfi_offset 4, -12
 2935              		.cfi_offset 5, -8
 2936              		.cfi_offset 14, -4
 2937 0006 89B0     		sub	sp, sp, #36
 2938              	.LCFI62:
 2939              		.cfi_def_cfa_offset 48
 2940 0008 0C46     		mov	r4, r1
 2941              		.loc 1 1076 22 discriminator 1 view .LVU860
 2942 000a 0029     		cmp	r1, #0
 2943 000c 3AD0     		beq	.L274
1077:../Drivers/ISP/isp/Src/isp_services.c ****   {
1078:../Drivers/ISP/isp/Src/isp_services.c ****     return ISP_ERR_COLORCONV_EINVAL;
1079:../Drivers/ISP/isp/Src/isp_services.c ****   }
1080:../Drivers/ISP/isp/Src/isp_services.c **** 
1081:../Drivers/ISP/isp/Src/isp_services.c ****   pConfig->enable = (uint8_t) HAL_DCMIPP_PIPE_IsEnabledISPColorConversion(hIsp->hDcmipp, DCMIPP_PIP
 2944              		.loc 1 1081 3 is_stmt 1 view .LVU861
 2945              		.loc 1 1081 31 is_stmt 0 view .LVU862
 2946 000e 0121     		movs	r1, #1
 2947              	.LVL279:
 2948              		.loc 1 1081 31 view .LVU863
 2949 0010 0546     		mov	r5, r0
 2950 0012 0068     		ldr	r0, [r0]
 2951              	.LVL280:
ARM GAS  /tmp/ccAu1Zkx.s 			page 78


 2952              		.loc 1 1081 31 view .LVU864
 2953 0014 FFF7FEFF 		bl	HAL_DCMIPP_PIPE_IsEnabledISPColorConversion
 2954              	.LVL281:
 2955              		.loc 1 1081 19 discriminator 1 view .LVU865
 2956 0018 2070     		strb	r0, [r4]
1082:../Drivers/ISP/isp/Src/isp_services.c **** 
1083:../Drivers/ISP/isp/Src/isp_services.c ****   HAL_DCMIPP_PIPE_GetISPColorConversionConfig(hIsp->hDcmipp, DCMIPP_PIPE1, &colorConvConfig);
 2957              		.loc 1 1083 3 is_stmt 1 view .LVU866
 2958 001a 01AA     		add	r2, sp, #4
 2959 001c 0121     		movs	r1, #1
 2960 001e 2868     		ldr	r0, [r5]
 2961 0020 FFF7FEFF 		bl	HAL_DCMIPP_PIPE_GetISPColorConversionConfig
 2962              	.LVL282:
1084:../Drivers/ISP/isp/Src/isp_services.c **** 
1085:../Drivers/ISP/isp/Src/isp_services.c ****   pConfig->coeff[0][0] = From_CConv_Reg(colorConvConfig.RR);
 2963              		.loc 1 1085 3 view .LVU867
 2964              		.loc 1 1085 26 is_stmt 0 view .LVU868
 2965 0024 BDF90600 		ldrsh	r0, [sp, #6]
 2966 0028 FFF7FEFF 		bl	From_CConv_Reg
 2967              	.LVL283:
 2968              		.loc 1 1085 24 discriminator 1 view .LVU869
 2969 002c 6060     		str	r0, [r4, #4]
1086:../Drivers/ISP/isp/Src/isp_services.c ****   pConfig->coeff[0][1] = From_CConv_Reg(colorConvConfig.RG);
 2970              		.loc 1 1086 3 is_stmt 1 view .LVU870
 2971              		.loc 1 1086 26 is_stmt 0 view .LVU871
 2972 002e BDF90800 		ldrsh	r0, [sp, #8]
 2973 0032 FFF7FEFF 		bl	From_CConv_Reg
 2974              	.LVL284:
 2975              		.loc 1 1086 24 discriminator 1 view .LVU872
 2976 0036 A060     		str	r0, [r4, #8]
1087:../Drivers/ISP/isp/Src/isp_services.c ****   pConfig->coeff[0][2] = From_CConv_Reg(colorConvConfig.RB);
 2977              		.loc 1 1087 3 is_stmt 1 view .LVU873
 2978              		.loc 1 1087 26 is_stmt 0 view .LVU874
 2979 0038 BDF90A00 		ldrsh	r0, [sp, #10]
 2980 003c FFF7FEFF 		bl	From_CConv_Reg
 2981              	.LVL285:
 2982              		.loc 1 1087 24 discriminator 1 view .LVU875
 2983 0040 E060     		str	r0, [r4, #12]
1088:../Drivers/ISP/isp/Src/isp_services.c ****   pConfig->coeff[1][0] = From_CConv_Reg(colorConvConfig.GR);
 2984              		.loc 1 1088 3 is_stmt 1 view .LVU876
 2985              		.loc 1 1088 26 is_stmt 0 view .LVU877
 2986 0042 BDF90E00 		ldrsh	r0, [sp, #14]
 2987 0046 FFF7FEFF 		bl	From_CConv_Reg
 2988              	.LVL286:
 2989              		.loc 1 1088 24 discriminator 1 view .LVU878
 2990 004a 2061     		str	r0, [r4, #16]
1089:../Drivers/ISP/isp/Src/isp_services.c ****   pConfig->coeff[1][1] = From_CConv_Reg(colorConvConfig.GG);
 2991              		.loc 1 1089 3 is_stmt 1 view .LVU879
 2992              		.loc 1 1089 26 is_stmt 0 view .LVU880
 2993 004c BDF91000 		ldrsh	r0, [sp, #16]
 2994 0050 FFF7FEFF 		bl	From_CConv_Reg
 2995              	.LVL287:
 2996              		.loc 1 1089 24 discriminator 1 view .LVU881
 2997 0054 6061     		str	r0, [r4, #20]
1090:../Drivers/ISP/isp/Src/isp_services.c ****   pConfig->coeff[1][2] = From_CConv_Reg(colorConvConfig.GB);
 2998              		.loc 1 1090 3 is_stmt 1 view .LVU882
 2999              		.loc 1 1090 26 is_stmt 0 view .LVU883
ARM GAS  /tmp/ccAu1Zkx.s 			page 79


 3000 0056 BDF91200 		ldrsh	r0, [sp, #18]
 3001 005a FFF7FEFF 		bl	From_CConv_Reg
 3002              	.LVL288:
 3003              		.loc 1 1090 24 discriminator 1 view .LVU884
 3004 005e A061     		str	r0, [r4, #24]
1091:../Drivers/ISP/isp/Src/isp_services.c ****   pConfig->coeff[2][0] = From_CConv_Reg(colorConvConfig.BR);
 3005              		.loc 1 1091 3 is_stmt 1 view .LVU885
 3006              		.loc 1 1091 26 is_stmt 0 view .LVU886
 3007 0060 BDF91600 		ldrsh	r0, [sp, #22]
 3008 0064 FFF7FEFF 		bl	From_CConv_Reg
 3009              	.LVL289:
 3010              		.loc 1 1091 24 discriminator 1 view .LVU887
 3011 0068 E061     		str	r0, [r4, #28]
1092:../Drivers/ISP/isp/Src/isp_services.c ****   pConfig->coeff[2][1] = From_CConv_Reg(colorConvConfig.BG);
 3012              		.loc 1 1092 3 is_stmt 1 view .LVU888
 3013              		.loc 1 1092 26 is_stmt 0 view .LVU889
 3014 006a BDF91800 		ldrsh	r0, [sp, #24]
 3015 006e FFF7FEFF 		bl	From_CConv_Reg
 3016              	.LVL290:
 3017              		.loc 1 1092 24 discriminator 1 view .LVU890
 3018 0072 2062     		str	r0, [r4, #32]
1093:../Drivers/ISP/isp/Src/isp_services.c ****   pConfig->coeff[2][2] = From_CConv_Reg(colorConvConfig.BB);
 3019              		.loc 1 1093 3 is_stmt 1 view .LVU891
 3020              		.loc 1 1093 26 is_stmt 0 view .LVU892
 3021 0074 BDF91A00 		ldrsh	r0, [sp, #26]
 3022 0078 FFF7FEFF 		bl	From_CConv_Reg
 3023              	.LVL291:
 3024              		.loc 1 1093 24 discriminator 1 view .LVU893
 3025 007c 6062     		str	r0, [r4, #36]
1094:../Drivers/ISP/isp/Src/isp_services.c **** 
1095:../Drivers/ISP/isp/Src/isp_services.c ****   return ISP_OK;
 3026              		.loc 1 1095 3 is_stmt 1 view .LVU894
 3027              		.loc 1 1095 10 is_stmt 0 view .LVU895
 3028 007e 0020     		movs	r0, #0
 3029              	.LVL292:
 3030              	.L269:
1096:../Drivers/ISP/isp/Src/isp_services.c **** }
 3031              		.loc 1 1096 1 view .LVU896
 3032 0080 09B0     		add	sp, sp, #36
 3033              	.LCFI63:
 3034              		.cfi_remember_state
 3035              		.cfi_def_cfa_offset 12
 3036              		@ sp needed
 3037 0082 30BD     		pop	{r4, r5, pc}
 3038              	.LVL293:
 3039              	.L274:
 3040              	.LCFI64:
 3041              		.cfi_restore_state
1078:../Drivers/ISP/isp/Src/isp_services.c ****   }
 3042              		.loc 1 1078 12 view .LVU897
 3043 0084 5A20     		movs	r0, #90
 3044              	.LVL294:
1078:../Drivers/ISP/isp/Src/isp_services.c ****   }
 3045              		.loc 1 1078 12 view .LVU898
 3046 0086 FBE7     		b	.L269
 3047              	.LVL295:
 3048              	.L271:
ARM GAS  /tmp/ccAu1Zkx.s 			page 80


 3049              	.LCFI65:
 3050              		.cfi_def_cfa_offset 0
 3051              		.cfi_restore 4
 3052              		.cfi_restore 5
 3053              		.cfi_restore 14
1078:../Drivers/ISP/isp/Src/isp_services.c ****   }
 3054              		.loc 1 1078 12 view .LVU899
 3055 0088 5A20     		movs	r0, #90
 3056              	.LVL296:
 3057              		.loc 1 1096 1 view .LVU900
 3058 008a 7047     		bx	lr
 3059              		.cfi_endproc
 3060              	.LFE910:
 3062              		.section	.text.ISP_SVC_Sensor_GetInfo,"ax",%progbits
 3063              		.align	1
 3064              		.global	ISP_SVC_Sensor_GetInfo
 3065              		.syntax unified
 3066              		.thumb
 3067              		.thumb_func
 3069              	ISP_SVC_Sensor_GetInfo:
 3070              	.LVL297:
 3071              	.LFB911:
1097:../Drivers/ISP/isp/Src/isp_services.c **** 
1098:../Drivers/ISP/isp/Src/isp_services.c **** /**
1099:../Drivers/ISP/isp/Src/isp_services.c ****   * @brief  ISP_SVC_Sensor_GetInfo
1100:../Drivers/ISP/isp/Src/isp_services.c ****   *         Get the sensor info
1101:../Drivers/ISP/isp/Src/isp_services.c ****   * @param  hIsp: ISP device handle
1102:../Drivers/ISP/isp/Src/isp_services.c ****   * @param  pConfig: Pointer to the sensor info
1103:../Drivers/ISP/isp/Src/isp_services.c ****   * @retval operation result
1104:../Drivers/ISP/isp/Src/isp_services.c ****   */
1105:../Drivers/ISP/isp/Src/isp_services.c **** ISP_StatusTypeDef ISP_SVC_Sensor_GetInfo(ISP_HandleTypeDef *hIsp, ISP_SensorInfoTypeDef *pConfig)
1106:../Drivers/ISP/isp/Src/isp_services.c **** {
 3072              		.loc 1 1106 1 is_stmt 1 view -0
 3073              		.cfi_startproc
 3074              		@ args = 0, pretend = 0, frame = 0
 3075              		@ frame_needed = 0, uses_anonymous_args = 0
1107:../Drivers/ISP/isp/Src/isp_services.c ****   /* Check handle validity */
1108:../Drivers/ISP/isp/Src/isp_services.c ****   if ((hIsp == NULL) || (pConfig == NULL))
 3076              		.loc 1 1108 3 view .LVU902
 3077              		.loc 1 1108 6 is_stmt 0 view .LVU903
 3078 0000 68B1     		cbz	r0, .L282
1106:../Drivers/ISP/isp/Src/isp_services.c ****   /* Check handle validity */
 3079              		.loc 1 1106 1 view .LVU904
 3080 0002 08B5     		push	{r3, lr}
 3081              	.LCFI66:
 3082              		.cfi_def_cfa_offset 8
 3083              		.cfi_offset 3, -8
 3084              		.cfi_offset 14, -4
 3085              		.loc 1 1108 22 discriminator 1 view .LVU905
 3086 0004 29B1     		cbz	r1, .L285
1109:../Drivers/ISP/isp/Src/isp_services.c ****   {
1110:../Drivers/ISP/isp/Src/isp_services.c ****     return ISP_ERR_SENSORINFO_EINVAL;
1111:../Drivers/ISP/isp/Src/isp_services.c ****   }
1112:../Drivers/ISP/isp/Src/isp_services.c **** 
1113:../Drivers/ISP/isp/Src/isp_services.c ****   if (hIsp->appliHelpers.GetSensorInfo != NULL)
 3087              		.loc 1 1113 3 is_stmt 1 view .LVU906
 3088              		.loc 1 1113 25 is_stmt 0 view .LVU907
ARM GAS  /tmp/ccAu1Zkx.s 			page 81


 3089 0006 826A     		ldr	r2, [r0, #40]
 3090              		.loc 1 1113 6 view .LVU908
 3091 0008 2AB1     		cbz	r2, .L279
1114:../Drivers/ISP/isp/Src/isp_services.c ****   {
1115:../Drivers/ISP/isp/Src/isp_services.c ****     if (hIsp->appliHelpers.GetSensorInfo(hIsp->cameraInstance, pConfig) != 0)
 3092              		.loc 1 1115 5 is_stmt 1 view .LVU909
 3093              		.loc 1 1115 9 is_stmt 0 view .LVU910
 3094 000a 4068     		ldr	r0, [r0, #4]
 3095              	.LVL298:
 3096              		.loc 1 1115 9 view .LVU911
