ARM GAS  /tmp/ccZzrCLx.s 			page 1


   1              		.arch armv8.1-m.main
   2              		.fpu fpv5-d16
   3              		.arch_extension dsp
   4              		.arch_extension fp
   5              		.arch_extension fp.dp
   6              		.arch_extension mve
   7              		.arch_extension mve.fp
   8              		.eabi_attribute 5, "cortex-m55"
   9              		.eabi_attribute 28, 1
  10              		.eabi_attribute 20, 1
  11              		.eabi_attribute 21, 1
  12              		.eabi_attribute 23, 3
  13              		.eabi_attribute 24, 1
  14              		.eabi_attribute 25, 1
  15              		.eabi_attribute 26, 1
  16              		.eabi_attribute 30, 1
  17              		.eabi_attribute 34, 1
  18              		.eabi_attribute 38, 1
  19              		.eabi_attribute 18, 4
  20              		.file	"stm32n6xx_hal.c"
  21              		.text
  22              	.Ltext0:
  23              		.cfi_sections	.debug_frame
  24              		.file 1 "../Drivers/STM32N6xx_HAL_Driver/Src/stm32n6xx_hal.c"
  25              		.section	.text.HAL_MspInit,"ax",%progbits
  26              		.align	1
  27              		.weak	HAL_MspInit
  28              		.syntax unified
  29              		.thumb
  30              		.thumb_func
  32              	HAL_MspInit:
  33              	.LFB883:
   1:../Drivers/STM32N6xx_HAL_Driver/Src/stm32n6xx_hal.c **** /**
   2:../Drivers/STM32N6xx_HAL_Driver/Src/stm32n6xx_hal.c ****   ******************************************************************************
   3:../Drivers/STM32N6xx_HAL_Driver/Src/stm32n6xx_hal.c ****   * @file    stm32n6xx_hal.c
   4:../Drivers/STM32N6xx_HAL_Driver/Src/stm32n6xx_hal.c ****   * @author  MCD Application Team
   5:../Drivers/STM32N6xx_HAL_Driver/Src/stm32n6xx_hal.c ****   * @brief   HAL module driver.
   6:../Drivers/STM32N6xx_HAL_Driver/Src/stm32n6xx_hal.c ****   *          This is the common part of the HAL initialization
   7:../Drivers/STM32N6xx_HAL_Driver/Src/stm32n6xx_hal.c ****   *
   8:../Drivers/STM32N6xx_HAL_Driver/Src/stm32n6xx_hal.c ****   ******************************************************************************
   9:../Drivers/STM32N6xx_HAL_Driver/Src/stm32n6xx_hal.c ****   * @attention
  10:../Drivers/STM32N6xx_HAL_Driver/Src/stm32n6xx_hal.c ****   *
  11:../Drivers/STM32N6xx_HAL_Driver/Src/stm32n6xx_hal.c ****   * Copyright (c) 2023 STMicroelectronics.
  12:../Drivers/STM32N6xx_HAL_Driver/Src/stm32n6xx_hal.c ****   * All rights reserved.
  13:../Drivers/STM32N6xx_HAL_Driver/Src/stm32n6xx_hal.c ****   *
  14:../Drivers/STM32N6xx_HAL_Driver/Src/stm32n6xx_hal.c ****   * This software is licensed under terms that can be found in the LICENSE file
  15:../Drivers/STM32N6xx_HAL_Driver/Src/stm32n6xx_hal.c ****   * in the root directory of this software component.
  16:../Drivers/STM32N6xx_HAL_Driver/Src/stm32n6xx_hal.c ****   * If no LICENSE file comes with this software, it is provided AS-IS.
  17:../Drivers/STM32N6xx_HAL_Driver/Src/stm32n6xx_hal.c ****   *
  18:../Drivers/STM32N6xx_HAL_Driver/Src/stm32n6xx_hal.c ****   ******************************************************************************
  19:../Drivers/STM32N6xx_HAL_Driver/Src/stm32n6xx_hal.c ****   @verbatim
  20:../Drivers/STM32N6xx_HAL_Driver/Src/stm32n6xx_hal.c ****   ==============================================================================
  21:../Drivers/STM32N6xx_HAL_Driver/Src/stm32n6xx_hal.c ****                      ##### How to use this driver #####
  22:../Drivers/STM32N6xx_HAL_Driver/Src/stm32n6xx_hal.c ****   ==============================================================================
  23:../Drivers/STM32N6xx_HAL_Driver/Src/stm32n6xx_hal.c ****     [..]
  24:../Drivers/STM32N6xx_HAL_Driver/Src/stm32n6xx_hal.c ****     The common HAL driver contains a set of generic and common APIs that can be
  25:../Drivers/STM32N6xx_HAL_Driver/Src/stm32n6xx_hal.c ****     used by the PPP peripheral drivers and the user to start using the HAL.
ARM GAS  /tmp/ccZzrCLx.s 			page 2


  26:../Drivers/STM32N6xx_HAL_Driver/Src/stm32n6xx_hal.c ****     [..]
  27:../Drivers/STM32N6xx_HAL_Driver/Src/stm32n6xx_hal.c ****     The HAL contains two APIs' categories:
  28:../Drivers/STM32N6xx_HAL_Driver/Src/stm32n6xx_hal.c ****          (+) Common HAL APIs
  29:../Drivers/STM32N6xx_HAL_Driver/Src/stm32n6xx_hal.c ****          (+) Services HAL APIs
  30:../Drivers/STM32N6xx_HAL_Driver/Src/stm32n6xx_hal.c ****     [..]
  31:../Drivers/STM32N6xx_HAL_Driver/Src/stm32n6xx_hal.c ****     All the SYSCFG functions have the same privilege and security attributes.
  32:../Drivers/STM32N6xx_HAL_Driver/Src/stm32n6xx_hal.c ****          (+) Functions can operate in non-privileged code should
  33:../Drivers/STM32N6xx_HAL_Driver/Src/stm32n6xx_hal.c ****              privileged and unprivileged data access are granted to the
  34:../Drivers/STM32N6xx_HAL_Driver/Src/stm32n6xx_hal.c ****              peripheral (see HAL_RIF_RISC_SetSlaveSecureAttributes)
  35:../Drivers/STM32N6xx_HAL_Driver/Src/stm32n6xx_hal.c **** 
  36:../Drivers/STM32N6xx_HAL_Driver/Src/stm32n6xx_hal.c ****          (+) Functions  can operate in non-secure code should
  37:../Drivers/STM32N6xx_HAL_Driver/Src/stm32n6xx_hal.c ****              secure and non-secure data access are granted to the peripheral
  38:../Drivers/STM32N6xx_HAL_Driver/Src/stm32n6xx_hal.c ****              (see HAL_RIF_RISC_SetSlaveSecureAttributes).
  39:../Drivers/STM32N6xx_HAL_Driver/Src/stm32n6xx_hal.c **** 
  40:../Drivers/STM32N6xx_HAL_Driver/Src/stm32n6xx_hal.c ****   @endverbatim
  41:../Drivers/STM32N6xx_HAL_Driver/Src/stm32n6xx_hal.c ****   ******************************************************************************
  42:../Drivers/STM32N6xx_HAL_Driver/Src/stm32n6xx_hal.c ****   */
  43:../Drivers/STM32N6xx_HAL_Driver/Src/stm32n6xx_hal.c **** 
  44:../Drivers/STM32N6xx_HAL_Driver/Src/stm32n6xx_hal.c **** /* Includes ------------------------------------------------------------------*/
  45:../Drivers/STM32N6xx_HAL_Driver/Src/stm32n6xx_hal.c **** #include "stm32n6xx_hal.h"
  46:../Drivers/STM32N6xx_HAL_Driver/Src/stm32n6xx_hal.c **** 
  47:../Drivers/STM32N6xx_HAL_Driver/Src/stm32n6xx_hal.c **** /** @addtogroup STM32N6xx_HAL_Driver
  48:../Drivers/STM32N6xx_HAL_Driver/Src/stm32n6xx_hal.c ****   * @{
  49:../Drivers/STM32N6xx_HAL_Driver/Src/stm32n6xx_hal.c ****   */
  50:../Drivers/STM32N6xx_HAL_Driver/Src/stm32n6xx_hal.c **** 
  51:../Drivers/STM32N6xx_HAL_Driver/Src/stm32n6xx_hal.c **** /** @defgroup HAL HAL
  52:../Drivers/STM32N6xx_HAL_Driver/Src/stm32n6xx_hal.c ****   * @brief HAL module driver
  53:../Drivers/STM32N6xx_HAL_Driver/Src/stm32n6xx_hal.c ****   * @{
  54:../Drivers/STM32N6xx_HAL_Driver/Src/stm32n6xx_hal.c ****   */
  55:../Drivers/STM32N6xx_HAL_Driver/Src/stm32n6xx_hal.c **** 
  56:../Drivers/STM32N6xx_HAL_Driver/Src/stm32n6xx_hal.c **** #ifdef HAL_MODULE_ENABLED
  57:../Drivers/STM32N6xx_HAL_Driver/Src/stm32n6xx_hal.c **** 
  58:../Drivers/STM32N6xx_HAL_Driver/Src/stm32n6xx_hal.c **** /* Private typedef -----------------------------------------------------------*/
  59:../Drivers/STM32N6xx_HAL_Driver/Src/stm32n6xx_hal.c **** /* Private define ------------------------------------------------------------*/
  60:../Drivers/STM32N6xx_HAL_Driver/Src/stm32n6xx_hal.c **** #define HAL_TIMEOUT_SYSCFG_ABORT        5U    /* 5 ms */
  61:../Drivers/STM32N6xx_HAL_Driver/Src/stm32n6xx_hal.c **** 
  62:../Drivers/STM32N6xx_HAL_Driver/Src/stm32n6xx_hal.c **** /* Private macros ------------------------------------------------------------*/
  63:../Drivers/STM32N6xx_HAL_Driver/Src/stm32n6xx_hal.c **** /* Private variables ---------------------------------------------------------*/
  64:../Drivers/STM32N6xx_HAL_Driver/Src/stm32n6xx_hal.c **** /* Exported variables --------------------------------------------------------*/
  65:../Drivers/STM32N6xx_HAL_Driver/Src/stm32n6xx_hal.c **** 
  66:../Drivers/STM32N6xx_HAL_Driver/Src/stm32n6xx_hal.c **** /** @defgroup HAL_Exported_Variables HAL Exported Variables
  67:../Drivers/STM32N6xx_HAL_Driver/Src/stm32n6xx_hal.c ****   * @{
  68:../Drivers/STM32N6xx_HAL_Driver/Src/stm32n6xx_hal.c ****   */
  69:../Drivers/STM32N6xx_HAL_Driver/Src/stm32n6xx_hal.c **** __IO uint32_t uwTick;
  70:../Drivers/STM32N6xx_HAL_Driver/Src/stm32n6xx_hal.c **** uint32_t uwTickPrio   = (1UL << __NVIC_PRIO_BITS); /* Invalid PRIO */
  71:../Drivers/STM32N6xx_HAL_Driver/Src/stm32n6xx_hal.c **** HAL_TickFreqTypeDef uwTickFreq = HAL_TICK_FREQ_DEFAULT;  /* 1KHz */
  72:../Drivers/STM32N6xx_HAL_Driver/Src/stm32n6xx_hal.c **** /**
  73:../Drivers/STM32N6xx_HAL_Driver/Src/stm32n6xx_hal.c ****   * @}
  74:../Drivers/STM32N6xx_HAL_Driver/Src/stm32n6xx_hal.c ****   */
  75:../Drivers/STM32N6xx_HAL_Driver/Src/stm32n6xx_hal.c **** 
  76:../Drivers/STM32N6xx_HAL_Driver/Src/stm32n6xx_hal.c **** /* Private function prototypes -----------------------------------------------*/
  77:../Drivers/STM32N6xx_HAL_Driver/Src/stm32n6xx_hal.c **** /* Exported functions --------------------------------------------------------*/
  78:../Drivers/STM32N6xx_HAL_Driver/Src/stm32n6xx_hal.c **** 
  79:../Drivers/STM32N6xx_HAL_Driver/Src/stm32n6xx_hal.c **** /** @defgroup HAL_Exported_Functions HAL Exported Functions
  80:../Drivers/STM32N6xx_HAL_Driver/Src/stm32n6xx_hal.c ****   * @{
  81:../Drivers/STM32N6xx_HAL_Driver/Src/stm32n6xx_hal.c ****   */
  82:../Drivers/STM32N6xx_HAL_Driver/Src/stm32n6xx_hal.c **** 
ARM GAS  /tmp/ccZzrCLx.s 			page 3


  83:../Drivers/STM32N6xx_HAL_Driver/Src/stm32n6xx_hal.c **** /** @defgroup HAL_Exported_Functions_Group1 Initialization and de-initialization Functions
  84:../Drivers/STM32N6xx_HAL_Driver/Src/stm32n6xx_hal.c ****   * @brief    Initialization and de-initialization functions
  85:../Drivers/STM32N6xx_HAL_Driver/Src/stm32n6xx_hal.c ****   *
  86:../Drivers/STM32N6xx_HAL_Driver/Src/stm32n6xx_hal.c **** @verbatim
  87:../Drivers/STM32N6xx_HAL_Driver/Src/stm32n6xx_hal.c ****  ===============================================================================
  88:../Drivers/STM32N6xx_HAL_Driver/Src/stm32n6xx_hal.c ****               ##### Initialization and de-initialization functions #####
  89:../Drivers/STM32N6xx_HAL_Driver/Src/stm32n6xx_hal.c ****  ===============================================================================
  90:../Drivers/STM32N6xx_HAL_Driver/Src/stm32n6xx_hal.c ****     [..]  This section provides functions allowing to:
  91:../Drivers/STM32N6xx_HAL_Driver/Src/stm32n6xx_hal.c ****       (+) Initializes the NVIC allocation and initial clock configuration.
  92:../Drivers/STM32N6xx_HAL_Driver/Src/stm32n6xx_hal.c ****           It initializes the systick also when timeout is needed
  93:../Drivers/STM32N6xx_HAL_Driver/Src/stm32n6xx_hal.c ****           and the backup domain when enabled.
  94:../Drivers/STM32N6xx_HAL_Driver/Src/stm32n6xx_hal.c ****       (+) De-Initializes common part of the HAL.
  95:../Drivers/STM32N6xx_HAL_Driver/Src/stm32n6xx_hal.c ****       (+) Configure The time base source to have 1ms time base with a dedicated
  96:../Drivers/STM32N6xx_HAL_Driver/Src/stm32n6xx_hal.c ****           Tick interrupt priority.
  97:../Drivers/STM32N6xx_HAL_Driver/Src/stm32n6xx_hal.c ****         (++) SysTick timer is used by default as source of time base, but user
  98:../Drivers/STM32N6xx_HAL_Driver/Src/stm32n6xx_hal.c ****              can eventually implement his proper time base source (a general purpose
  99:../Drivers/STM32N6xx_HAL_Driver/Src/stm32n6xx_hal.c ****              timer for example or other time source), keeping in mind that Time base
 100:../Drivers/STM32N6xx_HAL_Driver/Src/stm32n6xx_hal.c ****              duration should be kept 1ms since PPP_TIMEOUT_VALUEs are defined and
 101:../Drivers/STM32N6xx_HAL_Driver/Src/stm32n6xx_hal.c ****              handled in milliseconds basis.
 102:../Drivers/STM32N6xx_HAL_Driver/Src/stm32n6xx_hal.c ****         (++) Time base configuration function (HAL_InitTick ()) is called automatically
 103:../Drivers/STM32N6xx_HAL_Driver/Src/stm32n6xx_hal.c ****              at the beginning of the program after reset by HAL_Init() or at any time
 104:../Drivers/STM32N6xx_HAL_Driver/Src/stm32n6xx_hal.c ****              when clock is configured, by HAL_RCC_ClockConfig().
 105:../Drivers/STM32N6xx_HAL_Driver/Src/stm32n6xx_hal.c ****         (++) Source of time base is configured  to generate interrupts at regular
 106:../Drivers/STM32N6xx_HAL_Driver/Src/stm32n6xx_hal.c ****              time intervals. Care must be taken if HAL_Delay() is called from a
 107:../Drivers/STM32N6xx_HAL_Driver/Src/stm32n6xx_hal.c ****              peripheral ISR process, the Tick interrupt line must have higher priority
 108:../Drivers/STM32N6xx_HAL_Driver/Src/stm32n6xx_hal.c ****             (numerically lower) than the peripheral interrupt. Otherwise the caller
 109:../Drivers/STM32N6xx_HAL_Driver/Src/stm32n6xx_hal.c ****             ISR process will be blocked.
 110:../Drivers/STM32N6xx_HAL_Driver/Src/stm32n6xx_hal.c ****        (++) functions affecting time base configurations are declared as __weak
 111:../Drivers/STM32N6xx_HAL_Driver/Src/stm32n6xx_hal.c ****              to make  override possible  in case of other  implementations in user file.
 112:../Drivers/STM32N6xx_HAL_Driver/Src/stm32n6xx_hal.c **** @endverbatim
 113:../Drivers/STM32N6xx_HAL_Driver/Src/stm32n6xx_hal.c ****   * @{
 114:../Drivers/STM32N6xx_HAL_Driver/Src/stm32n6xx_hal.c ****   */
 115:../Drivers/STM32N6xx_HAL_Driver/Src/stm32n6xx_hal.c **** 
 116:../Drivers/STM32N6xx_HAL_Driver/Src/stm32n6xx_hal.c **** /**
 117:../Drivers/STM32N6xx_HAL_Driver/Src/stm32n6xx_hal.c ****   * @brief  Configure the time base source, NVIC and any required global low
 118:../Drivers/STM32N6xx_HAL_Driver/Src/stm32n6xx_hal.c ****   *         level hardware by calling the HAL_MspInit() callback function to be optionally defined
 119:../Drivers/STM32N6xx_HAL_Driver/Src/stm32n6xx_hal.c ****   *         in user file stm32n6xx_hal_msp.c.
 120:../Drivers/STM32N6xx_HAL_Driver/Src/stm32n6xx_hal.c ****   *
 121:../Drivers/STM32N6xx_HAL_Driver/Src/stm32n6xx_hal.c ****   * @note   HAL_Init() function is called at the beginning of program after reset and before
 122:../Drivers/STM32N6xx_HAL_Driver/Src/stm32n6xx_hal.c ****   *         the clock configuration.
 123:../Drivers/STM32N6xx_HAL_Driver/Src/stm32n6xx_hal.c ****   *
 124:../Drivers/STM32N6xx_HAL_Driver/Src/stm32n6xx_hal.c ****   * @note   In the default implementation the System Timer (Systick) is used as source of time base
 125:../Drivers/STM32N6xx_HAL_Driver/Src/stm32n6xx_hal.c ****   *         The Systick configuration is based on HSI clock, as HSI is the clock
 126:../Drivers/STM32N6xx_HAL_Driver/Src/stm32n6xx_hal.c ****   *         used after a system Reset and the NVIC configuration is set to Priority group 4.
 127:../Drivers/STM32N6xx_HAL_Driver/Src/stm32n6xx_hal.c ****   *         Once done, time base tick starts incrementing: the tick variable counter is incremented
 128:../Drivers/STM32N6xx_HAL_Driver/Src/stm32n6xx_hal.c ****   *         each 1ms in the SysTick_Handler() interrupt handler.
 129:../Drivers/STM32N6xx_HAL_Driver/Src/stm32n6xx_hal.c ****   *
 130:../Drivers/STM32N6xx_HAL_Driver/Src/stm32n6xx_hal.c ****   * @retval HAL status
 131:../Drivers/STM32N6xx_HAL_Driver/Src/stm32n6xx_hal.c ****   */
 132:../Drivers/STM32N6xx_HAL_Driver/Src/stm32n6xx_hal.c **** HAL_StatusTypeDef HAL_Init(void)
 133:../Drivers/STM32N6xx_HAL_Driver/Src/stm32n6xx_hal.c **** {
 134:../Drivers/STM32N6xx_HAL_Driver/Src/stm32n6xx_hal.c ****   /* Set Interrupt Group Priority */
 135:../Drivers/STM32N6xx_HAL_Driver/Src/stm32n6xx_hal.c ****   HAL_NVIC_SetPriorityGrouping(NVIC_PRIORITYGROUP_4);
 136:../Drivers/STM32N6xx_HAL_Driver/Src/stm32n6xx_hal.c **** 
 137:../Drivers/STM32N6xx_HAL_Driver/Src/stm32n6xx_hal.c ****   /* Ensure time base clock coherency in SystemCoreClock global variable */
 138:../Drivers/STM32N6xx_HAL_Driver/Src/stm32n6xx_hal.c ****   SystemCoreClockUpdate();
 139:../Drivers/STM32N6xx_HAL_Driver/Src/stm32n6xx_hal.c **** 
ARM GAS  /tmp/ccZzrCLx.s 			page 4


 140:../Drivers/STM32N6xx_HAL_Driver/Src/stm32n6xx_hal.c ****   /* Initialize 1ms tick time base (default SysTick based on HSI clock after Reset) */
 141:../Drivers/STM32N6xx_HAL_Driver/Src/stm32n6xx_hal.c ****   if (HAL_InitTick(TICK_INT_PRIORITY) != HAL_OK)
 142:../Drivers/STM32N6xx_HAL_Driver/Src/stm32n6xx_hal.c ****   {
 143:../Drivers/STM32N6xx_HAL_Driver/Src/stm32n6xx_hal.c ****     return HAL_ERROR;
 144:../Drivers/STM32N6xx_HAL_Driver/Src/stm32n6xx_hal.c ****   }
 145:../Drivers/STM32N6xx_HAL_Driver/Src/stm32n6xx_hal.c **** 
 146:../Drivers/STM32N6xx_HAL_Driver/Src/stm32n6xx_hal.c ****   /* Init the low level hardware */
 147:../Drivers/STM32N6xx_HAL_Driver/Src/stm32n6xx_hal.c ****   HAL_MspInit();
 148:../Drivers/STM32N6xx_HAL_Driver/Src/stm32n6xx_hal.c **** 
 149:../Drivers/STM32N6xx_HAL_Driver/Src/stm32n6xx_hal.c ****   /* Return function status */
 150:../Drivers/STM32N6xx_HAL_Driver/Src/stm32n6xx_hal.c ****   return HAL_OK;
 151:../Drivers/STM32N6xx_HAL_Driver/Src/stm32n6xx_hal.c **** }
 152:../Drivers/STM32N6xx_HAL_Driver/Src/stm32n6xx_hal.c **** 
 153:../Drivers/STM32N6xx_HAL_Driver/Src/stm32n6xx_hal.c **** /**
 154:../Drivers/STM32N6xx_HAL_Driver/Src/stm32n6xx_hal.c ****   * @brief  This function de-initializes all peripherals and low level hardware resources.
 155:../Drivers/STM32N6xx_HAL_Driver/Src/stm32n6xx_hal.c ****   * @note   This function should only be called from code running in internal RAM
 156:../Drivers/STM32N6xx_HAL_Driver/Src/stm32n6xx_hal.c ****   *         since it resets the external peripheral memory interfaces.
 157:../Drivers/STM32N6xx_HAL_Driver/Src/stm32n6xx_hal.c ****   * @note   This function is optional.
 158:../Drivers/STM32N6xx_HAL_Driver/Src/stm32n6xx_hal.c ****   * @retval HAL status
 159:../Drivers/STM32N6xx_HAL_Driver/Src/stm32n6xx_hal.c ****   */
 160:../Drivers/STM32N6xx_HAL_Driver/Src/stm32n6xx_hal.c **** HAL_StatusTypeDef HAL_DeInit(void)
 161:../Drivers/STM32N6xx_HAL_Driver/Src/stm32n6xx_hal.c **** {
 162:../Drivers/STM32N6xx_HAL_Driver/Src/stm32n6xx_hal.c ****   /* Reset of all peripherals */
 163:../Drivers/STM32N6xx_HAL_Driver/Src/stm32n6xx_hal.c ****   __HAL_RCC_APB1_FORCE_RESET();
 164:../Drivers/STM32N6xx_HAL_Driver/Src/stm32n6xx_hal.c ****   __HAL_RCC_APB1_RELEASE_RESET();
 165:../Drivers/STM32N6xx_HAL_Driver/Src/stm32n6xx_hal.c **** 
 166:../Drivers/STM32N6xx_HAL_Driver/Src/stm32n6xx_hal.c ****   __HAL_RCC_APB2_FORCE_RESET();
 167:../Drivers/STM32N6xx_HAL_Driver/Src/stm32n6xx_hal.c ****   __HAL_RCC_APB2_RELEASE_RESET();
 168:../Drivers/STM32N6xx_HAL_Driver/Src/stm32n6xx_hal.c **** 
 169:../Drivers/STM32N6xx_HAL_Driver/Src/stm32n6xx_hal.c ****   __HAL_RCC_APB4_FORCE_RESET();
 170:../Drivers/STM32N6xx_HAL_Driver/Src/stm32n6xx_hal.c ****   __HAL_RCC_APB4_RELEASE_RESET();
 171:../Drivers/STM32N6xx_HAL_Driver/Src/stm32n6xx_hal.c **** 
 172:../Drivers/STM32N6xx_HAL_Driver/Src/stm32n6xx_hal.c ****   __HAL_RCC_APB5_FORCE_RESET();
 173:../Drivers/STM32N6xx_HAL_Driver/Src/stm32n6xx_hal.c ****   __HAL_RCC_APB5_RELEASE_RESET();
 174:../Drivers/STM32N6xx_HAL_Driver/Src/stm32n6xx_hal.c **** 
 175:../Drivers/STM32N6xx_HAL_Driver/Src/stm32n6xx_hal.c ****   __HAL_RCC_AHB1_FORCE_RESET();
 176:../Drivers/STM32N6xx_HAL_Driver/Src/stm32n6xx_hal.c ****   __HAL_RCC_AHB1_RELEASE_RESET();
 177:../Drivers/STM32N6xx_HAL_Driver/Src/stm32n6xx_hal.c **** 
 178:../Drivers/STM32N6xx_HAL_Driver/Src/stm32n6xx_hal.c ****   __HAL_RCC_AHB2_FORCE_RESET();
 179:../Drivers/STM32N6xx_HAL_Driver/Src/stm32n6xx_hal.c ****   __HAL_RCC_AHB2_RELEASE_RESET();
 180:../Drivers/STM32N6xx_HAL_Driver/Src/stm32n6xx_hal.c **** 
 181:../Drivers/STM32N6xx_HAL_Driver/Src/stm32n6xx_hal.c ****   __HAL_RCC_AHB3_FORCE_RESET();
 182:../Drivers/STM32N6xx_HAL_Driver/Src/stm32n6xx_hal.c ****   __HAL_RCC_AHB3_RELEASE_RESET();
 183:../Drivers/STM32N6xx_HAL_Driver/Src/stm32n6xx_hal.c **** 
 184:../Drivers/STM32N6xx_HAL_Driver/Src/stm32n6xx_hal.c ****   __HAL_RCC_AHB4_FORCE_RESET();
 185:../Drivers/STM32N6xx_HAL_Driver/Src/stm32n6xx_hal.c ****   __HAL_RCC_AHB4_RELEASE_RESET();
 186:../Drivers/STM32N6xx_HAL_Driver/Src/stm32n6xx_hal.c **** 
 187:../Drivers/STM32N6xx_HAL_Driver/Src/stm32n6xx_hal.c ****   __HAL_RCC_AHB5_FORCE_RESET();
 188:../Drivers/STM32N6xx_HAL_Driver/Src/stm32n6xx_hal.c ****   __HAL_RCC_AHB5_RELEASE_RESET();
 189:../Drivers/STM32N6xx_HAL_Driver/Src/stm32n6xx_hal.c **** 
 190:../Drivers/STM32N6xx_HAL_Driver/Src/stm32n6xx_hal.c ****   /* De-Init the low level hardware */
 191:../Drivers/STM32N6xx_HAL_Driver/Src/stm32n6xx_hal.c ****   HAL_MspDeInit();
 192:../Drivers/STM32N6xx_HAL_Driver/Src/stm32n6xx_hal.c **** 
 193:../Drivers/STM32N6xx_HAL_Driver/Src/stm32n6xx_hal.c ****   /* Return function status */
 194:../Drivers/STM32N6xx_HAL_Driver/Src/stm32n6xx_hal.c ****   return HAL_OK;
 195:../Drivers/STM32N6xx_HAL_Driver/Src/stm32n6xx_hal.c **** }
 196:../Drivers/STM32N6xx_HAL_Driver/Src/stm32n6xx_hal.c **** 
ARM GAS  /tmp/ccZzrCLx.s 			page 5


 197:../Drivers/STM32N6xx_HAL_Driver/Src/stm32n6xx_hal.c **** /**
 198:../Drivers/STM32N6xx_HAL_Driver/Src/stm32n6xx_hal.c ****   * @brief  Initializes the MSP.
 199:../Drivers/STM32N6xx_HAL_Driver/Src/stm32n6xx_hal.c ****   * @retval None
 200:../Drivers/STM32N6xx_HAL_Driver/Src/stm32n6xx_hal.c ****   */
 201:../Drivers/STM32N6xx_HAL_Driver/Src/stm32n6xx_hal.c **** __weak void HAL_MspInit(void)
 202:../Drivers/STM32N6xx_HAL_Driver/Src/stm32n6xx_hal.c **** {
  34              		.loc 1 202 1 view -0
  35              		.cfi_startproc
  36              		@ args = 0, pretend = 0, frame = 0
  37              		@ frame_needed = 0, uses_anonymous_args = 0
  38              		@ link register save eliminated.
 203:../Drivers/STM32N6xx_HAL_Driver/Src/stm32n6xx_hal.c ****   /* NOTE : This function Should not be modified, when the callback is needed,
 204:../Drivers/STM32N6xx_HAL_Driver/Src/stm32n6xx_hal.c ****             the HAL_MspInit could be implemented in the user file
 205:../Drivers/STM32N6xx_HAL_Driver/Src/stm32n6xx_hal.c ****    */
 206:../Drivers/STM32N6xx_HAL_Driver/Src/stm32n6xx_hal.c **** }
  39              		.loc 1 206 1 view .LVU1
  40 0000 7047     		bx	lr
  41              		.cfi_endproc
  42              	.LFE883:
  44              		.section	.text.HAL_MspDeInit,"ax",%progbits
  45              		.align	1
  46              		.weak	HAL_MspDeInit
  47              		.syntax unified
  48              		.thumb
  49              		.thumb_func
  51              	HAL_MspDeInit:
  52              	.LFB884:
 207:../Drivers/STM32N6xx_HAL_Driver/Src/stm32n6xx_hal.c **** 
 208:../Drivers/STM32N6xx_HAL_Driver/Src/stm32n6xx_hal.c **** /**
 209:../Drivers/STM32N6xx_HAL_Driver/Src/stm32n6xx_hal.c ****   * @brief  DeInitializes the MSP.
 210:../Drivers/STM32N6xx_HAL_Driver/Src/stm32n6xx_hal.c ****   * @retval None
 211:../Drivers/STM32N6xx_HAL_Driver/Src/stm32n6xx_hal.c ****   */
 212:../Drivers/STM32N6xx_HAL_Driver/Src/stm32n6xx_hal.c **** __weak void HAL_MspDeInit(void)
 213:../Drivers/STM32N6xx_HAL_Driver/Src/stm32n6xx_hal.c **** {
  53              		.loc 1 213 1 view -0
  54              		.cfi_startproc
  55              		@ args = 0, pretend = 0, frame = 0
  56              		@ frame_needed = 0, uses_anonymous_args = 0
  57              		@ link register save eliminated.
 214:../Drivers/STM32N6xx_HAL_Driver/Src/stm32n6xx_hal.c ****   /* NOTE : This function Should not be modified, when the callback is needed,
 215:../Drivers/STM32N6xx_HAL_Driver/Src/stm32n6xx_hal.c ****             the HAL_MspDeInit could be implemented in the user file
 216:../Drivers/STM32N6xx_HAL_Driver/Src/stm32n6xx_hal.c ****    */
 217:../Drivers/STM32N6xx_HAL_Driver/Src/stm32n6xx_hal.c **** }
  58              		.loc 1 217 1 view .LVU3
  59 0000 7047     		bx	lr
  60              		.cfi_endproc
  61              	.LFE884:
  63              		.section	.text.HAL_DeInit,"ax",%progbits
  64              		.align	1
  65              		.global	HAL_DeInit
  66              		.syntax unified
  67              		.thumb
  68              		.thumb_func
  70              	HAL_DeInit:
  71              	.LFB882:
 161:../Drivers/STM32N6xx_HAL_Driver/Src/stm32n6xx_hal.c ****   /* Reset of all peripherals */
  72              		.loc 1 161 1 view -0
ARM GAS  /tmp/ccZzrCLx.s 			page 6


  73              		.cfi_startproc
  74              		@ args = 0, pretend = 0, frame = 0
  75              		@ frame_needed = 0, uses_anonymous_args = 0
  76 0000 10B5     		push	{r4, lr}
  77              	.LCFI0:
  78              		.cfi_def_cfa_offset 8
  79              		.cfi_offset 4, -8
  80              		.cfi_offset 14, -4
 163:../Drivers/STM32N6xx_HAL_Driver/Src/stm32n6xx_hal.c ****   __HAL_RCC_APB1_RELEASE_RESET();
  81              		.loc 1 163 3 view .LVU5
 163:../Drivers/STM32N6xx_HAL_Driver/Src/stm32n6xx_hal.c ****   __HAL_RCC_APB1_RELEASE_RESET();
  82              		.loc 1 163 3 view .LVU6
  83 0002 1F4B     		ldr	r3, .L5
  84 0004 1F4A     		ldr	r2, .L5+4
  85 0006 C3F8242A 		str	r2, [r3, #2596]
 163:../Drivers/STM32N6xx_HAL_Driver/Src/stm32n6xx_hal.c ****   __HAL_RCC_APB1_RELEASE_RESET();
  86              		.loc 1 163 3 view .LVU7
  87 000a 1F4A     		ldr	r2, .L5+8
  88 000c C3F8282A 		str	r2, [r3, #2600]
 163:../Drivers/STM32N6xx_HAL_Driver/Src/stm32n6xx_hal.c ****   __HAL_RCC_APB1_RELEASE_RESET();
  89              		.loc 1 163 3 view .LVU8
 164:../Drivers/STM32N6xx_HAL_Driver/Src/stm32n6xx_hal.c **** 
  90              		.loc 1 164 3 view .LVU9
 164:../Drivers/STM32N6xx_HAL_Driver/Src/stm32n6xx_hal.c **** 
  91              		.loc 1 164 3 view .LVU10
  92 0010 0024     		movs	r4, #0
  93 0012 C3F8244A 		str	r4, [r3, #2596]
 164:../Drivers/STM32N6xx_HAL_Driver/Src/stm32n6xx_hal.c **** 
  94              		.loc 1 164 3 view .LVU11
  95 0016 C3F8284A 		str	r4, [r3, #2600]
 164:../Drivers/STM32N6xx_HAL_Driver/Src/stm32n6xx_hal.c **** 
  96              		.loc 1 164 3 view .LVU12
 166:../Drivers/STM32N6xx_HAL_Driver/Src/stm32n6xx_hal.c ****   __HAL_RCC_APB2_RELEASE_RESET();
  97              		.loc 1 166 3 view .LVU13
  98 001a 1C4A     		ldr	r2, .L5+12
  99 001c C3F82C2A 		str	r2, [r3, #2604]
 167:../Drivers/STM32N6xx_HAL_Driver/Src/stm32n6xx_hal.c **** 
 100              		.loc 1 167 3 view .LVU14
 101 0020 C3F82C4A 		str	r4, [r3, #2604]
 169:../Drivers/STM32N6xx_HAL_Driver/Src/stm32n6xx_hal.c ****   __HAL_RCC_APB4_RELEASE_RESET();
 102              		.loc 1 169 3 view .LVU15
 169:../Drivers/STM32N6xx_HAL_Driver/Src/stm32n6xx_hal.c ****   __HAL_RCC_APB4_RELEASE_RESET();
 103              		.loc 1 169 3 view .LVU16
 104 0024 1A4A     		ldr	r2, .L5+16
 105 0026 C3F8342A 		str	r2, [r3, #2612]
 169:../Drivers/STM32N6xx_HAL_Driver/Src/stm32n6xx_hal.c ****   __HAL_RCC_APB4_RELEASE_RESET();
 106              		.loc 1 169 3 view .LVU17
 107 002a 0522     		movs	r2, #5
 108 002c C3F8382A 		str	r2, [r3, #2616]
 169:../Drivers/STM32N6xx_HAL_Driver/Src/stm32n6xx_hal.c ****   __HAL_RCC_APB4_RELEASE_RESET();
 109              		.loc 1 169 3 view .LVU18
 170:../Drivers/STM32N6xx_HAL_Driver/Src/stm32n6xx_hal.c **** 
 110              		.loc 1 170 3 view .LVU19
 170:../Drivers/STM32N6xx_HAL_Driver/Src/stm32n6xx_hal.c **** 
 111              		.loc 1 170 3 view .LVU20
 112 0030 C3F8344A 		str	r4, [r3, #2612]
 170:../Drivers/STM32N6xx_HAL_Driver/Src/stm32n6xx_hal.c **** 
ARM GAS  /tmp/ccZzrCLx.s 			page 7


 113              		.loc 1 170 3 view .LVU21
 114 0034 C3F8384A 		str	r4, [r3, #2616]
 170:../Drivers/STM32N6xx_HAL_Driver/Src/stm32n6xx_hal.c **** 
 115              		.loc 1 170 3 view .LVU22
 172:../Drivers/STM32N6xx_HAL_Driver/Src/stm32n6xx_hal.c ****   __HAL_RCC_APB5_RELEASE_RESET();
 116              		.loc 1 172 3 view .LVU23
 117 0038 7622     		movs	r2, #118
 118 003a C3F83C2A 		str	r2, [r3, #2620]
 173:../Drivers/STM32N6xx_HAL_Driver/Src/stm32n6xx_hal.c **** 
 119              		.loc 1 173 3 view .LVU24
 120 003e C3F83C4A 		str	r4, [r3, #2620]
 175:../Drivers/STM32N6xx_HAL_Driver/Src/stm32n6xx_hal.c ****   __HAL_RCC_AHB1_RELEASE_RESET();
 121              		.loc 1 175 3 view .LVU25
 122 0042 3022     		movs	r2, #48
 123 0044 C3F8102A 		str	r2, [r3, #2576]
 175:../Drivers/STM32N6xx_HAL_Driver/Src/stm32n6xx_hal.c ****   __HAL_RCC_AHB1_RELEASE_RESET();
 124              		.loc 1 175 31 view .LVU26
 176:../Drivers/STM32N6xx_HAL_Driver/Src/stm32n6xx_hal.c **** 
 125              		.loc 1 176 3 view .LVU27
 126 0048 C3F8104A 		str	r4, [r3, #2576]
 178:../Drivers/STM32N6xx_HAL_Driver/Src/stm32n6xx_hal.c ****   __HAL_RCC_AHB2_RELEASE_RESET();
 127              		.loc 1 178 3 view .LVU28
 128 004c 4FF44432 		mov	r2, #200704
 129 0050 C3F8142A 		str	r2, [r3, #2580]
 178:../Drivers/STM32N6xx_HAL_Driver/Src/stm32n6xx_hal.c ****   __HAL_RCC_AHB2_RELEASE_RESET();
 130              		.loc 1 178 31 view .LVU29
 179:../Drivers/STM32N6xx_HAL_Driver/Src/stm32n6xx_hal.c **** 
 131              		.loc 1 179 3 view .LVU30
 132 0054 C3F8144A 		str	r4, [r3, #2580]
 181:../Drivers/STM32N6xx_HAL_Driver/Src/stm32n6xx_hal.c ****   __HAL_RCC_AHB3_RELEASE_RESET();
 133              		.loc 1 181 3 view .LVU31
 134 0058 40F21752 		movw	r2, #1303
 135 005c C3F8182A 		str	r2, [r3, #2584]
 181:../Drivers/STM32N6xx_HAL_Driver/Src/stm32n6xx_hal.c ****   __HAL_RCC_AHB3_RELEASE_RESET();
 136              		.loc 1 181 31 view .LVU32
 182:../Drivers/STM32N6xx_HAL_Driver/Src/stm32n6xx_hal.c **** 
 137              		.loc 1 182 3 view .LVU33
 138 0060 C3F8184A 		str	r4, [r3, #2584]
 184:../Drivers/STM32N6xx_HAL_Driver/Src/stm32n6xx_hal.c ****   __HAL_RCC_AHB4_RELEASE_RESET();
 139              		.loc 1 184 3 view .LVU34
 140 0064 0B4A     		ldr	r2, .L5+20
 141 0066 C3F81C2A 		str	r2, [r3, #2588]
 184:../Drivers/STM32N6xx_HAL_Driver/Src/stm32n6xx_hal.c ****   __HAL_RCC_AHB4_RELEASE_RESET();
 142              		.loc 1 184 31 view .LVU35
 185:../Drivers/STM32N6xx_HAL_Driver/Src/stm32n6xx_hal.c **** 
 143              		.loc 1 185 3 view .LVU36
 144 006a C3F81C4A 		str	r4, [r3, #2588]
 187:../Drivers/STM32N6xx_HAL_Driver/Src/stm32n6xx_hal.c ****   __HAL_RCC_AHB5_RELEASE_RESET();
 145              		.loc 1 187 3 view .LVU37
 146 006e 0A4A     		ldr	r2, .L5+24
 147 0070 C3F8202A 		str	r2, [r3, #2592]
 188:../Drivers/STM32N6xx_HAL_Driver/Src/stm32n6xx_hal.c **** 
 148              		.loc 1 188 3 view .LVU38
 149 0074 C3F8204A 		str	r4, [r3, #2592]
 191:../Drivers/STM32N6xx_HAL_Driver/Src/stm32n6xx_hal.c **** 
 150              		.loc 1 191 3 view .LVU39
 151 0078 FFF7FEFF 		bl	HAL_MspDeInit
ARM GAS  /tmp/ccZzrCLx.s 			page 8


 152              	.LVL0:
 194:../Drivers/STM32N6xx_HAL_Driver/Src/stm32n6xx_hal.c **** }
 153              		.loc 1 194 3 view .LVU40
 195:../Drivers/STM32N6xx_HAL_Driver/Src/stm32n6xx_hal.c **** 
 154              		.loc 1 195 1 is_stmt 0 view .LVU41
 155 007c 2046     		mov	r0, r4
 156 007e 10BD     		pop	{r4, pc}
 157              	.L6:
 158              		.align	2
 159              	.L5:
 160 0080 00800256 		.word	1443004416
 161 0084 FFF3FFC3 		.word	-1006636033
 162 0088 20010400 		.word	262432
 163 008c F3B07F00 		.word	8368371
 164 0090 AC9E0100 		.word	106156
 165 0094 FFE00D00 		.word	909567
 166 0098 FB319AFF 		.word	-6671877
 167              		.cfi_endproc
 168              	.LFE882:
 170              		.section	.text.HAL_InitTick,"ax",%progbits
 171              		.align	1
 172              		.weak	HAL_InitTick
 173              		.syntax unified
 174              		.thumb
 175              		.thumb_func
 177              	HAL_InitTick:
 178              	.LVL1:
 179              	.LFB885:
 218:../Drivers/STM32N6xx_HAL_Driver/Src/stm32n6xx_hal.c **** 
 219:../Drivers/STM32N6xx_HAL_Driver/Src/stm32n6xx_hal.c **** /**
 220:../Drivers/STM32N6xx_HAL_Driver/Src/stm32n6xx_hal.c ****   * @brief This function configures the source of the time base.
 221:../Drivers/STM32N6xx_HAL_Driver/Src/stm32n6xx_hal.c ****   *        The time source is configured to have 1ms time base with a dedicated
 222:../Drivers/STM32N6xx_HAL_Driver/Src/stm32n6xx_hal.c ****   *        Tick interrupt priority.
 223:../Drivers/STM32N6xx_HAL_Driver/Src/stm32n6xx_hal.c ****   * @note This function is called  automatically at the beginning of program after
 224:../Drivers/STM32N6xx_HAL_Driver/Src/stm32n6xx_hal.c ****   *       reset by HAL_Init() or at any time when clock is reconfigured  by HAL_RCC_ClockConfig().
 225:../Drivers/STM32N6xx_HAL_Driver/Src/stm32n6xx_hal.c ****   * @note In the default implementation, SysTick timer is the source of time base.
 226:../Drivers/STM32N6xx_HAL_Driver/Src/stm32n6xx_hal.c ****   *       It is used to generate interrupts at regular time intervals.
 227:../Drivers/STM32N6xx_HAL_Driver/Src/stm32n6xx_hal.c ****   *       Care must be taken if HAL_Delay() is called from a peripheral ISR process,
 228:../Drivers/STM32N6xx_HAL_Driver/Src/stm32n6xx_hal.c ****   *       The SysTick interrupt must have higher priority (numerically lower)
 229:../Drivers/STM32N6xx_HAL_Driver/Src/stm32n6xx_hal.c ****   *       than the peripheral interrupt. Otherwise the caller ISR process will be blocked.
 230:../Drivers/STM32N6xx_HAL_Driver/Src/stm32n6xx_hal.c ****   *       The function is declared as __weak  to be overwritten  in case of other
 231:../Drivers/STM32N6xx_HAL_Driver/Src/stm32n6xx_hal.c ****   *       implementation  in user file.
 232:../Drivers/STM32N6xx_HAL_Driver/Src/stm32n6xx_hal.c ****   * @param TickPriority: Tick interrupt priority.
 233:../Drivers/STM32N6xx_HAL_Driver/Src/stm32n6xx_hal.c ****   * @retval HAL status
 234:../Drivers/STM32N6xx_HAL_Driver/Src/stm32n6xx_hal.c ****   */
 235:../Drivers/STM32N6xx_HAL_Driver/Src/stm32n6xx_hal.c **** __weak HAL_StatusTypeDef HAL_InitTick(uint32_t TickPriority)
 236:../Drivers/STM32N6xx_HAL_Driver/Src/stm32n6xx_hal.c **** {
 180              		.loc 1 236 1 is_stmt 1 view -0
 181              		.cfi_startproc
 182              		@ args = 0, pretend = 0, frame = 0
 183              		@ frame_needed = 0, uses_anonymous_args = 0
 237:../Drivers/STM32N6xx_HAL_Driver/Src/stm32n6xx_hal.c ****   /* Check uwTickFreq for MisraC 2012 (even if uwTickFreq is a enum type that don't take the value 
 238:../Drivers/STM32N6xx_HAL_Driver/Src/stm32n6xx_hal.c ****   if ((uint32_t)uwTickFreq == 0UL)
 184              		.loc 1 238 3 view .LVU43
 185              		.loc 1 238 28 is_stmt 0 view .LVU44
 186 0000 0F4B     		ldr	r3, .L15
 187 0002 1B78     		ldrb	r3, [r3]	@ zero_extendqisi2
ARM GAS  /tmp/ccZzrCLx.s 			page 9


 188              		.loc 1 238 6 view .LVU45
 189 0004 0BB9     		cbnz	r3, .L8
 239:../Drivers/STM32N6xx_HAL_Driver/Src/stm32n6xx_hal.c ****   {
 240:../Drivers/STM32N6xx_HAL_Driver/Src/stm32n6xx_hal.c ****     return HAL_ERROR;
 190              		.loc 1 240 12 view .LVU46
 191 0006 0120     		movs	r0, #1
 192              	.LVL2:
 241:../Drivers/STM32N6xx_HAL_Driver/Src/stm32n6xx_hal.c ****   }
 242:../Drivers/STM32N6xx_HAL_Driver/Src/stm32n6xx_hal.c **** 
 243:../Drivers/STM32N6xx_HAL_Driver/Src/stm32n6xx_hal.c ****   /* Configure the SysTick to have interrupt in 1ms time basis*/
 244:../Drivers/STM32N6xx_HAL_Driver/Src/stm32n6xx_hal.c ****   if (HAL_SYSTICK_Config(SystemCoreClock / (1000UL / (uint32_t)uwTickFreq)) > 0U)
 245:../Drivers/STM32N6xx_HAL_Driver/Src/stm32n6xx_hal.c ****   {
 246:../Drivers/STM32N6xx_HAL_Driver/Src/stm32n6xx_hal.c ****     return HAL_ERROR;
 247:../Drivers/STM32N6xx_HAL_Driver/Src/stm32n6xx_hal.c ****   }
 248:../Drivers/STM32N6xx_HAL_Driver/Src/stm32n6xx_hal.c **** 
 249:../Drivers/STM32N6xx_HAL_Driver/Src/stm32n6xx_hal.c ****   /* Configure the SysTick IRQ priority */
 250:../Drivers/STM32N6xx_HAL_Driver/Src/stm32n6xx_hal.c ****   if (TickPriority < (1UL << __NVIC_PRIO_BITS))
 251:../Drivers/STM32N6xx_HAL_Driver/Src/stm32n6xx_hal.c ****   {
 252:../Drivers/STM32N6xx_HAL_Driver/Src/stm32n6xx_hal.c ****     HAL_NVIC_SetPriority(SysTick_IRQn, TickPriority, 0U);
 253:../Drivers/STM32N6xx_HAL_Driver/Src/stm32n6xx_hal.c ****     uwTickPrio = TickPriority;
 254:../Drivers/STM32N6xx_HAL_Driver/Src/stm32n6xx_hal.c ****   }
 255:../Drivers/STM32N6xx_HAL_Driver/Src/stm32n6xx_hal.c ****   else
 256:../Drivers/STM32N6xx_HAL_Driver/Src/stm32n6xx_hal.c ****   {
 257:../Drivers/STM32N6xx_HAL_Driver/Src/stm32n6xx_hal.c ****     return HAL_ERROR;
 258:../Drivers/STM32N6xx_HAL_Driver/Src/stm32n6xx_hal.c ****   }
 259:../Drivers/STM32N6xx_HAL_Driver/Src/stm32n6xx_hal.c **** 
 260:../Drivers/STM32N6xx_HAL_Driver/Src/stm32n6xx_hal.c ****   /* Return function status */
 261:../Drivers/STM32N6xx_HAL_Driver/Src/stm32n6xx_hal.c ****   return HAL_OK;
 262:../Drivers/STM32N6xx_HAL_Driver/Src/stm32n6xx_hal.c **** }
 193              		.loc 1 262 1 view .LVU47
 194 0008 7047     		bx	lr
 195              	.LVL3:
 196              	.L8:
 236:../Drivers/STM32N6xx_HAL_Driver/Src/stm32n6xx_hal.c ****   /* Check uwTickFreq for MisraC 2012 (even if uwTickFreq is a enum type that don't take the value 
 197              		.loc 1 236 1 view .LVU48
 198 000a 10B5     		push	{r4, lr}
 199              	.LCFI1:
 200              		.cfi_def_cfa_offset 8
 201              		.cfi_offset 4, -8
 202              		.cfi_offset 14, -4
 203 000c 0446     		mov	r4, r0
 244:../Drivers/STM32N6xx_HAL_Driver/Src/stm32n6xx_hal.c ****   {
 204              		.loc 1 244 3 is_stmt 1 view .LVU49
 244:../Drivers/STM32N6xx_HAL_Driver/Src/stm32n6xx_hal.c ****   {
 205              		.loc 1 244 7 is_stmt 0 view .LVU50
 206 000e 0D4A     		ldr	r2, .L15+4
 207 0010 1068     		ldr	r0, [r2]
 208              	.LVL4:
 244:../Drivers/STM32N6xx_HAL_Driver/Src/stm32n6xx_hal.c ****   {
 209              		.loc 1 244 52 view .LVU51
 210 0012 4FF47A72 		mov	r2, #1000
 211 0016 B2FBF3F3 		udiv	r3, r2, r3
 244:../Drivers/STM32N6xx_HAL_Driver/Src/stm32n6xx_hal.c ****   {
 212              		.loc 1 244 7 view .LVU52
 213 001a B0FBF3F0 		udiv	r0, r0, r3
 214 001e FFF7FEFF 		bl	HAL_SYSTICK_Config
 215              	.LVL5:
ARM GAS  /tmp/ccZzrCLx.s 			page 10


 244:../Drivers/STM32N6xx_HAL_Driver/Src/stm32n6xx_hal.c ****   {
 216              		.loc 1 244 6 discriminator 1 view .LVU53
 217 0022 08B9     		cbnz	r0, .L10
 250:../Drivers/STM32N6xx_HAL_Driver/Src/stm32n6xx_hal.c ****   {
 218              		.loc 1 250 3 is_stmt 1 view .LVU54
 250:../Drivers/STM32N6xx_HAL_Driver/Src/stm32n6xx_hal.c ****   {
 219              		.loc 1 250 6 is_stmt 0 view .LVU55
 220 0024 0F2C     		cmp	r4, #15
 221 0026 01D9     		bls	.L14
 222              	.L10:
 240:../Drivers/STM32N6xx_HAL_Driver/Src/stm32n6xx_hal.c ****   }
 223              		.loc 1 240 12 view .LVU56
 224 0028 0120     		movs	r0, #1
 225              	.L9:
 226              		.loc 1 262 1 view .LVU57
 227 002a 10BD     		pop	{r4, pc}
 228              	.LVL6:
 229              	.L14:
 252:../Drivers/STM32N6xx_HAL_Driver/Src/stm32n6xx_hal.c ****     uwTickPrio = TickPriority;
 230              		.loc 1 252 5 is_stmt 1 view .LVU58
 231 002c 0246     		mov	r2, r0
 232 002e 2146     		mov	r1, r4
 233 0030 4FF0FF30 		mov	r0, #-1
 234 0034 FFF7FEFF 		bl	HAL_NVIC_SetPriority
 235              	.LVL7:
 253:../Drivers/STM32N6xx_HAL_Driver/Src/stm32n6xx_hal.c ****   }
 236              		.loc 1 253 5 view .LVU59
 253:../Drivers/STM32N6xx_HAL_Driver/Src/stm32n6xx_hal.c ****   }
 237              		.loc 1 253 16 is_stmt 0 view .LVU60
 238 0038 034B     		ldr	r3, .L15+8
 239 003a 1C60     		str	r4, [r3]
 261:../Drivers/STM32N6xx_HAL_Driver/Src/stm32n6xx_hal.c **** }
 240              		.loc 1 261 3 is_stmt 1 view .LVU61
 261:../Drivers/STM32N6xx_HAL_Driver/Src/stm32n6xx_hal.c **** }
 241              		.loc 1 261 10 is_stmt 0 view .LVU62
 242 003c 0020     		movs	r0, #0
 243 003e F4E7     		b	.L9
 244              	.L16:
 245              		.align	2
 246              	.L15:
 247 0040 00000000 		.word	uwTickFreq
 248 0044 00000000 		.word	SystemCoreClock
 249 0048 00000000 		.word	uwTickPrio
 250              		.cfi_endproc
 251              	.LFE885:
 253              		.section	.text.HAL_Init,"ax",%progbits
 254              		.align	1
 255              		.global	HAL_Init
 256              		.syntax unified
 257              		.thumb
 258              		.thumb_func
 260              	HAL_Init:
 261              	.LFB881:
 133:../Drivers/STM32N6xx_HAL_Driver/Src/stm32n6xx_hal.c ****   /* Set Interrupt Group Priority */
 262              		.loc 1 133 1 is_stmt 1 view -0
 263              		.cfi_startproc
 264              		@ args = 0, pretend = 0, frame = 0
ARM GAS  /tmp/ccZzrCLx.s 			page 11


 265              		@ frame_needed = 0, uses_anonymous_args = 0
 266 0000 10B5     		push	{r4, lr}
 267              	.LCFI2:
 268              		.cfi_def_cfa_offset 8
 269              		.cfi_offset 4, -8
 270              		.cfi_offset 14, -4
 135:../Drivers/STM32N6xx_HAL_Driver/Src/stm32n6xx_hal.c **** 
 271              		.loc 1 135 3 view .LVU64
 272 0002 0320     		movs	r0, #3
 273 0004 FFF7FEFF 		bl	HAL_NVIC_SetPriorityGrouping
 274              	.LVL8:
 138:../Drivers/STM32N6xx_HAL_Driver/Src/stm32n6xx_hal.c **** 
 275              		.loc 1 138 3 view .LVU65
 276 0008 FFF7FEFF 		bl	SystemCoreClockUpdate
 277              	.LVL9:
 141:../Drivers/STM32N6xx_HAL_Driver/Src/stm32n6xx_hal.c ****   {
 278              		.loc 1 141 3 view .LVU66
 141:../Drivers/STM32N6xx_HAL_Driver/Src/stm32n6xx_hal.c ****   {
 279              		.loc 1 141 7 is_stmt 0 view .LVU67
 280 000c 0F20     		movs	r0, #15
 281 000e FFF7FEFF 		bl	HAL_InitTick
 282              	.LVL10:
 141:../Drivers/STM32N6xx_HAL_Driver/Src/stm32n6xx_hal.c ****   {
 283              		.loc 1 141 6 discriminator 1 view .LVU68
 284 0012 18B1     		cbz	r0, .L21
 143:../Drivers/STM32N6xx_HAL_Driver/Src/stm32n6xx_hal.c ****   }
 285              		.loc 1 143 12 view .LVU69
 286 0014 0123     		movs	r3, #1
 287 0016 1C46     		mov	r4, r3
 288              	.L18:
 151:../Drivers/STM32N6xx_HAL_Driver/Src/stm32n6xx_hal.c **** 
 289              		.loc 1 151 1 view .LVU70
 290 0018 2046     		mov	r0, r4
 291 001a 10BD     		pop	{r4, pc}
 292              	.L21:
 293 001c 0446     		mov	r4, r0
 147:../Drivers/STM32N6xx_HAL_Driver/Src/stm32n6xx_hal.c **** 
 294              		.loc 1 147 3 is_stmt 1 view .LVU71
 295 001e FFF7FEFF 		bl	HAL_MspInit
 296              	.LVL11:
 150:../Drivers/STM32N6xx_HAL_Driver/Src/stm32n6xx_hal.c **** }
 297              		.loc 1 150 3 view .LVU72
 150:../Drivers/STM32N6xx_HAL_Driver/Src/stm32n6xx_hal.c **** }
 298              		.loc 1 150 10 is_stmt 0 view .LVU73
 299 0022 F9E7     		b	.L18
 300              		.cfi_endproc
 301              	.LFE881:
 303              		.section	.text.HAL_IncTick,"ax",%progbits
 304              		.align	1
 305              		.weak	HAL_IncTick
 306              		.syntax unified
 307              		.thumb
 308              		.thumb_func
 310              	HAL_IncTick:
 311              	.LFB886:
 263:../Drivers/STM32N6xx_HAL_Driver/Src/stm32n6xx_hal.c **** 
 264:../Drivers/STM32N6xx_HAL_Driver/Src/stm32n6xx_hal.c **** /**
ARM GAS  /tmp/ccZzrCLx.s 			page 12


 265:../Drivers/STM32N6xx_HAL_Driver/Src/stm32n6xx_hal.c ****   * @}
 266:../Drivers/STM32N6xx_HAL_Driver/Src/stm32n6xx_hal.c ****   */
 267:../Drivers/STM32N6xx_HAL_Driver/Src/stm32n6xx_hal.c **** 
 268:../Drivers/STM32N6xx_HAL_Driver/Src/stm32n6xx_hal.c **** /** @defgroup HAL_Group2 HAL Control functions
 269:../Drivers/STM32N6xx_HAL_Driver/Src/stm32n6xx_hal.c ****   *  @brief    HAL Control functions
 270:../Drivers/STM32N6xx_HAL_Driver/Src/stm32n6xx_hal.c ****   *
 271:../Drivers/STM32N6xx_HAL_Driver/Src/stm32n6xx_hal.c **** @verbatim
 272:../Drivers/STM32N6xx_HAL_Driver/Src/stm32n6xx_hal.c ****  ===============================================================================
 273:../Drivers/STM32N6xx_HAL_Driver/Src/stm32n6xx_hal.c ****                       ##### HAL Control functions #####
 274:../Drivers/STM32N6xx_HAL_Driver/Src/stm32n6xx_hal.c ****  ===============================================================================
 275:../Drivers/STM32N6xx_HAL_Driver/Src/stm32n6xx_hal.c ****     [..]  This section provides functions allowing to:
 276:../Drivers/STM32N6xx_HAL_Driver/Src/stm32n6xx_hal.c ****       (+) Provide a tick value in millisecond
 277:../Drivers/STM32N6xx_HAL_Driver/Src/stm32n6xx_hal.c ****       (+) Provide a blocking delay in millisecond
 278:../Drivers/STM32N6xx_HAL_Driver/Src/stm32n6xx_hal.c ****       (+) Suspend the time base source interrupt
 279:../Drivers/STM32N6xx_HAL_Driver/Src/stm32n6xx_hal.c ****       (+) Resume the time base source interrupt
 280:../Drivers/STM32N6xx_HAL_Driver/Src/stm32n6xx_hal.c ****       (+) Get the HAL API driver version
 281:../Drivers/STM32N6xx_HAL_Driver/Src/stm32n6xx_hal.c ****       (+) Get the device identifier
 282:../Drivers/STM32N6xx_HAL_Driver/Src/stm32n6xx_hal.c ****       (+) Get the device revision identifier
 283:../Drivers/STM32N6xx_HAL_Driver/Src/stm32n6xx_hal.c ****       (+) Enable/Disable Debug module during SLEEP mode
 284:../Drivers/STM32N6xx_HAL_Driver/Src/stm32n6xx_hal.c ****       (+) Enable/Disable Debug module during STOP mode
 285:../Drivers/STM32N6xx_HAL_Driver/Src/stm32n6xx_hal.c ****       (+) Enable/Disable Debug module during STANDBY mode
 286:../Drivers/STM32N6xx_HAL_Driver/Src/stm32n6xx_hal.c **** 
 287:../Drivers/STM32N6xx_HAL_Driver/Src/stm32n6xx_hal.c **** @endverbatim
 288:../Drivers/STM32N6xx_HAL_Driver/Src/stm32n6xx_hal.c ****   * @{
 289:../Drivers/STM32N6xx_HAL_Driver/Src/stm32n6xx_hal.c ****   */
 290:../Drivers/STM32N6xx_HAL_Driver/Src/stm32n6xx_hal.c **** 
 291:../Drivers/STM32N6xx_HAL_Driver/Src/stm32n6xx_hal.c **** /**
 292:../Drivers/STM32N6xx_HAL_Driver/Src/stm32n6xx_hal.c ****   * @brief This function is called to increment a global variable "uwTick"
 293:../Drivers/STM32N6xx_HAL_Driver/Src/stm32n6xx_hal.c ****   *        used as application time base.
 294:../Drivers/STM32N6xx_HAL_Driver/Src/stm32n6xx_hal.c ****   * @note In the default implementation, this variable is incremented each 1ms
 295:../Drivers/STM32N6xx_HAL_Driver/Src/stm32n6xx_hal.c ****   *       in Systick ISR.
 296:../Drivers/STM32N6xx_HAL_Driver/Src/stm32n6xx_hal.c ****   * @note This function is declared as __weak to be overwritten in case of other
 297:../Drivers/STM32N6xx_HAL_Driver/Src/stm32n6xx_hal.c ****   *       implementations in user file.
 298:../Drivers/STM32N6xx_HAL_Driver/Src/stm32n6xx_hal.c ****   * @retval None
 299:../Drivers/STM32N6xx_HAL_Driver/Src/stm32n6xx_hal.c ****   */
 300:../Drivers/STM32N6xx_HAL_Driver/Src/stm32n6xx_hal.c **** __weak void HAL_IncTick(void)
 301:../Drivers/STM32N6xx_HAL_Driver/Src/stm32n6xx_hal.c **** {
 312              		.loc 1 301 1 is_stmt 1 view -0
 313              		.cfi_startproc
 314              		@ args = 0, pretend = 0, frame = 0
 315              		@ frame_needed = 0, uses_anonymous_args = 0
 316              		@ link register save eliminated.
 302:../Drivers/STM32N6xx_HAL_Driver/Src/stm32n6xx_hal.c ****   uwTick += (uint32_t)uwTickFreq;
 317              		.loc 1 302 3 view .LVU75
 318              		.loc 1 302 13 is_stmt 0 view .LVU76
 319 0000 034B     		ldr	r3, .L23
 320 0002 1B78     		ldrb	r3, [r3]	@ zero_extendqisi2
 321              		.loc 1 302 10 view .LVU77
 322 0004 034A     		ldr	r2, .L23+4
 323 0006 1168     		ldr	r1, [r2]
 324 0008 0B44     		add	r3, r3, r1
 325 000a 1360     		str	r3, [r2]
 303:../Drivers/STM32N6xx_HAL_Driver/Src/stm32n6xx_hal.c **** }
 326              		.loc 1 303 1 view .LVU78
 327 000c 7047     		bx	lr
 328              	.L24:
 329 000e 00BF     		.align	2
ARM GAS  /tmp/ccZzrCLx.s 			page 13


 330              	.L23:
 331 0010 00000000 		.word	uwTickFreq
 332 0014 00000000 		.word	uwTick
 333              		.cfi_endproc
 334              	.LFE886:
 336              		.section	.text.HAL_GetTick,"ax",%progbits
 337              		.align	1
 338              		.weak	HAL_GetTick
 339              		.syntax unified
 340              		.thumb
 341              		.thumb_func
 343              	HAL_GetTick:
 344              	.LFB887:
 304:../Drivers/STM32N6xx_HAL_Driver/Src/stm32n6xx_hal.c **** 
 305:../Drivers/STM32N6xx_HAL_Driver/Src/stm32n6xx_hal.c **** /**
 306:../Drivers/STM32N6xx_HAL_Driver/Src/stm32n6xx_hal.c ****   * @brief Provides a tick value in millisecond.
 307:../Drivers/STM32N6xx_HAL_Driver/Src/stm32n6xx_hal.c ****   * @note This function is declared as __weak to be overwritten in case of other
 308:../Drivers/STM32N6xx_HAL_Driver/Src/stm32n6xx_hal.c ****   *       implementations in user file.
 309:../Drivers/STM32N6xx_HAL_Driver/Src/stm32n6xx_hal.c ****   * @retval tick value
 310:../Drivers/STM32N6xx_HAL_Driver/Src/stm32n6xx_hal.c ****   */
 311:../Drivers/STM32N6xx_HAL_Driver/Src/stm32n6xx_hal.c **** __weak uint32_t HAL_GetTick(void)
 312:../Drivers/STM32N6xx_HAL_Driver/Src/stm32n6xx_hal.c **** {
 345              		.loc 1 312 1 is_stmt 1 view -0
 346              		.cfi_startproc
 347              		@ args = 0, pretend = 0, frame = 0
 348              		@ frame_needed = 0, uses_anonymous_args = 0
 349              		@ link register save eliminated.
 313:../Drivers/STM32N6xx_HAL_Driver/Src/stm32n6xx_hal.c ****   return uwTick;
 350              		.loc 1 313 3 view .LVU80
 314:../Drivers/STM32N6xx_HAL_Driver/Src/stm32n6xx_hal.c **** }
 351              		.loc 1 314 1 is_stmt 0 view .LVU81
 352 0000 014B     		ldr	r3, .L26
 353 0002 1868     		ldr	r0, [r3]
 354 0004 7047     		bx	lr
 355              	.L27:
 356 0006 00BF     		.align	2
 357              	.L26:
 358 0008 00000000 		.word	uwTick
 359              		.cfi_endproc
 360              	.LFE887:
 362              		.section	.text.HAL_GetTickPrio,"ax",%progbits
 363              		.align	1
 364              		.global	HAL_GetTickPrio
 365              		.syntax unified
 366              		.thumb
 367              		.thumb_func
 369              	HAL_GetTickPrio:
 370              	.LFB888:
 315:../Drivers/STM32N6xx_HAL_Driver/Src/stm32n6xx_hal.c **** 
 316:../Drivers/STM32N6xx_HAL_Driver/Src/stm32n6xx_hal.c **** /**
 317:../Drivers/STM32N6xx_HAL_Driver/Src/stm32n6xx_hal.c ****   * @brief This function returns a tick priority.
 318:../Drivers/STM32N6xx_HAL_Driver/Src/stm32n6xx_hal.c ****   * @retval tick priority
 319:../Drivers/STM32N6xx_HAL_Driver/Src/stm32n6xx_hal.c ****   */
 320:../Drivers/STM32N6xx_HAL_Driver/Src/stm32n6xx_hal.c **** uint32_t HAL_GetTickPrio(void)
 321:../Drivers/STM32N6xx_HAL_Driver/Src/stm32n6xx_hal.c **** {
 371              		.loc 1 321 1 is_stmt 1 view -0
 372              		.cfi_startproc
ARM GAS  /tmp/ccZzrCLx.s 			page 14


 373              		@ args = 0, pretend = 0, frame = 0
 374              		@ frame_needed = 0, uses_anonymous_args = 0
 375              		@ link register save eliminated.
 322:../Drivers/STM32N6xx_HAL_Driver/Src/stm32n6xx_hal.c ****   return uwTickPrio;
 376              		.loc 1 322 3 view .LVU83
 323:../Drivers/STM32N6xx_HAL_Driver/Src/stm32n6xx_hal.c **** }
 377              		.loc 1 323 1 is_stmt 0 view .LVU84
 378 0000 014B     		ldr	r3, .L29
 379 0002 1868     		ldr	r0, [r3]
 380 0004 7047     		bx	lr
 381              	.L30:
 382 0006 00BF     		.align	2
 383              	.L29:
 384 0008 00000000 		.word	uwTickPrio
 385              		.cfi_endproc
 386              	.LFE888:
 388              		.section	.text.HAL_SetTickFreq,"ax",%progbits
 389              		.align	1
 390              		.global	HAL_SetTickFreq
 391              		.syntax unified
 392              		.thumb
 393              		.thumb_func
 395              	HAL_SetTickFreq:
 396              	.LVL12:
 397              	.LFB889:
 324:../Drivers/STM32N6xx_HAL_Driver/Src/stm32n6xx_hal.c **** 
 325:../Drivers/STM32N6xx_HAL_Driver/Src/stm32n6xx_hal.c **** /**
 326:../Drivers/STM32N6xx_HAL_Driver/Src/stm32n6xx_hal.c ****   * @brief Set new tick Freq.
 327:../Drivers/STM32N6xx_HAL_Driver/Src/stm32n6xx_hal.c ****   * @param Freq Tick frequency, value of @ref HAL_TickFreqTypeDef.
 328:../Drivers/STM32N6xx_HAL_Driver/Src/stm32n6xx_hal.c ****   * @retval HAL status
 329:../Drivers/STM32N6xx_HAL_Driver/Src/stm32n6xx_hal.c ****   */
 330:../Drivers/STM32N6xx_HAL_Driver/Src/stm32n6xx_hal.c **** HAL_StatusTypeDef HAL_SetTickFreq(HAL_TickFreqTypeDef Freq)
 331:../Drivers/STM32N6xx_HAL_Driver/Src/stm32n6xx_hal.c **** {
 398              		.loc 1 331 1 is_stmt 1 view -0
 399              		.cfi_startproc
 400              		@ args = 0, pretend = 0, frame = 0
 401              		@ frame_needed = 0, uses_anonymous_args = 0
 402              		.loc 1 331 1 is_stmt 0 view .LVU86
 403 0000 10B5     		push	{r4, lr}
 404              	.LCFI3:
 405              		.cfi_def_cfa_offset 8
 406              		.cfi_offset 4, -8
 407              		.cfi_offset 14, -4
 332:../Drivers/STM32N6xx_HAL_Driver/Src/stm32n6xx_hal.c ****   HAL_StatusTypeDef status  = HAL_OK;
 408              		.loc 1 332 3 is_stmt 1 view .LVU87
 409              	.LVL13:
 333:../Drivers/STM32N6xx_HAL_Driver/Src/stm32n6xx_hal.c ****   HAL_TickFreqTypeDef prevTickFreq;
 410              		.loc 1 333 3 view .LVU88
 334:../Drivers/STM32N6xx_HAL_Driver/Src/stm32n6xx_hal.c **** 
 335:../Drivers/STM32N6xx_HAL_Driver/Src/stm32n6xx_hal.c ****   assert_param(IS_TICKFREQ(Freq));
 411              		.loc 1 335 3 view .LVU89
 336:../Drivers/STM32N6xx_HAL_Driver/Src/stm32n6xx_hal.c **** 
 337:../Drivers/STM32N6xx_HAL_Driver/Src/stm32n6xx_hal.c ****   if (uwTickFreq != Freq)
 412              		.loc 1 337 3 view .LVU90
 413              		.loc 1 337 18 is_stmt 0 view .LVU91
 414 0002 084B     		ldr	r3, .L38
 415 0004 1C78     		ldrb	r4, [r3]	@ zero_extendqisi2
ARM GAS  /tmp/ccZzrCLx.s 			page 15


 416              		.loc 1 337 6 view .LVU92
 417 0006 8442     		cmp	r4, r0
 418 0008 01D1     		bne	.L37
 332:../Drivers/STM32N6xx_HAL_Driver/Src/stm32n6xx_hal.c ****   HAL_TickFreqTypeDef prevTickFreq;
 419              		.loc 1 332 21 view .LVU93
 420 000a 0020     		movs	r0, #0
 421              	.LVL14:
 422              	.L32:
 338:../Drivers/STM32N6xx_HAL_Driver/Src/stm32n6xx_hal.c ****   {
 339:../Drivers/STM32N6xx_HAL_Driver/Src/stm32n6xx_hal.c ****     /* Back up uwTickFreq frequency */
 340:../Drivers/STM32N6xx_HAL_Driver/Src/stm32n6xx_hal.c ****     prevTickFreq = uwTickFreq;
 341:../Drivers/STM32N6xx_HAL_Driver/Src/stm32n6xx_hal.c **** 
 342:../Drivers/STM32N6xx_HAL_Driver/Src/stm32n6xx_hal.c ****     /* Update uwTickFreq global variable used by HAL_InitTick() */
 343:../Drivers/STM32N6xx_HAL_Driver/Src/stm32n6xx_hal.c ****     uwTickFreq = Freq;
 344:../Drivers/STM32N6xx_HAL_Driver/Src/stm32n6xx_hal.c **** 
 345:../Drivers/STM32N6xx_HAL_Driver/Src/stm32n6xx_hal.c ****     /* Apply the new tick Freq  */
 346:../Drivers/STM32N6xx_HAL_Driver/Src/stm32n6xx_hal.c ****     status = HAL_InitTick(uwTickPrio);
 347:../Drivers/STM32N6xx_HAL_Driver/Src/stm32n6xx_hal.c ****     if (status != HAL_OK)
 348:../Drivers/STM32N6xx_HAL_Driver/Src/stm32n6xx_hal.c ****     {
 349:../Drivers/STM32N6xx_HAL_Driver/Src/stm32n6xx_hal.c ****       /* Restore previous tick frequency */
 350:../Drivers/STM32N6xx_HAL_Driver/Src/stm32n6xx_hal.c ****       uwTickFreq = prevTickFreq;
 351:../Drivers/STM32N6xx_HAL_Driver/Src/stm32n6xx_hal.c ****     }
 352:../Drivers/STM32N6xx_HAL_Driver/Src/stm32n6xx_hal.c ****   }
 353:../Drivers/STM32N6xx_HAL_Driver/Src/stm32n6xx_hal.c **** 
 354:../Drivers/STM32N6xx_HAL_Driver/Src/stm32n6xx_hal.c ****   return status;
 423              		.loc 1 354 3 is_stmt 1 view .LVU94
 355:../Drivers/STM32N6xx_HAL_Driver/Src/stm32n6xx_hal.c **** }
 424              		.loc 1 355 1 is_stmt 0 view .LVU95
 425 000c 10BD     		pop	{r4, pc}
 426              	.LVL15:
 427              	.L37:
 340:../Drivers/STM32N6xx_HAL_Driver/Src/stm32n6xx_hal.c **** 
 428              		.loc 1 340 5 is_stmt 1 view .LVU96
 343:../Drivers/STM32N6xx_HAL_Driver/Src/stm32n6xx_hal.c **** 
 429              		.loc 1 343 5 view .LVU97
 343:../Drivers/STM32N6xx_HAL_Driver/Src/stm32n6xx_hal.c **** 
 430              		.loc 1 343 16 is_stmt 0 view .LVU98
 431 000e 1870     		strb	r0, [r3]
 346:../Drivers/STM32N6xx_HAL_Driver/Src/stm32n6xx_hal.c ****     if (status != HAL_OK)
 432              		.loc 1 346 5 is_stmt 1 view .LVU99
 346:../Drivers/STM32N6xx_HAL_Driver/Src/stm32n6xx_hal.c ****     if (status != HAL_OK)
 433              		.loc 1 346 14 is_stmt 0 view .LVU100
 434 0010 054B     		ldr	r3, .L38+4
 435 0012 1868     		ldr	r0, [r3]
 436              	.LVL16:
 346:../Drivers/STM32N6xx_HAL_Driver/Src/stm32n6xx_hal.c ****     if (status != HAL_OK)
 437              		.loc 1 346 14 view .LVU101
 438 0014 FFF7FEFF 		bl	HAL_InitTick
 439              	.LVL17:
 347:../Drivers/STM32N6xx_HAL_Driver/Src/stm32n6xx_hal.c ****     {
 440              		.loc 1 347 5 is_stmt 1 view .LVU102
 347:../Drivers/STM32N6xx_HAL_Driver/Src/stm32n6xx_hal.c ****     {
 441              		.loc 1 347 8 is_stmt 0 view .LVU103
 442 0018 0028     		cmp	r0, #0
 443 001a F7D0     		beq	.L32
 350:../Drivers/STM32N6xx_HAL_Driver/Src/stm32n6xx_hal.c ****     }
 444              		.loc 1 350 7 is_stmt 1 view .LVU104
ARM GAS  /tmp/ccZzrCLx.s 			page 16


 350:../Drivers/STM32N6xx_HAL_Driver/Src/stm32n6xx_hal.c ****     }
 445              		.loc 1 350 18 is_stmt 0 view .LVU105
 446 001c 014B     		ldr	r3, .L38
 447 001e 1C70     		strb	r4, [r3]
 448 0020 F4E7     		b	.L32
 449              	.L39:
 450 0022 00BF     		.align	2
 451              	.L38:
 452 0024 00000000 		.word	uwTickFreq
 453 0028 00000000 		.word	uwTickPrio
 454              		.cfi_endproc
 455              	.LFE889:
 457              		.section	.text.HAL_GetTickFreq,"ax",%progbits
 458              		.align	1
 459              		.global	HAL_GetTickFreq
 460              		.syntax unified
 461              		.thumb
 462              		.thumb_func
 464              	HAL_GetTickFreq:
 465              	.LFB890:
 356:../Drivers/STM32N6xx_HAL_Driver/Src/stm32n6xx_hal.c **** 
 357:../Drivers/STM32N6xx_HAL_Driver/Src/stm32n6xx_hal.c **** /**
 358:../Drivers/STM32N6xx_HAL_Driver/Src/stm32n6xx_hal.c ****   * @brief Return tick frequency.
 359:../Drivers/STM32N6xx_HAL_Driver/Src/stm32n6xx_hal.c ****   * @retval Tick frequency.
 360:../Drivers/STM32N6xx_HAL_Driver/Src/stm32n6xx_hal.c ****   *         Value of @ref HAL_TickFreqTypeDef.
 361:../Drivers/STM32N6xx_HAL_Driver/Src/stm32n6xx_hal.c ****   */
 362:../Drivers/STM32N6xx_HAL_Driver/Src/stm32n6xx_hal.c **** HAL_TickFreqTypeDef HAL_GetTickFreq(void)
 363:../Drivers/STM32N6xx_HAL_Driver/Src/stm32n6xx_hal.c **** {
 466              		.loc 1 363 1 is_stmt 1 view -0
 467              		.cfi_startproc
 468              		@ args = 0, pretend = 0, frame = 0
 469              		@ frame_needed = 0, uses_anonymous_args = 0
 470              		@ link register save eliminated.
 364:../Drivers/STM32N6xx_HAL_Driver/Src/stm32n6xx_hal.c ****   return uwTickFreq;
 471              		.loc 1 364 3 view .LVU107
 365:../Drivers/STM32N6xx_HAL_Driver/Src/stm32n6xx_hal.c **** }
 472              		.loc 1 365 1 is_stmt 0 view .LVU108
 473 0000 014B     		ldr	r3, .L41
 474 0002 1878     		ldrb	r0, [r3]	@ zero_extendqisi2
 475 0004 7047     		bx	lr
 476              	.L42:
 477 0006 00BF     		.align	2
 478              	.L41:
 479 0008 00000000 		.word	uwTickFreq
 480              		.cfi_endproc
 481              	.LFE890:
 483              		.section	.text.HAL_Delay,"ax",%progbits
 484              		.align	1
 485              		.weak	HAL_Delay
 486              		.syntax unified
 487              		.thumb
 488              		.thumb_func
 490              	HAL_Delay:
 491              	.LVL18:
 492              	.LFB891:
 366:../Drivers/STM32N6xx_HAL_Driver/Src/stm32n6xx_hal.c **** 
 367:../Drivers/STM32N6xx_HAL_Driver/Src/stm32n6xx_hal.c **** /**
ARM GAS  /tmp/ccZzrCLx.s 			page 17


 368:../Drivers/STM32N6xx_HAL_Driver/Src/stm32n6xx_hal.c ****   * @brief This function provides minimum delay (in milliseconds) based
 369:../Drivers/STM32N6xx_HAL_Driver/Src/stm32n6xx_hal.c ****   *        on variable incremented.
 370:../Drivers/STM32N6xx_HAL_Driver/Src/stm32n6xx_hal.c ****   * @note In the default implementation , SysTick timer is the source of time base.
 371:../Drivers/STM32N6xx_HAL_Driver/Src/stm32n6xx_hal.c ****   *       It is used to generate interrupts at regular time intervals where uwTick
 372:../Drivers/STM32N6xx_HAL_Driver/Src/stm32n6xx_hal.c ****   *       is incremented.
 373:../Drivers/STM32N6xx_HAL_Driver/Src/stm32n6xx_hal.c ****   * @note This function is declared as __weak to be overwritten in case of other
 374:../Drivers/STM32N6xx_HAL_Driver/Src/stm32n6xx_hal.c ****   *       implementations in user file.
 375:../Drivers/STM32N6xx_HAL_Driver/Src/stm32n6xx_hal.c ****   * @param Delay Specifies the delay time length, in milliseconds.
 376:../Drivers/STM32N6xx_HAL_Driver/Src/stm32n6xx_hal.c ****   * @retval None
 377:../Drivers/STM32N6xx_HAL_Driver/Src/stm32n6xx_hal.c ****   */
 378:../Drivers/STM32N6xx_HAL_Driver/Src/stm32n6xx_hal.c **** __weak void HAL_Delay(uint32_t Delay)
 379:../Drivers/STM32N6xx_HAL_Driver/Src/stm32n6xx_hal.c **** {
 493              		.loc 1 379 1 is_stmt 1 view -0
 494              		.cfi_startproc
 495              		@ args = 0, pretend = 0, frame = 0
 496              		@ frame_needed = 0, uses_anonymous_args = 0
 497              		.loc 1 379 1 is_stmt 0 view .LVU110
 498 0000 38B5     		push	{r3, r4, r5, lr}
 499              	.LCFI4:
 500              		.cfi_def_cfa_offset 16
 501              		.cfi_offset 3, -16
 502              		.cfi_offset 4, -12
 503              		.cfi_offset 5, -8
 504              		.cfi_offset 14, -4
 505 0002 0446     		mov	r4, r0
 380:../Drivers/STM32N6xx_HAL_Driver/Src/stm32n6xx_hal.c ****   uint32_t tickstart = HAL_GetTick();
 506              		.loc 1 380 3 is_stmt 1 view .LVU111
 507              		.loc 1 380 24 is_stmt 0 view .LVU112
 508 0004 FFF7FEFF 		bl	HAL_GetTick
 509              	.LVL19:
 510              		.loc 1 380 24 view .LVU113
 511 0008 0546     		mov	r5, r0
 512              	.LVL20:
 381:../Drivers/STM32N6xx_HAL_Driver/Src/stm32n6xx_hal.c ****   uint32_t wait = Delay;
 513              		.loc 1 381 3 is_stmt 1 view .LVU114
 382:../Drivers/STM32N6xx_HAL_Driver/Src/stm32n6xx_hal.c **** 
 383:../Drivers/STM32N6xx_HAL_Driver/Src/stm32n6xx_hal.c ****   /* Add a freq to guarantee minimum wait */
 384:../Drivers/STM32N6xx_HAL_Driver/Src/stm32n6xx_hal.c ****   if (wait < HAL_MAX_DELAY)
 514              		.loc 1 384 3 view .LVU115
 515              		.loc 1 384 6 is_stmt 0 view .LVU116
 516 000a B4F1FF3F 		cmp	r4, #-1
 517 000e 02D0     		beq	.L45
 385:../Drivers/STM32N6xx_HAL_Driver/Src/stm32n6xx_hal.c ****   {
 386:../Drivers/STM32N6xx_HAL_Driver/Src/stm32n6xx_hal.c ****     wait += (uint32_t)(uwTickFreq);
 518              		.loc 1 386 5 is_stmt 1 view .LVU117
 519              		.loc 1 386 13 is_stmt 0 view .LVU118
 520 0010 044B     		ldr	r3, .L47
 521 0012 1B78     		ldrb	r3, [r3]	@ zero_extendqisi2
 522              		.loc 1 386 10 view .LVU119
 523 0014 1C44     		add	r4, r4, r3
 524              	.LVL21:
 525              	.L45:
 387:../Drivers/STM32N6xx_HAL_Driver/Src/stm32n6xx_hal.c ****   }
 388:../Drivers/STM32N6xx_HAL_Driver/Src/stm32n6xx_hal.c **** 
 389:../Drivers/STM32N6xx_HAL_Driver/Src/stm32n6xx_hal.c ****   while ((HAL_GetTick() - tickstart) < wait)
 390:../Drivers/STM32N6xx_HAL_Driver/Src/stm32n6xx_hal.c ****   {
 391:../Drivers/STM32N6xx_HAL_Driver/Src/stm32n6xx_hal.c ****   }
ARM GAS  /tmp/ccZzrCLx.s 			page 18


 526              		.loc 1 391 3 is_stmt 1 view .LVU120
 389:../Drivers/STM32N6xx_HAL_Driver/Src/stm32n6xx_hal.c ****   {
 527              		.loc 1 389 38 discriminator 1 view .LVU121
 389:../Drivers/STM32N6xx_HAL_Driver/Src/stm32n6xx_hal.c ****   {
 528              		.loc 1 389 11 is_stmt 0 discriminator 1 view .LVU122
 529 0016 FFF7FEFF 		bl	HAL_GetTick
 530              	.LVL22:
 389:../Drivers/STM32N6xx_HAL_Driver/Src/stm32n6xx_hal.c ****   {
 531              		.loc 1 389 25 discriminator 2 view .LVU123
 532 001a 401B     		subs	r0, r0, r5
 389:../Drivers/STM32N6xx_HAL_Driver/Src/stm32n6xx_hal.c ****   {
 533              		.loc 1 389 38 discriminator 2 view .LVU124
 534 001c A042     		cmp	r0, r4
 535 001e FAD3     		bcc	.L45
 392:../Drivers/STM32N6xx_HAL_Driver/Src/stm32n6xx_hal.c **** }
 536              		.loc 1 392 1 view .LVU125
 537 0020 38BD     		pop	{r3, r4, r5, pc}
 538              	.LVL23:
 539              	.L48:
 540              		.loc 1 392 1 view .LVU126
 541 0022 00BF     		.align	2
 542              	.L47:
 543 0024 00000000 		.word	uwTickFreq
 544              		.cfi_endproc
 545              	.LFE891:
 547              		.section	.text.HAL_SuspendTick,"ax",%progbits
 548              		.align	1
 549              		.weak	HAL_SuspendTick
 550              		.syntax unified
 551              		.thumb
 552              		.thumb_func
 554              	HAL_SuspendTick:
 555              	.LFB892:
 393:../Drivers/STM32N6xx_HAL_Driver/Src/stm32n6xx_hal.c **** 
 394:../Drivers/STM32N6xx_HAL_Driver/Src/stm32n6xx_hal.c **** /**
 395:../Drivers/STM32N6xx_HAL_Driver/Src/stm32n6xx_hal.c ****   * @brief Suspend Tick increment.
 396:../Drivers/STM32N6xx_HAL_Driver/Src/stm32n6xx_hal.c ****   * @note In the default implementation , SysTick timer is the source of time base. It is
 397:../Drivers/STM32N6xx_HAL_Driver/Src/stm32n6xx_hal.c ****   *       used to generate interrupts at regular time intervals. Once HAL_SuspendTick()
 398:../Drivers/STM32N6xx_HAL_Driver/Src/stm32n6xx_hal.c ****   *       is called, the SysTick interrupt will be disabled and so Tick increment
 399:../Drivers/STM32N6xx_HAL_Driver/Src/stm32n6xx_hal.c ****   *       is suspended.
 400:../Drivers/STM32N6xx_HAL_Driver/Src/stm32n6xx_hal.c ****   * @note This function is declared as __weak to be overwritten in case of other
 401:../Drivers/STM32N6xx_HAL_Driver/Src/stm32n6xx_hal.c ****   *       implementations in user file.
 402:../Drivers/STM32N6xx_HAL_Driver/Src/stm32n6xx_hal.c ****   * @retval None
 403:../Drivers/STM32N6xx_HAL_Driver/Src/stm32n6xx_hal.c ****   */
 404:../Drivers/STM32N6xx_HAL_Driver/Src/stm32n6xx_hal.c **** __weak void HAL_SuspendTick(void)
 405:../Drivers/STM32N6xx_HAL_Driver/Src/stm32n6xx_hal.c **** {
 556              		.loc 1 405 1 is_stmt 1 view -0
 557              		.cfi_startproc
 558              		@ args = 0, pretend = 0, frame = 0
 559              		@ frame_needed = 0, uses_anonymous_args = 0
 560              		@ link register save eliminated.
 406:../Drivers/STM32N6xx_HAL_Driver/Src/stm32n6xx_hal.c ****   /* Disable SysTick Interrupt */
 407:../Drivers/STM32N6xx_HAL_Driver/Src/stm32n6xx_hal.c ****   SysTick->CTRL &= ~SysTick_CTRL_TICKINT_Msk;
 561              		.loc 1 407 3 view .LVU128
 562              		.loc 1 407 10 is_stmt 0 view .LVU129
 563 0000 4FF0E022 		mov	r2, #-536813568
 564 0004 1369     		ldr	r3, [r2, #16]
ARM GAS  /tmp/ccZzrCLx.s 			page 19


 565              		.loc 1 407 17 view .LVU130
 566 0006 23F00203 		bic	r3, r3, #2
 567 000a 1361     		str	r3, [r2, #16]
 408:../Drivers/STM32N6xx_HAL_Driver/Src/stm32n6xx_hal.c **** }
 568              		.loc 1 408 1 view .LVU131
 569 000c 7047     		bx	lr
 570              		.cfi_endproc
 571              	.LFE892:
 573              		.section	.text.HAL_ResumeTick,"ax",%progbits
 574              		.align	1
 575              		.weak	HAL_ResumeTick
 576              		.syntax unified
 577              		.thumb
 578              		.thumb_func
 580              	HAL_ResumeTick:
 581              	.LFB893:
 409:../Drivers/STM32N6xx_HAL_Driver/Src/stm32n6xx_hal.c **** 
 410:../Drivers/STM32N6xx_HAL_Driver/Src/stm32n6xx_hal.c **** /**
 411:../Drivers/STM32N6xx_HAL_Driver/Src/stm32n6xx_hal.c ****   * @brief Resume Tick increment.
 412:../Drivers/STM32N6xx_HAL_Driver/Src/stm32n6xx_hal.c ****   * @note In the default implementation , SysTick timer is the source of time base. It is
 413:../Drivers/STM32N6xx_HAL_Driver/Src/stm32n6xx_hal.c ****   *       used to generate interrupts at regular time intervals. Once HAL_ResumeTick()
 414:../Drivers/STM32N6xx_HAL_Driver/Src/stm32n6xx_hal.c ****   *       is called, the SysTick interrupt will be enabled and so Tick increment
 415:../Drivers/STM32N6xx_HAL_Driver/Src/stm32n6xx_hal.c ****   *       is resumed.
 416:../Drivers/STM32N6xx_HAL_Driver/Src/stm32n6xx_hal.c ****   * @note This function is declared as __weak to be overwritten in case of other
 417:../Drivers/STM32N6xx_HAL_Driver/Src/stm32n6xx_hal.c ****   *       implementations in user file.
 418:../Drivers/STM32N6xx_HAL_Driver/Src/stm32n6xx_hal.c ****   * @retval None
 419:../Drivers/STM32N6xx_HAL_Driver/Src/stm32n6xx_hal.c ****   */
 420:../Drivers/STM32N6xx_HAL_Driver/Src/stm32n6xx_hal.c **** __weak void HAL_ResumeTick(void)
 421:../Drivers/STM32N6xx_HAL_Driver/Src/stm32n6xx_hal.c **** {
 582              		.loc 1 421 1 is_stmt 1 view -0
 583              		.cfi_startproc
 584              		@ args = 0, pretend = 0, frame = 0
 585              		@ frame_needed = 0, uses_anonymous_args = 0
 586              		@ link register save eliminated.
 422:../Drivers/STM32N6xx_HAL_Driver/Src/stm32n6xx_hal.c ****   /* Enable SysTick Interrupt */
 423:../Drivers/STM32N6xx_HAL_Driver/Src/stm32n6xx_hal.c ****   SysTick->CTRL  |= SysTick_CTRL_TICKINT_Msk;
 587              		.loc 1 423 3 view .LVU133
 588              		.loc 1 423 10 is_stmt 0 view .LVU134
 589 0000 4FF0E022 		mov	r2, #-536813568
 590 0004 1369     		ldr	r3, [r2, #16]
 591              		.loc 1 423 18 view .LVU135
 592 0006 43F00203 		orr	r3, r3, #2
 593 000a 1361     		str	r3, [r2, #16]
 424:../Drivers/STM32N6xx_HAL_Driver/Src/stm32n6xx_hal.c **** }
 594              		.loc 1 424 1 view .LVU136
 595 000c 7047     		bx	lr
 596              		.cfi_endproc
 597              	.LFE893:
 599              		.section	.text.HAL_GetHalVersion,"ax",%progbits
 600              		.align	1
 601              		.global	HAL_GetHalVersion
 602              		.syntax unified
 603              		.thumb
 604              		.thumb_func
 606              	HAL_GetHalVersion:
 607              	.LFB894:
 425:../Drivers/STM32N6xx_HAL_Driver/Src/stm32n6xx_hal.c **** 
ARM GAS  /tmp/ccZzrCLx.s 			page 20


 426:../Drivers/STM32N6xx_HAL_Driver/Src/stm32n6xx_hal.c **** /**
 427:../Drivers/STM32N6xx_HAL_Driver/Src/stm32n6xx_hal.c ****   * @brief  Returns the HAL revision
 428:../Drivers/STM32N6xx_HAL_Driver/Src/stm32n6xx_hal.c ****   * @retval version : 0xXYZR (8bits for each decimal, R for RC)
 429:../Drivers/STM32N6xx_HAL_Driver/Src/stm32n6xx_hal.c ****   */
 430:../Drivers/STM32N6xx_HAL_Driver/Src/stm32n6xx_hal.c **** uint32_t HAL_GetHalVersion(void)
 431:../Drivers/STM32N6xx_HAL_Driver/Src/stm32n6xx_hal.c **** {
 608              		.loc 1 431 1 is_stmt 1 view -0
 609              		.cfi_startproc
 610              		@ args = 0, pretend = 0, frame = 0
 611              		@ frame_needed = 0, uses_anonymous_args = 0
 612              		@ link register save eliminated.
 432:../Drivers/STM32N6xx_HAL_Driver/Src/stm32n6xx_hal.c ****   return __STM32N6xx_HAL_VERSION;
 613              		.loc 1 432 3 view .LVU138
 433:../Drivers/STM32N6xx_HAL_Driver/Src/stm32n6xx_hal.c **** }
 614              		.loc 1 433 1 is_stmt 0 view .LVU139
 615 0000 0048     		ldr	r0, .L52
 616 0002 7047     		bx	lr
 617              	.L53:
 618              		.align	2
 619              	.L52:
 620 0004 00000301 		.word	16973824
 621              		.cfi_endproc
 622              	.LFE894:
 624              		.section	.text.HAL_GetREVID,"ax",%progbits
 625              		.align	1
 626              		.global	HAL_GetREVID
 627              		.syntax unified
 628              		.thumb
 629              		.thumb_func
 631              	HAL_GetREVID:
 632              	.LFB895:
 434:../Drivers/STM32N6xx_HAL_Driver/Src/stm32n6xx_hal.c **** 
 435:../Drivers/STM32N6xx_HAL_Driver/Src/stm32n6xx_hal.c **** /**
 436:../Drivers/STM32N6xx_HAL_Driver/Src/stm32n6xx_hal.c ****   * @brief  Returns the device revision identifier
 437:../Drivers/STM32N6xx_HAL_Driver/Src/stm32n6xx_hal.c ****   * @note Returned Revision ID can be
 438:../Drivers/STM32N6xx_HAL_Driver/Src/stm32n6xx_hal.c ****   *       0x00000100 for Cut1.0
 439:../Drivers/STM32N6xx_HAL_Driver/Src/stm32n6xx_hal.c ****   *       0x00000101 for Cut1.1
 440:../Drivers/STM32N6xx_HAL_Driver/Src/stm32n6xx_hal.c ****   *       0x00000200 for Cut2.0
 441:../Drivers/STM32N6xx_HAL_Driver/Src/stm32n6xx_hal.c ****   * @retval Device revision identifier
 442:../Drivers/STM32N6xx_HAL_Driver/Src/stm32n6xx_hal.c ****   */
 443:../Drivers/STM32N6xx_HAL_Driver/Src/stm32n6xx_hal.c **** uint32_t HAL_GetREVID(void)
 444:../Drivers/STM32N6xx_HAL_Driver/Src/stm32n6xx_hal.c **** {
 633              		.loc 1 444 1 is_stmt 1 view -0
 634              		.cfi_startproc
 635              		@ args = 0, pretend = 0, frame = 0
 636              		@ frame_needed = 0, uses_anonymous_args = 0
 637              		@ link register save eliminated.
 445:../Drivers/STM32N6xx_HAL_Driver/Src/stm32n6xx_hal.c ****   return *(uint32_t *)(REVID_BASE);
 638              		.loc 1 445 3 view .LVU141
 446:../Drivers/STM32N6xx_HAL_Driver/Src/stm32n6xx_hal.c **** }
 639              		.loc 1 446 1 is_stmt 0 view .LVU142
 640 0000 014B     		ldr	r3, .L55
 641 0002 5868     		ldr	r0, [r3, #4]
 642 0004 7047     		bx	lr
 643              	.L56:
 644 0006 00BF     		.align	2
 645              	.L55:
ARM GAS  /tmp/ccZzrCLx.s 			page 21


 646 0008 00100018 		.word	402657280
 647              		.cfi_endproc
 648              	.LFE895:
 650              		.section	.text.HAL_GetDEVID,"ax",%progbits
 651              		.align	1
 652              		.global	HAL_GetDEVID
 653              		.syntax unified
 654              		.thumb
 655              		.thumb_func
 657              	HAL_GetDEVID:
 658              	.LFB896:
 447:../Drivers/STM32N6xx_HAL_Driver/Src/stm32n6xx_hal.c **** 
 448:../Drivers/STM32N6xx_HAL_Driver/Src/stm32n6xx_hal.c **** #if defined(CPU_IN_SECURE_STATE)
 449:../Drivers/STM32N6xx_HAL_Driver/Src/stm32n6xx_hal.c **** /**
 450:../Drivers/STM32N6xx_HAL_Driver/Src/stm32n6xx_hal.c ****   * @brief  Returns the device identifier
 451:../Drivers/STM32N6xx_HAL_Driver/Src/stm32n6xx_hal.c ****   * @note This function can only be used if the HAL BSEC module is enabled in the hal configuration
 452:../Drivers/STM32N6xx_HAL_Driver/Src/stm32n6xx_hal.c ****   *       The BSEC clock must be enabled before calling this function
 453:../Drivers/STM32N6xx_HAL_Driver/Src/stm32n6xx_hal.c ****   *       Returned Device ID can be
 454:../Drivers/STM32N6xx_HAL_Driver/Src/stm32n6xx_hal.c ****   *       0x00006200 for STM32N645xx
 455:../Drivers/STM32N6xx_HAL_Driver/Src/stm32n6xx_hal.c ****   *       0x00006000 for STM32N655xx
 456:../Drivers/STM32N6xx_HAL_Driver/Src/stm32n6xx_hal.c ****   *       0x00002200 for STM32N647xx
 457:../Drivers/STM32N6xx_HAL_Driver/Src/stm32n6xx_hal.c ****   *       0x00002000 for STM32N657xx
 458:../Drivers/STM32N6xx_HAL_Driver/Src/stm32n6xx_hal.c ****   *       0xFFFFFFFF if an error occurs
 459:../Drivers/STM32N6xx_HAL_Driver/Src/stm32n6xx_hal.c ****   * @retval Device identifier
 460:../Drivers/STM32N6xx_HAL_Driver/Src/stm32n6xx_hal.c ****   */
 461:../Drivers/STM32N6xx_HAL_Driver/Src/stm32n6xx_hal.c **** uint32_t HAL_GetDEVID(void)
 462:../Drivers/STM32N6xx_HAL_Driver/Src/stm32n6xx_hal.c **** {
 659              		.loc 1 462 1 is_stmt 1 view -0
 660              		.cfi_startproc
 661              		@ args = 0, pretend = 0, frame = 16
 662              		@ frame_needed = 0, uses_anonymous_args = 0
 663 0000 00B5     		push	{lr}
 664              	.LCFI5:
 665              		.cfi_def_cfa_offset 4
 666              		.cfi_offset 14, -4
 667 0002 85B0     		sub	sp, sp, #20
 668              	.LCFI6:
 669              		.cfi_def_cfa_offset 24
 463:../Drivers/STM32N6xx_HAL_Driver/Src/stm32n6xx_hal.c **** #if defined(HAL_BSEC_MODULE_ENABLED)
 464:../Drivers/STM32N6xx_HAL_Driver/Src/stm32n6xx_hal.c **** #define BSEC_FUSE_ADDRESS               9U
 465:../Drivers/STM32N6xx_HAL_Driver/Src/stm32n6xx_hal.c ****   uint32_t data;
 670              		.loc 1 465 3 view .LVU144
 466:../Drivers/STM32N6xx_HAL_Driver/Src/stm32n6xx_hal.c ****   if(__HAL_RCC_BSEC_IS_CLK_ENABLED() == 0UL){
 671              		.loc 1 466 3 view .LVU145
 672              	.LVL24:
 673              	.LBB5:
 674              	.LBI5:
 675              		.file 2 "../Drivers/STM32N6xx_HAL_Driver/Inc/stm32n6xx_ll_bus.h"
   1:../Drivers/STM32N6xx_HAL_Driver/Inc/stm32n6xx_ll_bus.h **** /**
   2:../Drivers/STM32N6xx_HAL_Driver/Inc/stm32n6xx_ll_bus.h ****   ******************************************************************************
   3:../Drivers/STM32N6xx_HAL_Driver/Inc/stm32n6xx_ll_bus.h ****   * @file    stm32n6xx_ll_bus.h
   4:../Drivers/STM32N6xx_HAL_Driver/Inc/stm32n6xx_ll_bus.h ****   * @author  MCD Application Team
   5:../Drivers/STM32N6xx_HAL_Driver/Inc/stm32n6xx_ll_bus.h ****   * @brief   Header file of BUS LL module.
   6:../Drivers/STM32N6xx_HAL_Driver/Inc/stm32n6xx_ll_bus.h ****   ******************************************************************************
   7:../Drivers/STM32N6xx_HAL_Driver/Inc/stm32n6xx_ll_bus.h ****   * @attention
   8:../Drivers/STM32N6xx_HAL_Driver/Inc/stm32n6xx_ll_bus.h ****   *
   9:../Drivers/STM32N6xx_HAL_Driver/Inc/stm32n6xx_ll_bus.h ****   * Copyright (c) 2023 STMicroelectronics.
ARM GAS  /tmp/ccZzrCLx.s 			page 22


  10:../Drivers/STM32N6xx_HAL_Driver/Inc/stm32n6xx_ll_bus.h ****   * All rights reserved.
  11:../Drivers/STM32N6xx_HAL_Driver/Inc/stm32n6xx_ll_bus.h ****   *
  12:../Drivers/STM32N6xx_HAL_Driver/Inc/stm32n6xx_ll_bus.h ****   * This software is licensed under terms that can be found in the LICENSE file
  13:../Drivers/STM32N6xx_HAL_Driver/Inc/stm32n6xx_ll_bus.h ****   * in the root directory of this software component.
  14:../Drivers/STM32N6xx_HAL_Driver/Inc/stm32n6xx_ll_bus.h ****   * If no LICENSE file comes with this software, it is provided AS-IS.
  15:../Drivers/STM32N6xx_HAL_Driver/Inc/stm32n6xx_ll_bus.h ****   *
  16:../Drivers/STM32N6xx_HAL_Driver/Inc/stm32n6xx_ll_bus.h ****   ******************************************************************************
  17:../Drivers/STM32N6xx_HAL_Driver/Inc/stm32n6xx_ll_bus.h ****   @verbatim
  18:../Drivers/STM32N6xx_HAL_Driver/Inc/stm32n6xx_ll_bus.h ****                       ##### RCC Limitations #####
  19:../Drivers/STM32N6xx_HAL_Driver/Inc/stm32n6xx_ll_bus.h ****   ==============================================================================
  20:../Drivers/STM32N6xx_HAL_Driver/Inc/stm32n6xx_ll_bus.h ****     [..]
  21:../Drivers/STM32N6xx_HAL_Driver/Inc/stm32n6xx_ll_bus.h ****       A delay between an RCC peripheral clock enable and the effective peripheral
  22:../Drivers/STM32N6xx_HAL_Driver/Inc/stm32n6xx_ll_bus.h ****       enabling should be taken into account in order to manage the peripheral read/write
  23:../Drivers/STM32N6xx_HAL_Driver/Inc/stm32n6xx_ll_bus.h ****       from/to registers.
  24:../Drivers/STM32N6xx_HAL_Driver/Inc/stm32n6xx_ll_bus.h ****       (+) This delay depends on the peripheral mapping.
  25:../Drivers/STM32N6xx_HAL_Driver/Inc/stm32n6xx_ll_bus.h ****         (++) AHB & APB peripherals, 1 dummy read is necessary
  26:../Drivers/STM32N6xx_HAL_Driver/Inc/stm32n6xx_ll_bus.h **** 
  27:../Drivers/STM32N6xx_HAL_Driver/Inc/stm32n6xx_ll_bus.h ****     [..]
  28:../Drivers/STM32N6xx_HAL_Driver/Inc/stm32n6xx_ll_bus.h ****       Workarounds:
  29:../Drivers/STM32N6xx_HAL_Driver/Inc/stm32n6xx_ll_bus.h ****       (#) For AHB & APB peripherals, a dummy read to the peripheral register has been
  30:../Drivers/STM32N6xx_HAL_Driver/Inc/stm32n6xx_ll_bus.h ****           inserted in each LL_{BUS}_GRP{x}_EnableClock() function.
  31:../Drivers/STM32N6xx_HAL_Driver/Inc/stm32n6xx_ll_bus.h **** 
  32:../Drivers/STM32N6xx_HAL_Driver/Inc/stm32n6xx_ll_bus.h ****   @endverbatim
  33:../Drivers/STM32N6xx_HAL_Driver/Inc/stm32n6xx_ll_bus.h ****   ******************************************************************************
  34:../Drivers/STM32N6xx_HAL_Driver/Inc/stm32n6xx_ll_bus.h ****   */
  35:../Drivers/STM32N6xx_HAL_Driver/Inc/stm32n6xx_ll_bus.h **** 
  36:../Drivers/STM32N6xx_HAL_Driver/Inc/stm32n6xx_ll_bus.h **** /* Define to prevent recursive inclusion -------------------------------------*/
  37:../Drivers/STM32N6xx_HAL_Driver/Inc/stm32n6xx_ll_bus.h **** #ifndef STM32N6xx_LL_BUS_H
  38:../Drivers/STM32N6xx_HAL_Driver/Inc/stm32n6xx_ll_bus.h **** #define STM32N6xx_LL_BUS_H
  39:../Drivers/STM32N6xx_HAL_Driver/Inc/stm32n6xx_ll_bus.h **** 
  40:../Drivers/STM32N6xx_HAL_Driver/Inc/stm32n6xx_ll_bus.h **** #ifdef __cplusplus
  41:../Drivers/STM32N6xx_HAL_Driver/Inc/stm32n6xx_ll_bus.h **** extern "C" {
  42:../Drivers/STM32N6xx_HAL_Driver/Inc/stm32n6xx_ll_bus.h **** #endif
  43:../Drivers/STM32N6xx_HAL_Driver/Inc/stm32n6xx_ll_bus.h **** 
  44:../Drivers/STM32N6xx_HAL_Driver/Inc/stm32n6xx_ll_bus.h **** /* Includes ------------------------------------------------------------------*/
  45:../Drivers/STM32N6xx_HAL_Driver/Inc/stm32n6xx_ll_bus.h **** #include "stm32n6xx.h"
  46:../Drivers/STM32N6xx_HAL_Driver/Inc/stm32n6xx_ll_bus.h **** 
  47:../Drivers/STM32N6xx_HAL_Driver/Inc/stm32n6xx_ll_bus.h **** /** @addtogroup STM32N6xx_LL_Driver
  48:../Drivers/STM32N6xx_HAL_Driver/Inc/stm32n6xx_ll_bus.h ****   * @{
  49:../Drivers/STM32N6xx_HAL_Driver/Inc/stm32n6xx_ll_bus.h ****   */
  50:../Drivers/STM32N6xx_HAL_Driver/Inc/stm32n6xx_ll_bus.h **** #if defined(RCC)
  51:../Drivers/STM32N6xx_HAL_Driver/Inc/stm32n6xx_ll_bus.h **** 
  52:../Drivers/STM32N6xx_HAL_Driver/Inc/stm32n6xx_ll_bus.h **** /** @defgroup BUS_LL BUS
  53:../Drivers/STM32N6xx_HAL_Driver/Inc/stm32n6xx_ll_bus.h ****   * @{
  54:../Drivers/STM32N6xx_HAL_Driver/Inc/stm32n6xx_ll_bus.h ****   */
  55:../Drivers/STM32N6xx_HAL_Driver/Inc/stm32n6xx_ll_bus.h **** 
  56:../Drivers/STM32N6xx_HAL_Driver/Inc/stm32n6xx_ll_bus.h **** /* Private variables ---------------------------------------------------------*/
  57:../Drivers/STM32N6xx_HAL_Driver/Inc/stm32n6xx_ll_bus.h **** 
  58:../Drivers/STM32N6xx_HAL_Driver/Inc/stm32n6xx_ll_bus.h **** /* Private constants ---------------------------------------------------------*/
  59:../Drivers/STM32N6xx_HAL_Driver/Inc/stm32n6xx_ll_bus.h **** 
  60:../Drivers/STM32N6xx_HAL_Driver/Inc/stm32n6xx_ll_bus.h **** /* Private macros ------------------------------------------------------------*/
  61:../Drivers/STM32N6xx_HAL_Driver/Inc/stm32n6xx_ll_bus.h **** 
  62:../Drivers/STM32N6xx_HAL_Driver/Inc/stm32n6xx_ll_bus.h **** /* Exported types ------------------------------------------------------------*/
  63:../Drivers/STM32N6xx_HAL_Driver/Inc/stm32n6xx_ll_bus.h **** 
  64:../Drivers/STM32N6xx_HAL_Driver/Inc/stm32n6xx_ll_bus.h **** /* Exported constants --------------------------------------------------------*/
  65:../Drivers/STM32N6xx_HAL_Driver/Inc/stm32n6xx_ll_bus.h **** /** @defgroup BUS_LL_Exported_Constants BUS Exported Constants
  66:../Drivers/STM32N6xx_HAL_Driver/Inc/stm32n6xx_ll_bus.h ****   * @{
ARM GAS  /tmp/ccZzrCLx.s 			page 23


  67:../Drivers/STM32N6xx_HAL_Driver/Inc/stm32n6xx_ll_bus.h ****   */
  68:../Drivers/STM32N6xx_HAL_Driver/Inc/stm32n6xx_ll_bus.h **** 
  69:../Drivers/STM32N6xx_HAL_Driver/Inc/stm32n6xx_ll_bus.h **** /** @defgroup BUS_LL_EC_AXI  AXI
  70:../Drivers/STM32N6xx_HAL_Driver/Inc/stm32n6xx_ll_bus.h ****   * @{
  71:../Drivers/STM32N6xx_HAL_Driver/Inc/stm32n6xx_ll_bus.h ****   */
  72:../Drivers/STM32N6xx_HAL_Driver/Inc/stm32n6xx_ll_bus.h **** #define LL_ACLKN                           RCC_BUSENR_ACLKNEN
  73:../Drivers/STM32N6xx_HAL_Driver/Inc/stm32n6xx_ll_bus.h **** #define LL_ACLKNC                          RCC_BUSENR_ACLKNCEN
  74:../Drivers/STM32N6xx_HAL_Driver/Inc/stm32n6xx_ll_bus.h **** #define LL_AHBM                            RCC_BUSENR_AHBMEN
  75:../Drivers/STM32N6xx_HAL_Driver/Inc/stm32n6xx_ll_bus.h **** #define LL_AHB1                            RCC_BUSENR_AHB1EN
  76:../Drivers/STM32N6xx_HAL_Driver/Inc/stm32n6xx_ll_bus.h **** #define LL_AHB2                            RCC_BUSENR_AHB2EN
  77:../Drivers/STM32N6xx_HAL_Driver/Inc/stm32n6xx_ll_bus.h **** #define LL_AHB3                            RCC_BUSENR_AHB3EN
  78:../Drivers/STM32N6xx_HAL_Driver/Inc/stm32n6xx_ll_bus.h **** #define LL_AHB4                            RCC_BUSENR_AHB4EN
  79:../Drivers/STM32N6xx_HAL_Driver/Inc/stm32n6xx_ll_bus.h **** #define LL_AHB5                            RCC_BUSENR_AHB5EN
  80:../Drivers/STM32N6xx_HAL_Driver/Inc/stm32n6xx_ll_bus.h **** #define LL_APB1                            RCC_BUSENR_APB1EN
  81:../Drivers/STM32N6xx_HAL_Driver/Inc/stm32n6xx_ll_bus.h **** #define LL_APB2                            RCC_BUSENR_APB2EN
  82:../Drivers/STM32N6xx_HAL_Driver/Inc/stm32n6xx_ll_bus.h **** #define LL_APB3                            RCC_BUSENR_APB3EN
  83:../Drivers/STM32N6xx_HAL_Driver/Inc/stm32n6xx_ll_bus.h **** #define LL_APB4                            RCC_BUSENR_APB4EN
  84:../Drivers/STM32N6xx_HAL_Driver/Inc/stm32n6xx_ll_bus.h **** #define LL_APB5                            RCC_BUSENR_APB5EN
  85:../Drivers/STM32N6xx_HAL_Driver/Inc/stm32n6xx_ll_bus.h **** /**
  86:../Drivers/STM32N6xx_HAL_Driver/Inc/stm32n6xx_ll_bus.h ****   * @}
  87:../Drivers/STM32N6xx_HAL_Driver/Inc/stm32n6xx_ll_bus.h ****   */
  88:../Drivers/STM32N6xx_HAL_Driver/Inc/stm32n6xx_ll_bus.h **** 
  89:../Drivers/STM32N6xx_HAL_Driver/Inc/stm32n6xx_ll_bus.h **** /** @defgroup BUS_LL_EC_MEM  MEM
  90:../Drivers/STM32N6xx_HAL_Driver/Inc/stm32n6xx_ll_bus.h ****   * @{
  91:../Drivers/STM32N6xx_HAL_Driver/Inc/stm32n6xx_ll_bus.h ****   */
  92:../Drivers/STM32N6xx_HAL_Driver/Inc/stm32n6xx_ll_bus.h **** #define LL_MEM_AXISRAM1                    RCC_MEMENR_AXISRAM1EN
  93:../Drivers/STM32N6xx_HAL_Driver/Inc/stm32n6xx_ll_bus.h **** #define LL_MEM_AXISRAM2                    RCC_MEMENR_AXISRAM2EN
  94:../Drivers/STM32N6xx_HAL_Driver/Inc/stm32n6xx_ll_bus.h **** #define LL_MEM_AXISRAM3                    RCC_MEMENR_AXISRAM3EN
  95:../Drivers/STM32N6xx_HAL_Driver/Inc/stm32n6xx_ll_bus.h **** #define LL_MEM_AXISRAM4                    RCC_MEMENR_AXISRAM4EN
  96:../Drivers/STM32N6xx_HAL_Driver/Inc/stm32n6xx_ll_bus.h **** #define LL_MEM_AXISRAM5                    RCC_MEMENR_AXISRAM5EN
  97:../Drivers/STM32N6xx_HAL_Driver/Inc/stm32n6xx_ll_bus.h **** #define LL_MEM_AXISRAM6                    RCC_MEMENR_AXISRAM6EN
  98:../Drivers/STM32N6xx_HAL_Driver/Inc/stm32n6xx_ll_bus.h **** #define LL_MEM_AHBSRAM1                    RCC_MEMENR_AHBSRAM1EN
  99:../Drivers/STM32N6xx_HAL_Driver/Inc/stm32n6xx_ll_bus.h **** #define LL_MEM_AHBSRAM2                    RCC_MEMENR_AHBSRAM2EN
 100:../Drivers/STM32N6xx_HAL_Driver/Inc/stm32n6xx_ll_bus.h **** #define LL_MEM_BKPSRAM                     RCC_MEMENR_BKPSRAMEN
 101:../Drivers/STM32N6xx_HAL_Driver/Inc/stm32n6xx_ll_bus.h **** #define LL_MEM_FLEXRAM                     RCC_MEMENR_FLEXRAMEN
 102:../Drivers/STM32N6xx_HAL_Driver/Inc/stm32n6xx_ll_bus.h **** #define LL_MEM_CACHEAXIRAM                 RCC_MEMENR_CACHEAXIRAMEN
 103:../Drivers/STM32N6xx_HAL_Driver/Inc/stm32n6xx_ll_bus.h **** #define LL_MEM_VENCRAM                     RCC_MEMENR_VENCRAMEN
 104:../Drivers/STM32N6xx_HAL_Driver/Inc/stm32n6xx_ll_bus.h **** #define LL_MEM_BOOTROM                     RCC_MEMENR_BOOTROMEN
 105:../Drivers/STM32N6xx_HAL_Driver/Inc/stm32n6xx_ll_bus.h **** /**
 106:../Drivers/STM32N6xx_HAL_Driver/Inc/stm32n6xx_ll_bus.h ****   * @}
 107:../Drivers/STM32N6xx_HAL_Driver/Inc/stm32n6xx_ll_bus.h ****   */
 108:../Drivers/STM32N6xx_HAL_Driver/Inc/stm32n6xx_ll_bus.h **** 
 109:../Drivers/STM32N6xx_HAL_Driver/Inc/stm32n6xx_ll_bus.h **** /** @defgroup BUS_LL_EC_AHB1_GRP1_PERIPH  AHB1 GRP1 PERIPH
 110:../Drivers/STM32N6xx_HAL_Driver/Inc/stm32n6xx_ll_bus.h ****   * @{
 111:../Drivers/STM32N6xx_HAL_Driver/Inc/stm32n6xx_ll_bus.h ****   */
 112:../Drivers/STM32N6xx_HAL_Driver/Inc/stm32n6xx_ll_bus.h **** #define LL_AHB1_GRP1_PERIPH_ADC12          RCC_AHB1ENR_ADC12EN
 113:../Drivers/STM32N6xx_HAL_Driver/Inc/stm32n6xx_ll_bus.h **** #define LL_AHB1_GRP1_PERIPH_GPDMA1         RCC_AHB1ENR_GPDMA1EN
 114:../Drivers/STM32N6xx_HAL_Driver/Inc/stm32n6xx_ll_bus.h **** #define LL_AHB1_GRP1_PERIPH_ALL            (LL_AHB1_GRP1_PERIPH_ADC12 | LL_AHB1_GRP1_PERIPH_GPDMA1)
 115:../Drivers/STM32N6xx_HAL_Driver/Inc/stm32n6xx_ll_bus.h **** /**
 116:../Drivers/STM32N6xx_HAL_Driver/Inc/stm32n6xx_ll_bus.h ****   * @}
 117:../Drivers/STM32N6xx_HAL_Driver/Inc/stm32n6xx_ll_bus.h ****   */
 118:../Drivers/STM32N6xx_HAL_Driver/Inc/stm32n6xx_ll_bus.h **** 
 119:../Drivers/STM32N6xx_HAL_Driver/Inc/stm32n6xx_ll_bus.h **** /** @defgroup BUS_LL_EC_AHB2_GRP1_PERIPH  AHB2 GRP1 PERIPH
 120:../Drivers/STM32N6xx_HAL_Driver/Inc/stm32n6xx_ll_bus.h ****   * @{
 121:../Drivers/STM32N6xx_HAL_Driver/Inc/stm32n6xx_ll_bus.h ****   */
 122:../Drivers/STM32N6xx_HAL_Driver/Inc/stm32n6xx_ll_bus.h **** #define LL_AHB2_GRP1_PERIPH_ADF1           RCC_AHB2ENR_ADF1EN
 123:../Drivers/STM32N6xx_HAL_Driver/Inc/stm32n6xx_ll_bus.h **** #define LL_AHB2_GRP1_PERIPH_MDF1           RCC_AHB2ENR_MDF1EN
ARM GAS  /tmp/ccZzrCLx.s 			page 24


 124:../Drivers/STM32N6xx_HAL_Driver/Inc/stm32n6xx_ll_bus.h **** #define LL_AHB2_GRP1_PERIPH_RAMCFG         RCC_AHB2ENR_RAMCFGEN
 125:../Drivers/STM32N6xx_HAL_Driver/Inc/stm32n6xx_ll_bus.h **** #define LL_AHB2_GRP1_PERIPH_ALL            (LL_AHB2_GRP1_PERIPH_ADF1 | LL_AHB2_GRP1_PERIPH_MDF1 | \
 126:../Drivers/STM32N6xx_HAL_Driver/Inc/stm32n6xx_ll_bus.h ****                                             LL_AHB2_GRP1_PERIPH_RAMCFG)
 127:../Drivers/STM32N6xx_HAL_Driver/Inc/stm32n6xx_ll_bus.h **** /**
 128:../Drivers/STM32N6xx_HAL_Driver/Inc/stm32n6xx_ll_bus.h ****   * @}
 129:../Drivers/STM32N6xx_HAL_Driver/Inc/stm32n6xx_ll_bus.h ****   */
 130:../Drivers/STM32N6xx_HAL_Driver/Inc/stm32n6xx_ll_bus.h **** 
 131:../Drivers/STM32N6xx_HAL_Driver/Inc/stm32n6xx_ll_bus.h **** /** @defgroup BUS_LL_EC_AHB3_GRP1_PERIPH  AHB3 GRP1 PERIPH
 132:../Drivers/STM32N6xx_HAL_Driver/Inc/stm32n6xx_ll_bus.h ****   * @{
 133:../Drivers/STM32N6xx_HAL_Driver/Inc/stm32n6xx_ll_bus.h ****   */
 134:../Drivers/STM32N6xx_HAL_Driver/Inc/stm32n6xx_ll_bus.h **** #if defined(CRYP)
 135:../Drivers/STM32N6xx_HAL_Driver/Inc/stm32n6xx_ll_bus.h **** #define LL_AHB3_GRP1_PERIPH_CRYP           RCC_AHB3ENR_CRYPEN
 136:../Drivers/STM32N6xx_HAL_Driver/Inc/stm32n6xx_ll_bus.h **** #else
 137:../Drivers/STM32N6xx_HAL_Driver/Inc/stm32n6xx_ll_bus.h **** #define LL_AHB3_GRP1_PERIPH_CRYP
 138:../Drivers/STM32N6xx_HAL_Driver/Inc/stm32n6xx_ll_bus.h **** #endif /* CRYP */
 139:../Drivers/STM32N6xx_HAL_Driver/Inc/stm32n6xx_ll_bus.h **** #define LL_AHB3_GRP1_PERIPH_HASH           RCC_AHB3ENR_HASHEN
 140:../Drivers/STM32N6xx_HAL_Driver/Inc/stm32n6xx_ll_bus.h **** #define LL_AHB3_GRP1_PERIPH_IAC            RCC_AHB3ENR_IACEN
 141:../Drivers/STM32N6xx_HAL_Driver/Inc/stm32n6xx_ll_bus.h **** #if defined(PKA)
 142:../Drivers/STM32N6xx_HAL_Driver/Inc/stm32n6xx_ll_bus.h **** #define LL_AHB3_GRP1_PERIPH_PKA            RCC_AHB3ENR_PKAEN
 143:../Drivers/STM32N6xx_HAL_Driver/Inc/stm32n6xx_ll_bus.h **** #else
 144:../Drivers/STM32N6xx_HAL_Driver/Inc/stm32n6xx_ll_bus.h **** #define LL_AHB3_GRP1_PERIPH_PKA
 145:../Drivers/STM32N6xx_HAL_Driver/Inc/stm32n6xx_ll_bus.h **** #endif /* PKA */
 146:../Drivers/STM32N6xx_HAL_Driver/Inc/stm32n6xx_ll_bus.h **** #define LL_AHB3_GRP1_PERIPH_RIFSC          RCC_AHB3ENR_RIFSCEN
 147:../Drivers/STM32N6xx_HAL_Driver/Inc/stm32n6xx_ll_bus.h **** #define LL_AHB3_GRP1_PERIPH_RISAF          RCC_AHB3ENR_RISAFEN
 148:../Drivers/STM32N6xx_HAL_Driver/Inc/stm32n6xx_ll_bus.h **** #define LL_AHB3_GRP1_PERIPH_RNG            RCC_AHB3ENR_RNGEN
 149:../Drivers/STM32N6xx_HAL_Driver/Inc/stm32n6xx_ll_bus.h **** #if defined(SAES)
 150:../Drivers/STM32N6xx_HAL_Driver/Inc/stm32n6xx_ll_bus.h **** #define LL_AHB3_GRP1_PERIPH_SAES           RCC_AHB3ENR_SAESEN
 151:../Drivers/STM32N6xx_HAL_Driver/Inc/stm32n6xx_ll_bus.h **** #else
 152:../Drivers/STM32N6xx_HAL_Driver/Inc/stm32n6xx_ll_bus.h **** #define LL_AHB3_GRP1_PERIPH_SAES
 153:../Drivers/STM32N6xx_HAL_Driver/Inc/stm32n6xx_ll_bus.h **** #endif /* SAES */
 154:../Drivers/STM32N6xx_HAL_Driver/Inc/stm32n6xx_ll_bus.h **** #define LL_AHB3_GRP1_PERIPH_ALL            (LL_AHB3_GRP1_PERIPH_CRYP  | LL_AHB3_GRP1_PERIPH_HASH  |
 155:../Drivers/STM32N6xx_HAL_Driver/Inc/stm32n6xx_ll_bus.h ****                                             LL_AHB3_GRP1_PERIPH_IAC   | LL_AHB3_GRP1_PERIPH_PKA   |
 156:../Drivers/STM32N6xx_HAL_Driver/Inc/stm32n6xx_ll_bus.h ****                                             LL_AHB3_GRP1_PERIPH_RIFSC | LL_AHB3_GRP1_PERIPH_RISAF |
 157:../Drivers/STM32N6xx_HAL_Driver/Inc/stm32n6xx_ll_bus.h ****                                             LL_AHB3_GRP1_PERIPH_RNG   | LL_AHB3_GRP1_PERIPH_SAES)
 158:../Drivers/STM32N6xx_HAL_Driver/Inc/stm32n6xx_ll_bus.h **** /**
 159:../Drivers/STM32N6xx_HAL_Driver/Inc/stm32n6xx_ll_bus.h ****   * @}
 160:../Drivers/STM32N6xx_HAL_Driver/Inc/stm32n6xx_ll_bus.h ****   */
 161:../Drivers/STM32N6xx_HAL_Driver/Inc/stm32n6xx_ll_bus.h **** 
 162:../Drivers/STM32N6xx_HAL_Driver/Inc/stm32n6xx_ll_bus.h **** /** @defgroup BUS_LL_EC_AHB4_GRP1_PERIPH  AHB4 GRP1 PERIPH
 163:../Drivers/STM32N6xx_HAL_Driver/Inc/stm32n6xx_ll_bus.h ****   * @{
 164:../Drivers/STM32N6xx_HAL_Driver/Inc/stm32n6xx_ll_bus.h ****   */
 165:../Drivers/STM32N6xx_HAL_Driver/Inc/stm32n6xx_ll_bus.h **** #define LL_AHB4_GRP1_PERIPH_CRC            RCC_AHB4ENR_CRCEN
 166:../Drivers/STM32N6xx_HAL_Driver/Inc/stm32n6xx_ll_bus.h **** #define LL_AHB4_GRP1_PERIPH_GPIOA          RCC_AHB4ENR_GPIOAEN
 167:../Drivers/STM32N6xx_HAL_Driver/Inc/stm32n6xx_ll_bus.h **** #define LL_AHB4_GRP1_PERIPH_GPIOB          RCC_AHB4ENR_GPIOBEN
 168:../Drivers/STM32N6xx_HAL_Driver/Inc/stm32n6xx_ll_bus.h **** #define LL_AHB4_GRP1_PERIPH_GPIOC          RCC_AHB4ENR_GPIOCEN
 169:../Drivers/STM32N6xx_HAL_Driver/Inc/stm32n6xx_ll_bus.h **** #define LL_AHB4_GRP1_PERIPH_GPIOD          RCC_AHB4ENR_GPIODEN
 170:../Drivers/STM32N6xx_HAL_Driver/Inc/stm32n6xx_ll_bus.h **** #define LL_AHB4_GRP1_PERIPH_GPIOE          RCC_AHB4ENR_GPIOEEN
 171:../Drivers/STM32N6xx_HAL_Driver/Inc/stm32n6xx_ll_bus.h **** #define LL_AHB4_GRP1_PERIPH_GPIOF          RCC_AHB4ENR_GPIOFEN
 172:../Drivers/STM32N6xx_HAL_Driver/Inc/stm32n6xx_ll_bus.h **** #define LL_AHB4_GRP1_PERIPH_GPIOG          RCC_AHB4ENR_GPIOGEN
 173:../Drivers/STM32N6xx_HAL_Driver/Inc/stm32n6xx_ll_bus.h **** #define LL_AHB4_GRP1_PERIPH_GPIOH          RCC_AHB4ENR_GPIOHEN
 174:../Drivers/STM32N6xx_HAL_Driver/Inc/stm32n6xx_ll_bus.h **** #define LL_AHB4_GRP1_PERIPH_GPION          RCC_AHB4ENR_GPIONEN
 175:../Drivers/STM32N6xx_HAL_Driver/Inc/stm32n6xx_ll_bus.h **** #define LL_AHB4_GRP1_PERIPH_GPIOO          RCC_AHB4ENR_GPIOOEN
 176:../Drivers/STM32N6xx_HAL_Driver/Inc/stm32n6xx_ll_bus.h **** #define LL_AHB4_GRP1_PERIPH_GPIOP          RCC_AHB4ENR_GPIOPEN
 177:../Drivers/STM32N6xx_HAL_Driver/Inc/stm32n6xx_ll_bus.h **** #define LL_AHB4_GRP1_PERIPH_GPIOQ          RCC_AHB4ENR_GPIOQEN
 178:../Drivers/STM32N6xx_HAL_Driver/Inc/stm32n6xx_ll_bus.h **** #define LL_AHB4_GRP1_PERIPH_PWR            RCC_AHB4ENR_PWREN
 179:../Drivers/STM32N6xx_HAL_Driver/Inc/stm32n6xx_ll_bus.h **** #define LL_AHB4_GRP1_PERIPH_ALL            (LL_AHB4_GRP1_PERIPH_CRC   | LL_AHB4_GRP1_PERIPH_GPIOA |
 180:../Drivers/STM32N6xx_HAL_Driver/Inc/stm32n6xx_ll_bus.h ****                                             LL_AHB4_GRP1_PERIPH_GPIOB | LL_AHB4_GRP1_PERIPH_GPIOC |
ARM GAS  /tmp/ccZzrCLx.s 			page 25


 181:../Drivers/STM32N6xx_HAL_Driver/Inc/stm32n6xx_ll_bus.h ****                                             LL_AHB4_GRP1_PERIPH_GPIOD | LL_AHB4_GRP1_PERIPH_GPIOE |
 182:../Drivers/STM32N6xx_HAL_Driver/Inc/stm32n6xx_ll_bus.h ****                                             LL_AHB4_GRP1_PERIPH_GPIOF | LL_AHB4_GRP1_PERIPH_GPIOG |
 183:../Drivers/STM32N6xx_HAL_Driver/Inc/stm32n6xx_ll_bus.h ****                                             LL_AHB4_GRP1_PERIPH_GPIOH | LL_AHB4_GRP1_PERIPH_GPION |
 184:../Drivers/STM32N6xx_HAL_Driver/Inc/stm32n6xx_ll_bus.h ****                                             LL_AHB4_GRP1_PERIPH_GPIOO | LL_AHB4_GRP1_PERIPH_GPIOP |
 185:../Drivers/STM32N6xx_HAL_Driver/Inc/stm32n6xx_ll_bus.h ****                                             LL_AHB4_GRP1_PERIPH_GPIOQ | LL_AHB4_GRP1_PERIPH_PWR)
 186:../Drivers/STM32N6xx_HAL_Driver/Inc/stm32n6xx_ll_bus.h **** /**
 187:../Drivers/STM32N6xx_HAL_Driver/Inc/stm32n6xx_ll_bus.h ****   * @}
 188:../Drivers/STM32N6xx_HAL_Driver/Inc/stm32n6xx_ll_bus.h ****   */
 189:../Drivers/STM32N6xx_HAL_Driver/Inc/stm32n6xx_ll_bus.h **** 
 190:../Drivers/STM32N6xx_HAL_Driver/Inc/stm32n6xx_ll_bus.h **** /** @defgroup BUS_LL_EC_AHB5_GRP1_PERIPH  AHB5 GRP1 PERIPH
 191:../Drivers/STM32N6xx_HAL_Driver/Inc/stm32n6xx_ll_bus.h ****   * @{
 192:../Drivers/STM32N6xx_HAL_Driver/Inc/stm32n6xx_ll_bus.h ****   */
 193:../Drivers/STM32N6xx_HAL_Driver/Inc/stm32n6xx_ll_bus.h **** #define LL_AHB5_GRP1_PERIPH_DMA2D             RCC_AHB5ENR_DMA2DEN
 194:../Drivers/STM32N6xx_HAL_Driver/Inc/stm32n6xx_ll_bus.h **** #define LL_AHB5_GRP1_PERIPH_ETH1              RCC_AHB5ENR_ETH1EN
 195:../Drivers/STM32N6xx_HAL_Driver/Inc/stm32n6xx_ll_bus.h **** #define LL_AHB5_GRP1_PERIPH_ETH1MAC           RCC_AHB5ENR_ETH1MACEN
 196:../Drivers/STM32N6xx_HAL_Driver/Inc/stm32n6xx_ll_bus.h **** #define LL_AHB5_GRP1_PERIPH_ETH1TX            RCC_AHB5ENR_ETH1TXEN
 197:../Drivers/STM32N6xx_HAL_Driver/Inc/stm32n6xx_ll_bus.h **** #define LL_AHB5_GRP1_PERIPH_ETH1RX            RCC_AHB5ENR_ETH1RXEN
 198:../Drivers/STM32N6xx_HAL_Driver/Inc/stm32n6xx_ll_bus.h **** #define LL_AHB5_GRP1_PERIPH_FMC               RCC_AHB5ENR_FMCEN
 199:../Drivers/STM32N6xx_HAL_Driver/Inc/stm32n6xx_ll_bus.h **** #define LL_AHB5_GRP1_PERIPH_GFXMMU            RCC_AHB5ENR_GFXMMUEN
 200:../Drivers/STM32N6xx_HAL_Driver/Inc/stm32n6xx_ll_bus.h **** #define LL_AHB5_GRP1_PERIPH_GPU2D             RCC_AHB5ENR_GPU2DEN
 201:../Drivers/STM32N6xx_HAL_Driver/Inc/stm32n6xx_ll_bus.h **** #define LL_AHB5_GRP1_PERIPH_HPDMA1            RCC_AHB5ENR_HPDMA1EN
 202:../Drivers/STM32N6xx_HAL_Driver/Inc/stm32n6xx_ll_bus.h **** #define LL_AHB5_GRP1_PERIPH_XSPI1             RCC_AHB5ENR_XSPI1EN
 203:../Drivers/STM32N6xx_HAL_Driver/Inc/stm32n6xx_ll_bus.h **** #define LL_AHB5_GRP1_PERIPH_XSPI2             RCC_AHB5ENR_XSPI2EN
 204:../Drivers/STM32N6xx_HAL_Driver/Inc/stm32n6xx_ll_bus.h **** #define LL_AHB5_GRP1_PERIPH_XSPI3             RCC_AHB5ENR_XSPI3EN
 205:../Drivers/STM32N6xx_HAL_Driver/Inc/stm32n6xx_ll_bus.h **** #define LL_AHB5_GRP1_PERIPH_XSPIM             RCC_AHB5ENR_XSPIMEN
 206:../Drivers/STM32N6xx_HAL_Driver/Inc/stm32n6xx_ll_bus.h **** #define LL_AHB5_GRP1_PERIPH_JPEG              RCC_AHB5ENR_JPEGEN
 207:../Drivers/STM32N6xx_HAL_Driver/Inc/stm32n6xx_ll_bus.h **** #define LL_AHB5_GRP1_PERIPH_MCE1              RCC_AHB5ENR_MCE1EN
 208:../Drivers/STM32N6xx_HAL_Driver/Inc/stm32n6xx_ll_bus.h **** #define LL_AHB5_GRP1_PERIPH_MCE2              RCC_AHB5ENR_MCE2EN
 209:../Drivers/STM32N6xx_HAL_Driver/Inc/stm32n6xx_ll_bus.h **** #define LL_AHB5_GRP1_PERIPH_MCE3              RCC_AHB5ENR_MCE3EN
 210:../Drivers/STM32N6xx_HAL_Driver/Inc/stm32n6xx_ll_bus.h **** #define LL_AHB5_GRP1_PERIPH_MCE4              RCC_AHB5ENR_MCE4EN
 211:../Drivers/STM32N6xx_HAL_Driver/Inc/stm32n6xx_ll_bus.h **** #define LL_AHB5_GRP1_PERIPH_CACHEAXI          RCC_AHB5ENR_CACHEAXIEN
 212:../Drivers/STM32N6xx_HAL_Driver/Inc/stm32n6xx_ll_bus.h **** #define LL_AHB5_GRP1_PERIPH_NPU               RCC_AHB5ENR_NPUEN
 213:../Drivers/STM32N6xx_HAL_Driver/Inc/stm32n6xx_ll_bus.h **** #define LL_AHB5_GRP1_PERIPH_OTG1              RCC_AHB5ENR_OTG1EN
 214:../Drivers/STM32N6xx_HAL_Driver/Inc/stm32n6xx_ll_bus.h **** #define LL_AHB5_GRP1_PERIPH_OTG2              RCC_AHB5ENR_OTG2EN
 215:../Drivers/STM32N6xx_HAL_Driver/Inc/stm32n6xx_ll_bus.h **** #define LL_AHB5_GRP1_PERIPH_OTGPHY1           RCC_AHB5ENR_OTGPHY1EN
 216:../Drivers/STM32N6xx_HAL_Driver/Inc/stm32n6xx_ll_bus.h **** #define LL_AHB5_GRP1_PERIPH_OTGPHY2           RCC_AHB5ENR_OTGPHY2EN
 217:../Drivers/STM32N6xx_HAL_Driver/Inc/stm32n6xx_ll_bus.h **** #define LL_AHB5_GRP1_PERIPH_OTG1PHYCTL        RCC_AHB5RSTR_OTG1PHYCTLRST
 218:../Drivers/STM32N6xx_HAL_Driver/Inc/stm32n6xx_ll_bus.h **** #define LL_AHB5_GRP1_PERIPH_OTG2PHYCTL        RCC_AHB5RSTR_OTG2PHYCTLRST
 219:../Drivers/STM32N6xx_HAL_Driver/Inc/stm32n6xx_ll_bus.h **** #define LL_AHB5_GRP1_PERIPH_PSSI              RCC_AHB5ENR_PSSIEN
 220:../Drivers/STM32N6xx_HAL_Driver/Inc/stm32n6xx_ll_bus.h **** #define LL_AHB5_GRP1_PERIPH_SDMMC1            RCC_AHB5ENR_SDMMC1EN
 221:../Drivers/STM32N6xx_HAL_Driver/Inc/stm32n6xx_ll_bus.h **** #define LL_AHB5_GRP1_PERIPH_SDMMC2            RCC_AHB5ENR_SDMMC2EN
 222:../Drivers/STM32N6xx_HAL_Driver/Inc/stm32n6xx_ll_bus.h **** #define LL_AHB5_GRP1_PERIPH_ALL            (LL_AHB5_GRP1_PERIPH_DMA2D    | LL_AHB5_GRP1_PERIPH_ETH1
 223:../Drivers/STM32N6xx_HAL_Driver/Inc/stm32n6xx_ll_bus.h ****                                             LL_AHB5_GRP1_PERIPH_ETH1MAC  | LL_AHB5_GRP1_PERIPH_ETH1
 224:../Drivers/STM32N6xx_HAL_Driver/Inc/stm32n6xx_ll_bus.h ****                                             LL_AHB5_GRP1_PERIPH_ETH1RX   | LL_AHB5_GRP1_PERIPH_FMC 
 225:../Drivers/STM32N6xx_HAL_Driver/Inc/stm32n6xx_ll_bus.h ****                                             LL_AHB5_GRP1_PERIPH_GFXMMU   | LL_AHB5_GRP1_PERIPH_GPU2
 226:../Drivers/STM32N6xx_HAL_Driver/Inc/stm32n6xx_ll_bus.h ****                                             LL_AHB5_GRP1_PERIPH_HPDMA1   | LL_AHB5_GRP1_PERIPH_XSPI
 227:../Drivers/STM32N6xx_HAL_Driver/Inc/stm32n6xx_ll_bus.h ****                                             LL_AHB5_GRP1_PERIPH_XSPI2    | LL_AHB5_GRP1_PERIPH_XSPI
 228:../Drivers/STM32N6xx_HAL_Driver/Inc/stm32n6xx_ll_bus.h ****                                             LL_AHB5_GRP1_PERIPH_XSPIM    | LL_AHB5_GRP1_PERIPH_JPEG
 229:../Drivers/STM32N6xx_HAL_Driver/Inc/stm32n6xx_ll_bus.h ****                                             LL_AHB5_GRP1_PERIPH_MCE1     | LL_AHB5_GRP1_PERIPH_MCE2
 230:../Drivers/STM32N6xx_HAL_Driver/Inc/stm32n6xx_ll_bus.h ****                                             LL_AHB5_GRP1_PERIPH_MCE3     | LL_AHB5_GRP1_PERIPH_MCE4
 231:../Drivers/STM32N6xx_HAL_Driver/Inc/stm32n6xx_ll_bus.h ****                                             LL_AHB5_GRP1_PERIPH_CACHEAXI | LL_AHB5_GRP1_PERIPH_NPU 
 232:../Drivers/STM32N6xx_HAL_Driver/Inc/stm32n6xx_ll_bus.h ****                                             LL_AHB5_GRP1_PERIPH_OTG1     | LL_AHB5_GRP1_PERIPH_OTG2
 233:../Drivers/STM32N6xx_HAL_Driver/Inc/stm32n6xx_ll_bus.h ****                                             LL_AHB5_GRP1_PERIPH_OTGPHY1  | LL_AHB5_GRP1_PERIPH_OTGP
 234:../Drivers/STM32N6xx_HAL_Driver/Inc/stm32n6xx_ll_bus.h ****                                             LL_AHB5_GRP1_PERIPH_PSSI     | LL_AHB5_GRP1_PERIPH_SDMM
 235:../Drivers/STM32N6xx_HAL_Driver/Inc/stm32n6xx_ll_bus.h ****                                             LL_AHB5_GRP1_PERIPH_SDMMC2)
 236:../Drivers/STM32N6xx_HAL_Driver/Inc/stm32n6xx_ll_bus.h **** /**
 237:../Drivers/STM32N6xx_HAL_Driver/Inc/stm32n6xx_ll_bus.h ****   * @}
ARM GAS  /tmp/ccZzrCLx.s 			page 26


 238:../Drivers/STM32N6xx_HAL_Driver/Inc/stm32n6xx_ll_bus.h ****   */
 239:../Drivers/STM32N6xx_HAL_Driver/Inc/stm32n6xx_ll_bus.h **** 
 240:../Drivers/STM32N6xx_HAL_Driver/Inc/stm32n6xx_ll_bus.h **** /** @defgroup BUS_LL_EC_APB1_GRP1_PERIPH  APB1 GRP1 PERIPH
 241:../Drivers/STM32N6xx_HAL_Driver/Inc/stm32n6xx_ll_bus.h ****   * @{
 242:../Drivers/STM32N6xx_HAL_Driver/Inc/stm32n6xx_ll_bus.h ****   */
 243:../Drivers/STM32N6xx_HAL_Driver/Inc/stm32n6xx_ll_bus.h **** #define LL_APB1_GRP1_PERIPH_I2C1           RCC_APB1ENR1_I2C1EN
 244:../Drivers/STM32N6xx_HAL_Driver/Inc/stm32n6xx_ll_bus.h **** #define LL_APB1_GRP1_PERIPH_I2C2           RCC_APB1ENR1_I2C2EN
 245:../Drivers/STM32N6xx_HAL_Driver/Inc/stm32n6xx_ll_bus.h **** #define LL_APB1_GRP1_PERIPH_I2C3           RCC_APB1ENR1_I2C3EN
 246:../Drivers/STM32N6xx_HAL_Driver/Inc/stm32n6xx_ll_bus.h **** #define LL_APB1_GRP1_PERIPH_I3C1           RCC_APB1ENR1_I3C1EN
 247:../Drivers/STM32N6xx_HAL_Driver/Inc/stm32n6xx_ll_bus.h **** #define LL_APB1_GRP1_PERIPH_I3C2           RCC_APB1ENR1_I3C2EN
 248:../Drivers/STM32N6xx_HAL_Driver/Inc/stm32n6xx_ll_bus.h **** #define LL_APB1_GRP1_PERIPH_LPTIM1         RCC_APB1ENR1_LPTIM1EN
 249:../Drivers/STM32N6xx_HAL_Driver/Inc/stm32n6xx_ll_bus.h **** #define LL_APB1_GRP1_PERIPH_SPDIFRX1       RCC_APB1ENR1_SPDIFRX1EN
 250:../Drivers/STM32N6xx_HAL_Driver/Inc/stm32n6xx_ll_bus.h **** #define LL_APB1_GRP1_PERIPH_SPI2           RCC_APB1ENR1_SPI2EN
 251:../Drivers/STM32N6xx_HAL_Driver/Inc/stm32n6xx_ll_bus.h **** #define LL_APB1_GRP1_PERIPH_SPI3           RCC_APB1ENR1_SPI3EN
 252:../Drivers/STM32N6xx_HAL_Driver/Inc/stm32n6xx_ll_bus.h **** #define LL_APB1_GRP1_PERIPH_TIM2           RCC_APB1ENR1_TIM2EN
 253:../Drivers/STM32N6xx_HAL_Driver/Inc/stm32n6xx_ll_bus.h **** #define LL_APB1_GRP1_PERIPH_TIM3           RCC_APB1ENR1_TIM3EN
 254:../Drivers/STM32N6xx_HAL_Driver/Inc/stm32n6xx_ll_bus.h **** #define LL_APB1_GRP1_PERIPH_TIM4           RCC_APB1ENR1_TIM4EN
 255:../Drivers/STM32N6xx_HAL_Driver/Inc/stm32n6xx_ll_bus.h **** #define LL_APB1_GRP1_PERIPH_TIM5           RCC_APB1ENR1_TIM5EN
 256:../Drivers/STM32N6xx_HAL_Driver/Inc/stm32n6xx_ll_bus.h **** #define LL_APB1_GRP1_PERIPH_TIM6           RCC_APB1ENR1_TIM6EN
 257:../Drivers/STM32N6xx_HAL_Driver/Inc/stm32n6xx_ll_bus.h **** #define LL_APB1_GRP1_PERIPH_TIM7           RCC_APB1ENR1_TIM7EN
 258:../Drivers/STM32N6xx_HAL_Driver/Inc/stm32n6xx_ll_bus.h **** #define LL_APB1_GRP1_PERIPH_TIM10          RCC_APB1ENR1_TIM10EN
 259:../Drivers/STM32N6xx_HAL_Driver/Inc/stm32n6xx_ll_bus.h **** #define LL_APB1_GRP1_PERIPH_TIM11          RCC_APB1ENR1_TIM11EN
 260:../Drivers/STM32N6xx_HAL_Driver/Inc/stm32n6xx_ll_bus.h **** #define LL_APB1_GRP1_PERIPH_TIM12          RCC_APB1ENR1_TIM12EN
 261:../Drivers/STM32N6xx_HAL_Driver/Inc/stm32n6xx_ll_bus.h **** #define LL_APB1_GRP1_PERIPH_TIM13          RCC_APB1ENR1_TIM13EN
 262:../Drivers/STM32N6xx_HAL_Driver/Inc/stm32n6xx_ll_bus.h **** #define LL_APB1_GRP1_PERIPH_TIM14          RCC_APB1ENR1_TIM14EN
 263:../Drivers/STM32N6xx_HAL_Driver/Inc/stm32n6xx_ll_bus.h **** #define LL_APB1_GRP1_PERIPH_USART2         RCC_APB1ENR1_USART2EN
 264:../Drivers/STM32N6xx_HAL_Driver/Inc/stm32n6xx_ll_bus.h **** #define LL_APB1_GRP1_PERIPH_USART3         RCC_APB1ENR1_USART3EN
 265:../Drivers/STM32N6xx_HAL_Driver/Inc/stm32n6xx_ll_bus.h **** #define LL_APB1_GRP1_PERIPH_UART4          RCC_APB1ENR1_UART4EN
 266:../Drivers/STM32N6xx_HAL_Driver/Inc/stm32n6xx_ll_bus.h **** #define LL_APB1_GRP1_PERIPH_UART5          RCC_APB1ENR1_UART5EN
 267:../Drivers/STM32N6xx_HAL_Driver/Inc/stm32n6xx_ll_bus.h **** #define LL_APB1_GRP1_PERIPH_UART7          RCC_APB1ENR1_UART7EN
 268:../Drivers/STM32N6xx_HAL_Driver/Inc/stm32n6xx_ll_bus.h **** #define LL_APB1_GRP1_PERIPH_UART8          RCC_APB1ENR1_UART8EN
 269:../Drivers/STM32N6xx_HAL_Driver/Inc/stm32n6xx_ll_bus.h **** #define LL_APB1_GRP1_PERIPH_WWDG           RCC_APB1ENR1_WWDGEN
 270:../Drivers/STM32N6xx_HAL_Driver/Inc/stm32n6xx_ll_bus.h **** #define LL_APB1_GRP1_PERIPH_ALL            (LL_APB1_GRP1_PERIPH_I2C1     | LL_APB1_GRP1_PERIPH_I2C2
 271:../Drivers/STM32N6xx_HAL_Driver/Inc/stm32n6xx_ll_bus.h ****                                             LL_APB1_GRP1_PERIPH_I2C3     | LL_APB1_GRP1_PERIPH_I3C1
 272:../Drivers/STM32N6xx_HAL_Driver/Inc/stm32n6xx_ll_bus.h ****                                             LL_APB1_GRP1_PERIPH_I3C2     | LL_APB1_GRP1_PERIPH_LPTI
 273:../Drivers/STM32N6xx_HAL_Driver/Inc/stm32n6xx_ll_bus.h ****                                             LL_APB1_GRP1_PERIPH_SPDIFRX1 | LL_APB1_GRP1_PERIPH_SPI2
 274:../Drivers/STM32N6xx_HAL_Driver/Inc/stm32n6xx_ll_bus.h ****                                             LL_APB1_GRP1_PERIPH_SPI3     | LL_APB1_GRP1_PERIPH_TIM2
 275:../Drivers/STM32N6xx_HAL_Driver/Inc/stm32n6xx_ll_bus.h ****                                             LL_APB1_GRP1_PERIPH_TIM3     | LL_APB1_GRP1_PERIPH_TIM4
 276:../Drivers/STM32N6xx_HAL_Driver/Inc/stm32n6xx_ll_bus.h ****                                             LL_APB1_GRP1_PERIPH_TIM5     | LL_APB1_GRP1_PERIPH_TIM6
 277:../Drivers/STM32N6xx_HAL_Driver/Inc/stm32n6xx_ll_bus.h ****                                             LL_APB1_GRP1_PERIPH_TIM7     | LL_APB1_GRP1_PERIPH_TIM1
 278:../Drivers/STM32N6xx_HAL_Driver/Inc/stm32n6xx_ll_bus.h ****                                             LL_APB1_GRP1_PERIPH_TIM11    | LL_APB1_GRP1_PERIPH_TIM1
 279:../Drivers/STM32N6xx_HAL_Driver/Inc/stm32n6xx_ll_bus.h ****                                             LL_APB1_GRP1_PERIPH_TIM13    | LL_APB1_GRP1_PERIPH_TIM1
 280:../Drivers/STM32N6xx_HAL_Driver/Inc/stm32n6xx_ll_bus.h ****                                             LL_APB1_GRP1_PERIPH_USART2   | LL_APB1_GRP1_PERIPH_USAR
 281:../Drivers/STM32N6xx_HAL_Driver/Inc/stm32n6xx_ll_bus.h ****                                             LL_APB1_GRP1_PERIPH_UART4    | LL_APB1_GRP1_PERIPH_UART
 282:../Drivers/STM32N6xx_HAL_Driver/Inc/stm32n6xx_ll_bus.h ****                                             LL_APB1_GRP1_PERIPH_UART7    | LL_APB1_GRP1_PERIPH_UART
 283:../Drivers/STM32N6xx_HAL_Driver/Inc/stm32n6xx_ll_bus.h ****                                             LL_APB1_GRP1_PERIPH_WWDG)
 284:../Drivers/STM32N6xx_HAL_Driver/Inc/stm32n6xx_ll_bus.h **** /**
 285:../Drivers/STM32N6xx_HAL_Driver/Inc/stm32n6xx_ll_bus.h ****   * @}
 286:../Drivers/STM32N6xx_HAL_Driver/Inc/stm32n6xx_ll_bus.h ****   */
 287:../Drivers/STM32N6xx_HAL_Driver/Inc/stm32n6xx_ll_bus.h **** 
 288:../Drivers/STM32N6xx_HAL_Driver/Inc/stm32n6xx_ll_bus.h **** /** @defgroup BUS_LL_EC_APB1_GRP2_PERIPH  APB1 GRP2 PERIPH
 289:../Drivers/STM32N6xx_HAL_Driver/Inc/stm32n6xx_ll_bus.h ****   * @{
 290:../Drivers/STM32N6xx_HAL_Driver/Inc/stm32n6xx_ll_bus.h ****   */
 291:../Drivers/STM32N6xx_HAL_Driver/Inc/stm32n6xx_ll_bus.h **** #define LL_APB1_GRP2_PERIPH_FDCAN          RCC_APB1ENR2_FDCANEN
 292:../Drivers/STM32N6xx_HAL_Driver/Inc/stm32n6xx_ll_bus.h **** #define LL_APB1_GRP2_PERIPH_MDIOS          RCC_APB1ENR2_MDIOSEN
 293:../Drivers/STM32N6xx_HAL_Driver/Inc/stm32n6xx_ll_bus.h **** #define LL_APB1_GRP2_PERIPH_UCPD1          RCC_APB1ENR2_UCPD1EN
 294:../Drivers/STM32N6xx_HAL_Driver/Inc/stm32n6xx_ll_bus.h **** #define LL_APB1_GRP2_PERIPH_ALL            (LL_APB1_GRP2_PERIPH_FDCAN | LL_APB1_GRP2_PERIPH_MDIOS |
ARM GAS  /tmp/ccZzrCLx.s 			page 27


 295:../Drivers/STM32N6xx_HAL_Driver/Inc/stm32n6xx_ll_bus.h ****                                             LL_APB1_GRP2_PERIPH_UCPD1)
 296:../Drivers/STM32N6xx_HAL_Driver/Inc/stm32n6xx_ll_bus.h **** /**
 297:../Drivers/STM32N6xx_HAL_Driver/Inc/stm32n6xx_ll_bus.h ****   * @}
 298:../Drivers/STM32N6xx_HAL_Driver/Inc/stm32n6xx_ll_bus.h ****   */
 299:../Drivers/STM32N6xx_HAL_Driver/Inc/stm32n6xx_ll_bus.h **** 
 300:../Drivers/STM32N6xx_HAL_Driver/Inc/stm32n6xx_ll_bus.h **** /** @defgroup BUS_LL_EC_APB2_GRP1_PERIPH  APB2 GRP1 PERIPH
 301:../Drivers/STM32N6xx_HAL_Driver/Inc/stm32n6xx_ll_bus.h ****   * @{
 302:../Drivers/STM32N6xx_HAL_Driver/Inc/stm32n6xx_ll_bus.h ****   */
 303:../Drivers/STM32N6xx_HAL_Driver/Inc/stm32n6xx_ll_bus.h **** #define LL_APB2_GRP1_PERIPH_SAI1           RCC_APB2ENR_SAI1EN
 304:../Drivers/STM32N6xx_HAL_Driver/Inc/stm32n6xx_ll_bus.h **** #define LL_APB2_GRP1_PERIPH_SAI2           RCC_APB2ENR_SAI2EN
 305:../Drivers/STM32N6xx_HAL_Driver/Inc/stm32n6xx_ll_bus.h **** #define LL_APB2_GRP1_PERIPH_SPI1           RCC_APB2ENR_SPI1EN
 306:../Drivers/STM32N6xx_HAL_Driver/Inc/stm32n6xx_ll_bus.h **** #define LL_APB2_GRP1_PERIPH_SPI4           RCC_APB2ENR_SPI4EN
 307:../Drivers/STM32N6xx_HAL_Driver/Inc/stm32n6xx_ll_bus.h **** #define LL_APB2_GRP1_PERIPH_SPI5           RCC_APB2ENR_SPI5EN
 308:../Drivers/STM32N6xx_HAL_Driver/Inc/stm32n6xx_ll_bus.h **** #define LL_APB2_GRP1_PERIPH_TIM1           RCC_APB2ENR_TIM1EN
 309:../Drivers/STM32N6xx_HAL_Driver/Inc/stm32n6xx_ll_bus.h **** #define LL_APB2_GRP1_PERIPH_TIM8           RCC_APB2ENR_TIM8EN
 310:../Drivers/STM32N6xx_HAL_Driver/Inc/stm32n6xx_ll_bus.h **** #define LL_APB2_GRP1_PERIPH_TIM9           RCC_APB2ENR_TIM9EN
 311:../Drivers/STM32N6xx_HAL_Driver/Inc/stm32n6xx_ll_bus.h **** #define LL_APB2_GRP1_PERIPH_TIM15          RCC_APB2ENR_TIM15EN
 312:../Drivers/STM32N6xx_HAL_Driver/Inc/stm32n6xx_ll_bus.h **** #define LL_APB2_GRP1_PERIPH_TIM16          RCC_APB2ENR_TIM16EN
 313:../Drivers/STM32N6xx_HAL_Driver/Inc/stm32n6xx_ll_bus.h **** #define LL_APB2_GRP1_PERIPH_TIM17          RCC_APB2ENR_TIM17EN
 314:../Drivers/STM32N6xx_HAL_Driver/Inc/stm32n6xx_ll_bus.h **** #define LL_APB2_GRP1_PERIPH_TIM18          RCC_APB2ENR_TIM18EN
 315:../Drivers/STM32N6xx_HAL_Driver/Inc/stm32n6xx_ll_bus.h **** #define LL_APB2_GRP1_PERIPH_USART1         RCC_APB2ENR_USART1EN
 316:../Drivers/STM32N6xx_HAL_Driver/Inc/stm32n6xx_ll_bus.h **** #define LL_APB2_GRP1_PERIPH_USART6         RCC_APB2ENR_USART6EN
 317:../Drivers/STM32N6xx_HAL_Driver/Inc/stm32n6xx_ll_bus.h **** #define LL_APB2_GRP1_PERIPH_UART9          RCC_APB2ENR_UART9EN
 318:../Drivers/STM32N6xx_HAL_Driver/Inc/stm32n6xx_ll_bus.h **** #define LL_APB2_GRP1_PERIPH_USART10        RCC_APB2ENR_USART10EN
 319:../Drivers/STM32N6xx_HAL_Driver/Inc/stm32n6xx_ll_bus.h **** #define LL_APB2_GRP1_PERIPH_ALL            (LL_APB2_GRP1_PERIPH_SAI1   | LL_APB2_GRP1_PERIPH_SAI2  
 320:../Drivers/STM32N6xx_HAL_Driver/Inc/stm32n6xx_ll_bus.h ****                                             LL_APB2_GRP1_PERIPH_SPI1   | LL_APB2_GRP1_PERIPH_SPI4  
 321:../Drivers/STM32N6xx_HAL_Driver/Inc/stm32n6xx_ll_bus.h ****                                             LL_APB2_GRP1_PERIPH_SPI5   | LL_APB2_GRP1_PERIPH_TIM1  
 322:../Drivers/STM32N6xx_HAL_Driver/Inc/stm32n6xx_ll_bus.h ****                                             LL_APB2_GRP1_PERIPH_TIM8   | LL_APB2_GRP1_PERIPH_TIM9  
 323:../Drivers/STM32N6xx_HAL_Driver/Inc/stm32n6xx_ll_bus.h ****                                             LL_APB2_GRP1_PERIPH_TIM15  | LL_APB2_GRP1_PERIPH_TIM16 
 324:../Drivers/STM32N6xx_HAL_Driver/Inc/stm32n6xx_ll_bus.h ****                                             LL_APB2_GRP1_PERIPH_TIM17  | LL_APB2_GRP1_PERIPH_TIM18 
 325:../Drivers/STM32N6xx_HAL_Driver/Inc/stm32n6xx_ll_bus.h ****                                             LL_APB2_GRP1_PERIPH_USART1 | LL_APB2_GRP1_PERIPH_USART6
 326:../Drivers/STM32N6xx_HAL_Driver/Inc/stm32n6xx_ll_bus.h ****                                             LL_APB2_GRP1_PERIPH_UART9  | LL_APB2_GRP1_PERIPH_USART1
 327:../Drivers/STM32N6xx_HAL_Driver/Inc/stm32n6xx_ll_bus.h **** /**
 328:../Drivers/STM32N6xx_HAL_Driver/Inc/stm32n6xx_ll_bus.h ****   * @}
 329:../Drivers/STM32N6xx_HAL_Driver/Inc/stm32n6xx_ll_bus.h ****   */
 330:../Drivers/STM32N6xx_HAL_Driver/Inc/stm32n6xx_ll_bus.h **** 
 331:../Drivers/STM32N6xx_HAL_Driver/Inc/stm32n6xx_ll_bus.h **** /** @defgroup BUS_LL_EC_APB4_GRP1_PERIPH  APB4 GRP1 PERIPH
 332:../Drivers/STM32N6xx_HAL_Driver/Inc/stm32n6xx_ll_bus.h ****   * @{
 333:../Drivers/STM32N6xx_HAL_Driver/Inc/stm32n6xx_ll_bus.h ****   */
 334:../Drivers/STM32N6xx_HAL_Driver/Inc/stm32n6xx_ll_bus.h **** #define LL_APB4_GRP1_PERIPH_HDP            RCC_APB4ENR1_HDPEN
 335:../Drivers/STM32N6xx_HAL_Driver/Inc/stm32n6xx_ll_bus.h **** #define LL_APB4_GRP1_PERIPH_I2C4           RCC_APB4ENR1_I2C4EN
 336:../Drivers/STM32N6xx_HAL_Driver/Inc/stm32n6xx_ll_bus.h **** #define LL_APB4_GRP1_PERIPH_LPTIM2         RCC_APB4ENR1_LPTIM2EN
 337:../Drivers/STM32N6xx_HAL_Driver/Inc/stm32n6xx_ll_bus.h **** #define LL_APB4_GRP1_PERIPH_LPTIM3         RCC_APB4ENR1_LPTIM3EN
 338:../Drivers/STM32N6xx_HAL_Driver/Inc/stm32n6xx_ll_bus.h **** #define LL_APB4_GRP1_PERIPH_LPTIM4         RCC_APB4ENR1_LPTIM4EN
 339:../Drivers/STM32N6xx_HAL_Driver/Inc/stm32n6xx_ll_bus.h **** #define LL_APB4_GRP1_PERIPH_LPTIM5         RCC_APB4ENR1_LPTIM5EN
 340:../Drivers/STM32N6xx_HAL_Driver/Inc/stm32n6xx_ll_bus.h **** #define LL_APB4_GRP1_PERIPH_LPUART1        RCC_APB4ENR1_LPUART1EN
 341:../Drivers/STM32N6xx_HAL_Driver/Inc/stm32n6xx_ll_bus.h **** #define LL_APB4_GRP1_PERIPH_RTC            RCC_APB4ENR1_RTCEN
 342:../Drivers/STM32N6xx_HAL_Driver/Inc/stm32n6xx_ll_bus.h **** #define LL_APB4_GRP1_PERIPH_RTCAPB         RCC_APB4ENR1_RTCAPBEN
 343:../Drivers/STM32N6xx_HAL_Driver/Inc/stm32n6xx_ll_bus.h **** #define LL_APB4_GRP1_PERIPH_SPI6           RCC_APB4ENR1_SPI6EN
 344:../Drivers/STM32N6xx_HAL_Driver/Inc/stm32n6xx_ll_bus.h **** #define LL_APB4_GRP1_PERIPH_VREFBUF        RCC_APB4ENR1_VREFBUFEN
 345:../Drivers/STM32N6xx_HAL_Driver/Inc/stm32n6xx_ll_bus.h **** #define LL_APB4_GRP1_PERIPH_ALL            (LL_APB4_GRP1_PERIPH_HDP     | LL_APB4_GRP1_PERIPH_I2C4 
 346:../Drivers/STM32N6xx_HAL_Driver/Inc/stm32n6xx_ll_bus.h ****                                             LL_APB4_GRP1_PERIPH_LPTIM2  | LL_APB4_GRP1_PERIPH_LPTIM
 347:../Drivers/STM32N6xx_HAL_Driver/Inc/stm32n6xx_ll_bus.h ****                                             LL_APB4_GRP1_PERIPH_LPTIM4  | LL_APB4_GRP1_PERIPH_LPTIM
 348:../Drivers/STM32N6xx_HAL_Driver/Inc/stm32n6xx_ll_bus.h ****                                             LL_APB4_GRP1_PERIPH_LPUART1 | LL_APB4_GRP1_PERIPH_RTC  
 349:../Drivers/STM32N6xx_HAL_Driver/Inc/stm32n6xx_ll_bus.h ****                                             LL_APB4_GRP1_PERIPH_RTCAPB  | LL_APB4_GRP1_PERIPH_SPI6 
 350:../Drivers/STM32N6xx_HAL_Driver/Inc/stm32n6xx_ll_bus.h ****                                             LL_APB4_GRP1_PERIPH_VREFBUF)
 351:../Drivers/STM32N6xx_HAL_Driver/Inc/stm32n6xx_ll_bus.h **** /**
ARM GAS  /tmp/ccZzrCLx.s 			page 28


 352:../Drivers/STM32N6xx_HAL_Driver/Inc/stm32n6xx_ll_bus.h ****   * @}
 353:../Drivers/STM32N6xx_HAL_Driver/Inc/stm32n6xx_ll_bus.h ****   */
 354:../Drivers/STM32N6xx_HAL_Driver/Inc/stm32n6xx_ll_bus.h **** 
 355:../Drivers/STM32N6xx_HAL_Driver/Inc/stm32n6xx_ll_bus.h **** /** @defgroup BUS_LL_EC_APB4_GRP2_PERIPH  APB4 GRP2 PERIPH
 356:../Drivers/STM32N6xx_HAL_Driver/Inc/stm32n6xx_ll_bus.h ****   * @{
 357:../Drivers/STM32N6xx_HAL_Driver/Inc/stm32n6xx_ll_bus.h ****   */
 358:../Drivers/STM32N6xx_HAL_Driver/Inc/stm32n6xx_ll_bus.h **** #define LL_APB4_GRP2_PERIPH_BSEC           RCC_APB4ENR2_BSECEN
 359:../Drivers/STM32N6xx_HAL_Driver/Inc/stm32n6xx_ll_bus.h **** #define LL_APB4_GRP2_PERIPH_DTS            RCC_APB4ENR2_DTSEN
 360:../Drivers/STM32N6xx_HAL_Driver/Inc/stm32n6xx_ll_bus.h **** #define LL_APB4_GRP2_PERIPH_SYSCFG         RCC_APB4ENR2_SYSCFGEN
 361:../Drivers/STM32N6xx_HAL_Driver/Inc/stm32n6xx_ll_bus.h **** #define LL_APB4_GRP2_PERIPH_ALL            (LL_APB4_GRP2_PERIPH_BSEC | LL_APB4_GRP2_PERIPH_DTS | \
 362:../Drivers/STM32N6xx_HAL_Driver/Inc/stm32n6xx_ll_bus.h ****                                             LL_APB4_GRP2_PERIPH_SYSCFG)
 363:../Drivers/STM32N6xx_HAL_Driver/Inc/stm32n6xx_ll_bus.h **** /**
 364:../Drivers/STM32N6xx_HAL_Driver/Inc/stm32n6xx_ll_bus.h ****   * @}
 365:../Drivers/STM32N6xx_HAL_Driver/Inc/stm32n6xx_ll_bus.h ****   */
 366:../Drivers/STM32N6xx_HAL_Driver/Inc/stm32n6xx_ll_bus.h **** 
 367:../Drivers/STM32N6xx_HAL_Driver/Inc/stm32n6xx_ll_bus.h **** /** @defgroup BUS_LL_EC_APB5_GRP1_PERIPH  APB5 GRP1 PERIPH
 368:../Drivers/STM32N6xx_HAL_Driver/Inc/stm32n6xx_ll_bus.h ****   * @{
 369:../Drivers/STM32N6xx_HAL_Driver/Inc/stm32n6xx_ll_bus.h ****   */
 370:../Drivers/STM32N6xx_HAL_Driver/Inc/stm32n6xx_ll_bus.h **** #define LL_APB5_GRP1_PERIPH_CSI            RCC_APB5ENR_CSIEN
 371:../Drivers/STM32N6xx_HAL_Driver/Inc/stm32n6xx_ll_bus.h **** #define LL_APB5_GRP1_PERIPH_DCMIPP         RCC_APB5ENR_DCMIPPEN
 372:../Drivers/STM32N6xx_HAL_Driver/Inc/stm32n6xx_ll_bus.h **** #define LL_APB5_GRP1_PERIPH_GFXTIM         RCC_APB5ENR_GFXTIMEN
 373:../Drivers/STM32N6xx_HAL_Driver/Inc/stm32n6xx_ll_bus.h **** #define LL_APB5_GRP1_PERIPH_LTDC           RCC_APB5ENR_LTDCEN
 374:../Drivers/STM32N6xx_HAL_Driver/Inc/stm32n6xx_ll_bus.h **** #if defined(VENC)
 375:../Drivers/STM32N6xx_HAL_Driver/Inc/stm32n6xx_ll_bus.h **** #define LL_APB5_GRP1_PERIPH_VENC           RCC_APB5ENR_VENCEN
 376:../Drivers/STM32N6xx_HAL_Driver/Inc/stm32n6xx_ll_bus.h **** #else
 377:../Drivers/STM32N6xx_HAL_Driver/Inc/stm32n6xx_ll_bus.h **** #define LL_APB5_GRP1_PERIPH_VENC
 378:../Drivers/STM32N6xx_HAL_Driver/Inc/stm32n6xx_ll_bus.h **** #endif /* VENC */
 379:../Drivers/STM32N6xx_HAL_Driver/Inc/stm32n6xx_ll_bus.h **** #define LL_APB5_GRP1_PERIPH_ALL            (LL_APB5_GRP1_PERIPH_CSI    | LL_APB5_GRP1_PERIPH_DCMIPP
 380:../Drivers/STM32N6xx_HAL_Driver/Inc/stm32n6xx_ll_bus.h ****                                             LL_APB5_GRP1_PERIPH_GFXTIM | LL_APB5_GRP1_PERIPH_LTDC  
 381:../Drivers/STM32N6xx_HAL_Driver/Inc/stm32n6xx_ll_bus.h ****                                             LL_APB5_GRP1_PERIPH_VENC)
 382:../Drivers/STM32N6xx_HAL_Driver/Inc/stm32n6xx_ll_bus.h **** /**
 383:../Drivers/STM32N6xx_HAL_Driver/Inc/stm32n6xx_ll_bus.h ****   * @}
 384:../Drivers/STM32N6xx_HAL_Driver/Inc/stm32n6xx_ll_bus.h ****   */
 385:../Drivers/STM32N6xx_HAL_Driver/Inc/stm32n6xx_ll_bus.h **** 
 386:../Drivers/STM32N6xx_HAL_Driver/Inc/stm32n6xx_ll_bus.h **** /** @defgroup BUS_LL_EC_MISC  MISC
 387:../Drivers/STM32N6xx_HAL_Driver/Inc/stm32n6xx_ll_bus.h ****   * @{
 388:../Drivers/STM32N6xx_HAL_Driver/Inc/stm32n6xx_ll_bus.h ****   */
 389:../Drivers/STM32N6xx_HAL_Driver/Inc/stm32n6xx_ll_bus.h **** #define LL_DBG                             RCC_MISCENR_DBGEN
 390:../Drivers/STM32N6xx_HAL_Driver/Inc/stm32n6xx_ll_bus.h **** #define LL_MCO1                            RCC_MISCENR_MCO1EN
 391:../Drivers/STM32N6xx_HAL_Driver/Inc/stm32n6xx_ll_bus.h **** #define LL_MCO2                            RCC_MISCENR_MCO2EN
 392:../Drivers/STM32N6xx_HAL_Driver/Inc/stm32n6xx_ll_bus.h **** #define LL_XSPIPHYCOMP                     RCC_MISCENR_XSPIPHYCOMPEN
 393:../Drivers/STM32N6xx_HAL_Driver/Inc/stm32n6xx_ll_bus.h **** #define LL_XSPIPHY1                        RCC_MISCRSTR_XSPIPHY1RST
 394:../Drivers/STM32N6xx_HAL_Driver/Inc/stm32n6xx_ll_bus.h **** #define LL_XSPIPHY2                        RCC_MISCRSTR_XSPIPHY2RST
 395:../Drivers/STM32N6xx_HAL_Driver/Inc/stm32n6xx_ll_bus.h **** #define LL_PER                             RCC_MISCENR_PEREN
 396:../Drivers/STM32N6xx_HAL_Driver/Inc/stm32n6xx_ll_bus.h **** #define LL_SDMMC1DLL                       RCC_MISCRSTR_SDMMC1DLLRST
 397:../Drivers/STM32N6xx_HAL_Driver/Inc/stm32n6xx_ll_bus.h **** #define LL_SDMMC2DLL                       RCC_MISCRSTR_SDMMC2DLLRST
 398:../Drivers/STM32N6xx_HAL_Driver/Inc/stm32n6xx_ll_bus.h **** /**
 399:../Drivers/STM32N6xx_HAL_Driver/Inc/stm32n6xx_ll_bus.h ****   * @}
 400:../Drivers/STM32N6xx_HAL_Driver/Inc/stm32n6xx_ll_bus.h ****   */
 401:../Drivers/STM32N6xx_HAL_Driver/Inc/stm32n6xx_ll_bus.h **** 
 402:../Drivers/STM32N6xx_HAL_Driver/Inc/stm32n6xx_ll_bus.h **** /**
 403:../Drivers/STM32N6xx_HAL_Driver/Inc/stm32n6xx_ll_bus.h ****   * @}
 404:../Drivers/STM32N6xx_HAL_Driver/Inc/stm32n6xx_ll_bus.h ****   */
 405:../Drivers/STM32N6xx_HAL_Driver/Inc/stm32n6xx_ll_bus.h **** 
 406:../Drivers/STM32N6xx_HAL_Driver/Inc/stm32n6xx_ll_bus.h **** /* Exported macros -----------------------------------------------------------*/
 407:../Drivers/STM32N6xx_HAL_Driver/Inc/stm32n6xx_ll_bus.h **** 
 408:../Drivers/STM32N6xx_HAL_Driver/Inc/stm32n6xx_ll_bus.h **** /* Exported functions --------------------------------------------------------*/
ARM GAS  /tmp/ccZzrCLx.s 			page 29


 409:../Drivers/STM32N6xx_HAL_Driver/Inc/stm32n6xx_ll_bus.h **** 
 410:../Drivers/STM32N6xx_HAL_Driver/Inc/stm32n6xx_ll_bus.h **** /** @defgroup BUS_LL_Exported_Functions BUS Exported Functions
 411:../Drivers/STM32N6xx_HAL_Driver/Inc/stm32n6xx_ll_bus.h ****   * @{
 412:../Drivers/STM32N6xx_HAL_Driver/Inc/stm32n6xx_ll_bus.h ****   */
 413:../Drivers/STM32N6xx_HAL_Driver/Inc/stm32n6xx_ll_bus.h **** 
 414:../Drivers/STM32N6xx_HAL_Driver/Inc/stm32n6xx_ll_bus.h **** /** @defgroup BUS_LL_EF_BUS BUS
 415:../Drivers/STM32N6xx_HAL_Driver/Inc/stm32n6xx_ll_bus.h ****   * @{
 416:../Drivers/STM32N6xx_HAL_Driver/Inc/stm32n6xx_ll_bus.h ****   */
 417:../Drivers/STM32N6xx_HAL_Driver/Inc/stm32n6xx_ll_bus.h **** 
 418:../Drivers/STM32N6xx_HAL_Driver/Inc/stm32n6xx_ll_bus.h **** /**
 419:../Drivers/STM32N6xx_HAL_Driver/Inc/stm32n6xx_ll_bus.h ****   * @brief  Enable AXI bus clock.
 420:../Drivers/STM32N6xx_HAL_Driver/Inc/stm32n6xx_ll_bus.h ****   * @rmtoll BUSENSR      ACLKNENS      LL_BUS_EnableClock\n
 421:../Drivers/STM32N6xx_HAL_Driver/Inc/stm32n6xx_ll_bus.h ****   *         BUSENSR      ACLKNCENS     LL_BUS_EnableClock\n
 422:../Drivers/STM32N6xx_HAL_Driver/Inc/stm32n6xx_ll_bus.h ****   *         BUSENSR      AHBMENS       LL_BUS_EnableClock\n
 423:../Drivers/STM32N6xx_HAL_Driver/Inc/stm32n6xx_ll_bus.h ****   *         BUSENSR      AHB1ENS       LL_BUS_EnableClock\n
 424:../Drivers/STM32N6xx_HAL_Driver/Inc/stm32n6xx_ll_bus.h ****   *         BUSENSR      AHB2ENS       LL_BUS_EnableClock\n
 425:../Drivers/STM32N6xx_HAL_Driver/Inc/stm32n6xx_ll_bus.h ****   *         BUSENSR      AHB3ENS       LL_BUS_EnableClock\n
 426:../Drivers/STM32N6xx_HAL_Driver/Inc/stm32n6xx_ll_bus.h ****   *         BUSENSR      AHB4ENS       LL_BUS_EnableClock\n
 427:../Drivers/STM32N6xx_HAL_Driver/Inc/stm32n6xx_ll_bus.h ****   *         BUSENSR      AHB5ENS       LL_BUS_EnableClock\n
 428:../Drivers/STM32N6xx_HAL_Driver/Inc/stm32n6xx_ll_bus.h ****   *         BUSENSR      APB1ENS       LL_BUS_EnableClock\n
 429:../Drivers/STM32N6xx_HAL_Driver/Inc/stm32n6xx_ll_bus.h ****   *         BUSENSR      APB2ENS       LL_BUS_EnableClock\n
 430:../Drivers/STM32N6xx_HAL_Driver/Inc/stm32n6xx_ll_bus.h ****   *         BUSENSR      APB3ENS       LL_BUS_EnableClock\n
 431:../Drivers/STM32N6xx_HAL_Driver/Inc/stm32n6xx_ll_bus.h ****   *         BUSENSR      APB4ENS       LL_BUS_EnableClock\n
 432:../Drivers/STM32N6xx_HAL_Driver/Inc/stm32n6xx_ll_bus.h ****   *         BUSENSR      APB5ENS       LL_BUS_EnableClock
 433:../Drivers/STM32N6xx_HAL_Driver/Inc/stm32n6xx_ll_bus.h ****   * @param  Bus This parameter can be a combination of the following values:
 434:../Drivers/STM32N6xx_HAL_Driver/Inc/stm32n6xx_ll_bus.h ****   *         @arg @ref LL_ACLKN
 435:../Drivers/STM32N6xx_HAL_Driver/Inc/stm32n6xx_ll_bus.h ****   *         @arg @ref LL_ACLKNC
 436:../Drivers/STM32N6xx_HAL_Driver/Inc/stm32n6xx_ll_bus.h ****   *         @arg @ref LL_AHBM
 437:../Drivers/STM32N6xx_HAL_Driver/Inc/stm32n6xx_ll_bus.h ****   *         @arg @ref LL_AHB1
 438:../Drivers/STM32N6xx_HAL_Driver/Inc/stm32n6xx_ll_bus.h ****   *         @arg @ref LL_AHB2
 439:../Drivers/STM32N6xx_HAL_Driver/Inc/stm32n6xx_ll_bus.h ****   *         @arg @ref LL_AHB3
 440:../Drivers/STM32N6xx_HAL_Driver/Inc/stm32n6xx_ll_bus.h ****   *         @arg @ref LL_AHB4
 441:../Drivers/STM32N6xx_HAL_Driver/Inc/stm32n6xx_ll_bus.h ****   *         @arg @ref LL_AHB5
 442:../Drivers/STM32N6xx_HAL_Driver/Inc/stm32n6xx_ll_bus.h ****   *         @arg @ref LL_APB1
 443:../Drivers/STM32N6xx_HAL_Driver/Inc/stm32n6xx_ll_bus.h ****   *         @arg @ref LL_APB2
 444:../Drivers/STM32N6xx_HAL_Driver/Inc/stm32n6xx_ll_bus.h ****   *         @arg @ref LL_APB3
 445:../Drivers/STM32N6xx_HAL_Driver/Inc/stm32n6xx_ll_bus.h ****   *         @arg @ref LL_APB4
 446:../Drivers/STM32N6xx_HAL_Driver/Inc/stm32n6xx_ll_bus.h ****   *         @arg @ref LL_APB5
 447:../Drivers/STM32N6xx_HAL_Driver/Inc/stm32n6xx_ll_bus.h ****   * @retval None
 448:../Drivers/STM32N6xx_HAL_Driver/Inc/stm32n6xx_ll_bus.h ****   */
 449:../Drivers/STM32N6xx_HAL_Driver/Inc/stm32n6xx_ll_bus.h **** __STATIC_INLINE void LL_BUS_EnableClock(uint32_t Bus)
 450:../Drivers/STM32N6xx_HAL_Driver/Inc/stm32n6xx_ll_bus.h **** {
 451:../Drivers/STM32N6xx_HAL_Driver/Inc/stm32n6xx_ll_bus.h ****   __IO uint32_t tmpreg;
 452:../Drivers/STM32N6xx_HAL_Driver/Inc/stm32n6xx_ll_bus.h ****   WRITE_REG(RCC->BUSENSR, Bus);
 453:../Drivers/STM32N6xx_HAL_Driver/Inc/stm32n6xx_ll_bus.h ****   /* Delay after an RCC bus clock enabling */
 454:../Drivers/STM32N6xx_HAL_Driver/Inc/stm32n6xx_ll_bus.h ****   tmpreg = READ_REG(RCC->BUSENR);
 455:../Drivers/STM32N6xx_HAL_Driver/Inc/stm32n6xx_ll_bus.h ****   (void)tmpreg;
 456:../Drivers/STM32N6xx_HAL_Driver/Inc/stm32n6xx_ll_bus.h **** }
 457:../Drivers/STM32N6xx_HAL_Driver/Inc/stm32n6xx_ll_bus.h **** 
 458:../Drivers/STM32N6xx_HAL_Driver/Inc/stm32n6xx_ll_bus.h **** /**
 459:../Drivers/STM32N6xx_HAL_Driver/Inc/stm32n6xx_ll_bus.h ****   * @brief  Check if AXI bus clock is enabled or not
 460:../Drivers/STM32N6xx_HAL_Driver/Inc/stm32n6xx_ll_bus.h ****   * @rmtoll BUSENR       ACLKNEN       LL_BUS_IsEnabledClock\n
 461:../Drivers/STM32N6xx_HAL_Driver/Inc/stm32n6xx_ll_bus.h ****   *         BUSENR       ACLKNCEN      LL_BUS_IsEnabledClock\n
 462:../Drivers/STM32N6xx_HAL_Driver/Inc/stm32n6xx_ll_bus.h ****   *         BUSENR       AHBMEN        LL_BUS_IsEnabledClock\n
 463:../Drivers/STM32N6xx_HAL_Driver/Inc/stm32n6xx_ll_bus.h ****   *         BUSENR       AHB1EN        LL_BUS_IsEnabledClock\n
 464:../Drivers/STM32N6xx_HAL_Driver/Inc/stm32n6xx_ll_bus.h ****   *         BUSENR       AHB2EN        LL_BUS_IsEnabledClock\n
 465:../Drivers/STM32N6xx_HAL_Driver/Inc/stm32n6xx_ll_bus.h ****   *         BUSENR       AHB3EN        LL_BUS_IsEnabledClock\n
ARM GAS  /tmp/ccZzrCLx.s 			page 30


 466:../Drivers/STM32N6xx_HAL_Driver/Inc/stm32n6xx_ll_bus.h ****   *         BUSENR       AHB4EN        LL_BUS_IsEnabledClock\n
 467:../Drivers/STM32N6xx_HAL_Driver/Inc/stm32n6xx_ll_bus.h ****   *         BUSENR       AHB5EN        LL_BUS_IsEnabledClock\n
 468:../Drivers/STM32N6xx_HAL_Driver/Inc/stm32n6xx_ll_bus.h ****   *         BUSENR       APB1EN        LL_BUS_IsEnabledClock\n
 469:../Drivers/STM32N6xx_HAL_Driver/Inc/stm32n6xx_ll_bus.h ****   *         BUSENR       APB2EN        LL_BUS_IsEnabledClock\n
 470:../Drivers/STM32N6xx_HAL_Driver/Inc/stm32n6xx_ll_bus.h ****   *         BUSENR       APB3EN        LL_BUS_IsEnabledClock\n
 471:../Drivers/STM32N6xx_HAL_Driver/Inc/stm32n6xx_ll_bus.h ****   *         BUSENR       APB4EN        LL_BUS_IsEnabledClock\n
 472:../Drivers/STM32N6xx_HAL_Driver/Inc/stm32n6xx_ll_bus.h ****   *         BUSENR       APB5EN        LL_BUS_IsEnabledClock
 473:../Drivers/STM32N6xx_HAL_Driver/Inc/stm32n6xx_ll_bus.h ****   * @param  Bus This parameter can be a combination of the following values:
 474:../Drivers/STM32N6xx_HAL_Driver/Inc/stm32n6xx_ll_bus.h ****   *         @arg @ref LL_ACLKN
 475:../Drivers/STM32N6xx_HAL_Driver/Inc/stm32n6xx_ll_bus.h ****   *         @arg @ref LL_ACLKNC
 476:../Drivers/STM32N6xx_HAL_Driver/Inc/stm32n6xx_ll_bus.h ****   *         @arg @ref LL_AHBM
 477:../Drivers/STM32N6xx_HAL_Driver/Inc/stm32n6xx_ll_bus.h ****   *         @arg @ref LL_AHB1
 478:../Drivers/STM32N6xx_HAL_Driver/Inc/stm32n6xx_ll_bus.h ****   *         @arg @ref LL_AHB2
 479:../Drivers/STM32N6xx_HAL_Driver/Inc/stm32n6xx_ll_bus.h ****   *         @arg @ref LL_AHB3
 480:../Drivers/STM32N6xx_HAL_Driver/Inc/stm32n6xx_ll_bus.h ****   *         @arg @ref LL_AHB4
 481:../Drivers/STM32N6xx_HAL_Driver/Inc/stm32n6xx_ll_bus.h ****   *         @arg @ref LL_AHB5
 482:../Drivers/STM32N6xx_HAL_Driver/Inc/stm32n6xx_ll_bus.h ****   *         @arg @ref LL_APB1
 483:../Drivers/STM32N6xx_HAL_Driver/Inc/stm32n6xx_ll_bus.h ****   *         @arg @ref LL_APB2
 484:../Drivers/STM32N6xx_HAL_Driver/Inc/stm32n6xx_ll_bus.h ****   *         @arg @ref LL_APB3
 485:../Drivers/STM32N6xx_HAL_Driver/Inc/stm32n6xx_ll_bus.h ****   *         @arg @ref LL_APB4
 486:../Drivers/STM32N6xx_HAL_Driver/Inc/stm32n6xx_ll_bus.h ****   *         @arg @ref LL_APB5
 487:../Drivers/STM32N6xx_HAL_Driver/Inc/stm32n6xx_ll_bus.h ****   * @retval uint32_t
 488:../Drivers/STM32N6xx_HAL_Driver/Inc/stm32n6xx_ll_bus.h ****   */
 489:../Drivers/STM32N6xx_HAL_Driver/Inc/stm32n6xx_ll_bus.h **** __STATIC_INLINE uint32_t LL_BUS_IsEnabledClock(uint32_t Bus)
 490:../Drivers/STM32N6xx_HAL_Driver/Inc/stm32n6xx_ll_bus.h **** {
 491:../Drivers/STM32N6xx_HAL_Driver/Inc/stm32n6xx_ll_bus.h ****   return ((READ_BIT(RCC->BUSENR, Bus) == Bus) ? 1UL : 0UL);
 492:../Drivers/STM32N6xx_HAL_Driver/Inc/stm32n6xx_ll_bus.h **** }
 493:../Drivers/STM32N6xx_HAL_Driver/Inc/stm32n6xx_ll_bus.h **** 
 494:../Drivers/STM32N6xx_HAL_Driver/Inc/stm32n6xx_ll_bus.h **** /**
 495:../Drivers/STM32N6xx_HAL_Driver/Inc/stm32n6xx_ll_bus.h ****   * @brief  Disable AXI bus clock.
 496:../Drivers/STM32N6xx_HAL_Driver/Inc/stm32n6xx_ll_bus.h ****   * @rmtoll BUSENCR      ACLKNENC      LL_BUS_DisableClock\n
 497:../Drivers/STM32N6xx_HAL_Driver/Inc/stm32n6xx_ll_bus.h ****   *         BUSENCR      ACLKNCENC     LL_BUS_DisableClock\n
 498:../Drivers/STM32N6xx_HAL_Driver/Inc/stm32n6xx_ll_bus.h ****   *         BUSENCR      AHBMENC       LL_BUS_DisableClock\n
 499:../Drivers/STM32N6xx_HAL_Driver/Inc/stm32n6xx_ll_bus.h ****   *         BUSENCR      AHB1ENC       LL_BUS_DisableClock\n
 500:../Drivers/STM32N6xx_HAL_Driver/Inc/stm32n6xx_ll_bus.h ****   *         BUSENCR      AHB2ENC       LL_BUS_DisableClock\n
 501:../Drivers/STM32N6xx_HAL_Driver/Inc/stm32n6xx_ll_bus.h ****   *         BUSENCR      AHB3ENC       LL_BUS_DisableClock\n
 502:../Drivers/STM32N6xx_HAL_Driver/Inc/stm32n6xx_ll_bus.h ****   *         BUSENCR      AHB4ENC       LL_BUS_DisableClock\n
 503:../Drivers/STM32N6xx_HAL_Driver/Inc/stm32n6xx_ll_bus.h ****   *         BUSENCR      AHB5ENC       LL_BUS_DisableClock\n
 504:../Drivers/STM32N6xx_HAL_Driver/Inc/stm32n6xx_ll_bus.h ****   *         BUSENCR      APB1ENC       LL_BUS_DisableClock\n
 505:../Drivers/STM32N6xx_HAL_Driver/Inc/stm32n6xx_ll_bus.h ****   *         BUSENCR      APB2ENC       LL_BUS_DisableClock\n
 506:../Drivers/STM32N6xx_HAL_Driver/Inc/stm32n6xx_ll_bus.h ****   *         BUSENCR      APB3ENC       LL_BUS_DisableClock\n
 507:../Drivers/STM32N6xx_HAL_Driver/Inc/stm32n6xx_ll_bus.h ****   *         BUSENCR      APB4ENC       LL_BUS_DisableClock\n
 508:../Drivers/STM32N6xx_HAL_Driver/Inc/stm32n6xx_ll_bus.h ****   *         BUSENCR      APB5ENC       LL_BUS_DisableClock
 509:../Drivers/STM32N6xx_HAL_Driver/Inc/stm32n6xx_ll_bus.h ****   * @param  Bus This parameter can be a combination of the following values:
 510:../Drivers/STM32N6xx_HAL_Driver/Inc/stm32n6xx_ll_bus.h ****   *         @arg @ref LL_ACLKN
 511:../Drivers/STM32N6xx_HAL_Driver/Inc/stm32n6xx_ll_bus.h ****   *         @arg @ref LL_ACLKNC
 512:../Drivers/STM32N6xx_HAL_Driver/Inc/stm32n6xx_ll_bus.h ****   *         @arg @ref LL_AHBM
 513:../Drivers/STM32N6xx_HAL_Driver/Inc/stm32n6xx_ll_bus.h ****   *         @arg @ref LL_AHB1
 514:../Drivers/STM32N6xx_HAL_Driver/Inc/stm32n6xx_ll_bus.h ****   *         @arg @ref LL_AHB2
 515:../Drivers/STM32N6xx_HAL_Driver/Inc/stm32n6xx_ll_bus.h ****   *         @arg @ref LL_AHB3
 516:../Drivers/STM32N6xx_HAL_Driver/Inc/stm32n6xx_ll_bus.h ****   *         @arg @ref LL_AHB4
 517:../Drivers/STM32N6xx_HAL_Driver/Inc/stm32n6xx_ll_bus.h ****   *         @arg @ref LL_AHB5
 518:../Drivers/STM32N6xx_HAL_Driver/Inc/stm32n6xx_ll_bus.h ****   *         @arg @ref LL_APB1
 519:../Drivers/STM32N6xx_HAL_Driver/Inc/stm32n6xx_ll_bus.h ****   *         @arg @ref LL_APB2
 520:../Drivers/STM32N6xx_HAL_Driver/Inc/stm32n6xx_ll_bus.h ****   *         @arg @ref LL_APB3
 521:../Drivers/STM32N6xx_HAL_Driver/Inc/stm32n6xx_ll_bus.h ****   *         @arg @ref LL_APB4
 522:../Drivers/STM32N6xx_HAL_Driver/Inc/stm32n6xx_ll_bus.h ****   *         @arg @ref LL_APB5
ARM GAS  /tmp/ccZzrCLx.s 			page 31


 523:../Drivers/STM32N6xx_HAL_Driver/Inc/stm32n6xx_ll_bus.h ****   * @retval None
 524:../Drivers/STM32N6xx_HAL_Driver/Inc/stm32n6xx_ll_bus.h ****   */
 525:../Drivers/STM32N6xx_HAL_Driver/Inc/stm32n6xx_ll_bus.h **** __STATIC_INLINE void LL_BUS_DisableClock(uint32_t Bus)
 526:../Drivers/STM32N6xx_HAL_Driver/Inc/stm32n6xx_ll_bus.h **** {
 527:../Drivers/STM32N6xx_HAL_Driver/Inc/stm32n6xx_ll_bus.h ****   WRITE_REG(RCC->BUSENCR, Bus);
 528:../Drivers/STM32N6xx_HAL_Driver/Inc/stm32n6xx_ll_bus.h **** }
 529:../Drivers/STM32N6xx_HAL_Driver/Inc/stm32n6xx_ll_bus.h **** 
 530:../Drivers/STM32N6xx_HAL_Driver/Inc/stm32n6xx_ll_bus.h **** /**
 531:../Drivers/STM32N6xx_HAL_Driver/Inc/stm32n6xx_ll_bus.h ****   * @brief  Enable AXI bus clock during Low Power mode.
 532:../Drivers/STM32N6xx_HAL_Driver/Inc/stm32n6xx_ll_bus.h ****   * @rmtoll BUSLPENSR    ACLKNLPENS    LL_BUS_EnableClockLowPower\n
 533:../Drivers/STM32N6xx_HAL_Driver/Inc/stm32n6xx_ll_bus.h ****   *         BUSLPENSR    ACLKNCLPENS   LL_BUS_EnableClockLowPower\n
 534:../Drivers/STM32N6xx_HAL_Driver/Inc/stm32n6xx_ll_bus.h ****   *         BUSLPENSR    AHBMLPENS     LL_BUS_EnableClockLowPower\n
 535:../Drivers/STM32N6xx_HAL_Driver/Inc/stm32n6xx_ll_bus.h ****   *         BUSLPENSR    AHB1LPENS     LL_BUS_EnableClockLowPower\n
 536:../Drivers/STM32N6xx_HAL_Driver/Inc/stm32n6xx_ll_bus.h ****   *         BUSLPENSR    AHB2LPENS     LL_BUS_EnableClockLowPower\n
 537:../Drivers/STM32N6xx_HAL_Driver/Inc/stm32n6xx_ll_bus.h ****   *         BUSLPENSR    AHB3LPENS     LL_BUS_EnableClockLowPower\n
 538:../Drivers/STM32N6xx_HAL_Driver/Inc/stm32n6xx_ll_bus.h ****   *         BUSLPENSR    AHB4LPENS     LL_BUS_EnableClockLowPower\n
 539:../Drivers/STM32N6xx_HAL_Driver/Inc/stm32n6xx_ll_bus.h ****   *         BUSLPENSR    AHB5LPENS     LL_BUS_EnableClockLowPower\n
 540:../Drivers/STM32N6xx_HAL_Driver/Inc/stm32n6xx_ll_bus.h ****   *         BUSLPENSR    APB1LPENS     LL_BUS_EnableClockLowPower\n
 541:../Drivers/STM32N6xx_HAL_Driver/Inc/stm32n6xx_ll_bus.h ****   *         BUSLPENSR    APB2LPENS     LL_BUS_EnableClockLowPower\n
 542:../Drivers/STM32N6xx_HAL_Driver/Inc/stm32n6xx_ll_bus.h ****   *         BUSLPENSR    APB3LPENS     LL_BUS_EnableClockLowPower\n
 543:../Drivers/STM32N6xx_HAL_Driver/Inc/stm32n6xx_ll_bus.h ****   *         BUSLPENSR    APB4LPENS     LL_BUS_EnableClockLowPower\n
 544:../Drivers/STM32N6xx_HAL_Driver/Inc/stm32n6xx_ll_bus.h ****   *         BUSLPENSR    APB5LPENS     LL_BUS_EnableClockLowPower
 545:../Drivers/STM32N6xx_HAL_Driver/Inc/stm32n6xx_ll_bus.h ****   * @param  Bus This parameter can be a combination of the following values:
 546:../Drivers/STM32N6xx_HAL_Driver/Inc/stm32n6xx_ll_bus.h ****   *         @arg @ref LL_ACLKN
 547:../Drivers/STM32N6xx_HAL_Driver/Inc/stm32n6xx_ll_bus.h ****   *         @arg @ref LL_ACLKNC
 548:../Drivers/STM32N6xx_HAL_Driver/Inc/stm32n6xx_ll_bus.h ****   *         @arg @ref LL_AHBM
 549:../Drivers/STM32N6xx_HAL_Driver/Inc/stm32n6xx_ll_bus.h ****   *         @arg @ref LL_AHB1
 550:../Drivers/STM32N6xx_HAL_Driver/Inc/stm32n6xx_ll_bus.h ****   *         @arg @ref LL_AHB2
 551:../Drivers/STM32N6xx_HAL_Driver/Inc/stm32n6xx_ll_bus.h ****   *         @arg @ref LL_AHB3
 552:../Drivers/STM32N6xx_HAL_Driver/Inc/stm32n6xx_ll_bus.h ****   *         @arg @ref LL_AHB4
 553:../Drivers/STM32N6xx_HAL_Driver/Inc/stm32n6xx_ll_bus.h ****   *         @arg @ref LL_AHB5
 554:../Drivers/STM32N6xx_HAL_Driver/Inc/stm32n6xx_ll_bus.h ****   *         @arg @ref LL_APB1
 555:../Drivers/STM32N6xx_HAL_Driver/Inc/stm32n6xx_ll_bus.h ****   *         @arg @ref LL_APB2
 556:../Drivers/STM32N6xx_HAL_Driver/Inc/stm32n6xx_ll_bus.h ****   *         @arg @ref LL_APB3
 557:../Drivers/STM32N6xx_HAL_Driver/Inc/stm32n6xx_ll_bus.h ****   *         @arg @ref LL_APB4
 558:../Drivers/STM32N6xx_HAL_Driver/Inc/stm32n6xx_ll_bus.h ****   *         @arg @ref LL_APB5
 559:../Drivers/STM32N6xx_HAL_Driver/Inc/stm32n6xx_ll_bus.h ****   * @retval None
 560:../Drivers/STM32N6xx_HAL_Driver/Inc/stm32n6xx_ll_bus.h ****   */
 561:../Drivers/STM32N6xx_HAL_Driver/Inc/stm32n6xx_ll_bus.h **** __STATIC_INLINE void LL_BUS_EnableClockLowPower(uint32_t Bus)
 562:../Drivers/STM32N6xx_HAL_Driver/Inc/stm32n6xx_ll_bus.h **** {
 563:../Drivers/STM32N6xx_HAL_Driver/Inc/stm32n6xx_ll_bus.h ****   __IO uint32_t tmpreg;
 564:../Drivers/STM32N6xx_HAL_Driver/Inc/stm32n6xx_ll_bus.h ****   WRITE_REG(RCC->BUSLPENSR, Bus);
 565:../Drivers/STM32N6xx_HAL_Driver/Inc/stm32n6xx_ll_bus.h ****   /* Delay after an RCC bus clock enabling */
 566:../Drivers/STM32N6xx_HAL_Driver/Inc/stm32n6xx_ll_bus.h ****   tmpreg = READ_REG(RCC->BUSLPENR);
 567:../Drivers/STM32N6xx_HAL_Driver/Inc/stm32n6xx_ll_bus.h ****   (void)tmpreg;
 568:../Drivers/STM32N6xx_HAL_Driver/Inc/stm32n6xx_ll_bus.h **** }
 569:../Drivers/STM32N6xx_HAL_Driver/Inc/stm32n6xx_ll_bus.h **** 
 570:../Drivers/STM32N6xx_HAL_Driver/Inc/stm32n6xx_ll_bus.h **** /**
 571:../Drivers/STM32N6xx_HAL_Driver/Inc/stm32n6xx_ll_bus.h ****   * @brief  Check if AXI bus clock during Low Power mode is enabled or not
 572:../Drivers/STM32N6xx_HAL_Driver/Inc/stm32n6xx_ll_bus.h ****   * @rmtoll BUSLPENR       ACLKNLPEN       LL_BUS_IsEnabledClockLowPower\n
 573:../Drivers/STM32N6xx_HAL_Driver/Inc/stm32n6xx_ll_bus.h ****   *         BUSLPENR       ACLKNCLPEN      LL_BUS_IsEnabledClockLowPower\n
 574:../Drivers/STM32N6xx_HAL_Driver/Inc/stm32n6xx_ll_bus.h ****   *         BUSLPENR       AHBMLPEN        LL_BUS_IsEnabledClockLowPower\n
 575:../Drivers/STM32N6xx_HAL_Driver/Inc/stm32n6xx_ll_bus.h ****   *         BUSLPENR       AHB1LPEN        LL_BUS_IsEnabledClockLowPower\n
 576:../Drivers/STM32N6xx_HAL_Driver/Inc/stm32n6xx_ll_bus.h ****   *         BUSLPENR       AHB2LPEN        LL_BUS_IsEnabledClockLowPower\n
 577:../Drivers/STM32N6xx_HAL_Driver/Inc/stm32n6xx_ll_bus.h ****   *         BUSLPENR       AHB3LPEN        LL_BUS_IsEnabledClockLowPower\n
 578:../Drivers/STM32N6xx_HAL_Driver/Inc/stm32n6xx_ll_bus.h ****   *         BUSLPENR       AHB4LPEN        LL_BUS_IsEnabledClockLowPower\n
 579:../Drivers/STM32N6xx_HAL_Driver/Inc/stm32n6xx_ll_bus.h ****   *         BUSLPENR       AHB5LPEN        LL_BUS_IsEnabledClockLowPower\n
ARM GAS  /tmp/ccZzrCLx.s 			page 32


 580:../Drivers/STM32N6xx_HAL_Driver/Inc/stm32n6xx_ll_bus.h ****   *         BUSLPENR       APB1LPEN        LL_BUS_IsEnabledClockLowPower\n
 581:../Drivers/STM32N6xx_HAL_Driver/Inc/stm32n6xx_ll_bus.h ****   *         BUSLPENR       APB2LPEN        LL_BUS_IsEnabledClockLowPower\n
 582:../Drivers/STM32N6xx_HAL_Driver/Inc/stm32n6xx_ll_bus.h ****   *         BUSLPENR       APB3LPEN        LL_BUS_IsEnabledClockLowPower\n
 583:../Drivers/STM32N6xx_HAL_Driver/Inc/stm32n6xx_ll_bus.h ****   *         BUSLPENR       APB4LPEN        LL_BUS_IsEnabledClockLowPower\n
 584:../Drivers/STM32N6xx_HAL_Driver/Inc/stm32n6xx_ll_bus.h ****   *         BUSLPENR       APB5LPEN        LL_BUS_IsEnabledClockLowPower
 585:../Drivers/STM32N6xx_HAL_Driver/Inc/stm32n6xx_ll_bus.h ****   * @param  Bus This parameter can be a combination of the following values:
 586:../Drivers/STM32N6xx_HAL_Driver/Inc/stm32n6xx_ll_bus.h ****   *         @arg @ref LL_ACLKN
 587:../Drivers/STM32N6xx_HAL_Driver/Inc/stm32n6xx_ll_bus.h ****   *         @arg @ref LL_ACLKNC
 588:../Drivers/STM32N6xx_HAL_Driver/Inc/stm32n6xx_ll_bus.h ****   *         @arg @ref LL_AHBM
 589:../Drivers/STM32N6xx_HAL_Driver/Inc/stm32n6xx_ll_bus.h ****   *         @arg @ref LL_AHB1
 590:../Drivers/STM32N6xx_HAL_Driver/Inc/stm32n6xx_ll_bus.h ****   *         @arg @ref LL_AHB2
 591:../Drivers/STM32N6xx_HAL_Driver/Inc/stm32n6xx_ll_bus.h ****   *         @arg @ref LL_AHB3
 592:../Drivers/STM32N6xx_HAL_Driver/Inc/stm32n6xx_ll_bus.h ****   *         @arg @ref LL_AHB4
 593:../Drivers/STM32N6xx_HAL_Driver/Inc/stm32n6xx_ll_bus.h ****   *         @arg @ref LL_AHB5
 594:../Drivers/STM32N6xx_HAL_Driver/Inc/stm32n6xx_ll_bus.h ****   *         @arg @ref LL_APB1
 595:../Drivers/STM32N6xx_HAL_Driver/Inc/stm32n6xx_ll_bus.h ****   *         @arg @ref LL_APB2
 596:../Drivers/STM32N6xx_HAL_Driver/Inc/stm32n6xx_ll_bus.h ****   *         @arg @ref LL_APB3
 597:../Drivers/STM32N6xx_HAL_Driver/Inc/stm32n6xx_ll_bus.h ****   *         @arg @ref LL_APB4
 598:../Drivers/STM32N6xx_HAL_Driver/Inc/stm32n6xx_ll_bus.h ****   *         @arg @ref LL_APB5
 599:../Drivers/STM32N6xx_HAL_Driver/Inc/stm32n6xx_ll_bus.h ****   * @retval uint32_t
 600:../Drivers/STM32N6xx_HAL_Driver/Inc/stm32n6xx_ll_bus.h ****   */
 601:../Drivers/STM32N6xx_HAL_Driver/Inc/stm32n6xx_ll_bus.h **** __STATIC_INLINE uint32_t LL_BUS_IsEnabledClockLowPower(uint32_t Bus)
 602:../Drivers/STM32N6xx_HAL_Driver/Inc/stm32n6xx_ll_bus.h **** {
 603:../Drivers/STM32N6xx_HAL_Driver/Inc/stm32n6xx_ll_bus.h ****   return ((READ_BIT(RCC->BUSLPENR, Bus) == Bus) ? 1UL : 0UL);
 604:../Drivers/STM32N6xx_HAL_Driver/Inc/stm32n6xx_ll_bus.h **** }
 605:../Drivers/STM32N6xx_HAL_Driver/Inc/stm32n6xx_ll_bus.h **** 
 606:../Drivers/STM32N6xx_HAL_Driver/Inc/stm32n6xx_ll_bus.h **** /**
 607:../Drivers/STM32N6xx_HAL_Driver/Inc/stm32n6xx_ll_bus.h ****   * @brief  Disable AXI bus clock during Low Power mode.
 608:../Drivers/STM32N6xx_HAL_Driver/Inc/stm32n6xx_ll_bus.h ****   * @rmtoll BUSLPENCR    ACLKNLPENC    LL_BUS_DisableClockLowPower\n
 609:../Drivers/STM32N6xx_HAL_Driver/Inc/stm32n6xx_ll_bus.h ****   *         BUSLPENCR    ACLKNCLPENC   LL_BUS_DisableClockLowPower\n
 610:../Drivers/STM32N6xx_HAL_Driver/Inc/stm32n6xx_ll_bus.h ****   *         BUSLPENCR    AHBMLPENC     LL_BUS_DisableClockLowPower\n
 611:../Drivers/STM32N6xx_HAL_Driver/Inc/stm32n6xx_ll_bus.h ****   *         BUSLPENCR    AHB1LPENC     LL_BUS_DisableClockLowPower\n
 612:../Drivers/STM32N6xx_HAL_Driver/Inc/stm32n6xx_ll_bus.h ****   *         BUSLPENCR    AHB2LPENC     LL_BUS_DisableClockLowPower\n
 613:../Drivers/STM32N6xx_HAL_Driver/Inc/stm32n6xx_ll_bus.h ****   *         BUSLPENCR    AHB3LPENC     LL_BUS_DisableClockLowPower\n
 614:../Drivers/STM32N6xx_HAL_Driver/Inc/stm32n6xx_ll_bus.h ****   *         BUSLPENCR    AHB4LPENC     LL_BUS_DisableClockLowPower\n
 615:../Drivers/STM32N6xx_HAL_Driver/Inc/stm32n6xx_ll_bus.h ****   *         BUSLPENCR    AHB5LPENC     LL_BUS_DisableClockLowPower\n
 616:../Drivers/STM32N6xx_HAL_Driver/Inc/stm32n6xx_ll_bus.h ****   *         BUSLPENCR    APB1LPENC     LL_BUS_DisableClockLowPower\n
 617:../Drivers/STM32N6xx_HAL_Driver/Inc/stm32n6xx_ll_bus.h ****   *         BUSLPENCR    APB2LPENC     LL_BUS_DisableClockLowPower\n
 618:../Drivers/STM32N6xx_HAL_Driver/Inc/stm32n6xx_ll_bus.h ****   *         BUSLPENCR    APB3LPENC     LL_BUS_DisableClockLowPower\n
 619:../Drivers/STM32N6xx_HAL_Driver/Inc/stm32n6xx_ll_bus.h ****   *         BUSLPENCR    APB4LPENC     LL_BUS_DisableClockLowPower\n
 620:../Drivers/STM32N6xx_HAL_Driver/Inc/stm32n6xx_ll_bus.h ****   *         BUSLPENCR    APB5LPENC     LL_BUS_DisableClockLowPower
 621:../Drivers/STM32N6xx_HAL_Driver/Inc/stm32n6xx_ll_bus.h ****   * @param  Bus This parameter can be a combination of the following values:
 622:../Drivers/STM32N6xx_HAL_Driver/Inc/stm32n6xx_ll_bus.h ****   *         @arg @ref LL_ACLKN
 623:../Drivers/STM32N6xx_HAL_Driver/Inc/stm32n6xx_ll_bus.h ****   *         @arg @ref LL_ACLKNC
 624:../Drivers/STM32N6xx_HAL_Driver/Inc/stm32n6xx_ll_bus.h ****   *         @arg @ref LL_AHBM
 625:../Drivers/STM32N6xx_HAL_Driver/Inc/stm32n6xx_ll_bus.h ****   *         @arg @ref LL_AHB1
 626:../Drivers/STM32N6xx_HAL_Driver/Inc/stm32n6xx_ll_bus.h ****   *         @arg @ref LL_AHB2
 627:../Drivers/STM32N6xx_HAL_Driver/Inc/stm32n6xx_ll_bus.h ****   *         @arg @ref LL_AHB3
 628:../Drivers/STM32N6xx_HAL_Driver/Inc/stm32n6xx_ll_bus.h ****   *         @arg @ref LL_AHB4
 629:../Drivers/STM32N6xx_HAL_Driver/Inc/stm32n6xx_ll_bus.h ****   *         @arg @ref LL_AHB5
 630:../Drivers/STM32N6xx_HAL_Driver/Inc/stm32n6xx_ll_bus.h ****   *         @arg @ref LL_APB1
 631:../Drivers/STM32N6xx_HAL_Driver/Inc/stm32n6xx_ll_bus.h ****   *         @arg @ref LL_APB2
 632:../Drivers/STM32N6xx_HAL_Driver/Inc/stm32n6xx_ll_bus.h ****   *         @arg @ref LL_APB3
 633:../Drivers/STM32N6xx_HAL_Driver/Inc/stm32n6xx_ll_bus.h ****   *         @arg @ref LL_APB4
 634:../Drivers/STM32N6xx_HAL_Driver/Inc/stm32n6xx_ll_bus.h ****   *         @arg @ref LL_APB5
 635:../Drivers/STM32N6xx_HAL_Driver/Inc/stm32n6xx_ll_bus.h ****   * @retval None
 636:../Drivers/STM32N6xx_HAL_Driver/Inc/stm32n6xx_ll_bus.h ****   */
ARM GAS  /tmp/ccZzrCLx.s 			page 33


 637:../Drivers/STM32N6xx_HAL_Driver/Inc/stm32n6xx_ll_bus.h **** __STATIC_INLINE void LL_BUS_DisableClockLowPower(uint32_t Bus)
 638:../Drivers/STM32N6xx_HAL_Driver/Inc/stm32n6xx_ll_bus.h **** {
 639:../Drivers/STM32N6xx_HAL_Driver/Inc/stm32n6xx_ll_bus.h ****   WRITE_REG(RCC->BUSLPENCR, Bus);
 640:../Drivers/STM32N6xx_HAL_Driver/Inc/stm32n6xx_ll_bus.h **** }
 641:../Drivers/STM32N6xx_HAL_Driver/Inc/stm32n6xx_ll_bus.h **** 
 642:../Drivers/STM32N6xx_HAL_Driver/Inc/stm32n6xx_ll_bus.h **** /**
 643:../Drivers/STM32N6xx_HAL_Driver/Inc/stm32n6xx_ll_bus.h ****   * @}
 644:../Drivers/STM32N6xx_HAL_Driver/Inc/stm32n6xx_ll_bus.h ****   */
 645:../Drivers/STM32N6xx_HAL_Driver/Inc/stm32n6xx_ll_bus.h **** 
 646:../Drivers/STM32N6xx_HAL_Driver/Inc/stm32n6xx_ll_bus.h **** /** @defgroup BUS_LL_EF_MEM MEM
 647:../Drivers/STM32N6xx_HAL_Driver/Inc/stm32n6xx_ll_bus.h ****   * @{
 648:../Drivers/STM32N6xx_HAL_Driver/Inc/stm32n6xx_ll_bus.h ****   */
 649:../Drivers/STM32N6xx_HAL_Driver/Inc/stm32n6xx_ll_bus.h **** 
 650:../Drivers/STM32N6xx_HAL_Driver/Inc/stm32n6xx_ll_bus.h **** /**
 651:../Drivers/STM32N6xx_HAL_Driver/Inc/stm32n6xx_ll_bus.h ****   * @brief  Enable memories clock.
 652:../Drivers/STM32N6xx_HAL_Driver/Inc/stm32n6xx_ll_bus.h ****   * @rmtoll MEMENSR      AXISRAM1ENS   LL_MEM_EnableClock\n
 653:../Drivers/STM32N6xx_HAL_Driver/Inc/stm32n6xx_ll_bus.h ****   *         MEMENSR      AXISRAM2ENS   LL_MEM_EnableClock\n
 654:../Drivers/STM32N6xx_HAL_Driver/Inc/stm32n6xx_ll_bus.h ****   *         MEMENSR      AXISRAM3ENS   LL_MEM_EnableClock\n
 655:../Drivers/STM32N6xx_HAL_Driver/Inc/stm32n6xx_ll_bus.h ****   *         MEMENSR      AXISRAM4ENS   LL_MEM_EnableClock\n
 656:../Drivers/STM32N6xx_HAL_Driver/Inc/stm32n6xx_ll_bus.h ****   *         MEMENSR      AXISRAM5ENS   LL_MEM_EnableClock\n
 657:../Drivers/STM32N6xx_HAL_Driver/Inc/stm32n6xx_ll_bus.h ****   *         MEMENSR      AXISRAM6ENS   LL_MEM_EnableClock\n
 658:../Drivers/STM32N6xx_HAL_Driver/Inc/stm32n6xx_ll_bus.h ****   *         MEMENSR      AHBSRAM1ENS   LL_MEM_EnableClock\n
 659:../Drivers/STM32N6xx_HAL_Driver/Inc/stm32n6xx_ll_bus.h ****   *         MEMENSR      AHBSRAM2ENS   LL_MEM_EnableClock\n
 660:../Drivers/STM32N6xx_HAL_Driver/Inc/stm32n6xx_ll_bus.h ****   *         MEMENSR      BKPSRAMENS    LL_MEM_EnableClock\n
 661:../Drivers/STM32N6xx_HAL_Driver/Inc/stm32n6xx_ll_bus.h ****   *         MEMENSR      FLEXRAMENS    LL_MEM_EnableClock\n
 662:../Drivers/STM32N6xx_HAL_Driver/Inc/stm32n6xx_ll_bus.h ****   *         MEMENSR      CACHEAXIRAMENS LL_MEM_EnableClock\n
 663:../Drivers/STM32N6xx_HAL_Driver/Inc/stm32n6xx_ll_bus.h ****   *         MEMENSR      VENCRAMENS    LL_MEM_EnableClock
 664:../Drivers/STM32N6xx_HAL_Driver/Inc/stm32n6xx_ll_bus.h ****   * @param  Memories This parameter can be a combination of the following values:
 665:../Drivers/STM32N6xx_HAL_Driver/Inc/stm32n6xx_ll_bus.h ****   *         @arg @ref LL_MEM_AXISRAM1
 666:../Drivers/STM32N6xx_HAL_Driver/Inc/stm32n6xx_ll_bus.h ****   *         @arg @ref LL_MEM_AXISRAM2
 667:../Drivers/STM32N6xx_HAL_Driver/Inc/stm32n6xx_ll_bus.h ****   *         @arg @ref LL_MEM_AXISRAM3
 668:../Drivers/STM32N6xx_HAL_Driver/Inc/stm32n6xx_ll_bus.h ****   *         @arg @ref LL_MEM_AXISRAM4
 669:../Drivers/STM32N6xx_HAL_Driver/Inc/stm32n6xx_ll_bus.h ****   *         @arg @ref LL_MEM_AXISRAM5
 670:../Drivers/STM32N6xx_HAL_Driver/Inc/stm32n6xx_ll_bus.h ****   *         @arg @ref LL_MEM_AXISRAM6
 671:../Drivers/STM32N6xx_HAL_Driver/Inc/stm32n6xx_ll_bus.h ****   *         @arg @ref LL_MEM_AHBSRAM1
 672:../Drivers/STM32N6xx_HAL_Driver/Inc/stm32n6xx_ll_bus.h ****   *         @arg @ref LL_MEM_AHBSRAM2
 673:../Drivers/STM32N6xx_HAL_Driver/Inc/stm32n6xx_ll_bus.h ****   *         @arg @ref LL_MEM_BKPSRAM
 674:../Drivers/STM32N6xx_HAL_Driver/Inc/stm32n6xx_ll_bus.h ****   *         @arg @ref LL_MEM_FLEXRAM
 675:../Drivers/STM32N6xx_HAL_Driver/Inc/stm32n6xx_ll_bus.h ****   *         @arg @ref LL_MEM_CACHEAXIRAM
 676:../Drivers/STM32N6xx_HAL_Driver/Inc/stm32n6xx_ll_bus.h ****   *         @arg @ref LL_MEM_VENCRAM
 677:../Drivers/STM32N6xx_HAL_Driver/Inc/stm32n6xx_ll_bus.h ****   * @retval None
 678:../Drivers/STM32N6xx_HAL_Driver/Inc/stm32n6xx_ll_bus.h ****   */
 679:../Drivers/STM32N6xx_HAL_Driver/Inc/stm32n6xx_ll_bus.h **** __STATIC_INLINE void LL_MEM_EnableClock(uint32_t Memories)
 680:../Drivers/STM32N6xx_HAL_Driver/Inc/stm32n6xx_ll_bus.h **** {
 681:../Drivers/STM32N6xx_HAL_Driver/Inc/stm32n6xx_ll_bus.h ****   __IO uint32_t tmpreg;
 682:../Drivers/STM32N6xx_HAL_Driver/Inc/stm32n6xx_ll_bus.h ****   WRITE_REG(RCC->MEMENSR, Memories);
 683:../Drivers/STM32N6xx_HAL_Driver/Inc/stm32n6xx_ll_bus.h ****   /* Delay after an RCC memories clock enabling */
 684:../Drivers/STM32N6xx_HAL_Driver/Inc/stm32n6xx_ll_bus.h ****   tmpreg = READ_REG(RCC->MEMENR);
 685:../Drivers/STM32N6xx_HAL_Driver/Inc/stm32n6xx_ll_bus.h ****   (void)tmpreg;
 686:../Drivers/STM32N6xx_HAL_Driver/Inc/stm32n6xx_ll_bus.h **** }
 687:../Drivers/STM32N6xx_HAL_Driver/Inc/stm32n6xx_ll_bus.h **** 
 688:../Drivers/STM32N6xx_HAL_Driver/Inc/stm32n6xx_ll_bus.h **** /**
 689:../Drivers/STM32N6xx_HAL_Driver/Inc/stm32n6xx_ll_bus.h ****   * @brief  Check if memory clock is enabled or not
 690:../Drivers/STM32N6xx_HAL_Driver/Inc/stm32n6xx_ll_bus.h ****   * @rmtoll MEMENR       AXISRAM1EN    LL_MEM_IsEnabledClock\n
 691:../Drivers/STM32N6xx_HAL_Driver/Inc/stm32n6xx_ll_bus.h ****   *         MEMENR       AXISRAM2EN    LL_MEM_IsEnabledClock\n
 692:../Drivers/STM32N6xx_HAL_Driver/Inc/stm32n6xx_ll_bus.h ****   *         MEMENR       AXISRAM3EN    LL_MEM_IsEnabledClock\n
 693:../Drivers/STM32N6xx_HAL_Driver/Inc/stm32n6xx_ll_bus.h ****   *         MEMENR       AXISRAM4EN    LL_MEM_IsEnabledClock\n
ARM GAS  /tmp/ccZzrCLx.s 			page 34


 694:../Drivers/STM32N6xx_HAL_Driver/Inc/stm32n6xx_ll_bus.h ****   *         MEMENR       AXISRAM5EN    LL_MEM_IsEnabledClock\n
 695:../Drivers/STM32N6xx_HAL_Driver/Inc/stm32n6xx_ll_bus.h ****   *         MEMENR       AXISRAM6EN    LL_MEM_IsEnabledClock\n
 696:../Drivers/STM32N6xx_HAL_Driver/Inc/stm32n6xx_ll_bus.h ****   *         MEMENR       AHBSRAM1EN    LL_MEM_IsEnabledClock\n
 697:../Drivers/STM32N6xx_HAL_Driver/Inc/stm32n6xx_ll_bus.h ****   *         MEMENR       AHBSRAM2EN    LL_MEM_IsEnabledClock\n
 698:../Drivers/STM32N6xx_HAL_Driver/Inc/stm32n6xx_ll_bus.h ****   *         MEMENR       BKPSRAMEN     LL_MEM_IsEnabledClock\n
 699:../Drivers/STM32N6xx_HAL_Driver/Inc/stm32n6xx_ll_bus.h ****   *         MEMENR       FLEXRAMEN     LL_MEM_IsEnabledClock\n
 700:../Drivers/STM32N6xx_HAL_Driver/Inc/stm32n6xx_ll_bus.h ****   *         MEMENR       CACHEAXIRAMEN LL_MEM_IsEnabledClock\n
 701:../Drivers/STM32N6xx_HAL_Driver/Inc/stm32n6xx_ll_bus.h ****   *         MEMENR       VENCRAMEN     LL_MEM_IsEnabledClock
 702:../Drivers/STM32N6xx_HAL_Driver/Inc/stm32n6xx_ll_bus.h ****   * @param  Memories This parameter can be a combination of the following values:
 703:../Drivers/STM32N6xx_HAL_Driver/Inc/stm32n6xx_ll_bus.h ****   *         @arg @ref LL_MEM_AXISRAM1
 704:../Drivers/STM32N6xx_HAL_Driver/Inc/stm32n6xx_ll_bus.h ****   *         @arg @ref LL_MEM_AXISRAM2
 705:../Drivers/STM32N6xx_HAL_Driver/Inc/stm32n6xx_ll_bus.h ****   *         @arg @ref LL_MEM_AXISRAM3
 706:../Drivers/STM32N6xx_HAL_Driver/Inc/stm32n6xx_ll_bus.h ****   *         @arg @ref LL_MEM_AXISRAM4
 707:../Drivers/STM32N6xx_HAL_Driver/Inc/stm32n6xx_ll_bus.h ****   *         @arg @ref LL_MEM_AXISRAM5
 708:../Drivers/STM32N6xx_HAL_Driver/Inc/stm32n6xx_ll_bus.h ****   *         @arg @ref LL_MEM_AXISRAM6
 709:../Drivers/STM32N6xx_HAL_Driver/Inc/stm32n6xx_ll_bus.h ****   *         @arg @ref LL_MEM_AHBSRAM1
 710:../Drivers/STM32N6xx_HAL_Driver/Inc/stm32n6xx_ll_bus.h ****   *         @arg @ref LL_MEM_AHBSRAM2
 711:../Drivers/STM32N6xx_HAL_Driver/Inc/stm32n6xx_ll_bus.h ****   *         @arg @ref LL_MEM_BKPSRAM
 712:../Drivers/STM32N6xx_HAL_Driver/Inc/stm32n6xx_ll_bus.h ****   *         @arg @ref LL_MEM_FLEXRAM
 713:../Drivers/STM32N6xx_HAL_Driver/Inc/stm32n6xx_ll_bus.h ****   *         @arg @ref LL_MEM_CACHEAXIRAM
 714:../Drivers/STM32N6xx_HAL_Driver/Inc/stm32n6xx_ll_bus.h ****   *         @arg @ref LL_MEM_VENCRAM
 715:../Drivers/STM32N6xx_HAL_Driver/Inc/stm32n6xx_ll_bus.h ****   * @retval uint32_t
 716:../Drivers/STM32N6xx_HAL_Driver/Inc/stm32n6xx_ll_bus.h ****   */
 717:../Drivers/STM32N6xx_HAL_Driver/Inc/stm32n6xx_ll_bus.h **** __STATIC_INLINE uint32_t LL_MEM_IsEnabledClock(uint32_t Memories)
 718:../Drivers/STM32N6xx_HAL_Driver/Inc/stm32n6xx_ll_bus.h **** {
 719:../Drivers/STM32N6xx_HAL_Driver/Inc/stm32n6xx_ll_bus.h ****   return ((READ_BIT(RCC->MEMENR, Memories) == Memories) ? 1UL : 0UL);
 720:../Drivers/STM32N6xx_HAL_Driver/Inc/stm32n6xx_ll_bus.h **** }
 721:../Drivers/STM32N6xx_HAL_Driver/Inc/stm32n6xx_ll_bus.h **** 
 722:../Drivers/STM32N6xx_HAL_Driver/Inc/stm32n6xx_ll_bus.h **** /**
 723:../Drivers/STM32N6xx_HAL_Driver/Inc/stm32n6xx_ll_bus.h ****   * @brief  Disable memories clock.
 724:../Drivers/STM32N6xx_HAL_Driver/Inc/stm32n6xx_ll_bus.h ****   * @rmtoll MEMENCR      AXISRAM1ENC   LL_MEM_DisableClock\n
 725:../Drivers/STM32N6xx_HAL_Driver/Inc/stm32n6xx_ll_bus.h ****   *         MEMENCR      AXISRAM2ENC   LL_MEM_DisableClock\n
 726:../Drivers/STM32N6xx_HAL_Driver/Inc/stm32n6xx_ll_bus.h ****   *         MEMENCR      AXISRAM3ENC   LL_MEM_DisableClock\n
 727:../Drivers/STM32N6xx_HAL_Driver/Inc/stm32n6xx_ll_bus.h ****   *         MEMENCR      AXISRAM4ENC   LL_MEM_DisableClock\n
 728:../Drivers/STM32N6xx_HAL_Driver/Inc/stm32n6xx_ll_bus.h ****   *         MEMENCR      AXISRAM5ENC   LL_MEM_DisableClock\n
 729:../Drivers/STM32N6xx_HAL_Driver/Inc/stm32n6xx_ll_bus.h ****   *         MEMENCR      AXISRAM6ENC   LL_MEM_DisableClock\n
 730:../Drivers/STM32N6xx_HAL_Driver/Inc/stm32n6xx_ll_bus.h ****   *         MEMENCR      AHBSRAM1ENC   LL_MEM_DisableClock\n
 731:../Drivers/STM32N6xx_HAL_Driver/Inc/stm32n6xx_ll_bus.h ****   *         MEMENCR      AHBSRAM2ENC   LL_MEM_DisableClock\n
 732:../Drivers/STM32N6xx_HAL_Driver/Inc/stm32n6xx_ll_bus.h ****   *         MEMENCR      BKPSRAMENC    LL_MEM_DisableClock\n
 733:../Drivers/STM32N6xx_HAL_Driver/Inc/stm32n6xx_ll_bus.h ****   *         MEMENCR      FLEXRAMENC    LL_MEM_DisableClock\n
 734:../Drivers/STM32N6xx_HAL_Driver/Inc/stm32n6xx_ll_bus.h ****   *         MEMENCR      CACHEAXIRAMENC LL_MEM_DisableClock\n
 735:../Drivers/STM32N6xx_HAL_Driver/Inc/stm32n6xx_ll_bus.h ****   *         MEMENCR      VENCRAMENC    LL_MEM_DisableClock
 736:../Drivers/STM32N6xx_HAL_Driver/Inc/stm32n6xx_ll_bus.h ****   * @param  Memories This parameter can be a combination of the following values:
 737:../Drivers/STM32N6xx_HAL_Driver/Inc/stm32n6xx_ll_bus.h ****   *         @arg @ref LL_MEM_AXISRAM1
 738:../Drivers/STM32N6xx_HAL_Driver/Inc/stm32n6xx_ll_bus.h ****   *         @arg @ref LL_MEM_AXISRAM2
 739:../Drivers/STM32N6xx_HAL_Driver/Inc/stm32n6xx_ll_bus.h ****   *         @arg @ref LL_MEM_AXISRAM3
 740:../Drivers/STM32N6xx_HAL_Driver/Inc/stm32n6xx_ll_bus.h ****   *         @arg @ref LL_MEM_AXISRAM4
 741:../Drivers/STM32N6xx_HAL_Driver/Inc/stm32n6xx_ll_bus.h ****   *         @arg @ref LL_MEM_AXISRAM5
 742:../Drivers/STM32N6xx_HAL_Driver/Inc/stm32n6xx_ll_bus.h ****   *         @arg @ref LL_MEM_AXISRAM6
 743:../Drivers/STM32N6xx_HAL_Driver/Inc/stm32n6xx_ll_bus.h ****   *         @arg @ref LL_MEM_AHBSRAM1
 744:../Drivers/STM32N6xx_HAL_Driver/Inc/stm32n6xx_ll_bus.h ****   *         @arg @ref LL_MEM_AHBSRAM2
 745:../Drivers/STM32N6xx_HAL_Driver/Inc/stm32n6xx_ll_bus.h ****   *         @arg @ref LL_MEM_BKPSRAM
 746:../Drivers/STM32N6xx_HAL_Driver/Inc/stm32n6xx_ll_bus.h ****   *         @arg @ref LL_MEM_FLEXRAM
 747:../Drivers/STM32N6xx_HAL_Driver/Inc/stm32n6xx_ll_bus.h ****   *         @arg @ref LL_MEM_CACHEAXIRAM
 748:../Drivers/STM32N6xx_HAL_Driver/Inc/stm32n6xx_ll_bus.h ****   *         @arg @ref LL_MEM_VENCRAM
 749:../Drivers/STM32N6xx_HAL_Driver/Inc/stm32n6xx_ll_bus.h ****   * @retval None
 750:../Drivers/STM32N6xx_HAL_Driver/Inc/stm32n6xx_ll_bus.h ****   */
ARM GAS  /tmp/ccZzrCLx.s 			page 35


 751:../Drivers/STM32N6xx_HAL_Driver/Inc/stm32n6xx_ll_bus.h **** __STATIC_INLINE void LL_MEM_DisableClock(uint32_t Memories)
 752:../Drivers/STM32N6xx_HAL_Driver/Inc/stm32n6xx_ll_bus.h **** {
 753:../Drivers/STM32N6xx_HAL_Driver/Inc/stm32n6xx_ll_bus.h ****   WRITE_REG(RCC->MEMENCR, Memories);
 754:../Drivers/STM32N6xx_HAL_Driver/Inc/stm32n6xx_ll_bus.h **** }
 755:../Drivers/STM32N6xx_HAL_Driver/Inc/stm32n6xx_ll_bus.h **** 
 756:../Drivers/STM32N6xx_HAL_Driver/Inc/stm32n6xx_ll_bus.h **** /**
 757:../Drivers/STM32N6xx_HAL_Driver/Inc/stm32n6xx_ll_bus.h ****   * @brief  Enable memories clock during Low Power mode.
 758:../Drivers/STM32N6xx_HAL_Driver/Inc/stm32n6xx_ll_bus.h ****   * @rmtoll MEMLPENSR    AXISRAM1LPENS LL_MEM_EnableClockLowPower\n
 759:../Drivers/STM32N6xx_HAL_Driver/Inc/stm32n6xx_ll_bus.h ****   *         MEMLPENSR    AXISRAM2LPENS LL_MEM_EnableClockLowPower\n
 760:../Drivers/STM32N6xx_HAL_Driver/Inc/stm32n6xx_ll_bus.h ****   *         MEMLPENSR    AXISRAM3LPENS LL_MEM_EnableClockLowPower\n
 761:../Drivers/STM32N6xx_HAL_Driver/Inc/stm32n6xx_ll_bus.h ****   *         MEMLPENSR    AXISRAM4LPENS LL_MEM_EnableClockLowPower\n
 762:../Drivers/STM32N6xx_HAL_Driver/Inc/stm32n6xx_ll_bus.h ****   *         MEMLPENSR    AXISRAM5LPENS LL_MEM_EnableClockLowPower\n
 763:../Drivers/STM32N6xx_HAL_Driver/Inc/stm32n6xx_ll_bus.h ****   *         MEMLPENSR    AXISRAM6LPENS LL_MEM_EnableClockLowPower\n
 764:../Drivers/STM32N6xx_HAL_Driver/Inc/stm32n6xx_ll_bus.h ****   *         MEMLPENSR    AHBSRAM1LPENS LL_MEM_EnableClockLowPower\n
 765:../Drivers/STM32N6xx_HAL_Driver/Inc/stm32n6xx_ll_bus.h ****   *         MEMLPENSR    AHBSRAM2LPENS LL_MEM_EnableClockLowPower\n
 766:../Drivers/STM32N6xx_HAL_Driver/Inc/stm32n6xx_ll_bus.h ****   *         MEMLPENSR    BKPSRAMLPENS  LL_MEM_EnableClockLowPower\n
 767:../Drivers/STM32N6xx_HAL_Driver/Inc/stm32n6xx_ll_bus.h ****   *         MEMLPENSR    FLEXRAMLPENS  LL_MEM_EnableClockLowPower\n
 768:../Drivers/STM32N6xx_HAL_Driver/Inc/stm32n6xx_ll_bus.h ****   *         MEMLPENSR    CACHEAXIRAMLPENS LL_MEM_EnableClockLowPower\n
 769:../Drivers/STM32N6xx_HAL_Driver/Inc/stm32n6xx_ll_bus.h ****   *         MEMLPENSR    VENCRAMLPENS  LL_MEM_EnableClockLowPower
 770:../Drivers/STM32N6xx_HAL_Driver/Inc/stm32n6xx_ll_bus.h ****   * @param  Memories This parameter can be a combination of the following values:
 771:../Drivers/STM32N6xx_HAL_Driver/Inc/stm32n6xx_ll_bus.h ****   *         @arg @ref LL_MEM_AXISRAM1
 772:../Drivers/STM32N6xx_HAL_Driver/Inc/stm32n6xx_ll_bus.h ****   *         @arg @ref LL_MEM_AXISRAM2
 773:../Drivers/STM32N6xx_HAL_Driver/Inc/stm32n6xx_ll_bus.h ****   *         @arg @ref LL_MEM_AXISRAM3
 774:../Drivers/STM32N6xx_HAL_Driver/Inc/stm32n6xx_ll_bus.h ****   *         @arg @ref LL_MEM_AXISRAM4
 775:../Drivers/STM32N6xx_HAL_Driver/Inc/stm32n6xx_ll_bus.h ****   *         @arg @ref LL_MEM_AXISRAM5
 776:../Drivers/STM32N6xx_HAL_Driver/Inc/stm32n6xx_ll_bus.h ****   *         @arg @ref LL_MEM_AXISRAM6
 777:../Drivers/STM32N6xx_HAL_Driver/Inc/stm32n6xx_ll_bus.h ****   *         @arg @ref LL_MEM_AHBSRAM1
 778:../Drivers/STM32N6xx_HAL_Driver/Inc/stm32n6xx_ll_bus.h ****   *         @arg @ref LL_MEM_AHBSRAM2
 779:../Drivers/STM32N6xx_HAL_Driver/Inc/stm32n6xx_ll_bus.h ****   *         @arg @ref LL_MEM_BKPSRAM
 780:../Drivers/STM32N6xx_HAL_Driver/Inc/stm32n6xx_ll_bus.h ****   *         @arg @ref LL_MEM_FLEXRAM
 781:../Drivers/STM32N6xx_HAL_Driver/Inc/stm32n6xx_ll_bus.h ****   *         @arg @ref LL_MEM_CACHEAXIRAM
 782:../Drivers/STM32N6xx_HAL_Driver/Inc/stm32n6xx_ll_bus.h ****   *         @arg @ref LL_MEM_VENCRAM
 783:../Drivers/STM32N6xx_HAL_Driver/Inc/stm32n6xx_ll_bus.h ****   * @retval None
 784:../Drivers/STM32N6xx_HAL_Driver/Inc/stm32n6xx_ll_bus.h ****   */
 785:../Drivers/STM32N6xx_HAL_Driver/Inc/stm32n6xx_ll_bus.h **** __STATIC_INLINE void LL_MEM_EnableClockLowPower(uint32_t Memories)
 786:../Drivers/STM32N6xx_HAL_Driver/Inc/stm32n6xx_ll_bus.h **** {
 787:../Drivers/STM32N6xx_HAL_Driver/Inc/stm32n6xx_ll_bus.h ****   __IO uint32_t tmpreg;
 788:../Drivers/STM32N6xx_HAL_Driver/Inc/stm32n6xx_ll_bus.h ****   WRITE_REG(RCC->MEMLPENSR, Memories);
 789:../Drivers/STM32N6xx_HAL_Driver/Inc/stm32n6xx_ll_bus.h ****   /* Delay after an RCC memories clock enabling */
 790:../Drivers/STM32N6xx_HAL_Driver/Inc/stm32n6xx_ll_bus.h ****   tmpreg = READ_REG(RCC->MEMLPENR);
 791:../Drivers/STM32N6xx_HAL_Driver/Inc/stm32n6xx_ll_bus.h ****   (void)tmpreg;
 792:../Drivers/STM32N6xx_HAL_Driver/Inc/stm32n6xx_ll_bus.h **** }
 793:../Drivers/STM32N6xx_HAL_Driver/Inc/stm32n6xx_ll_bus.h **** 
 794:../Drivers/STM32N6xx_HAL_Driver/Inc/stm32n6xx_ll_bus.h **** /**
 795:../Drivers/STM32N6xx_HAL_Driver/Inc/stm32n6xx_ll_bus.h ****   * @brief  Check if memories clock during Low Power mode is enabled or not .
 796:../Drivers/STM32N6xx_HAL_Driver/Inc/stm32n6xx_ll_bus.h ****   * @rmtoll MEMLPENR      AXISRAM1LPEN    LL_MEM_IsEnabledClockLowPower\n
 797:../Drivers/STM32N6xx_HAL_Driver/Inc/stm32n6xx_ll_bus.h ****   *         MEMLPENR      AXISRAM2LPEN    LL_MEM_IsEnabledClockLowPower\n
 798:../Drivers/STM32N6xx_HAL_Driver/Inc/stm32n6xx_ll_bus.h ****   *         MEMLPENR      AXISRAM3LPEN    LL_MEM_IsEnabledClockLowPower\n
 799:../Drivers/STM32N6xx_HAL_Driver/Inc/stm32n6xx_ll_bus.h ****   *         MEMLPENR      AXISRAM4LPEN    LL_MEM_IsEnabledClockLowPower\n
 800:../Drivers/STM32N6xx_HAL_Driver/Inc/stm32n6xx_ll_bus.h ****   *         MEMLPENR      AXISRAM5LPEN    LL_MEM_IsEnabledClockLowPower\n
 801:../Drivers/STM32N6xx_HAL_Driver/Inc/stm32n6xx_ll_bus.h ****   *         MEMLPENR      AXISRAM6LPEN    LL_MEM_IsEnabledClockLowPower\n
 802:../Drivers/STM32N6xx_HAL_Driver/Inc/stm32n6xx_ll_bus.h ****   *         MEMLPENR      AHBSRAM1LPEN    LL_MEM_IsEnabledClockLowPower\n
 803:../Drivers/STM32N6xx_HAL_Driver/Inc/stm32n6xx_ll_bus.h ****   *         MEMLPENR      AHBSRAM2LPEN    LL_MEM_IsEnabledClockLowPower\n
 804:../Drivers/STM32N6xx_HAL_Driver/Inc/stm32n6xx_ll_bus.h ****   *         MEMLPENR      BKPSRAMLPEN     LL_MEM_IsEnabledClockLowPower\n
 805:../Drivers/STM32N6xx_HAL_Driver/Inc/stm32n6xx_ll_bus.h ****   *         MEMLPENR      FLEXRAMLPEN     LL_MEM_IsEnabledClockLowPower\n
 806:../Drivers/STM32N6xx_HAL_Driver/Inc/stm32n6xx_ll_bus.h ****   *         MEMLPENR      CACHEAXIRAMLPEN LL_MEM_IsEnabledClockLowPower\n
 807:../Drivers/STM32N6xx_HAL_Driver/Inc/stm32n6xx_ll_bus.h ****   *         MEMLPENR      VENCRAMLPEN     LL_MEM_IsEnabledClockLowPower
ARM GAS  /tmp/ccZzrCLx.s 			page 36


 808:../Drivers/STM32N6xx_HAL_Driver/Inc/stm32n6xx_ll_bus.h ****   * @param  Memories This parameter can be a combination of the following values:
 809:../Drivers/STM32N6xx_HAL_Driver/Inc/stm32n6xx_ll_bus.h ****   *         @arg @ref LL_MEM_AXISRAM1
 810:../Drivers/STM32N6xx_HAL_Driver/Inc/stm32n6xx_ll_bus.h ****   *         @arg @ref LL_MEM_AXISRAM2
 811:../Drivers/STM32N6xx_HAL_Driver/Inc/stm32n6xx_ll_bus.h ****   *         @arg @ref LL_MEM_AXISRAM3
 812:../Drivers/STM32N6xx_HAL_Driver/Inc/stm32n6xx_ll_bus.h ****   *         @arg @ref LL_MEM_AXISRAM4
 813:../Drivers/STM32N6xx_HAL_Driver/Inc/stm32n6xx_ll_bus.h ****   *         @arg @ref LL_MEM_AXISRAM5
 814:../Drivers/STM32N6xx_HAL_Driver/Inc/stm32n6xx_ll_bus.h ****   *         @arg @ref LL_MEM_AXISRAM6
 815:../Drivers/STM32N6xx_HAL_Driver/Inc/stm32n6xx_ll_bus.h ****   *         @arg @ref LL_MEM_AHBSRAM1
 816:../Drivers/STM32N6xx_HAL_Driver/Inc/stm32n6xx_ll_bus.h ****   *         @arg @ref LL_MEM_AHBSRAM2
 817:../Drivers/STM32N6xx_HAL_Driver/Inc/stm32n6xx_ll_bus.h ****   *         @arg @ref LL_MEM_BKPSRAM
 818:../Drivers/STM32N6xx_HAL_Driver/Inc/stm32n6xx_ll_bus.h ****   *         @arg @ref LL_MEM_FLEXRAM
 819:../Drivers/STM32N6xx_HAL_Driver/Inc/stm32n6xx_ll_bus.h ****   *         @arg @ref LL_MEM_CACHEAXIRAM
 820:../Drivers/STM32N6xx_HAL_Driver/Inc/stm32n6xx_ll_bus.h ****   *         @arg @ref LL_MEM_VENCRAM
 821:../Drivers/STM32N6xx_HAL_Driver/Inc/stm32n6xx_ll_bus.h ****   * @retval None
 822:../Drivers/STM32N6xx_HAL_Driver/Inc/stm32n6xx_ll_bus.h ****   */
 823:../Drivers/STM32N6xx_HAL_Driver/Inc/stm32n6xx_ll_bus.h **** __STATIC_INLINE uint32_t LL_MEM_IsEnabledClockLowPower(uint32_t Memories)
 824:../Drivers/STM32N6xx_HAL_Driver/Inc/stm32n6xx_ll_bus.h **** {
 825:../Drivers/STM32N6xx_HAL_Driver/Inc/stm32n6xx_ll_bus.h ****   return ((READ_BIT(RCC->MEMLPENR, Memories) == Memories) ? 1UL : 0UL);
 826:../Drivers/STM32N6xx_HAL_Driver/Inc/stm32n6xx_ll_bus.h **** }
 827:../Drivers/STM32N6xx_HAL_Driver/Inc/stm32n6xx_ll_bus.h **** 
 828:../Drivers/STM32N6xx_HAL_Driver/Inc/stm32n6xx_ll_bus.h **** /**
 829:../Drivers/STM32N6xx_HAL_Driver/Inc/stm32n6xx_ll_bus.h ****   * @brief  Disable memories clock during Low Power mode.
 830:../Drivers/STM32N6xx_HAL_Driver/Inc/stm32n6xx_ll_bus.h ****   * @rmtoll MEMLPENCR    AXISRAM1LPENC LL_MEM_DisableClockLowPower\n
 831:../Drivers/STM32N6xx_HAL_Driver/Inc/stm32n6xx_ll_bus.h ****   *         MEMLPENCR    AXISRAM2LPENC LL_MEM_DisableClockLowPower\n
 832:../Drivers/STM32N6xx_HAL_Driver/Inc/stm32n6xx_ll_bus.h ****   *         MEMLPENCR    AXISRAM3LPENC LL_MEM_DisableClockLowPower\n
 833:../Drivers/STM32N6xx_HAL_Driver/Inc/stm32n6xx_ll_bus.h ****   *         MEMLPENCR    AXISRAM4LPENC LL_MEM_DisableClockLowPower\n
 834:../Drivers/STM32N6xx_HAL_Driver/Inc/stm32n6xx_ll_bus.h ****   *         MEMLPENCR    AXISRAM5LPENC LL_MEM_DisableClockLowPower\n
 835:../Drivers/STM32N6xx_HAL_Driver/Inc/stm32n6xx_ll_bus.h ****   *         MEMLPENCR    AXISRAM6LPENC LL_MEM_DisableClockLowPower\n
 836:../Drivers/STM32N6xx_HAL_Driver/Inc/stm32n6xx_ll_bus.h ****   *         MEMLPENCR    AHBSRAM1LPENC LL_MEM_DisableClockLowPower\n
 837:../Drivers/STM32N6xx_HAL_Driver/Inc/stm32n6xx_ll_bus.h ****   *         MEMLPENCR    AHBSRAM2LPENC LL_MEM_DisableClockLowPower\n
 838:../Drivers/STM32N6xx_HAL_Driver/Inc/stm32n6xx_ll_bus.h ****   *         MEMLPENCR    BKPSRAMLPENC  LL_MEM_DisableClockLowPower\n
 839:../Drivers/STM32N6xx_HAL_Driver/Inc/stm32n6xx_ll_bus.h ****   *         MEMLPENCR    FLEXRAMLPENC  LL_MEM_DisableClockLowPower\n
 840:../Drivers/STM32N6xx_HAL_Driver/Inc/stm32n6xx_ll_bus.h ****   *         MEMLPENCR    CACHEAXIRAMLPENC LL_MEM_DisableClockLowPower\n
 841:../Drivers/STM32N6xx_HAL_Driver/Inc/stm32n6xx_ll_bus.h ****   *         MEMLPENCR    VENCRAMLPENC  LL_MEM_DisableClockLowPower
 842:../Drivers/STM32N6xx_HAL_Driver/Inc/stm32n6xx_ll_bus.h ****   * @param  Memories This parameter can be a combination of the following values:
 843:../Drivers/STM32N6xx_HAL_Driver/Inc/stm32n6xx_ll_bus.h ****   *         @arg @ref LL_MEM_AXISRAM1
 844:../Drivers/STM32N6xx_HAL_Driver/Inc/stm32n6xx_ll_bus.h ****   *         @arg @ref LL_MEM_AXISRAM2
 845:../Drivers/STM32N6xx_HAL_Driver/Inc/stm32n6xx_ll_bus.h ****   *         @arg @ref LL_MEM_AXISRAM3
 846:../Drivers/STM32N6xx_HAL_Driver/Inc/stm32n6xx_ll_bus.h ****   *         @arg @ref LL_MEM_AXISRAM4
 847:../Drivers/STM32N6xx_HAL_Driver/Inc/stm32n6xx_ll_bus.h ****   *         @arg @ref LL_MEM_AXISRAM5
 848:../Drivers/STM32N6xx_HAL_Driver/Inc/stm32n6xx_ll_bus.h ****   *         @arg @ref LL_MEM_AXISRAM6
 849:../Drivers/STM32N6xx_HAL_Driver/Inc/stm32n6xx_ll_bus.h ****   *         @arg @ref LL_MEM_AHBSRAM1
 850:../Drivers/STM32N6xx_HAL_Driver/Inc/stm32n6xx_ll_bus.h ****   *         @arg @ref LL_MEM_AHBSRAM2
 851:../Drivers/STM32N6xx_HAL_Driver/Inc/stm32n6xx_ll_bus.h ****   *         @arg @ref LL_MEM_BKPSRAM
 852:../Drivers/STM32N6xx_HAL_Driver/Inc/stm32n6xx_ll_bus.h ****   *         @arg @ref LL_MEM_FLEXRAM
 853:../Drivers/STM32N6xx_HAL_Driver/Inc/stm32n6xx_ll_bus.h ****   *         @arg @ref LL_MEM_CACHEAXIRAM
 854:../Drivers/STM32N6xx_HAL_Driver/Inc/stm32n6xx_ll_bus.h ****   *         @arg @ref LL_MEM_VENCRAM
 855:../Drivers/STM32N6xx_HAL_Driver/Inc/stm32n6xx_ll_bus.h ****   * @retval None
 856:../Drivers/STM32N6xx_HAL_Driver/Inc/stm32n6xx_ll_bus.h ****   */
 857:../Drivers/STM32N6xx_HAL_Driver/Inc/stm32n6xx_ll_bus.h **** __STATIC_INLINE void LL_MEM_DisableClockLowPower(uint32_t Memories)
 858:../Drivers/STM32N6xx_HAL_Driver/Inc/stm32n6xx_ll_bus.h **** {
 859:../Drivers/STM32N6xx_HAL_Driver/Inc/stm32n6xx_ll_bus.h ****   WRITE_REG(RCC->MEMLPENCR, Memories);
 860:../Drivers/STM32N6xx_HAL_Driver/Inc/stm32n6xx_ll_bus.h **** }
 861:../Drivers/STM32N6xx_HAL_Driver/Inc/stm32n6xx_ll_bus.h **** 
 862:../Drivers/STM32N6xx_HAL_Driver/Inc/stm32n6xx_ll_bus.h **** /**
 863:../Drivers/STM32N6xx_HAL_Driver/Inc/stm32n6xx_ll_bus.h ****   * @}
 864:../Drivers/STM32N6xx_HAL_Driver/Inc/stm32n6xx_ll_bus.h ****   */
ARM GAS  /tmp/ccZzrCLx.s 			page 37


 865:../Drivers/STM32N6xx_HAL_Driver/Inc/stm32n6xx_ll_bus.h **** 
 866:../Drivers/STM32N6xx_HAL_Driver/Inc/stm32n6xx_ll_bus.h **** /** @defgroup BUS_LL_EF_AHB1 AHB1
 867:../Drivers/STM32N6xx_HAL_Driver/Inc/stm32n6xx_ll_bus.h ****   * @{
 868:../Drivers/STM32N6xx_HAL_Driver/Inc/stm32n6xx_ll_bus.h ****   */
 869:../Drivers/STM32N6xx_HAL_Driver/Inc/stm32n6xx_ll_bus.h **** 
 870:../Drivers/STM32N6xx_HAL_Driver/Inc/stm32n6xx_ll_bus.h **** /**
 871:../Drivers/STM32N6xx_HAL_Driver/Inc/stm32n6xx_ll_bus.h ****   * @brief  Enable AHB1 peripherals clock.
 872:../Drivers/STM32N6xx_HAL_Driver/Inc/stm32n6xx_ll_bus.h ****   * @rmtoll AHB1ENSR     GPDMA1ENS     LL_AHB1_GRP1_EnableClock\n
 873:../Drivers/STM32N6xx_HAL_Driver/Inc/stm32n6xx_ll_bus.h ****   *         AHB1ENSR     ADC12ENS      LL_AHB1_GRP1_EnableClock
 874:../Drivers/STM32N6xx_HAL_Driver/Inc/stm32n6xx_ll_bus.h ****   * @param  Periphs This parameter can be a combination of the following values:
 875:../Drivers/STM32N6xx_HAL_Driver/Inc/stm32n6xx_ll_bus.h ****   *         @arg @ref LL_AHB1_GRP1_PERIPH_GPDMA1
 876:../Drivers/STM32N6xx_HAL_Driver/Inc/stm32n6xx_ll_bus.h ****   *         @arg @ref LL_AHB1_GRP1_PERIPH_ADC12
 877:../Drivers/STM32N6xx_HAL_Driver/Inc/stm32n6xx_ll_bus.h ****   * @retval None
 878:../Drivers/STM32N6xx_HAL_Driver/Inc/stm32n6xx_ll_bus.h ****   */
 879:../Drivers/STM32N6xx_HAL_Driver/Inc/stm32n6xx_ll_bus.h **** __STATIC_INLINE void LL_AHB1_GRP1_EnableClock(uint32_t Periphs)
 880:../Drivers/STM32N6xx_HAL_Driver/Inc/stm32n6xx_ll_bus.h **** {
 881:../Drivers/STM32N6xx_HAL_Driver/Inc/stm32n6xx_ll_bus.h ****   __IO uint32_t tmpreg;
 882:../Drivers/STM32N6xx_HAL_Driver/Inc/stm32n6xx_ll_bus.h ****   WRITE_REG(RCC->AHB1ENSR, Periphs);
 883:../Drivers/STM32N6xx_HAL_Driver/Inc/stm32n6xx_ll_bus.h ****   /* Delay after an RCC peripheral clock enabling */
 884:../Drivers/STM32N6xx_HAL_Driver/Inc/stm32n6xx_ll_bus.h ****   tmpreg = READ_REG(RCC->AHB1ENR);
 885:../Drivers/STM32N6xx_HAL_Driver/Inc/stm32n6xx_ll_bus.h ****   (void)tmpreg;
 886:../Drivers/STM32N6xx_HAL_Driver/Inc/stm32n6xx_ll_bus.h **** }
 887:../Drivers/STM32N6xx_HAL_Driver/Inc/stm32n6xx_ll_bus.h **** 
 888:../Drivers/STM32N6xx_HAL_Driver/Inc/stm32n6xx_ll_bus.h **** /**
 889:../Drivers/STM32N6xx_HAL_Driver/Inc/stm32n6xx_ll_bus.h ****   * @brief  Check if AHB1 peripheral clock is enabled or not
 890:../Drivers/STM32N6xx_HAL_Driver/Inc/stm32n6xx_ll_bus.h ****   * @rmtoll AHB1ENR      GPDMA1EN      LL_AHB1_GRP1_IsEnabledClock\n
 891:../Drivers/STM32N6xx_HAL_Driver/Inc/stm32n6xx_ll_bus.h ****   *         AHB1ENR      ADC12EN       LL_AHB1_GRP1_IsEnabledClock
 892:../Drivers/STM32N6xx_HAL_Driver/Inc/stm32n6xx_ll_bus.h ****   * @param  Periphs This parameter can be a combination of the following values:
 893:../Drivers/STM32N6xx_HAL_Driver/Inc/stm32n6xx_ll_bus.h ****   *         @arg @ref LL_AHB1_GRP1_PERIPH_GPDMA1
 894:../Drivers/STM32N6xx_HAL_Driver/Inc/stm32n6xx_ll_bus.h ****   *         @arg @ref LL_AHB1_GRP1_PERIPH_ADC12
 895:../Drivers/STM32N6xx_HAL_Driver/Inc/stm32n6xx_ll_bus.h ****   * @retval uint32_t
 896:../Drivers/STM32N6xx_HAL_Driver/Inc/stm32n6xx_ll_bus.h ****   */
 897:../Drivers/STM32N6xx_HAL_Driver/Inc/stm32n6xx_ll_bus.h **** __STATIC_INLINE uint32_t LL_AHB1_GRP1_IsEnabledClock(uint32_t Periphs)
 898:../Drivers/STM32N6xx_HAL_Driver/Inc/stm32n6xx_ll_bus.h **** {
 899:../Drivers/STM32N6xx_HAL_Driver/Inc/stm32n6xx_ll_bus.h ****   return ((READ_BIT(RCC->AHB1ENR, Periphs) == Periphs) ? 1UL : 0UL);
 900:../Drivers/STM32N6xx_HAL_Driver/Inc/stm32n6xx_ll_bus.h **** }
 901:../Drivers/STM32N6xx_HAL_Driver/Inc/stm32n6xx_ll_bus.h **** 
 902:../Drivers/STM32N6xx_HAL_Driver/Inc/stm32n6xx_ll_bus.h **** /**
 903:../Drivers/STM32N6xx_HAL_Driver/Inc/stm32n6xx_ll_bus.h ****   * @brief  Disable AHB1 peripherals clock.
 904:../Drivers/STM32N6xx_HAL_Driver/Inc/stm32n6xx_ll_bus.h ****   * @rmtoll AHB1ENCR     GPDMA1ENC     LL_AHB1_GRP1_DisableClock\n
 905:../Drivers/STM32N6xx_HAL_Driver/Inc/stm32n6xx_ll_bus.h ****   *         AHB1ENCR     ADC12ENC      LL_AHB1_GRP1_DisableClock
 906:../Drivers/STM32N6xx_HAL_Driver/Inc/stm32n6xx_ll_bus.h ****   * @param  Periphs This parameter can be a combination of the following values:
 907:../Drivers/STM32N6xx_HAL_Driver/Inc/stm32n6xx_ll_bus.h ****   *         @arg @ref LL_AHB1_GRP1_PERIPH_GPDMA1
 908:../Drivers/STM32N6xx_HAL_Driver/Inc/stm32n6xx_ll_bus.h ****   *         @arg @ref LL_AHB1_GRP1_PERIPH_ADC12
 909:../Drivers/STM32N6xx_HAL_Driver/Inc/stm32n6xx_ll_bus.h ****   * @retval None
 910:../Drivers/STM32N6xx_HAL_Driver/Inc/stm32n6xx_ll_bus.h ****   */
 911:../Drivers/STM32N6xx_HAL_Driver/Inc/stm32n6xx_ll_bus.h **** __STATIC_INLINE void LL_AHB1_GRP1_DisableClock(uint32_t Periphs)
 912:../Drivers/STM32N6xx_HAL_Driver/Inc/stm32n6xx_ll_bus.h **** {
 913:../Drivers/STM32N6xx_HAL_Driver/Inc/stm32n6xx_ll_bus.h ****   WRITE_REG(RCC->AHB1ENCR, Periphs);
 914:../Drivers/STM32N6xx_HAL_Driver/Inc/stm32n6xx_ll_bus.h **** }
 915:../Drivers/STM32N6xx_HAL_Driver/Inc/stm32n6xx_ll_bus.h **** 
 916:../Drivers/STM32N6xx_HAL_Driver/Inc/stm32n6xx_ll_bus.h **** /**
 917:../Drivers/STM32N6xx_HAL_Driver/Inc/stm32n6xx_ll_bus.h ****   * @brief  Force AHB1 peripherals reset.
 918:../Drivers/STM32N6xx_HAL_Driver/Inc/stm32n6xx_ll_bus.h ****   * @rmtoll AHB1RSTSR    GPDMA1RSTS    LL_AHB1_GRP1_ForceReset\n
 919:../Drivers/STM32N6xx_HAL_Driver/Inc/stm32n6xx_ll_bus.h ****   *         AHB1RSTSR    ADC12RSTS     LL_AHB1_GRP1_ForceReset
 920:../Drivers/STM32N6xx_HAL_Driver/Inc/stm32n6xx_ll_bus.h ****   * @param  Periphs This parameter can be a combination of the following values:
 921:../Drivers/STM32N6xx_HAL_Driver/Inc/stm32n6xx_ll_bus.h ****   *         @arg @ref LL_AHB1_GRP1_PERIPH_GPDMA1
ARM GAS  /tmp/ccZzrCLx.s 			page 38


 922:../Drivers/STM32N6xx_HAL_Driver/Inc/stm32n6xx_ll_bus.h ****   *         @arg @ref LL_AHB1_GRP1_PERIPH_ADC12
 923:../Drivers/STM32N6xx_HAL_Driver/Inc/stm32n6xx_ll_bus.h ****   * @retval None
 924:../Drivers/STM32N6xx_HAL_Driver/Inc/stm32n6xx_ll_bus.h ****   */
 925:../Drivers/STM32N6xx_HAL_Driver/Inc/stm32n6xx_ll_bus.h **** __STATIC_INLINE void LL_AHB1_GRP1_ForceReset(uint32_t Periphs)
 926:../Drivers/STM32N6xx_HAL_Driver/Inc/stm32n6xx_ll_bus.h **** {
 927:../Drivers/STM32N6xx_HAL_Driver/Inc/stm32n6xx_ll_bus.h ****   WRITE_REG(RCC->AHB1RSTSR, Periphs);
 928:../Drivers/STM32N6xx_HAL_Driver/Inc/stm32n6xx_ll_bus.h **** }
 929:../Drivers/STM32N6xx_HAL_Driver/Inc/stm32n6xx_ll_bus.h **** 
 930:../Drivers/STM32N6xx_HAL_Driver/Inc/stm32n6xx_ll_bus.h **** /**
 931:../Drivers/STM32N6xx_HAL_Driver/Inc/stm32n6xx_ll_bus.h ****   * @brief  Release AHB1 peripherals reset.
 932:../Drivers/STM32N6xx_HAL_Driver/Inc/stm32n6xx_ll_bus.h ****   * @rmtoll AHB1RSTCR    GPDMA1RSTC    LL_AHB1_GRP1_ReleaseReset\n
 933:../Drivers/STM32N6xx_HAL_Driver/Inc/stm32n6xx_ll_bus.h ****   *         AHB1RSTCR    ADC12RSTC     LL_AHB1_GRP1_ReleaseReset
 934:../Drivers/STM32N6xx_HAL_Driver/Inc/stm32n6xx_ll_bus.h ****   * @param  Periphs This parameter can be a combination of the following values:
 935:../Drivers/STM32N6xx_HAL_Driver/Inc/stm32n6xx_ll_bus.h ****   *         @arg @ref LL_AHB1_GRP1_PERIPH_GPDMA1
 936:../Drivers/STM32N6xx_HAL_Driver/Inc/stm32n6xx_ll_bus.h ****   *         @arg @ref LL_AHB1_GRP1_PERIPH_ADC12
 937:../Drivers/STM32N6xx_HAL_Driver/Inc/stm32n6xx_ll_bus.h ****   * @retval None
 938:../Drivers/STM32N6xx_HAL_Driver/Inc/stm32n6xx_ll_bus.h ****   */
 939:../Drivers/STM32N6xx_HAL_Driver/Inc/stm32n6xx_ll_bus.h **** __STATIC_INLINE void LL_AHB1_GRP1_ReleaseReset(uint32_t Periphs)
 940:../Drivers/STM32N6xx_HAL_Driver/Inc/stm32n6xx_ll_bus.h **** {
 941:../Drivers/STM32N6xx_HAL_Driver/Inc/stm32n6xx_ll_bus.h ****   WRITE_REG(RCC->AHB1RSTCR, Periphs);
 942:../Drivers/STM32N6xx_HAL_Driver/Inc/stm32n6xx_ll_bus.h **** }
 943:../Drivers/STM32N6xx_HAL_Driver/Inc/stm32n6xx_ll_bus.h **** 
 944:../Drivers/STM32N6xx_HAL_Driver/Inc/stm32n6xx_ll_bus.h **** /**
 945:../Drivers/STM32N6xx_HAL_Driver/Inc/stm32n6xx_ll_bus.h ****   * @brief  Enable AHB1 peripherals clock during Low Power mode.
 946:../Drivers/STM32N6xx_HAL_Driver/Inc/stm32n6xx_ll_bus.h ****   * @rmtoll AHB1LPENSR   GPDMA1LPENS   LL_AHB1_GRP1_EnableClockLowPower\n
 947:../Drivers/STM32N6xx_HAL_Driver/Inc/stm32n6xx_ll_bus.h ****   *         AHB1LPENSR   ADC12LPENS    LL_AHB1_GRP1_EnableClockLowPower
 948:../Drivers/STM32N6xx_HAL_Driver/Inc/stm32n6xx_ll_bus.h ****   * @param  Periphs This parameter can be a combination of the following values:
 949:../Drivers/STM32N6xx_HAL_Driver/Inc/stm32n6xx_ll_bus.h ****   *         @arg @ref LL_AHB1_GRP1_PERIPH_GPDMA1
 950:../Drivers/STM32N6xx_HAL_Driver/Inc/stm32n6xx_ll_bus.h ****   *         @arg @ref LL_AHB1_GRP1_PERIPH_ADC12
 951:../Drivers/STM32N6xx_HAL_Driver/Inc/stm32n6xx_ll_bus.h ****   * @retval None
 952:../Drivers/STM32N6xx_HAL_Driver/Inc/stm32n6xx_ll_bus.h ****   */
 953:../Drivers/STM32N6xx_HAL_Driver/Inc/stm32n6xx_ll_bus.h **** __STATIC_INLINE void LL_AHB1_GRP1_EnableClockLowPower(uint32_t Periphs)
 954:../Drivers/STM32N6xx_HAL_Driver/Inc/stm32n6xx_ll_bus.h **** {
 955:../Drivers/STM32N6xx_HAL_Driver/Inc/stm32n6xx_ll_bus.h ****   __IO uint32_t tmpreg;
 956:../Drivers/STM32N6xx_HAL_Driver/Inc/stm32n6xx_ll_bus.h ****   WRITE_REG(RCC->AHB1LPENSR, Periphs);
 957:../Drivers/STM32N6xx_HAL_Driver/Inc/stm32n6xx_ll_bus.h ****   /* Delay after an RCC peripheral clock enabling */
 958:../Drivers/STM32N6xx_HAL_Driver/Inc/stm32n6xx_ll_bus.h ****   tmpreg = READ_REG(RCC->AHB1LPENR);
 959:../Drivers/STM32N6xx_HAL_Driver/Inc/stm32n6xx_ll_bus.h ****   (void)tmpreg;
 960:../Drivers/STM32N6xx_HAL_Driver/Inc/stm32n6xx_ll_bus.h **** }
 961:../Drivers/STM32N6xx_HAL_Driver/Inc/stm32n6xx_ll_bus.h **** 
 962:../Drivers/STM32N6xx_HAL_Driver/Inc/stm32n6xx_ll_bus.h **** /**
 963:../Drivers/STM32N6xx_HAL_Driver/Inc/stm32n6xx_ll_bus.h ****   * @brief  Check if AHB1 peripheral clock during Low Power mode is enabled or not .
 964:../Drivers/STM32N6xx_HAL_Driver/Inc/stm32n6xx_ll_bus.h ****   * @rmtoll AHB1LPENR    GPDMA1LPEN    LL_AHB1_GRP1_IsEnabledClockLowPower\n
 965:../Drivers/STM32N6xx_HAL_Driver/Inc/stm32n6xx_ll_bus.h ****   *         AHB1LPENR    ADC12LPEN     LL_AHB1_GRP1_IsEnabledClockLowPower
 966:../Drivers/STM32N6xx_HAL_Driver/Inc/stm32n6xx_ll_bus.h ****   * @param  Periphs This parameter can be a combination of the following values:
 967:../Drivers/STM32N6xx_HAL_Driver/Inc/stm32n6xx_ll_bus.h ****   *         @arg @ref LL_AHB1_GRP1_PERIPH_GPDMA1
 968:../Drivers/STM32N6xx_HAL_Driver/Inc/stm32n6xx_ll_bus.h ****   *         @arg @ref LL_AHB1_GRP1_PERIPH_ADC12
 969:../Drivers/STM32N6xx_HAL_Driver/Inc/stm32n6xx_ll_bus.h ****   * @retval uint32_t
 970:../Drivers/STM32N6xx_HAL_Driver/Inc/stm32n6xx_ll_bus.h ****   */
 971:../Drivers/STM32N6xx_HAL_Driver/Inc/stm32n6xx_ll_bus.h **** __STATIC_INLINE uint32_t LL_AHB1_GRP1_IsEnabledClockLowPower(uint32_t Periphs)
 972:../Drivers/STM32N6xx_HAL_Driver/Inc/stm32n6xx_ll_bus.h **** {
 973:../Drivers/STM32N6xx_HAL_Driver/Inc/stm32n6xx_ll_bus.h ****   return ((READ_BIT(RCC->AHB1LPENR, Periphs) == Periphs) ? 1UL : 0UL);
 974:../Drivers/STM32N6xx_HAL_Driver/Inc/stm32n6xx_ll_bus.h **** }
 975:../Drivers/STM32N6xx_HAL_Driver/Inc/stm32n6xx_ll_bus.h **** 
 976:../Drivers/STM32N6xx_HAL_Driver/Inc/stm32n6xx_ll_bus.h **** /**
 977:../Drivers/STM32N6xx_HAL_Driver/Inc/stm32n6xx_ll_bus.h ****   * @brief  Disable AHB1 peripherals clock during Low Power mode.
 978:../Drivers/STM32N6xx_HAL_Driver/Inc/stm32n6xx_ll_bus.h ****   * @rmtoll AHB1LPENCR   GPDMA1LPENC   LL_AHB1_GRP1_DisableClockLowPower\n
ARM GAS  /tmp/ccZzrCLx.s 			page 39


 979:../Drivers/STM32N6xx_HAL_Driver/Inc/stm32n6xx_ll_bus.h ****   *         AHB1LPENCR   ADC12LPENC    LL_AHB1_GRP1_DisableClockLowPower
 980:../Drivers/STM32N6xx_HAL_Driver/Inc/stm32n6xx_ll_bus.h ****   * @param  Periphs This parameter can be a combination of the following values:
 981:../Drivers/STM32N6xx_HAL_Driver/Inc/stm32n6xx_ll_bus.h ****   *         @arg @ref LL_AHB1_GRP1_PERIPH_GPDMA1
 982:../Drivers/STM32N6xx_HAL_Driver/Inc/stm32n6xx_ll_bus.h ****   *         @arg @ref LL_AHB1_GRP1_PERIPH_ADC12
 983:../Drivers/STM32N6xx_HAL_Driver/Inc/stm32n6xx_ll_bus.h ****   * @retval None
 984:../Drivers/STM32N6xx_HAL_Driver/Inc/stm32n6xx_ll_bus.h ****   */
 985:../Drivers/STM32N6xx_HAL_Driver/Inc/stm32n6xx_ll_bus.h **** __STATIC_INLINE void LL_AHB1_GRP1_DisableClockLowPower(uint32_t Periphs)
 986:../Drivers/STM32N6xx_HAL_Driver/Inc/stm32n6xx_ll_bus.h **** {
 987:../Drivers/STM32N6xx_HAL_Driver/Inc/stm32n6xx_ll_bus.h ****   WRITE_REG(RCC->AHB1LPENCR, Periphs);
 988:../Drivers/STM32N6xx_HAL_Driver/Inc/stm32n6xx_ll_bus.h **** }
 989:../Drivers/STM32N6xx_HAL_Driver/Inc/stm32n6xx_ll_bus.h **** 
 990:../Drivers/STM32N6xx_HAL_Driver/Inc/stm32n6xx_ll_bus.h **** /**
 991:../Drivers/STM32N6xx_HAL_Driver/Inc/stm32n6xx_ll_bus.h ****   * @}
 992:../Drivers/STM32N6xx_HAL_Driver/Inc/stm32n6xx_ll_bus.h ****   */
 993:../Drivers/STM32N6xx_HAL_Driver/Inc/stm32n6xx_ll_bus.h **** 
 994:../Drivers/STM32N6xx_HAL_Driver/Inc/stm32n6xx_ll_bus.h **** /** @defgroup BUS_LL_EF_AHB2 AHB2
 995:../Drivers/STM32N6xx_HAL_Driver/Inc/stm32n6xx_ll_bus.h ****   * @{
 996:../Drivers/STM32N6xx_HAL_Driver/Inc/stm32n6xx_ll_bus.h ****   */
 997:../Drivers/STM32N6xx_HAL_Driver/Inc/stm32n6xx_ll_bus.h **** 
 998:../Drivers/STM32N6xx_HAL_Driver/Inc/stm32n6xx_ll_bus.h **** /**
 999:../Drivers/STM32N6xx_HAL_Driver/Inc/stm32n6xx_ll_bus.h ****   * @brief  Enable AHB2 peripherals clock.
1000:../Drivers/STM32N6xx_HAL_Driver/Inc/stm32n6xx_ll_bus.h ****   * @rmtoll AHB2ENSR     RAMCFGENS     LL_AHB2_GRP1_EnableClock\n
1001:../Drivers/STM32N6xx_HAL_Driver/Inc/stm32n6xx_ll_bus.h ****   *         AHB2ENSR     MDF1ENS       LL_AHB2_GRP1_EnableClock\n
1002:../Drivers/STM32N6xx_HAL_Driver/Inc/stm32n6xx_ll_bus.h ****   *         AHB2ENSR     ADF1ENS       LL_AHB2_GRP1_EnableClock
1003:../Drivers/STM32N6xx_HAL_Driver/Inc/stm32n6xx_ll_bus.h ****   * @param  Periphs This parameter can be a combination of the following values:
1004:../Drivers/STM32N6xx_HAL_Driver/Inc/stm32n6xx_ll_bus.h ****   *         @arg @ref LL_AHB2_GRP1_PERIPH_RAMCFG
1005:../Drivers/STM32N6xx_HAL_Driver/Inc/stm32n6xx_ll_bus.h ****   *         @arg @ref LL_AHB2_GRP1_PERIPH_MDF1
1006:../Drivers/STM32N6xx_HAL_Driver/Inc/stm32n6xx_ll_bus.h ****   *         @arg @ref LL_AHB2_GRP1_PERIPH_ADF1
1007:../Drivers/STM32N6xx_HAL_Driver/Inc/stm32n6xx_ll_bus.h ****   * @retval None
1008:../Drivers/STM32N6xx_HAL_Driver/Inc/stm32n6xx_ll_bus.h ****   */
1009:../Drivers/STM32N6xx_HAL_Driver/Inc/stm32n6xx_ll_bus.h **** __STATIC_INLINE void LL_AHB2_GRP1_EnableClock(uint32_t Periphs)
1010:../Drivers/STM32N6xx_HAL_Driver/Inc/stm32n6xx_ll_bus.h **** {
1011:../Drivers/STM32N6xx_HAL_Driver/Inc/stm32n6xx_ll_bus.h ****   __IO uint32_t tmpreg;
1012:../Drivers/STM32N6xx_HAL_Driver/Inc/stm32n6xx_ll_bus.h ****   WRITE_REG(RCC->AHB2ENSR, Periphs);
1013:../Drivers/STM32N6xx_HAL_Driver/Inc/stm32n6xx_ll_bus.h ****   /* Delay after an RCC peripheral clock enabling */
1014:../Drivers/STM32N6xx_HAL_Driver/Inc/stm32n6xx_ll_bus.h ****   tmpreg = READ_REG(RCC->AHB2ENR);
1015:../Drivers/STM32N6xx_HAL_Driver/Inc/stm32n6xx_ll_bus.h ****   (void)tmpreg;
1016:../Drivers/STM32N6xx_HAL_Driver/Inc/stm32n6xx_ll_bus.h **** }
1017:../Drivers/STM32N6xx_HAL_Driver/Inc/stm32n6xx_ll_bus.h **** 
1018:../Drivers/STM32N6xx_HAL_Driver/Inc/stm32n6xx_ll_bus.h **** /**
1019:../Drivers/STM32N6xx_HAL_Driver/Inc/stm32n6xx_ll_bus.h ****   * @brief  Check if AHB2 peripheral clock is enabled or not
1020:../Drivers/STM32N6xx_HAL_Driver/Inc/stm32n6xx_ll_bus.h ****   * @rmtoll AHB2ENR      RAMCFGEN      LL_AHB2_GRP1_IsEnabledClock\n
1021:../Drivers/STM32N6xx_HAL_Driver/Inc/stm32n6xx_ll_bus.h ****   *         AHB2ENR      MDF1EN        LL_AHB2_GRP1_IsEnabledClock\n
1022:../Drivers/STM32N6xx_HAL_Driver/Inc/stm32n6xx_ll_bus.h ****   *         AHB2ENR      ADF1EN        LL_AHB2_GRP1_IsEnabledClock
1023:../Drivers/STM32N6xx_HAL_Driver/Inc/stm32n6xx_ll_bus.h ****   * @param  Periphs This parameter can be a combination of the following values:
1024:../Drivers/STM32N6xx_HAL_Driver/Inc/stm32n6xx_ll_bus.h ****   *         @arg @ref LL_AHB2_GRP1_PERIPH_RAMCFG
1025:../Drivers/STM32N6xx_HAL_Driver/Inc/stm32n6xx_ll_bus.h ****   *         @arg @ref LL_AHB2_GRP1_PERIPH_MDF1
1026:../Drivers/STM32N6xx_HAL_Driver/Inc/stm32n6xx_ll_bus.h ****   *         @arg @ref LL_AHB2_GRP1_PERIPH_ADF1
1027:../Drivers/STM32N6xx_HAL_Driver/Inc/stm32n6xx_ll_bus.h ****   * @retval uint32_t
1028:../Drivers/STM32N6xx_HAL_Driver/Inc/stm32n6xx_ll_bus.h ****   */
1029:../Drivers/STM32N6xx_HAL_Driver/Inc/stm32n6xx_ll_bus.h **** __STATIC_INLINE uint32_t LL_AHB2_GRP1_IsEnabledClock(uint32_t Periphs)
1030:../Drivers/STM32N6xx_HAL_Driver/Inc/stm32n6xx_ll_bus.h **** {
1031:../Drivers/STM32N6xx_HAL_Driver/Inc/stm32n6xx_ll_bus.h ****   return ((READ_BIT(RCC->AHB2ENR, Periphs) == Periphs) ? 1UL : 0UL);
1032:../Drivers/STM32N6xx_HAL_Driver/Inc/stm32n6xx_ll_bus.h **** }
1033:../Drivers/STM32N6xx_HAL_Driver/Inc/stm32n6xx_ll_bus.h **** 
1034:../Drivers/STM32N6xx_HAL_Driver/Inc/stm32n6xx_ll_bus.h **** /**
1035:../Drivers/STM32N6xx_HAL_Driver/Inc/stm32n6xx_ll_bus.h ****   * @brief  Disable AHB2 peripherals clock.
ARM GAS  /tmp/ccZzrCLx.s 			page 40


1036:../Drivers/STM32N6xx_HAL_Driver/Inc/stm32n6xx_ll_bus.h ****   * @rmtoll AHB2ENCR     RAMCFGENC     LL_AHB2_GRP1_DisableClock\n
1037:../Drivers/STM32N6xx_HAL_Driver/Inc/stm32n6xx_ll_bus.h ****   *         AHB2ENCR     MDF1ENC       LL_AHB2_GRP1_DisableClock\n
1038:../Drivers/STM32N6xx_HAL_Driver/Inc/stm32n6xx_ll_bus.h ****   *         AHB2ENCR     ADF1ENC       LL_AHB2_GRP1_DisableClock
1039:../Drivers/STM32N6xx_HAL_Driver/Inc/stm32n6xx_ll_bus.h ****   * @param  Periphs This parameter can be a combination of the following values:
1040:../Drivers/STM32N6xx_HAL_Driver/Inc/stm32n6xx_ll_bus.h ****   *         @arg @ref LL_AHB2_GRP1_PERIPH_RAMCFG
1041:../Drivers/STM32N6xx_HAL_Driver/Inc/stm32n6xx_ll_bus.h ****   *         @arg @ref LL_AHB2_GRP1_PERIPH_MDF1
1042:../Drivers/STM32N6xx_HAL_Driver/Inc/stm32n6xx_ll_bus.h ****   *         @arg @ref LL_AHB2_GRP1_PERIPH_ADF1
1043:../Drivers/STM32N6xx_HAL_Driver/Inc/stm32n6xx_ll_bus.h ****   * @retval None
1044:../Drivers/STM32N6xx_HAL_Driver/Inc/stm32n6xx_ll_bus.h ****   */
1045:../Drivers/STM32N6xx_HAL_Driver/Inc/stm32n6xx_ll_bus.h **** __STATIC_INLINE void LL_AHB2_GRP1_DisableClock(uint32_t Periphs)
1046:../Drivers/STM32N6xx_HAL_Driver/Inc/stm32n6xx_ll_bus.h **** {
1047:../Drivers/STM32N6xx_HAL_Driver/Inc/stm32n6xx_ll_bus.h ****   WRITE_REG(RCC->AHB2ENCR, Periphs);
1048:../Drivers/STM32N6xx_HAL_Driver/Inc/stm32n6xx_ll_bus.h **** }
1049:../Drivers/STM32N6xx_HAL_Driver/Inc/stm32n6xx_ll_bus.h **** 
1050:../Drivers/STM32N6xx_HAL_Driver/Inc/stm32n6xx_ll_bus.h **** /**
1051:../Drivers/STM32N6xx_HAL_Driver/Inc/stm32n6xx_ll_bus.h ****   * @brief  Force AHB2 peripherals reset.
1052:../Drivers/STM32N6xx_HAL_Driver/Inc/stm32n6xx_ll_bus.h ****   * @rmtoll AHB2RSTSR    RAMCFGRSTS     LL_AHB2_GRP1_ForceReset\n
1053:../Drivers/STM32N6xx_HAL_Driver/Inc/stm32n6xx_ll_bus.h ****   *         AHB2RSTSR    MDF1RSTS       LL_AHB2_GRP1_ForceReset\n
1054:../Drivers/STM32N6xx_HAL_Driver/Inc/stm32n6xx_ll_bus.h ****   *         AHB2RSTSR    ADF1RSTS       LL_AHB2_GRP1_ForceReset
1055:../Drivers/STM32N6xx_HAL_Driver/Inc/stm32n6xx_ll_bus.h ****   * @param  Periphs This parameter can be a combination of the following values:
1056:../Drivers/STM32N6xx_HAL_Driver/Inc/stm32n6xx_ll_bus.h ****   *         @arg @ref LL_AHB2_GRP1_PERIPH_RAMCFG
1057:../Drivers/STM32N6xx_HAL_Driver/Inc/stm32n6xx_ll_bus.h ****   *         @arg @ref LL_AHB2_GRP1_PERIPH_MDF1
1058:../Drivers/STM32N6xx_HAL_Driver/Inc/stm32n6xx_ll_bus.h ****   *         @arg @ref LL_AHB2_GRP1_PERIPH_ADF1
1059:../Drivers/STM32N6xx_HAL_Driver/Inc/stm32n6xx_ll_bus.h ****   * @retval None
1060:../Drivers/STM32N6xx_HAL_Driver/Inc/stm32n6xx_ll_bus.h ****   */
1061:../Drivers/STM32N6xx_HAL_Driver/Inc/stm32n6xx_ll_bus.h **** __STATIC_INLINE void LL_AHB2_GRP1_ForceReset(uint32_t Periphs)
1062:../Drivers/STM32N6xx_HAL_Driver/Inc/stm32n6xx_ll_bus.h **** {
1063:../Drivers/STM32N6xx_HAL_Driver/Inc/stm32n6xx_ll_bus.h ****   WRITE_REG(RCC->AHB2RSTSR, Periphs);
1064:../Drivers/STM32N6xx_HAL_Driver/Inc/stm32n6xx_ll_bus.h **** }
1065:../Drivers/STM32N6xx_HAL_Driver/Inc/stm32n6xx_ll_bus.h **** 
1066:../Drivers/STM32N6xx_HAL_Driver/Inc/stm32n6xx_ll_bus.h **** /**
1067:../Drivers/STM32N6xx_HAL_Driver/Inc/stm32n6xx_ll_bus.h ****   * @brief  Release AHB2 peripherals reset.
1068:../Drivers/STM32N6xx_HAL_Driver/Inc/stm32n6xx_ll_bus.h ****   * @rmtoll AHB2RSTCR     RAMCFGRSTC    LL_AHB2_GRP1_ReleaseReset\n
1069:../Drivers/STM32N6xx_HAL_Driver/Inc/stm32n6xx_ll_bus.h ****   *         AHB2RSTCR     MDF1RSTC      LL_AHB2_GRP1_ReleaseReset\n
1070:../Drivers/STM32N6xx_HAL_Driver/Inc/stm32n6xx_ll_bus.h ****   *         AHB2RSTCR     ADF1RSTC      LL_AHB2_GRP1_ReleaseReset
1071:../Drivers/STM32N6xx_HAL_Driver/Inc/stm32n6xx_ll_bus.h ****   * @param  Periphs This parameter can be a combination of the following values:
1072:../Drivers/STM32N6xx_HAL_Driver/Inc/stm32n6xx_ll_bus.h ****   *         @arg @ref LL_AHB2_GRP1_PERIPH_RAMCFG
1073:../Drivers/STM32N6xx_HAL_Driver/Inc/stm32n6xx_ll_bus.h ****   *         @arg @ref LL_AHB2_GRP1_PERIPH_MDF1
1074:../Drivers/STM32N6xx_HAL_Driver/Inc/stm32n6xx_ll_bus.h ****   *         @arg @ref LL_AHB2_GRP1_PERIPH_ADF1
1075:../Drivers/STM32N6xx_HAL_Driver/Inc/stm32n6xx_ll_bus.h ****   * @retval None
1076:../Drivers/STM32N6xx_HAL_Driver/Inc/stm32n6xx_ll_bus.h ****   */
1077:../Drivers/STM32N6xx_HAL_Driver/Inc/stm32n6xx_ll_bus.h **** __STATIC_INLINE void LL_AHB2_GRP1_ReleaseReset(uint32_t Periphs)
1078:../Drivers/STM32N6xx_HAL_Driver/Inc/stm32n6xx_ll_bus.h **** {
1079:../Drivers/STM32N6xx_HAL_Driver/Inc/stm32n6xx_ll_bus.h ****   WRITE_REG(RCC->AHB2RSTCR, Periphs);
1080:../Drivers/STM32N6xx_HAL_Driver/Inc/stm32n6xx_ll_bus.h **** }
1081:../Drivers/STM32N6xx_HAL_Driver/Inc/stm32n6xx_ll_bus.h **** 
1082:../Drivers/STM32N6xx_HAL_Driver/Inc/stm32n6xx_ll_bus.h **** /**
1083:../Drivers/STM32N6xx_HAL_Driver/Inc/stm32n6xx_ll_bus.h ****   * @brief  Enable AHB2 peripherals clock during Low Power mode.
1084:../Drivers/STM32N6xx_HAL_Driver/Inc/stm32n6xx_ll_bus.h ****   * @rmtoll AHB2LPENSR   RAMCFGLPENC   LL_AHB2_GRP1_EnableClockLowPower\n
1085:../Drivers/STM32N6xx_HAL_Driver/Inc/stm32n6xx_ll_bus.h ****   *         AHB2LPENSR   MDF1LPENC     LL_AHB2_GRP1_EnableClockLowPower\n
1086:../Drivers/STM32N6xx_HAL_Driver/Inc/stm32n6xx_ll_bus.h ****   *         AHB2LPENSR   ADF1LPENC     LL_AHB2_GRP1_EnableClockLowPower
1087:../Drivers/STM32N6xx_HAL_Driver/Inc/stm32n6xx_ll_bus.h ****   * @param  Periphs This parameter can be a combination of the following values:
1088:../Drivers/STM32N6xx_HAL_Driver/Inc/stm32n6xx_ll_bus.h ****   *         @arg @ref LL_AHB2_GRP1_PERIPH_RAMCFG
1089:../Drivers/STM32N6xx_HAL_Driver/Inc/stm32n6xx_ll_bus.h ****   *         @arg @ref LL_AHB2_GRP1_PERIPH_MDF1
1090:../Drivers/STM32N6xx_HAL_Driver/Inc/stm32n6xx_ll_bus.h ****   *         @arg @ref LL_AHB2_GRP1_PERIPH_ADF1
1091:../Drivers/STM32N6xx_HAL_Driver/Inc/stm32n6xx_ll_bus.h ****   * @retval None
1092:../Drivers/STM32N6xx_HAL_Driver/Inc/stm32n6xx_ll_bus.h ****   */
ARM GAS  /tmp/ccZzrCLx.s 			page 41


1093:../Drivers/STM32N6xx_HAL_Driver/Inc/stm32n6xx_ll_bus.h **** __STATIC_INLINE void LL_AHB2_GRP1_EnableClockLowPower(uint32_t Periphs)
1094:../Drivers/STM32N6xx_HAL_Driver/Inc/stm32n6xx_ll_bus.h **** {
1095:../Drivers/STM32N6xx_HAL_Driver/Inc/stm32n6xx_ll_bus.h ****   __IO uint32_t tmpreg;
1096:../Drivers/STM32N6xx_HAL_Driver/Inc/stm32n6xx_ll_bus.h ****   WRITE_REG(RCC->AHB2LPENSR, Periphs);
1097:../Drivers/STM32N6xx_HAL_Driver/Inc/stm32n6xx_ll_bus.h ****   /* Delay after an RCC peripheral clock enabling */
1098:../Drivers/STM32N6xx_HAL_Driver/Inc/stm32n6xx_ll_bus.h ****   tmpreg = READ_REG(RCC->AHB2LPENR);
1099:../Drivers/STM32N6xx_HAL_Driver/Inc/stm32n6xx_ll_bus.h ****   (void)tmpreg;
1100:../Drivers/STM32N6xx_HAL_Driver/Inc/stm32n6xx_ll_bus.h **** }
1101:../Drivers/STM32N6xx_HAL_Driver/Inc/stm32n6xx_ll_bus.h **** 
1102:../Drivers/STM32N6xx_HAL_Driver/Inc/stm32n6xx_ll_bus.h **** /**
1103:../Drivers/STM32N6xx_HAL_Driver/Inc/stm32n6xx_ll_bus.h ****   * @brief  Check if AHB2 peripheral clock during Low Power mode is enabled or not .
1104:../Drivers/STM32N6xx_HAL_Driver/Inc/stm32n6xx_ll_bus.h ****   * @rmtoll AHB2LPENR    RAMCFGLPEN    LL_AHB2_GRP1_IsEnabledClockLowPower\n
1105:../Drivers/STM32N6xx_HAL_Driver/Inc/stm32n6xx_ll_bus.h ****   *         AHB2LPENR    MDF1LPEN      LL_AHB2_GRP1_IsEnabledClockLowPower\n
1106:../Drivers/STM32N6xx_HAL_Driver/Inc/stm32n6xx_ll_bus.h ****   *         AHB2LPENR    ADF1LPEN      LL_AHB2_GRP1_IsEnabledClockLowPower
1107:../Drivers/STM32N6xx_HAL_Driver/Inc/stm32n6xx_ll_bus.h ****   * @param  Periphs This parameter can be a combination of the following values:
1108:../Drivers/STM32N6xx_HAL_Driver/Inc/stm32n6xx_ll_bus.h ****   *         @arg @ref LL_AHB2_GRP1_PERIPH_RAMCFG
1109:../Drivers/STM32N6xx_HAL_Driver/Inc/stm32n6xx_ll_bus.h ****   *         @arg @ref LL_AHB2_GRP1_PERIPH_MDF1
1110:../Drivers/STM32N6xx_HAL_Driver/Inc/stm32n6xx_ll_bus.h ****   *         @arg @ref LL_AHB2_GRP1_PERIPH_ADF1
1111:../Drivers/STM32N6xx_HAL_Driver/Inc/stm32n6xx_ll_bus.h ****   * @retval uint32_t
1112:../Drivers/STM32N6xx_HAL_Driver/Inc/stm32n6xx_ll_bus.h ****   */
1113:../Drivers/STM32N6xx_HAL_Driver/Inc/stm32n6xx_ll_bus.h **** __STATIC_INLINE uint32_t LL_AHB2_GRP1_IsEnabledClockLowPower(uint32_t Periphs)
1114:../Drivers/STM32N6xx_HAL_Driver/Inc/stm32n6xx_ll_bus.h **** {
1115:../Drivers/STM32N6xx_HAL_Driver/Inc/stm32n6xx_ll_bus.h ****   return ((READ_BIT(RCC->AHB2LPENR, Periphs) == Periphs) ? 1UL : 0UL);
1116:../Drivers/STM32N6xx_HAL_Driver/Inc/stm32n6xx_ll_bus.h **** }
1117:../Drivers/STM32N6xx_HAL_Driver/Inc/stm32n6xx_ll_bus.h **** 
1118:../Drivers/STM32N6xx_HAL_Driver/Inc/stm32n6xx_ll_bus.h **** /**
1119:../Drivers/STM32N6xx_HAL_Driver/Inc/stm32n6xx_ll_bus.h ****   * @brief  Disable AHB2 peripherals clock during Low Power mode.
1120:../Drivers/STM32N6xx_HAL_Driver/Inc/stm32n6xx_ll_bus.h ****   * @rmtoll AHB2LPENCR   RAMCFGLPENC   LL_AHB2_GRP1_DisableClockLowPower\n
1121:../Drivers/STM32N6xx_HAL_Driver/Inc/stm32n6xx_ll_bus.h ****   *         AHB2LPENCR   MDF1LPENC     LL_AHB2_GRP1_DisableClockLowPower\n
1122:../Drivers/STM32N6xx_HAL_Driver/Inc/stm32n6xx_ll_bus.h ****   *         AHB2LPENCR   ADF1LPENC     LL_AHB2_GRP1_DisableClockLowPower
1123:../Drivers/STM32N6xx_HAL_Driver/Inc/stm32n6xx_ll_bus.h ****   * @param  Periphs This parameter can be a combination of the following values:
1124:../Drivers/STM32N6xx_HAL_Driver/Inc/stm32n6xx_ll_bus.h ****   *         @arg @ref LL_AHB2_GRP1_PERIPH_RAMCFG
1125:../Drivers/STM32N6xx_HAL_Driver/Inc/stm32n6xx_ll_bus.h ****   *         @arg @ref LL_AHB2_GRP1_PERIPH_MDF1
1126:../Drivers/STM32N6xx_HAL_Driver/Inc/stm32n6xx_ll_bus.h ****   *         @arg @ref LL_AHB2_GRP1_PERIPH_ADF1
1127:../Drivers/STM32N6xx_HAL_Driver/Inc/stm32n6xx_ll_bus.h ****   * @retval None
1128:../Drivers/STM32N6xx_HAL_Driver/Inc/stm32n6xx_ll_bus.h ****   */
1129:../Drivers/STM32N6xx_HAL_Driver/Inc/stm32n6xx_ll_bus.h **** __STATIC_INLINE void LL_AHB2_GRP1_DisableClockLowPower(uint32_t Periphs)
1130:../Drivers/STM32N6xx_HAL_Driver/Inc/stm32n6xx_ll_bus.h **** {
1131:../Drivers/STM32N6xx_HAL_Driver/Inc/stm32n6xx_ll_bus.h ****   WRITE_REG(RCC->AHB2LPENCR, Periphs);
1132:../Drivers/STM32N6xx_HAL_Driver/Inc/stm32n6xx_ll_bus.h **** }
1133:../Drivers/STM32N6xx_HAL_Driver/Inc/stm32n6xx_ll_bus.h **** 
1134:../Drivers/STM32N6xx_HAL_Driver/Inc/stm32n6xx_ll_bus.h **** /**
1135:../Drivers/STM32N6xx_HAL_Driver/Inc/stm32n6xx_ll_bus.h ****   * @}
1136:../Drivers/STM32N6xx_HAL_Driver/Inc/stm32n6xx_ll_bus.h ****   */
1137:../Drivers/STM32N6xx_HAL_Driver/Inc/stm32n6xx_ll_bus.h **** 
1138:../Drivers/STM32N6xx_HAL_Driver/Inc/stm32n6xx_ll_bus.h **** /** @defgroup BUS_LL_EF_AHB3 AHB3
1139:../Drivers/STM32N6xx_HAL_Driver/Inc/stm32n6xx_ll_bus.h ****   * @{
1140:../Drivers/STM32N6xx_HAL_Driver/Inc/stm32n6xx_ll_bus.h ****   */
1141:../Drivers/STM32N6xx_HAL_Driver/Inc/stm32n6xx_ll_bus.h **** 
1142:../Drivers/STM32N6xx_HAL_Driver/Inc/stm32n6xx_ll_bus.h **** /**
1143:../Drivers/STM32N6xx_HAL_Driver/Inc/stm32n6xx_ll_bus.h ****   * @brief  Enable AHB3 peripherals clock.
1144:../Drivers/STM32N6xx_HAL_Driver/Inc/stm32n6xx_ll_bus.h ****   * @rmtoll AHB3ENSR     RNGENS        LL_AHB3_GRP1_EnableClock\n
1145:../Drivers/STM32N6xx_HAL_Driver/Inc/stm32n6xx_ll_bus.h ****   *         AHB3ENSR     HASHENS       LL_AHB3_GRP1_EnableClock\n
1146:../Drivers/STM32N6xx_HAL_Driver/Inc/stm32n6xx_ll_bus.h ****   *         AHB3ENSR     CRYPENS       LL_AHB3_GRP1_EnableClock\n  (*)
1147:../Drivers/STM32N6xx_HAL_Driver/Inc/stm32n6xx_ll_bus.h ****   *         AHB3ENSR     SAESENS       LL_AHB3_GRP1_EnableClock\n  (*)
1148:../Drivers/STM32N6xx_HAL_Driver/Inc/stm32n6xx_ll_bus.h ****   *         AHB3ENSR     PKAENS        LL_AHB3_GRP1_EnableClock\n
1149:../Drivers/STM32N6xx_HAL_Driver/Inc/stm32n6xx_ll_bus.h ****   *         AHB3ENSR     RIFSCENS      LL_AHB3_GRP1_EnableClock\n
ARM GAS  /tmp/ccZzrCLx.s 			page 42


1150:../Drivers/STM32N6xx_HAL_Driver/Inc/stm32n6xx_ll_bus.h ****   *         AHB3ENSR     RISAFENS      LL_AHB3_GRP1_EnableClock\n
1151:../Drivers/STM32N6xx_HAL_Driver/Inc/stm32n6xx_ll_bus.h ****   *         AHB3ENSR     IACENS        LL_AHB3_GRP1_EnableClock
1152:../Drivers/STM32N6xx_HAL_Driver/Inc/stm32n6xx_ll_bus.h ****   * @param  Periphs This parameter can be a combination of the following values:
1153:../Drivers/STM32N6xx_HAL_Driver/Inc/stm32n6xx_ll_bus.h ****   *         @arg @ref LL_AHB3_GRP1_PERIPH_RNG
1154:../Drivers/STM32N6xx_HAL_Driver/Inc/stm32n6xx_ll_bus.h ****   *         @arg @ref LL_AHB3_GRP1_PERIPH_HASH
1155:../Drivers/STM32N6xx_HAL_Driver/Inc/stm32n6xx_ll_bus.h ****   *         @arg @ref LL_AHB3_GRP1_PERIPH_CRYP (*)
1156:../Drivers/STM32N6xx_HAL_Driver/Inc/stm32n6xx_ll_bus.h ****   *         @arg @ref LL_AHB3_GRP1_PERIPH_SAES (*)
1157:../Drivers/STM32N6xx_HAL_Driver/Inc/stm32n6xx_ll_bus.h ****   *         @arg @ref LL_AHB3_GRP1_PERIPH_PKA
1158:../Drivers/STM32N6xx_HAL_Driver/Inc/stm32n6xx_ll_bus.h ****   *         @arg @ref LL_AHB3_GRP1_PERIPH_RIFSC
1159:../Drivers/STM32N6xx_HAL_Driver/Inc/stm32n6xx_ll_bus.h ****   *         @arg @ref LL_AHB3_GRP1_PERIPH_RISAF
1160:../Drivers/STM32N6xx_HAL_Driver/Inc/stm32n6xx_ll_bus.h ****   *         @arg @ref LL_AHB3_GRP1_PERIPH_IAC
1161:../Drivers/STM32N6xx_HAL_Driver/Inc/stm32n6xx_ll_bus.h ****   *
1162:../Drivers/STM32N6xx_HAL_Driver/Inc/stm32n6xx_ll_bus.h ****   *         (*) value not defined in all devices.
1163:../Drivers/STM32N6xx_HAL_Driver/Inc/stm32n6xx_ll_bus.h ****   * @retval None
1164:../Drivers/STM32N6xx_HAL_Driver/Inc/stm32n6xx_ll_bus.h ****   */
1165:../Drivers/STM32N6xx_HAL_Driver/Inc/stm32n6xx_ll_bus.h **** __STATIC_INLINE void LL_AHB3_GRP1_EnableClock(uint32_t Periphs)
1166:../Drivers/STM32N6xx_HAL_Driver/Inc/stm32n6xx_ll_bus.h **** {
1167:../Drivers/STM32N6xx_HAL_Driver/Inc/stm32n6xx_ll_bus.h ****   __IO uint32_t tmpreg;
1168:../Drivers/STM32N6xx_HAL_Driver/Inc/stm32n6xx_ll_bus.h ****   WRITE_REG(RCC->AHB3ENSR, Periphs);
1169:../Drivers/STM32N6xx_HAL_Driver/Inc/stm32n6xx_ll_bus.h ****   /* Delay after an RCC peripheral clock enabling */
1170:../Drivers/STM32N6xx_HAL_Driver/Inc/stm32n6xx_ll_bus.h ****   tmpreg = READ_REG(RCC->AHB3ENR);
1171:../Drivers/STM32N6xx_HAL_Driver/Inc/stm32n6xx_ll_bus.h ****   (void)tmpreg;
1172:../Drivers/STM32N6xx_HAL_Driver/Inc/stm32n6xx_ll_bus.h **** }
1173:../Drivers/STM32N6xx_HAL_Driver/Inc/stm32n6xx_ll_bus.h **** 
1174:../Drivers/STM32N6xx_HAL_Driver/Inc/stm32n6xx_ll_bus.h **** /**
1175:../Drivers/STM32N6xx_HAL_Driver/Inc/stm32n6xx_ll_bus.h ****   * @brief  Check if AHB3 peripheral clock is enabled or not
1176:../Drivers/STM32N6xx_HAL_Driver/Inc/stm32n6xx_ll_bus.h ****   * @rmtoll AHB3ENR      RNGEN         LL_AHB3_GRP1_IsEnabledClock\n
1177:../Drivers/STM32N6xx_HAL_Driver/Inc/stm32n6xx_ll_bus.h ****   *         AHB3ENR      HASHEN        LL_AHB3_GRP1_IsEnabledClock\n
1178:../Drivers/STM32N6xx_HAL_Driver/Inc/stm32n6xx_ll_bus.h ****   *         AHB3ENR      CRYPEN        LL_AHB3_GRP1_IsEnabledClock\n  (*)
1179:../Drivers/STM32N6xx_HAL_Driver/Inc/stm32n6xx_ll_bus.h ****   *         AHB3ENR      SAESEN        LL_AHB3_GRP1_IsEnabledClock\n  (*)
1180:../Drivers/STM32N6xx_HAL_Driver/Inc/stm32n6xx_ll_bus.h ****   *         AHB3ENR      PKAEN         LL_AHB3_GRP1_IsEnabledClock\n
1181:../Drivers/STM32N6xx_HAL_Driver/Inc/stm32n6xx_ll_bus.h ****   *         AHB3ENR      RIFSCEN       LL_AHB3_GRP1_IsEnabledClock\n
1182:../Drivers/STM32N6xx_HAL_Driver/Inc/stm32n6xx_ll_bus.h ****   *         AHB3ENR      RISAFEN       LL_AHB3_GRP1_IsEnabledClock\n
1183:../Drivers/STM32N6xx_HAL_Driver/Inc/stm32n6xx_ll_bus.h ****   *         AHB3ENR      IACEN         LL_AHB3_GRP1_IsEnabledClock
1184:../Drivers/STM32N6xx_HAL_Driver/Inc/stm32n6xx_ll_bus.h ****   * @param  Periphs This parameter can be a combination of the following values:
1185:../Drivers/STM32N6xx_HAL_Driver/Inc/stm32n6xx_ll_bus.h ****   *         @arg @ref LL_AHB3_GRP1_PERIPH_RNG
1186:../Drivers/STM32N6xx_HAL_Driver/Inc/stm32n6xx_ll_bus.h ****   *         @arg @ref LL_AHB3_GRP1_PERIPH_HASH
1187:../Drivers/STM32N6xx_HAL_Driver/Inc/stm32n6xx_ll_bus.h ****   *         @arg @ref LL_AHB3_GRP1_PERIPH_CRYP (*)
1188:../Drivers/STM32N6xx_HAL_Driver/Inc/stm32n6xx_ll_bus.h ****   *         @arg @ref LL_AHB3_GRP1_PERIPH_SAES (*)
1189:../Drivers/STM32N6xx_HAL_Driver/Inc/stm32n6xx_ll_bus.h ****   *         @arg @ref LL_AHB3_GRP1_PERIPH_PKA
1190:../Drivers/STM32N6xx_HAL_Driver/Inc/stm32n6xx_ll_bus.h ****   *         @arg @ref LL_AHB3_GRP1_PERIPH_RIFSC
1191:../Drivers/STM32N6xx_HAL_Driver/Inc/stm32n6xx_ll_bus.h ****   *         @arg @ref LL_AHB3_GRP1_PERIPH_RISAF
1192:../Drivers/STM32N6xx_HAL_Driver/Inc/stm32n6xx_ll_bus.h ****   *         @arg @ref LL_AHB3_GRP1_PERIPH_IAC
1193:../Drivers/STM32N6xx_HAL_Driver/Inc/stm32n6xx_ll_bus.h ****   *
1194:../Drivers/STM32N6xx_HAL_Driver/Inc/stm32n6xx_ll_bus.h ****   *         (*) value not defined in all devices.
1195:../Drivers/STM32N6xx_HAL_Driver/Inc/stm32n6xx_ll_bus.h ****   * @retval uint32_t
1196:../Drivers/STM32N6xx_HAL_Driver/Inc/stm32n6xx_ll_bus.h ****   */
1197:../Drivers/STM32N6xx_HAL_Driver/Inc/stm32n6xx_ll_bus.h **** __STATIC_INLINE uint32_t LL_AHB3_GRP1_IsEnabledClock(uint32_t Periphs)
1198:../Drivers/STM32N6xx_HAL_Driver/Inc/stm32n6xx_ll_bus.h **** {
1199:../Drivers/STM32N6xx_HAL_Driver/Inc/stm32n6xx_ll_bus.h ****   return ((READ_BIT(RCC->AHB3ENR, Periphs) == Periphs) ? 1UL : 0UL);
1200:../Drivers/STM32N6xx_HAL_Driver/Inc/stm32n6xx_ll_bus.h **** }
1201:../Drivers/STM32N6xx_HAL_Driver/Inc/stm32n6xx_ll_bus.h **** 
1202:../Drivers/STM32N6xx_HAL_Driver/Inc/stm32n6xx_ll_bus.h **** /**
1203:../Drivers/STM32N6xx_HAL_Driver/Inc/stm32n6xx_ll_bus.h ****   * @brief  Disable AHB3 peripherals clock.
1204:../Drivers/STM32N6xx_HAL_Driver/Inc/stm32n6xx_ll_bus.h ****   * @rmtoll AHB3ENCR     RNGENC        LL_AHB3_GRP1_DisableClock\n
1205:../Drivers/STM32N6xx_HAL_Driver/Inc/stm32n6xx_ll_bus.h ****   *         AHB3ENCR     HASHENC       LL_AHB3_GRP1_DisableClock\n
1206:../Drivers/STM32N6xx_HAL_Driver/Inc/stm32n6xx_ll_bus.h ****   *         AHB3ENCR     CRYPENC       LL_AHB3_GRP1_DisableClock\n  (*)
ARM GAS  /tmp/ccZzrCLx.s 			page 43


1207:../Drivers/STM32N6xx_HAL_Driver/Inc/stm32n6xx_ll_bus.h ****   *         AHB3ENCR     SAESENC       LL_AHB3_GRP1_DisableClock\n  (*)
1208:../Drivers/STM32N6xx_HAL_Driver/Inc/stm32n6xx_ll_bus.h ****   *         AHB3ENCR     PKAENC        LL_AHB3_GRP1_DisableClock\n
1209:../Drivers/STM32N6xx_HAL_Driver/Inc/stm32n6xx_ll_bus.h ****   *         AHB3ENCR     RIFSCENC      LL_AHB3_GRP1_DisableClock\n
1210:../Drivers/STM32N6xx_HAL_Driver/Inc/stm32n6xx_ll_bus.h ****   *         AHB3ENCR     RISAFENC      LL_AHB3_GRP1_DisableClock\n
1211:../Drivers/STM32N6xx_HAL_Driver/Inc/stm32n6xx_ll_bus.h ****   *         AHB3ENCR     IACENC        LL_AHB3_GRP1_DisableClock
1212:../Drivers/STM32N6xx_HAL_Driver/Inc/stm32n6xx_ll_bus.h ****   * @param  Periphs This parameter can be a combination of the following values:
1213:../Drivers/STM32N6xx_HAL_Driver/Inc/stm32n6xx_ll_bus.h ****   *         @arg @ref LL_AHB3_GRP1_PERIPH_RNG
1214:../Drivers/STM32N6xx_HAL_Driver/Inc/stm32n6xx_ll_bus.h ****   *         @arg @ref LL_AHB3_GRP1_PERIPH_HASH
1215:../Drivers/STM32N6xx_HAL_Driver/Inc/stm32n6xx_ll_bus.h ****   *         @arg @ref LL_AHB3_GRP1_PERIPH_CRYP (*)
1216:../Drivers/STM32N6xx_HAL_Driver/Inc/stm32n6xx_ll_bus.h ****   *         @arg @ref LL_AHB3_GRP1_PERIPH_SAES (*)
1217:../Drivers/STM32N6xx_HAL_Driver/Inc/stm32n6xx_ll_bus.h ****   *         @arg @ref LL_AHB3_GRP1_PERIPH_PKA
1218:../Drivers/STM32N6xx_HAL_Driver/Inc/stm32n6xx_ll_bus.h ****   *         @arg @ref LL_AHB3_GRP1_PERIPH_RIFSC
1219:../Drivers/STM32N6xx_HAL_Driver/Inc/stm32n6xx_ll_bus.h ****   *         @arg @ref LL_AHB3_GRP1_PERIPH_RISAF
1220:../Drivers/STM32N6xx_HAL_Driver/Inc/stm32n6xx_ll_bus.h ****   *         @arg @ref LL_AHB3_GRP1_PERIPH_IAC
1221:../Drivers/STM32N6xx_HAL_Driver/Inc/stm32n6xx_ll_bus.h ****   *
1222:../Drivers/STM32N6xx_HAL_Driver/Inc/stm32n6xx_ll_bus.h ****   *         (*) value not defined in all devices.
1223:../Drivers/STM32N6xx_HAL_Driver/Inc/stm32n6xx_ll_bus.h ****   * @retval None
1224:../Drivers/STM32N6xx_HAL_Driver/Inc/stm32n6xx_ll_bus.h ****   */
1225:../Drivers/STM32N6xx_HAL_Driver/Inc/stm32n6xx_ll_bus.h **** __STATIC_INLINE void LL_AHB3_GRP1_DisableClock(uint32_t Periphs)
1226:../Drivers/STM32N6xx_HAL_Driver/Inc/stm32n6xx_ll_bus.h **** {
1227:../Drivers/STM32N6xx_HAL_Driver/Inc/stm32n6xx_ll_bus.h ****   WRITE_REG(RCC->AHB3ENCR, Periphs);
1228:../Drivers/STM32N6xx_HAL_Driver/Inc/stm32n6xx_ll_bus.h **** }
1229:../Drivers/STM32N6xx_HAL_Driver/Inc/stm32n6xx_ll_bus.h **** 
1230:../Drivers/STM32N6xx_HAL_Driver/Inc/stm32n6xx_ll_bus.h **** /**
1231:../Drivers/STM32N6xx_HAL_Driver/Inc/stm32n6xx_ll_bus.h ****   * @brief  Force AHB3 peripherals reset.
1232:../Drivers/STM32N6xx_HAL_Driver/Inc/stm32n6xx_ll_bus.h ****   * @rmtoll AHB3RSTSR    RNGRSTS       LL_AHB3_GRP1_ForceReset\n
1233:../Drivers/STM32N6xx_HAL_Driver/Inc/stm32n6xx_ll_bus.h ****   *         AHB3RSTSR    HASHRSTS      LL_AHB3_GRP1_ForceReset\n
1234:../Drivers/STM32N6xx_HAL_Driver/Inc/stm32n6xx_ll_bus.h ****   *         AHB3RSTSR    CRYPRSTS      LL_AHB3_GRP1_ForceReset\n  (*)
1235:../Drivers/STM32N6xx_HAL_Driver/Inc/stm32n6xx_ll_bus.h ****   *         AHB3RSTSR    SAESRSTS      LL_AHB3_GRP1_ForceReset\n  (*)
1236:../Drivers/STM32N6xx_HAL_Driver/Inc/stm32n6xx_ll_bus.h ****   *         AHB3RSTSR    PKARSTS       LL_AHB3_GRP1_ForceReset\n
1237:../Drivers/STM32N6xx_HAL_Driver/Inc/stm32n6xx_ll_bus.h ****   *         AHB3RSTSR    IACRSTS       LL_AHB3_GRP1_ForceReset
1238:../Drivers/STM32N6xx_HAL_Driver/Inc/stm32n6xx_ll_bus.h ****   * @param  Periphs This parameter can be a combination of the following values:
1239:../Drivers/STM32N6xx_HAL_Driver/Inc/stm32n6xx_ll_bus.h ****   *         @arg @ref LL_AHB3_GRP1_PERIPH_RNG
1240:../Drivers/STM32N6xx_HAL_Driver/Inc/stm32n6xx_ll_bus.h ****   *         @arg @ref LL_AHB3_GRP1_PERIPH_HASH
1241:../Drivers/STM32N6xx_HAL_Driver/Inc/stm32n6xx_ll_bus.h ****   *         @arg @ref LL_AHB3_GRP1_PERIPH_CRYP (*)
1242:../Drivers/STM32N6xx_HAL_Driver/Inc/stm32n6xx_ll_bus.h ****   *         @arg @ref LL_AHB3_GRP1_PERIPH_SAES (*)
1243:../Drivers/STM32N6xx_HAL_Driver/Inc/stm32n6xx_ll_bus.h ****   *         @arg @ref LL_AHB3_GRP1_PERIPH_PKA
1244:../Drivers/STM32N6xx_HAL_Driver/Inc/stm32n6xx_ll_bus.h ****   *         @arg @ref LL_AHB3_GRP1_PERIPH_IAC
1245:../Drivers/STM32N6xx_HAL_Driver/Inc/stm32n6xx_ll_bus.h ****   *
1246:../Drivers/STM32N6xx_HAL_Driver/Inc/stm32n6xx_ll_bus.h ****   *         (*) value not defined in all devices.
1247:../Drivers/STM32N6xx_HAL_Driver/Inc/stm32n6xx_ll_bus.h ****   * @retval None
1248:../Drivers/STM32N6xx_HAL_Driver/Inc/stm32n6xx_ll_bus.h ****   */
1249:../Drivers/STM32N6xx_HAL_Driver/Inc/stm32n6xx_ll_bus.h **** __STATIC_INLINE void LL_AHB3_GRP1_ForceReset(uint32_t Periphs)
1250:../Drivers/STM32N6xx_HAL_Driver/Inc/stm32n6xx_ll_bus.h **** {
1251:../Drivers/STM32N6xx_HAL_Driver/Inc/stm32n6xx_ll_bus.h ****   WRITE_REG(RCC->AHB3RSTSR, Periphs);
1252:../Drivers/STM32N6xx_HAL_Driver/Inc/stm32n6xx_ll_bus.h **** }
1253:../Drivers/STM32N6xx_HAL_Driver/Inc/stm32n6xx_ll_bus.h **** 
1254:../Drivers/STM32N6xx_HAL_Driver/Inc/stm32n6xx_ll_bus.h **** /**
1255:../Drivers/STM32N6xx_HAL_Driver/Inc/stm32n6xx_ll_bus.h ****   * @brief  Release AHB3 peripherals reset.
1256:../Drivers/STM32N6xx_HAL_Driver/Inc/stm32n6xx_ll_bus.h ****   * @rmtoll AHB3RSTCR    RNGRSTC       LL_AHB3_GRP1_ReleaseReset\n
1257:../Drivers/STM32N6xx_HAL_Driver/Inc/stm32n6xx_ll_bus.h ****   *         AHB3RSTCR    HASHRSTC      LL_AHB3_GRP1_ReleaseReset\n
1258:../Drivers/STM32N6xx_HAL_Driver/Inc/stm32n6xx_ll_bus.h ****   *         AHB3RSTCR    CRYPRSTC      LL_AHB3_GRP1_ReleaseReset\n  (*)
1259:../Drivers/STM32N6xx_HAL_Driver/Inc/stm32n6xx_ll_bus.h ****   *         AHB3RSTCR    SAESRSTC      LL_AHB3_GRP1_ReleaseReset\n  (*)
1260:../Drivers/STM32N6xx_HAL_Driver/Inc/stm32n6xx_ll_bus.h ****   *         AHB3RSTCR    PKARSTC       LL_AHB3_GRP1_ReleaseReset\n
1261:../Drivers/STM32N6xx_HAL_Driver/Inc/stm32n6xx_ll_bus.h ****   *         AHB3RSTCR    IACRSTC       LL_AHB3_GRP1_ReleaseReset
1262:../Drivers/STM32N6xx_HAL_Driver/Inc/stm32n6xx_ll_bus.h ****   * @param  Periphs This parameter can be a combination of the following values:
1263:../Drivers/STM32N6xx_HAL_Driver/Inc/stm32n6xx_ll_bus.h ****   *         @arg @ref LL_AHB3_GRP1_PERIPH_RNG
ARM GAS  /tmp/ccZzrCLx.s 			page 44


1264:../Drivers/STM32N6xx_HAL_Driver/Inc/stm32n6xx_ll_bus.h ****   *         @arg @ref LL_AHB3_GRP1_PERIPH_HASH
1265:../Drivers/STM32N6xx_HAL_Driver/Inc/stm32n6xx_ll_bus.h ****   *         @arg @ref LL_AHB3_GRP1_PERIPH_CRYP (*)
1266:../Drivers/STM32N6xx_HAL_Driver/Inc/stm32n6xx_ll_bus.h ****   *         @arg @ref LL_AHB3_GRP1_PERIPH_SAES (*)
1267:../Drivers/STM32N6xx_HAL_Driver/Inc/stm32n6xx_ll_bus.h ****   *         @arg @ref LL_AHB3_GRP1_PERIPH_PKA
1268:../Drivers/STM32N6xx_HAL_Driver/Inc/stm32n6xx_ll_bus.h ****   *         @arg @ref LL_AHB3_GRP1_PERIPH_IAC
1269:../Drivers/STM32N6xx_HAL_Driver/Inc/stm32n6xx_ll_bus.h ****   *
1270:../Drivers/STM32N6xx_HAL_Driver/Inc/stm32n6xx_ll_bus.h ****   *         (*) value not defined in all devices.
1271:../Drivers/STM32N6xx_HAL_Driver/Inc/stm32n6xx_ll_bus.h ****   * @retval None
1272:../Drivers/STM32N6xx_HAL_Driver/Inc/stm32n6xx_ll_bus.h ****   */
1273:../Drivers/STM32N6xx_HAL_Driver/Inc/stm32n6xx_ll_bus.h **** __STATIC_INLINE void LL_AHB3_GRP1_ReleaseReset(uint32_t Periphs)
1274:../Drivers/STM32N6xx_HAL_Driver/Inc/stm32n6xx_ll_bus.h **** {
1275:../Drivers/STM32N6xx_HAL_Driver/Inc/stm32n6xx_ll_bus.h ****   WRITE_REG(RCC->AHB3RSTCR, Periphs);
1276:../Drivers/STM32N6xx_HAL_Driver/Inc/stm32n6xx_ll_bus.h **** }
1277:../Drivers/STM32N6xx_HAL_Driver/Inc/stm32n6xx_ll_bus.h **** 
1278:../Drivers/STM32N6xx_HAL_Driver/Inc/stm32n6xx_ll_bus.h **** /**
1279:../Drivers/STM32N6xx_HAL_Driver/Inc/stm32n6xx_ll_bus.h ****   * @brief  Enable AHB3 peripherals clock during Low Power mode.
1280:../Drivers/STM32N6xx_HAL_Driver/Inc/stm32n6xx_ll_bus.h ****   * @rmtoll AHB3LPENSR   RNGLPENS      LL_AHB3_GRP1_EnableClockLowPower\n
1281:../Drivers/STM32N6xx_HAL_Driver/Inc/stm32n6xx_ll_bus.h ****   *         AHB3LPENSR   HASHLPENS     LL_AHB3_GRP1_EnableClockLowPower\n
1282:../Drivers/STM32N6xx_HAL_Driver/Inc/stm32n6xx_ll_bus.h ****   *         AHB3LPENSR   CRYPLPENS     LL_AHB3_GRP1_EnableClockLowPower\n  (*)
1283:../Drivers/STM32N6xx_HAL_Driver/Inc/stm32n6xx_ll_bus.h ****   *         AHB3LPENSR   SAESLPENS     LL_AHB3_GRP1_EnableClockLowPower\n  (*)
1284:../Drivers/STM32N6xx_HAL_Driver/Inc/stm32n6xx_ll_bus.h ****   *         AHB3LPENSR   PKALPENS      LL_AHB3_GRP1_EnableClockLowPower\n
1285:../Drivers/STM32N6xx_HAL_Driver/Inc/stm32n6xx_ll_bus.h ****   *         AHB3LPENSR   RIFSCLPENS    LL_AHB3_GRP1_EnableClockLowPower\n
1286:../Drivers/STM32N6xx_HAL_Driver/Inc/stm32n6xx_ll_bus.h ****   *         AHB3LPENSR   RISAFLPENS    LL_AHB3_GRP1_EnableClockLowPower\n
1287:../Drivers/STM32N6xx_HAL_Driver/Inc/stm32n6xx_ll_bus.h ****   *         AHB3LPENSR   IACLPENS      LL_AHB3_GRP1_EnableClockLowPower
1288:../Drivers/STM32N6xx_HAL_Driver/Inc/stm32n6xx_ll_bus.h ****   * @param  Periphs This parameter can be a combination of the following values:
1289:../Drivers/STM32N6xx_HAL_Driver/Inc/stm32n6xx_ll_bus.h ****   *         @arg @ref LL_AHB3_GRP1_PERIPH_RNG
1290:../Drivers/STM32N6xx_HAL_Driver/Inc/stm32n6xx_ll_bus.h ****   *         @arg @ref LL_AHB3_GRP1_PERIPH_HASH
1291:../Drivers/STM32N6xx_HAL_Driver/Inc/stm32n6xx_ll_bus.h ****   *         @arg @ref LL_AHB3_GRP1_PERIPH_CRYP (*)
1292:../Drivers/STM32N6xx_HAL_Driver/Inc/stm32n6xx_ll_bus.h ****   *         @arg @ref LL_AHB3_GRP1_PERIPH_SAES (*)
1293:../Drivers/STM32N6xx_HAL_Driver/Inc/stm32n6xx_ll_bus.h ****   *         @arg @ref LL_AHB3_GRP1_PERIPH_PKA
1294:../Drivers/STM32N6xx_HAL_Driver/Inc/stm32n6xx_ll_bus.h ****   *         @arg @ref LL_AHB3_GRP1_PERIPH_RIFSC
1295:../Drivers/STM32N6xx_HAL_Driver/Inc/stm32n6xx_ll_bus.h ****   *         @arg @ref LL_AHB3_GRP1_PERIPH_RISAF
1296:../Drivers/STM32N6xx_HAL_Driver/Inc/stm32n6xx_ll_bus.h ****   *         @arg @ref LL_AHB3_GRP1_PERIPH_IAC
1297:../Drivers/STM32N6xx_HAL_Driver/Inc/stm32n6xx_ll_bus.h ****   *
1298:../Drivers/STM32N6xx_HAL_Driver/Inc/stm32n6xx_ll_bus.h ****   *         (*) value not defined in all devices.
1299:../Drivers/STM32N6xx_HAL_Driver/Inc/stm32n6xx_ll_bus.h ****   * @retval None
1300:../Drivers/STM32N6xx_HAL_Driver/Inc/stm32n6xx_ll_bus.h ****   */
1301:../Drivers/STM32N6xx_HAL_Driver/Inc/stm32n6xx_ll_bus.h **** __STATIC_INLINE void LL_AHB3_GRP1_EnableClockLowPower(uint32_t Periphs)
1302:../Drivers/STM32N6xx_HAL_Driver/Inc/stm32n6xx_ll_bus.h **** {
1303:../Drivers/STM32N6xx_HAL_Driver/Inc/stm32n6xx_ll_bus.h ****   __IO uint32_t tmpreg;
1304:../Drivers/STM32N6xx_HAL_Driver/Inc/stm32n6xx_ll_bus.h ****   WRITE_REG(RCC->AHB3LPENSR, Periphs);
1305:../Drivers/STM32N6xx_HAL_Driver/Inc/stm32n6xx_ll_bus.h ****   /* Delay after an RCC peripheral clock enabling */
1306:../Drivers/STM32N6xx_HAL_Driver/Inc/stm32n6xx_ll_bus.h ****   tmpreg = READ_REG(RCC->AHB3LPENR);
1307:../Drivers/STM32N6xx_HAL_Driver/Inc/stm32n6xx_ll_bus.h ****   (void)tmpreg;
1308:../Drivers/STM32N6xx_HAL_Driver/Inc/stm32n6xx_ll_bus.h **** }
1309:../Drivers/STM32N6xx_HAL_Driver/Inc/stm32n6xx_ll_bus.h **** 
1310:../Drivers/STM32N6xx_HAL_Driver/Inc/stm32n6xx_ll_bus.h **** /**
1311:../Drivers/STM32N6xx_HAL_Driver/Inc/stm32n6xx_ll_bus.h ****   * @brief  Check if AHB3 peripheral clock during Low Power mode is enabled or not .
1312:../Drivers/STM32N6xx_HAL_Driver/Inc/stm32n6xx_ll_bus.h ****   * @rmtoll AHB3LPENR    RNGLPEN       LL_AHB3_GRP1_IsEnabledClockLowPower\n
1313:../Drivers/STM32N6xx_HAL_Driver/Inc/stm32n6xx_ll_bus.h ****   *         AHB3LPENR    HASHLPEN      LL_AHB3_GRP1_IsEnabledClockLowPower\n
1314:../Drivers/STM32N6xx_HAL_Driver/Inc/stm32n6xx_ll_bus.h ****   *         AHB3LPENR    CRYPLPEN      LL_AHB3_GRP1_IsEnabledClockLowPower\n  (*)
1315:../Drivers/STM32N6xx_HAL_Driver/Inc/stm32n6xx_ll_bus.h ****   *         AHB3LPENR    SAESLPEN      LL_AHB3_GRP1_IsEnabledClockLowPower\n  (*)
1316:../Drivers/STM32N6xx_HAL_Driver/Inc/stm32n6xx_ll_bus.h ****   *         AHB3LPENR    PKALPEN       LL_AHB3_GRP1_IsEnabledClockLowPower\n
1317:../Drivers/STM32N6xx_HAL_Driver/Inc/stm32n6xx_ll_bus.h ****   *         AHB3LPENR    RIFSCLPEN     LL_AHB3_GRP1_IsEnabledClockLowPower\n
1318:../Drivers/STM32N6xx_HAL_Driver/Inc/stm32n6xx_ll_bus.h ****   *         AHB3LPENR    RISAFLPEN     LL_AHB3_GRP1_IsEnabledClockLowPower\n
1319:../Drivers/STM32N6xx_HAL_Driver/Inc/stm32n6xx_ll_bus.h ****   *         AHB3LPENR    IACLPEN       LL_AHB3_GRP1_IsEnabledClockLowPower
1320:../Drivers/STM32N6xx_HAL_Driver/Inc/stm32n6xx_ll_bus.h ****   * @param  Periphs This parameter can be a combination of the following values:
ARM GAS  /tmp/ccZzrCLx.s 			page 45


1321:../Drivers/STM32N6xx_HAL_Driver/Inc/stm32n6xx_ll_bus.h ****   *         @arg @ref LL_AHB3_GRP1_PERIPH_RNG
1322:../Drivers/STM32N6xx_HAL_Driver/Inc/stm32n6xx_ll_bus.h ****   *         @arg @ref LL_AHB3_GRP1_PERIPH_HASH
1323:../Drivers/STM32N6xx_HAL_Driver/Inc/stm32n6xx_ll_bus.h ****   *         @arg @ref LL_AHB3_GRP1_PERIPH_CRYP (*)
1324:../Drivers/STM32N6xx_HAL_Driver/Inc/stm32n6xx_ll_bus.h ****   *         @arg @ref LL_AHB3_GRP1_PERIPH_SAES (*)
1325:../Drivers/STM32N6xx_HAL_Driver/Inc/stm32n6xx_ll_bus.h ****   *         @arg @ref LL_AHB3_GRP1_PERIPH_PKA
1326:../Drivers/STM32N6xx_HAL_Driver/Inc/stm32n6xx_ll_bus.h ****   *         @arg @ref LL_AHB3_GRP1_PERIPH_RIFSC
1327:../Drivers/STM32N6xx_HAL_Driver/Inc/stm32n6xx_ll_bus.h ****   *         @arg @ref LL_AHB3_GRP1_PERIPH_RISAF
1328:../Drivers/STM32N6xx_HAL_Driver/Inc/stm32n6xx_ll_bus.h ****   *         @arg @ref LL_AHB3_GRP1_PERIPH_IAC
1329:../Drivers/STM32N6xx_HAL_Driver/Inc/stm32n6xx_ll_bus.h ****   *
1330:../Drivers/STM32N6xx_HAL_Driver/Inc/stm32n6xx_ll_bus.h ****   *         (*) value not defined in all devices.
1331:../Drivers/STM32N6xx_HAL_Driver/Inc/stm32n6xx_ll_bus.h ****   * @retval uint32_t
1332:../Drivers/STM32N6xx_HAL_Driver/Inc/stm32n6xx_ll_bus.h ****   */
1333:../Drivers/STM32N6xx_HAL_Driver/Inc/stm32n6xx_ll_bus.h **** __STATIC_INLINE uint32_t LL_AHB3_GRP1_IsEnabledClockLowPower(uint32_t Periphs)
1334:../Drivers/STM32N6xx_HAL_Driver/Inc/stm32n6xx_ll_bus.h **** {
1335:../Drivers/STM32N6xx_HAL_Driver/Inc/stm32n6xx_ll_bus.h ****   return ((READ_BIT(RCC->AHB3LPENR, Periphs) == Periphs) ? 1UL : 0UL);
1336:../Drivers/STM32N6xx_HAL_Driver/Inc/stm32n6xx_ll_bus.h **** }
1337:../Drivers/STM32N6xx_HAL_Driver/Inc/stm32n6xx_ll_bus.h **** 
1338:../Drivers/STM32N6xx_HAL_Driver/Inc/stm32n6xx_ll_bus.h **** /**
1339:../Drivers/STM32N6xx_HAL_Driver/Inc/stm32n6xx_ll_bus.h ****   * @brief  Disable AHB3 peripherals clock during Low Power mode.
1340:../Drivers/STM32N6xx_HAL_Driver/Inc/stm32n6xx_ll_bus.h ****   * @rmtoll AHB3LPENCR   RNGLPENC      LL_AHB3_GRP1_DisableClockLowPower\n
1341:../Drivers/STM32N6xx_HAL_Driver/Inc/stm32n6xx_ll_bus.h ****   *         AHB3LPENCR   HASHLPENC     LL_AHB3_GRP1_DisableClockLowPower\n
1342:../Drivers/STM32N6xx_HAL_Driver/Inc/stm32n6xx_ll_bus.h ****   *         AHB3LPENCR   CRYPLPENC     LL_AHB3_GRP1_DisableClockLowPower\n  (*)
1343:../Drivers/STM32N6xx_HAL_Driver/Inc/stm32n6xx_ll_bus.h ****   *         AHB3LPENCR   SAESLPENC     LL_AHB3_GRP1_DisableClockLowPower\n  (*)
1344:../Drivers/STM32N6xx_HAL_Driver/Inc/stm32n6xx_ll_bus.h ****   *         AHB3LPENCR   PKALPENC      LL_AHB3_GRP1_DisableClockLowPower\n
1345:../Drivers/STM32N6xx_HAL_Driver/Inc/stm32n6xx_ll_bus.h ****   *         AHB3LPENCR   RIFSCLPENC    LL_AHB3_GRP1_DisableClockLowPower\n
1346:../Drivers/STM32N6xx_HAL_Driver/Inc/stm32n6xx_ll_bus.h ****   *         AHB3LPENCR   RISAFLPENC    LL_AHB3_GRP1_DisableClockLowPower\n
1347:../Drivers/STM32N6xx_HAL_Driver/Inc/stm32n6xx_ll_bus.h ****   *         AHB3LPENCR   IACLPENC      LL_AHB3_GRP1_DisableClockLowPower
1348:../Drivers/STM32N6xx_HAL_Driver/Inc/stm32n6xx_ll_bus.h ****   * @param  Periphs This parameter can be a combination of the following values:
1349:../Drivers/STM32N6xx_HAL_Driver/Inc/stm32n6xx_ll_bus.h ****   *         @arg @ref LL_AHB3_GRP1_PERIPH_RNG
1350:../Drivers/STM32N6xx_HAL_Driver/Inc/stm32n6xx_ll_bus.h ****   *         @arg @ref LL_AHB3_GRP1_PERIPH_HASH
1351:../Drivers/STM32N6xx_HAL_Driver/Inc/stm32n6xx_ll_bus.h ****   *         @arg @ref LL_AHB3_GRP1_PERIPH_CRYP (*)
1352:../Drivers/STM32N6xx_HAL_Driver/Inc/stm32n6xx_ll_bus.h ****   *         @arg @ref LL_AHB3_GRP1_PERIPH_SAES (*)
1353:../Drivers/STM32N6xx_HAL_Driver/Inc/stm32n6xx_ll_bus.h ****   *         @arg @ref LL_AHB3_GRP1_PERIPH_PKA
1354:../Drivers/STM32N6xx_HAL_Driver/Inc/stm32n6xx_ll_bus.h ****   *         @arg @ref LL_AHB3_GRP1_PERIPH_RIFSC
1355:../Drivers/STM32N6xx_HAL_Driver/Inc/stm32n6xx_ll_bus.h ****   *         @arg @ref LL_AHB3_GRP1_PERIPH_RISAF
1356:../Drivers/STM32N6xx_HAL_Driver/Inc/stm32n6xx_ll_bus.h ****   *         @arg @ref LL_AHB3_GRP1_PERIPH_IAC
1357:../Drivers/STM32N6xx_HAL_Driver/Inc/stm32n6xx_ll_bus.h ****   *
1358:../Drivers/STM32N6xx_HAL_Driver/Inc/stm32n6xx_ll_bus.h ****   *         (*) value not defined in all devices.
1359:../Drivers/STM32N6xx_HAL_Driver/Inc/stm32n6xx_ll_bus.h ****   * @retval None
1360:../Drivers/STM32N6xx_HAL_Driver/Inc/stm32n6xx_ll_bus.h ****   */
1361:../Drivers/STM32N6xx_HAL_Driver/Inc/stm32n6xx_ll_bus.h **** __STATIC_INLINE void LL_AHB3_GRP1_DisableClockLowPower(uint32_t Periphs)
1362:../Drivers/STM32N6xx_HAL_Driver/Inc/stm32n6xx_ll_bus.h **** {
1363:../Drivers/STM32N6xx_HAL_Driver/Inc/stm32n6xx_ll_bus.h ****   WRITE_REG(RCC->AHB3LPENCR, Periphs);
1364:../Drivers/STM32N6xx_HAL_Driver/Inc/stm32n6xx_ll_bus.h **** }
1365:../Drivers/STM32N6xx_HAL_Driver/Inc/stm32n6xx_ll_bus.h **** 
1366:../Drivers/STM32N6xx_HAL_Driver/Inc/stm32n6xx_ll_bus.h **** /**
1367:../Drivers/STM32N6xx_HAL_Driver/Inc/stm32n6xx_ll_bus.h ****   * @}
1368:../Drivers/STM32N6xx_HAL_Driver/Inc/stm32n6xx_ll_bus.h ****   */
1369:../Drivers/STM32N6xx_HAL_Driver/Inc/stm32n6xx_ll_bus.h **** 
1370:../Drivers/STM32N6xx_HAL_Driver/Inc/stm32n6xx_ll_bus.h **** /** @defgroup BUS_LL_EF_AHB4 AHB4
1371:../Drivers/STM32N6xx_HAL_Driver/Inc/stm32n6xx_ll_bus.h ****   * @{
1372:../Drivers/STM32N6xx_HAL_Driver/Inc/stm32n6xx_ll_bus.h ****   */
1373:../Drivers/STM32N6xx_HAL_Driver/Inc/stm32n6xx_ll_bus.h **** 
1374:../Drivers/STM32N6xx_HAL_Driver/Inc/stm32n6xx_ll_bus.h **** /**
1375:../Drivers/STM32N6xx_HAL_Driver/Inc/stm32n6xx_ll_bus.h ****   * @brief  Enable AHB4 peripherals clock.
1376:../Drivers/STM32N6xx_HAL_Driver/Inc/stm32n6xx_ll_bus.h ****   * @rmtoll AHB4ENSR     GPIOAENS      LL_AHB4_GRP1_EnableClock\n
1377:../Drivers/STM32N6xx_HAL_Driver/Inc/stm32n6xx_ll_bus.h ****   *         AHB4ENSR     GPIOBENS      LL_AHB4_GRP1_EnableClock\n
ARM GAS  /tmp/ccZzrCLx.s 			page 46


1378:../Drivers/STM32N6xx_HAL_Driver/Inc/stm32n6xx_ll_bus.h ****   *         AHB4ENSR     GPIOCENS      LL_AHB4_GRP1_EnableClock\n
1379:../Drivers/STM32N6xx_HAL_Driver/Inc/stm32n6xx_ll_bus.h ****   *         AHB4ENSR     GPIODENS      LL_AHB4_GRP1_EnableClock\n
1380:../Drivers/STM32N6xx_HAL_Driver/Inc/stm32n6xx_ll_bus.h ****   *         AHB4ENSR     GPIOEENS      LL_AHB4_GRP1_EnableClock\n
1381:../Drivers/STM32N6xx_HAL_Driver/Inc/stm32n6xx_ll_bus.h ****   *         AHB4ENSR     GPIOFENS      LL_AHB4_GRP1_EnableClock\n
1382:../Drivers/STM32N6xx_HAL_Driver/Inc/stm32n6xx_ll_bus.h ****   *         AHB4ENSR     GPIOGENS      LL_AHB4_GRP1_EnableClock\n
1383:../Drivers/STM32N6xx_HAL_Driver/Inc/stm32n6xx_ll_bus.h ****   *         AHB4ENSR     GPIOHENS      LL_AHB4_GRP1_EnableClock\n
1384:../Drivers/STM32N6xx_HAL_Driver/Inc/stm32n6xx_ll_bus.h ****   *         AHB4ENSR     GPIONENS      LL_AHB4_GRP1_EnableClock\n
1385:../Drivers/STM32N6xx_HAL_Driver/Inc/stm32n6xx_ll_bus.h ****   *         AHB4ENSR     GPIOOENS      LL_AHB4_GRP1_EnableClock\n
1386:../Drivers/STM32N6xx_HAL_Driver/Inc/stm32n6xx_ll_bus.h ****   *         AHB4ENSR     GPIOPENS      LL_AHB4_GRP1_EnableClock\n
1387:../Drivers/STM32N6xx_HAL_Driver/Inc/stm32n6xx_ll_bus.h ****   *         AHB4ENSR     GPIOQENS      LL_AHB4_GRP1_EnableClock\n
1388:../Drivers/STM32N6xx_HAL_Driver/Inc/stm32n6xx_ll_bus.h ****   *         AHB4ENSR     PWRENS        LL_AHB4_GRP1_EnableClock\n
1389:../Drivers/STM32N6xx_HAL_Driver/Inc/stm32n6xx_ll_bus.h ****   *         AHB4ENSR     CRCENS        LL_AHB4_GRP1_EnableClock
1390:../Drivers/STM32N6xx_HAL_Driver/Inc/stm32n6xx_ll_bus.h ****   * @param  Periphs This parameter can be a combination of the following values:
1391:../Drivers/STM32N6xx_HAL_Driver/Inc/stm32n6xx_ll_bus.h ****   *         @arg @ref LL_AHB4_GRP1_PERIPH_GPIOA
1392:../Drivers/STM32N6xx_HAL_Driver/Inc/stm32n6xx_ll_bus.h ****   *         @arg @ref LL_AHB4_GRP1_PERIPH_GPIOB
1393:../Drivers/STM32N6xx_HAL_Driver/Inc/stm32n6xx_ll_bus.h ****   *         @arg @ref LL_AHB4_GRP1_PERIPH_GPIOC
1394:../Drivers/STM32N6xx_HAL_Driver/Inc/stm32n6xx_ll_bus.h ****   *         @arg @ref LL_AHB4_GRP1_PERIPH_GPIOD
1395:../Drivers/STM32N6xx_HAL_Driver/Inc/stm32n6xx_ll_bus.h ****   *         @arg @ref LL_AHB4_GRP1_PERIPH_GPIOE
1396:../Drivers/STM32N6xx_HAL_Driver/Inc/stm32n6xx_ll_bus.h ****   *         @arg @ref LL_AHB4_GRP1_PERIPH_GPIOF
1397:../Drivers/STM32N6xx_HAL_Driver/Inc/stm32n6xx_ll_bus.h ****   *         @arg @ref LL_AHB4_GRP1_PERIPH_GPIOG
1398:../Drivers/STM32N6xx_HAL_Driver/Inc/stm32n6xx_ll_bus.h ****   *         @arg @ref LL_AHB4_GRP1_PERIPH_GPIOH
1399:../Drivers/STM32N6xx_HAL_Driver/Inc/stm32n6xx_ll_bus.h ****   *         @arg @ref LL_AHB4_GRP1_PERIPH_GPION
1400:../Drivers/STM32N6xx_HAL_Driver/Inc/stm32n6xx_ll_bus.h ****   *         @arg @ref LL_AHB4_GRP1_PERIPH_GPIOO
1401:../Drivers/STM32N6xx_HAL_Driver/Inc/stm32n6xx_ll_bus.h ****   *         @arg @ref LL_AHB4_GRP1_PERIPH_GPIOP
1402:../Drivers/STM32N6xx_HAL_Driver/Inc/stm32n6xx_ll_bus.h ****   *         @arg @ref LL_AHB4_GRP1_PERIPH_GPIOQ
1403:../Drivers/STM32N6xx_HAL_Driver/Inc/stm32n6xx_ll_bus.h ****   *         @arg @ref LL_AHB4_GRP1_PERIPH_PWR
1404:../Drivers/STM32N6xx_HAL_Driver/Inc/stm32n6xx_ll_bus.h ****   *         @arg @ref LL_AHB4_GRP1_PERIPH_CRC
1405:../Drivers/STM32N6xx_HAL_Driver/Inc/stm32n6xx_ll_bus.h ****   * @retval None
1406:../Drivers/STM32N6xx_HAL_Driver/Inc/stm32n6xx_ll_bus.h ****   */
1407:../Drivers/STM32N6xx_HAL_Driver/Inc/stm32n6xx_ll_bus.h **** __STATIC_INLINE void LL_AHB4_GRP1_EnableClock(uint32_t Periphs)
1408:../Drivers/STM32N6xx_HAL_Driver/Inc/stm32n6xx_ll_bus.h **** {
1409:../Drivers/STM32N6xx_HAL_Driver/Inc/stm32n6xx_ll_bus.h ****   __IO uint32_t tmpreg;
1410:../Drivers/STM32N6xx_HAL_Driver/Inc/stm32n6xx_ll_bus.h ****   WRITE_REG(RCC->AHB4ENSR, Periphs);
1411:../Drivers/STM32N6xx_HAL_Driver/Inc/stm32n6xx_ll_bus.h ****   /* Delay after an RCC peripheral clock enabling */
1412:../Drivers/STM32N6xx_HAL_Driver/Inc/stm32n6xx_ll_bus.h ****   tmpreg = READ_REG(RCC->AHB4ENR);
1413:../Drivers/STM32N6xx_HAL_Driver/Inc/stm32n6xx_ll_bus.h ****   (void)tmpreg;
1414:../Drivers/STM32N6xx_HAL_Driver/Inc/stm32n6xx_ll_bus.h **** }
1415:../Drivers/STM32N6xx_HAL_Driver/Inc/stm32n6xx_ll_bus.h **** 
1416:../Drivers/STM32N6xx_HAL_Driver/Inc/stm32n6xx_ll_bus.h **** /**
1417:../Drivers/STM32N6xx_HAL_Driver/Inc/stm32n6xx_ll_bus.h ****   * @brief  Check if AHB4 peripheral clock is enabled or not
1418:../Drivers/STM32N6xx_HAL_Driver/Inc/stm32n6xx_ll_bus.h ****   * @rmtoll AHB4ENR      GPIOAEN       LL_AHB4_GRP1_IsEnabledClock\n
1419:../Drivers/STM32N6xx_HAL_Driver/Inc/stm32n6xx_ll_bus.h ****   *         AHB4ENR      GPIOBEN       LL_AHB4_GRP1_IsEnabledClock\n
1420:../Drivers/STM32N6xx_HAL_Driver/Inc/stm32n6xx_ll_bus.h ****   *         AHB4ENR      GPIOCEN       LL_AHB4_GRP1_IsEnabledClock\n
1421:../Drivers/STM32N6xx_HAL_Driver/Inc/stm32n6xx_ll_bus.h ****   *         AHB4ENR      GPIODEN       LL_AHB4_GRP1_IsEnabledClock\n
1422:../Drivers/STM32N6xx_HAL_Driver/Inc/stm32n6xx_ll_bus.h ****   *         AHB4ENR      GPIOEEN       LL_AHB4_GRP1_IsEnabledClock\n
1423:../Drivers/STM32N6xx_HAL_Driver/Inc/stm32n6xx_ll_bus.h ****   *         AHB4ENR      GPIOFEN       LL_AHB4_GRP1_IsEnabledClock\n
1424:../Drivers/STM32N6xx_HAL_Driver/Inc/stm32n6xx_ll_bus.h ****   *         AHB4ENR      GPIOGEN       LL_AHB4_GRP1_IsEnabledClock\n
1425:../Drivers/STM32N6xx_HAL_Driver/Inc/stm32n6xx_ll_bus.h ****   *         AHB4ENR      GPIOHEN       LL_AHB4_GRP1_IsEnabledClock\n
1426:../Drivers/STM32N6xx_HAL_Driver/Inc/stm32n6xx_ll_bus.h ****   *         AHB4ENR      GPIONEN       LL_AHB4_GRP1_IsEnabledClock\n
1427:../Drivers/STM32N6xx_HAL_Driver/Inc/stm32n6xx_ll_bus.h ****   *         AHB4ENR      GPIOOEN       LL_AHB4_GRP1_IsEnabledClock\n
1428:../Drivers/STM32N6xx_HAL_Driver/Inc/stm32n6xx_ll_bus.h ****   *         AHB4ENR      GPIOPEN       LL_AHB4_GRP1_IsEnabledClock\n
1429:../Drivers/STM32N6xx_HAL_Driver/Inc/stm32n6xx_ll_bus.h ****   *         AHB4ENR      GPIOQEN       LL_AHB4_GRP1_IsEnabledClock\n
1430:../Drivers/STM32N6xx_HAL_Driver/Inc/stm32n6xx_ll_bus.h ****   *         AHB4ENR      PWREN         LL_AHB4_GRP1_IsEnabledClock\n
1431:../Drivers/STM32N6xx_HAL_Driver/Inc/stm32n6xx_ll_bus.h ****   *         AHB4ENR      CRCEN         LL_AHB4_GRP1_IsEnabledClock
1432:../Drivers/STM32N6xx_HAL_Driver/Inc/stm32n6xx_ll_bus.h ****   * @param  Periphs This parameter can be a combination of the following values:
1433:../Drivers/STM32N6xx_HAL_Driver/Inc/stm32n6xx_ll_bus.h ****   *         @arg @ref LL_AHB4_GRP1_PERIPH_GPIOA
1434:../Drivers/STM32N6xx_HAL_Driver/Inc/stm32n6xx_ll_bus.h ****   *         @arg @ref LL_AHB4_GRP1_PERIPH_GPIOB
ARM GAS  /tmp/ccZzrCLx.s 			page 47


1435:../Drivers/STM32N6xx_HAL_Driver/Inc/stm32n6xx_ll_bus.h ****   *         @arg @ref LL_AHB4_GRP1_PERIPH_GPIOC
1436:../Drivers/STM32N6xx_HAL_Driver/Inc/stm32n6xx_ll_bus.h ****   *         @arg @ref LL_AHB4_GRP1_PERIPH_GPIOD
1437:../Drivers/STM32N6xx_HAL_Driver/Inc/stm32n6xx_ll_bus.h ****   *         @arg @ref LL_AHB4_GRP1_PERIPH_GPIOE
1438:../Drivers/STM32N6xx_HAL_Driver/Inc/stm32n6xx_ll_bus.h ****   *         @arg @ref LL_AHB4_GRP1_PERIPH_GPIOF
1439:../Drivers/STM32N6xx_HAL_Driver/Inc/stm32n6xx_ll_bus.h ****   *         @arg @ref LL_AHB4_GRP1_PERIPH_GPIOG
1440:../Drivers/STM32N6xx_HAL_Driver/Inc/stm32n6xx_ll_bus.h ****   *         @arg @ref LL_AHB4_GRP1_PERIPH_GPIOH
1441:../Drivers/STM32N6xx_HAL_Driver/Inc/stm32n6xx_ll_bus.h ****   *         @arg @ref LL_AHB4_GRP1_PERIPH_GPION
1442:../Drivers/STM32N6xx_HAL_Driver/Inc/stm32n6xx_ll_bus.h ****   *         @arg @ref LL_AHB4_GRP1_PERIPH_GPIOO
1443:../Drivers/STM32N6xx_HAL_Driver/Inc/stm32n6xx_ll_bus.h ****   *         @arg @ref LL_AHB4_GRP1_PERIPH_GPIOP
1444:../Drivers/STM32N6xx_HAL_Driver/Inc/stm32n6xx_ll_bus.h ****   *         @arg @ref LL_AHB4_GRP1_PERIPH_GPIOQ
1445:../Drivers/STM32N6xx_HAL_Driver/Inc/stm32n6xx_ll_bus.h ****   *         @arg @ref LL_AHB4_GRP1_PERIPH_PWR
1446:../Drivers/STM32N6xx_HAL_Driver/Inc/stm32n6xx_ll_bus.h ****   *         @arg @ref LL_AHB4_GRP1_PERIPH_CRC
1447:../Drivers/STM32N6xx_HAL_Driver/Inc/stm32n6xx_ll_bus.h ****   * @retval uint32_t
1448:../Drivers/STM32N6xx_HAL_Driver/Inc/stm32n6xx_ll_bus.h ****   */
1449:../Drivers/STM32N6xx_HAL_Driver/Inc/stm32n6xx_ll_bus.h **** __STATIC_INLINE uint32_t LL_AHB4_GRP1_IsEnabledClock(uint32_t Periphs)
1450:../Drivers/STM32N6xx_HAL_Driver/Inc/stm32n6xx_ll_bus.h **** {
1451:../Drivers/STM32N6xx_HAL_Driver/Inc/stm32n6xx_ll_bus.h ****   return ((READ_BIT(RCC->AHB4ENR, Periphs) == Periphs) ? 1UL : 0UL);
1452:../Drivers/STM32N6xx_HAL_Driver/Inc/stm32n6xx_ll_bus.h **** }
1453:../Drivers/STM32N6xx_HAL_Driver/Inc/stm32n6xx_ll_bus.h **** 
1454:../Drivers/STM32N6xx_HAL_Driver/Inc/stm32n6xx_ll_bus.h **** /**
1455:../Drivers/STM32N6xx_HAL_Driver/Inc/stm32n6xx_ll_bus.h ****   * @brief  Disable AHB4 peripherals clock.
1456:../Drivers/STM32N6xx_HAL_Driver/Inc/stm32n6xx_ll_bus.h ****   * @rmtoll AHB4ENCR     GPIOAENC      LL_AHB4_GRP1_DisableClock\n
1457:../Drivers/STM32N6xx_HAL_Driver/Inc/stm32n6xx_ll_bus.h ****   *         AHB4ENCR     GPIOBENC      LL_AHB4_GRP1_DisableClock\n
1458:../Drivers/STM32N6xx_HAL_Driver/Inc/stm32n6xx_ll_bus.h ****   *         AHB4ENCR     GPIOCENC      LL_AHB4_GRP1_DisableClock\n
1459:../Drivers/STM32N6xx_HAL_Driver/Inc/stm32n6xx_ll_bus.h ****   *         AHB4ENCR     GPIODENC      LL_AHB4_GRP1_DisableClock\n
1460:../Drivers/STM32N6xx_HAL_Driver/Inc/stm32n6xx_ll_bus.h ****   *         AHB4ENCR     GPIOEENC      LL_AHB4_GRP1_DisableClock\n
1461:../Drivers/STM32N6xx_HAL_Driver/Inc/stm32n6xx_ll_bus.h ****   *         AHB4ENCR     GPIOFENC      LL_AHB4_GRP1_DisableClock\n
1462:../Drivers/STM32N6xx_HAL_Driver/Inc/stm32n6xx_ll_bus.h ****   *         AHB4ENCR     GPIOGENC      LL_AHB4_GRP1_DisableClock\n
1463:../Drivers/STM32N6xx_HAL_Driver/Inc/stm32n6xx_ll_bus.h ****   *         AHB4ENCR     GPIOHENC      LL_AHB4_GRP1_DisableClock\n
1464:../Drivers/STM32N6xx_HAL_Driver/Inc/stm32n6xx_ll_bus.h ****   *         AHB4ENCR     GPIONENC      LL_AHB4_GRP1_DisableClock\n
1465:../Drivers/STM32N6xx_HAL_Driver/Inc/stm32n6xx_ll_bus.h ****   *         AHB4ENCR     GPIOOENC      LL_AHB4_GRP1_DisableClock\n
1466:../Drivers/STM32N6xx_HAL_Driver/Inc/stm32n6xx_ll_bus.h ****   *         AHB4ENCR     GPIOPENC      LL_AHB4_GRP1_DisableClock\n
1467:../Drivers/STM32N6xx_HAL_Driver/Inc/stm32n6xx_ll_bus.h ****   *         AHB4ENCR     GPIOQENC      LL_AHB4_GRP1_DisableClock\n
1468:../Drivers/STM32N6xx_HAL_Driver/Inc/stm32n6xx_ll_bus.h ****   *         AHB4ENCR     PWRENC        LL_AHB4_GRP1_DisableClock\n
1469:../Drivers/STM32N6xx_HAL_Driver/Inc/stm32n6xx_ll_bus.h ****   *         AHB4ENCR     CRCENC        LL_AHB4_GRP1_DisableClock
1470:../Drivers/STM32N6xx_HAL_Driver/Inc/stm32n6xx_ll_bus.h ****   * @param  Periphs This parameter can be a combination of the following values:
1471:../Drivers/STM32N6xx_HAL_Driver/Inc/stm32n6xx_ll_bus.h ****   *         @arg @ref LL_AHB4_GRP1_PERIPH_GPIOA
1472:../Drivers/STM32N6xx_HAL_Driver/Inc/stm32n6xx_ll_bus.h ****   *         @arg @ref LL_AHB4_GRP1_PERIPH_GPIOB
1473:../Drivers/STM32N6xx_HAL_Driver/Inc/stm32n6xx_ll_bus.h ****   *         @arg @ref LL_AHB4_GRP1_PERIPH_GPIOC
1474:../Drivers/STM32N6xx_HAL_Driver/Inc/stm32n6xx_ll_bus.h ****   *         @arg @ref LL_AHB4_GRP1_PERIPH_GPIOD
1475:../Drivers/STM32N6xx_HAL_Driver/Inc/stm32n6xx_ll_bus.h ****   *         @arg @ref LL_AHB4_GRP1_PERIPH_GPIOE
1476:../Drivers/STM32N6xx_HAL_Driver/Inc/stm32n6xx_ll_bus.h ****   *         @arg @ref LL_AHB4_GRP1_PERIPH_GPIOF
1477:../Drivers/STM32N6xx_HAL_Driver/Inc/stm32n6xx_ll_bus.h ****   *         @arg @ref LL_AHB4_GRP1_PERIPH_GPIOG
1478:../Drivers/STM32N6xx_HAL_Driver/Inc/stm32n6xx_ll_bus.h ****   *         @arg @ref LL_AHB4_GRP1_PERIPH_GPIOH
1479:../Drivers/STM32N6xx_HAL_Driver/Inc/stm32n6xx_ll_bus.h ****   *         @arg @ref LL_AHB4_GRP1_PERIPH_GPION
1480:../Drivers/STM32N6xx_HAL_Driver/Inc/stm32n6xx_ll_bus.h ****   *         @arg @ref LL_AHB4_GRP1_PERIPH_GPIOO
1481:../Drivers/STM32N6xx_HAL_Driver/Inc/stm32n6xx_ll_bus.h ****   *         @arg @ref LL_AHB4_GRP1_PERIPH_GPIOP
1482:../Drivers/STM32N6xx_HAL_Driver/Inc/stm32n6xx_ll_bus.h ****   *         @arg @ref LL_AHB4_GRP1_PERIPH_GPIOQ
1483:../Drivers/STM32N6xx_HAL_Driver/Inc/stm32n6xx_ll_bus.h ****   *         @arg @ref LL_AHB4_GRP1_PERIPH_PWR
1484:../Drivers/STM32N6xx_HAL_Driver/Inc/stm32n6xx_ll_bus.h ****   *         @arg @ref LL_AHB4_GRP1_PERIPH_CRC
1485:../Drivers/STM32N6xx_HAL_Driver/Inc/stm32n6xx_ll_bus.h ****   * @retval None
1486:../Drivers/STM32N6xx_HAL_Driver/Inc/stm32n6xx_ll_bus.h ****   */
1487:../Drivers/STM32N6xx_HAL_Driver/Inc/stm32n6xx_ll_bus.h **** __STATIC_INLINE void LL_AHB4_GRP1_DisableClock(uint32_t Periphs)
1488:../Drivers/STM32N6xx_HAL_Driver/Inc/stm32n6xx_ll_bus.h **** {
1489:../Drivers/STM32N6xx_HAL_Driver/Inc/stm32n6xx_ll_bus.h ****   WRITE_REG(RCC->AHB4ENCR, Periphs);
1490:../Drivers/STM32N6xx_HAL_Driver/Inc/stm32n6xx_ll_bus.h **** }
1491:../Drivers/STM32N6xx_HAL_Driver/Inc/stm32n6xx_ll_bus.h **** 
ARM GAS  /tmp/ccZzrCLx.s 			page 48


1492:../Drivers/STM32N6xx_HAL_Driver/Inc/stm32n6xx_ll_bus.h **** /**
1493:../Drivers/STM32N6xx_HAL_Driver/Inc/stm32n6xx_ll_bus.h ****   * @brief  Force AHB4 peripherals reset.
1494:../Drivers/STM32N6xx_HAL_Driver/Inc/stm32n6xx_ll_bus.h ****   * @rmtoll AHB4RSTSR     GPIOARSTS      LL_AHB4_GRP1_ForceReset\n
1495:../Drivers/STM32N6xx_HAL_Driver/Inc/stm32n6xx_ll_bus.h ****   *         AHB4RSTSR     GPIOBRSTS      LL_AHB4_GRP1_ForceReset\n
1496:../Drivers/STM32N6xx_HAL_Driver/Inc/stm32n6xx_ll_bus.h ****   *         AHB4RSTSR     GPIOCRSTS      LL_AHB4_GRP1_ForceReset\n
1497:../Drivers/STM32N6xx_HAL_Driver/Inc/stm32n6xx_ll_bus.h ****   *         AHB4RSTSR     GPIODRSTS      LL_AHB4_GRP1_ForceReset\n
1498:../Drivers/STM32N6xx_HAL_Driver/Inc/stm32n6xx_ll_bus.h ****   *         AHB4RSTSR     GPIOERSTS      LL_AHB4_GRP1_ForceReset\n
1499:../Drivers/STM32N6xx_HAL_Driver/Inc/stm32n6xx_ll_bus.h ****   *         AHB4RSTSR     GPIOFRSTS      LL_AHB4_GRP1_ForceReset\n
1500:../Drivers/STM32N6xx_HAL_Driver/Inc/stm32n6xx_ll_bus.h ****   *         AHB4RSTSR     GPIOGRSTS      LL_AHB4_GRP1_ForceReset\n
1501:../Drivers/STM32N6xx_HAL_Driver/Inc/stm32n6xx_ll_bus.h ****   *         AHB4RSTSR     GPIOHRSTS      LL_AHB4_GRP1_ForceReset\n
1502:../Drivers/STM32N6xx_HAL_Driver/Inc/stm32n6xx_ll_bus.h ****   *         AHB4RSTSR     GPIONRSTS      LL_AHB4_GRP1_ForceReset\n
1503:../Drivers/STM32N6xx_HAL_Driver/Inc/stm32n6xx_ll_bus.h ****   *         AHB4RSTSR     GPIOORSTS      LL_AHB4_GRP1_ForceReset\n
1504:../Drivers/STM32N6xx_HAL_Driver/Inc/stm32n6xx_ll_bus.h ****   *         AHB4RSTSR     GPIOPRSTS      LL_AHB4_GRP1_ForceReset\n
1505:../Drivers/STM32N6xx_HAL_Driver/Inc/stm32n6xx_ll_bus.h ****   *         AHB4RSTSR     GPIOQRSTS      LL_AHB4_GRP1_ForceReset\n
1506:../Drivers/STM32N6xx_HAL_Driver/Inc/stm32n6xx_ll_bus.h ****   *         AHB4RSTSR     CRCRSTS        LL_AHB4_GRP1_ForceReset\n
1507:../Drivers/STM32N6xx_HAL_Driver/Inc/stm32n6xx_ll_bus.h ****   *         AHB4RSTSR     BKPRAMRSTS     LL_AHB4_GRP1_ForceReset
1508:../Drivers/STM32N6xx_HAL_Driver/Inc/stm32n6xx_ll_bus.h ****   * @param  Periphs This parameter can be a combination of the following values:
1509:../Drivers/STM32N6xx_HAL_Driver/Inc/stm32n6xx_ll_bus.h ****   *         @arg @ref LL_AHB4_GRP1_PERIPH_GPIOA
1510:../Drivers/STM32N6xx_HAL_Driver/Inc/stm32n6xx_ll_bus.h ****   *         @arg @ref LL_AHB4_GRP1_PERIPH_GPIOB
1511:../Drivers/STM32N6xx_HAL_Driver/Inc/stm32n6xx_ll_bus.h ****   *         @arg @ref LL_AHB4_GRP1_PERIPH_GPIOC
1512:../Drivers/STM32N6xx_HAL_Driver/Inc/stm32n6xx_ll_bus.h ****   *         @arg @ref LL_AHB4_GRP1_PERIPH_GPIOD
1513:../Drivers/STM32N6xx_HAL_Driver/Inc/stm32n6xx_ll_bus.h ****   *         @arg @ref LL_AHB4_GRP1_PERIPH_GPIOE
1514:../Drivers/STM32N6xx_HAL_Driver/Inc/stm32n6xx_ll_bus.h ****   *         @arg @ref LL_AHB4_GRP1_PERIPH_GPIOF
1515:../Drivers/STM32N6xx_HAL_Driver/Inc/stm32n6xx_ll_bus.h ****   *         @arg @ref LL_AHB4_GRP1_PERIPH_GPIOG
1516:../Drivers/STM32N6xx_HAL_Driver/Inc/stm32n6xx_ll_bus.h ****   *         @arg @ref LL_AHB4_GRP1_PERIPH_GPIOH
1517:../Drivers/STM32N6xx_HAL_Driver/Inc/stm32n6xx_ll_bus.h ****   *         @arg @ref LL_AHB4_GRP1_PERIPH_GPION
1518:../Drivers/STM32N6xx_HAL_Driver/Inc/stm32n6xx_ll_bus.h ****   *         @arg @ref LL_AHB4_GRP1_PERIPH_GPIOO
1519:../Drivers/STM32N6xx_HAL_Driver/Inc/stm32n6xx_ll_bus.h ****   *         @arg @ref LL_AHB4_GRP1_PERIPH_GPIOP
1520:../Drivers/STM32N6xx_HAL_Driver/Inc/stm32n6xx_ll_bus.h ****   *         @arg @ref LL_AHB4_GRP1_PERIPH_GPIOQ
1521:../Drivers/STM32N6xx_HAL_Driver/Inc/stm32n6xx_ll_bus.h ****   *         @arg @ref LL_AHB4_GRP1_PERIPH_PWR
1522:../Drivers/STM32N6xx_HAL_Driver/Inc/stm32n6xx_ll_bus.h ****   *         @arg @ref LL_AHB4_GRP1_PERIPH_CRC
1523:../Drivers/STM32N6xx_HAL_Driver/Inc/stm32n6xx_ll_bus.h ****   * @retval None
1524:../Drivers/STM32N6xx_HAL_Driver/Inc/stm32n6xx_ll_bus.h ****   */
1525:../Drivers/STM32N6xx_HAL_Driver/Inc/stm32n6xx_ll_bus.h **** __STATIC_INLINE void LL_AHB4_GRP1_ForceReset(uint32_t Periphs)
1526:../Drivers/STM32N6xx_HAL_Driver/Inc/stm32n6xx_ll_bus.h **** {
1527:../Drivers/STM32N6xx_HAL_Driver/Inc/stm32n6xx_ll_bus.h ****   WRITE_REG(RCC->AHB4RSTSR, Periphs);
1528:../Drivers/STM32N6xx_HAL_Driver/Inc/stm32n6xx_ll_bus.h **** }
1529:../Drivers/STM32N6xx_HAL_Driver/Inc/stm32n6xx_ll_bus.h **** 
1530:../Drivers/STM32N6xx_HAL_Driver/Inc/stm32n6xx_ll_bus.h **** /**
1531:../Drivers/STM32N6xx_HAL_Driver/Inc/stm32n6xx_ll_bus.h ****   * @brief  Release AHB4 peripherals reset.
1532:../Drivers/STM32N6xx_HAL_Driver/Inc/stm32n6xx_ll_bus.h ****   * @rmtoll AHB4RSTCR     GPIOARSTC      LL_AHB4_GRP1_ReleaseReset\n
1533:../Drivers/STM32N6xx_HAL_Driver/Inc/stm32n6xx_ll_bus.h ****   *         AHB4RSTCR     GPIOBRSTC      LL_AHB4_GRP1_ReleaseReset\n
1534:../Drivers/STM32N6xx_HAL_Driver/Inc/stm32n6xx_ll_bus.h ****   *         AHB4RSTCR     GPIOCRSTC      LL_AHB4_GRP1_ReleaseReset\n
1535:../Drivers/STM32N6xx_HAL_Driver/Inc/stm32n6xx_ll_bus.h ****   *         AHB4RSTCR     GPIODRSTC      LL_AHB4_GRP1_ReleaseReset\n
1536:../Drivers/STM32N6xx_HAL_Driver/Inc/stm32n6xx_ll_bus.h ****   *         AHB4RSTCR     GPIOERSTC      LL_AHB4_GRP1_ReleaseReset\n
1537:../Drivers/STM32N6xx_HAL_Driver/Inc/stm32n6xx_ll_bus.h ****   *         AHB4RSTCR     GPIOFRSTC      LL_AHB4_GRP1_ReleaseReset\n
1538:../Drivers/STM32N6xx_HAL_Driver/Inc/stm32n6xx_ll_bus.h ****   *         AHB4RSTCR     GPIOGRSTC      LL_AHB4_GRP1_ReleaseReset\n
1539:../Drivers/STM32N6xx_HAL_Driver/Inc/stm32n6xx_ll_bus.h ****   *         AHB4RSTCR     GPIOHRSTC      LL_AHB4_GRP1_ReleaseReset\n
1540:../Drivers/STM32N6xx_HAL_Driver/Inc/stm32n6xx_ll_bus.h ****   *         AHB4RSTCR     GPIONRSTC      LL_AHB4_GRP1_ReleaseReset\n
1541:../Drivers/STM32N6xx_HAL_Driver/Inc/stm32n6xx_ll_bus.h ****   *         AHB4RSTCR     GPIOORSTC      LL_AHB4_GRP1_ReleaseReset\n
1542:../Drivers/STM32N6xx_HAL_Driver/Inc/stm32n6xx_ll_bus.h ****   *         AHB4RSTCR     GPIOPRSTC      LL_AHB4_GRP1_ReleaseReset\n
1543:../Drivers/STM32N6xx_HAL_Driver/Inc/stm32n6xx_ll_bus.h ****   *         AHB4RSTCR     GPIOQRSTC      LL_AHB4_GRP1_ReleaseReset\n
1544:../Drivers/STM32N6xx_HAL_Driver/Inc/stm32n6xx_ll_bus.h ****   *         AHB4RSTCR     CRCRSTC        LL_AHB4_GRP1_ReleaseReset\n
1545:../Drivers/STM32N6xx_HAL_Driver/Inc/stm32n6xx_ll_bus.h ****   *         AHB4RSTCR     BKPRAMRSTC     LL_AHB4_GRP1_ReleaseReset
1546:../Drivers/STM32N6xx_HAL_Driver/Inc/stm32n6xx_ll_bus.h ****   * @param  Periphs This parameter can be a combination of the following values:
1547:../Drivers/STM32N6xx_HAL_Driver/Inc/stm32n6xx_ll_bus.h ****   *         @arg @ref LL_AHB4_GRP1_PERIPH_GPIOA
1548:../Drivers/STM32N6xx_HAL_Driver/Inc/stm32n6xx_ll_bus.h ****   *         @arg @ref LL_AHB4_GRP1_PERIPH_GPIOB
ARM GAS  /tmp/ccZzrCLx.s 			page 49


1549:../Drivers/STM32N6xx_HAL_Driver/Inc/stm32n6xx_ll_bus.h ****   *         @arg @ref LL_AHB4_GRP1_PERIPH_GPIOC
1550:../Drivers/STM32N6xx_HAL_Driver/Inc/stm32n6xx_ll_bus.h ****   *         @arg @ref LL_AHB4_GRP1_PERIPH_GPIOD
1551:../Drivers/STM32N6xx_HAL_Driver/Inc/stm32n6xx_ll_bus.h ****   *         @arg @ref LL_AHB4_GRP1_PERIPH_GPIOE
1552:../Drivers/STM32N6xx_HAL_Driver/Inc/stm32n6xx_ll_bus.h ****   *         @arg @ref LL_AHB4_GRP1_PERIPH_GPIOF
1553:../Drivers/STM32N6xx_HAL_Driver/Inc/stm32n6xx_ll_bus.h ****   *         @arg @ref LL_AHB4_GRP1_PERIPH_GPIOG
1554:../Drivers/STM32N6xx_HAL_Driver/Inc/stm32n6xx_ll_bus.h ****   *         @arg @ref LL_AHB4_GRP1_PERIPH_GPIOH
1555:../Drivers/STM32N6xx_HAL_Driver/Inc/stm32n6xx_ll_bus.h ****   *         @arg @ref LL_AHB4_GRP1_PERIPH_GPION
1556:../Drivers/STM32N6xx_HAL_Driver/Inc/stm32n6xx_ll_bus.h ****   *         @arg @ref LL_AHB4_GRP1_PERIPH_GPIOO
1557:../Drivers/STM32N6xx_HAL_Driver/Inc/stm32n6xx_ll_bus.h ****   *         @arg @ref LL_AHB4_GRP1_PERIPH_GPIOP
1558:../Drivers/STM32N6xx_HAL_Driver/Inc/stm32n6xx_ll_bus.h ****   *         @arg @ref LL_AHB4_GRP1_PERIPH_GPIOQ
1559:../Drivers/STM32N6xx_HAL_Driver/Inc/stm32n6xx_ll_bus.h ****   *         @arg @ref LL_AHB4_GRP1_PERIPH_PWR
1560:../Drivers/STM32N6xx_HAL_Driver/Inc/stm32n6xx_ll_bus.h ****   *         @arg @ref LL_AHB4_GRP1_PERIPH_CRC
1561:../Drivers/STM32N6xx_HAL_Driver/Inc/stm32n6xx_ll_bus.h ****   * @retval None
1562:../Drivers/STM32N6xx_HAL_Driver/Inc/stm32n6xx_ll_bus.h ****   */
1563:../Drivers/STM32N6xx_HAL_Driver/Inc/stm32n6xx_ll_bus.h **** __STATIC_INLINE void LL_AHB4_GRP1_ReleaseReset(uint32_t Periphs)
1564:../Drivers/STM32N6xx_HAL_Driver/Inc/stm32n6xx_ll_bus.h **** {
1565:../Drivers/STM32N6xx_HAL_Driver/Inc/stm32n6xx_ll_bus.h ****   WRITE_REG(RCC->AHB4RSTCR, Periphs);
1566:../Drivers/STM32N6xx_HAL_Driver/Inc/stm32n6xx_ll_bus.h **** }
1567:../Drivers/STM32N6xx_HAL_Driver/Inc/stm32n6xx_ll_bus.h **** 
1568:../Drivers/STM32N6xx_HAL_Driver/Inc/stm32n6xx_ll_bus.h **** /**
1569:../Drivers/STM32N6xx_HAL_Driver/Inc/stm32n6xx_ll_bus.h ****   * @brief  Enable AHB4 peripherals clock during Low Power mode.
1570:../Drivers/STM32N6xx_HAL_Driver/Inc/stm32n6xx_ll_bus.h ****   * @rmtoll AHB4LPENSR    GPIOALPENS     LL_AHB4_GRP1_EnableClockLowPower\n
1571:../Drivers/STM32N6xx_HAL_Driver/Inc/stm32n6xx_ll_bus.h ****   *         AHB4LPENSR    GPIOBLPENS     LL_AHB4_GRP1_EnableClockLowPower\n
1572:../Drivers/STM32N6xx_HAL_Driver/Inc/stm32n6xx_ll_bus.h ****   *         AHB4LPENSR    GPIOCLPENS     LL_AHB4_GRP1_EnableClockLowPower\n
1573:../Drivers/STM32N6xx_HAL_Driver/Inc/stm32n6xx_ll_bus.h ****   *         AHB4LPENSR    GPIODLPENS     LL_AHB4_GRP1_EnableClockLowPower\n
1574:../Drivers/STM32N6xx_HAL_Driver/Inc/stm32n6xx_ll_bus.h ****   *         AHB4LPENSR    GPIOELPENS     LL_AHB4_GRP1_EnableClockLowPower\n
1575:../Drivers/STM32N6xx_HAL_Driver/Inc/stm32n6xx_ll_bus.h ****   *         AHB4LPENSR    GPIOFLPENS     LL_AHB4_GRP1_EnableClockLowPower\n
1576:../Drivers/STM32N6xx_HAL_Driver/Inc/stm32n6xx_ll_bus.h ****   *         AHB4LPENSR    GPIOGLPENS     LL_AHB4_GRP1_EnableClockLowPower\n
1577:../Drivers/STM32N6xx_HAL_Driver/Inc/stm32n6xx_ll_bus.h ****   *         AHB4LPENSR    GPIOHLPENS     LL_AHB4_GRP1_EnableClockLowPower\n
1578:../Drivers/STM32N6xx_HAL_Driver/Inc/stm32n6xx_ll_bus.h ****   *         AHB4LPENSR    GPIONLPENS     LL_AHB4_GRP1_EnableClockLowPower\n
1579:../Drivers/STM32N6xx_HAL_Driver/Inc/stm32n6xx_ll_bus.h ****   *         AHB4LPENSR    GPIOOLPENS     LL_AHB4_GRP1_EnableClockLowPower\n
1580:../Drivers/STM32N6xx_HAL_Driver/Inc/stm32n6xx_ll_bus.h ****   *         AHB4LPENSR    GPIOPLPENS     LL_AHB4_GRP1_EnableClockLowPower\n
1581:../Drivers/STM32N6xx_HAL_Driver/Inc/stm32n6xx_ll_bus.h ****   *         AHB4LPENSR    GPIOQLPENS     LL_AHB4_GRP1_EnableClockLowPower\n
