ARM GAS  /tmp/ccb319AI.s 			page 1


   1              		.arch armv8.1-m.main
   2              		.fpu fpv5-d16
   3              		.arch_extension dsp
   4              		.arch_extension fp
   5              		.arch_extension fp.dp
   6              		.arch_extension mve
   7              		.arch_extension mve.fp
   8              		.eabi_attribute 5, "cortex-m55"
   9              		.eabi_attribute 28, 1
  10              		.eabi_attribute 20, 1
  11              		.eabi_attribute 21, 1
  12              		.eabi_attribute 23, 3
  13              		.eabi_attribute 24, 1
  14              		.eabi_attribute 25, 1
  15              		.eabi_attribute 26, 1
  16              		.eabi_attribute 30, 1
  17              		.eabi_attribute 34, 1
  18              		.eabi_attribute 38, 1
  19              		.eabi_attribute 18, 4
  20              		.file	"stm32n6xx_hal_pwr_ex.c"
  21              		.text
  22              	.Ltext0:
  23              		.cfi_sections	.debug_frame
  24              		.file 1 "../Drivers/STM32N6xx_HAL_Driver/Src/stm32n6xx_hal_pwr_ex.c"
  25              		.section	.text.HAL_PWREx_ConfigSupply,"ax",%progbits
  26              		.align	1
  27              		.global	HAL_PWREx_ConfigSupply
  28              		.syntax unified
  29              		.thumb
  30              		.thumb_func
  32              	HAL_PWREx_ConfigSupply:
  33              	.LVL0:
  34              	.LFB881:
   1:../Drivers/STM32N6xx_HAL_Driver/Src/stm32n6xx_hal_pwr_ex.c **** /**
   2:../Drivers/STM32N6xx_HAL_Driver/Src/stm32n6xx_hal_pwr_ex.c ****   ******************************************************************************
   3:../Drivers/STM32N6xx_HAL_Driver/Src/stm32n6xx_hal_pwr_ex.c ****   * @file    stm32n6xx_hal_pwr_ex.c
   4:../Drivers/STM32N6xx_HAL_Driver/Src/stm32n6xx_hal_pwr_ex.c ****   * @author  MCD Application Team
   5:../Drivers/STM32N6xx_HAL_Driver/Src/stm32n6xx_hal_pwr_ex.c ****   * @brief   Extended PWR HAL module driver.
   6:../Drivers/STM32N6xx_HAL_Driver/Src/stm32n6xx_hal_pwr_ex.c ****   *          This file provides firmware functions to manage the following
   7:../Drivers/STM32N6xx_HAL_Driver/Src/stm32n6xx_hal_pwr_ex.c ****   *          functionalities of the Power Controller extension peripheral :
   8:../Drivers/STM32N6xx_HAL_Driver/Src/stm32n6xx_hal_pwr_ex.c ****   *           + Power Supply Control Functions
   9:../Drivers/STM32N6xx_HAL_Driver/Src/stm32n6xx_hal_pwr_ex.c ****   *           + Low Power Control Functions
  10:../Drivers/STM32N6xx_HAL_Driver/Src/stm32n6xx_hal_pwr_ex.c ****   *           + Voltage Monitoring Functions
  11:../Drivers/STM32N6xx_HAL_Driver/Src/stm32n6xx_hal_pwr_ex.c ****   *           + Memories Retention Functions
  12:../Drivers/STM32N6xx_HAL_Driver/Src/stm32n6xx_hal_pwr_ex.c ****   *           + I/O Pull-Up Pull-Down Configuration Functions
  13:../Drivers/STM32N6xx_HAL_Driver/Src/stm32n6xx_hal_pwr_ex.c ****   ******************************************************************************
  14:../Drivers/STM32N6xx_HAL_Driver/Src/stm32n6xx_hal_pwr_ex.c ****   * @attention
  15:../Drivers/STM32N6xx_HAL_Driver/Src/stm32n6xx_hal_pwr_ex.c ****   *
  16:../Drivers/STM32N6xx_HAL_Driver/Src/stm32n6xx_hal_pwr_ex.c ****   * Copyright (c) 2023 STMicroelectronics.
  17:../Drivers/STM32N6xx_HAL_Driver/Src/stm32n6xx_hal_pwr_ex.c ****   * All rights reserved.
  18:../Drivers/STM32N6xx_HAL_Driver/Src/stm32n6xx_hal_pwr_ex.c ****   *
  19:../Drivers/STM32N6xx_HAL_Driver/Src/stm32n6xx_hal_pwr_ex.c ****   * This software is licensed under terms that can be found in the LICENSE file
  20:../Drivers/STM32N6xx_HAL_Driver/Src/stm32n6xx_hal_pwr_ex.c ****   * in the root directory of this software component.
  21:../Drivers/STM32N6xx_HAL_Driver/Src/stm32n6xx_hal_pwr_ex.c ****   * If no LICENSE file comes with this software, it is provided AS-IS.
  22:../Drivers/STM32N6xx_HAL_Driver/Src/stm32n6xx_hal_pwr_ex.c ****   *
  23:../Drivers/STM32N6xx_HAL_Driver/Src/stm32n6xx_hal_pwr_ex.c ****   ******************************************************************************
  24:../Drivers/STM32N6xx_HAL_Driver/Src/stm32n6xx_hal_pwr_ex.c ****   @verbatim
ARM GAS  /tmp/ccb319AI.s 			page 2


  25:../Drivers/STM32N6xx_HAL_Driver/Src/stm32n6xx_hal_pwr_ex.c ****   ==============================================================================
  26:../Drivers/STM32N6xx_HAL_Driver/Src/stm32n6xx_hal_pwr_ex.c ****                         ##### How to use this driver #####
  27:../Drivers/STM32N6xx_HAL_Driver/Src/stm32n6xx_hal_pwr_ex.c ****   ==============================================================================
  28:../Drivers/STM32N6xx_HAL_Driver/Src/stm32n6xx_hal_pwr_ex.c ****   [..]
  29:../Drivers/STM32N6xx_HAL_Driver/Src/stm32n6xx_hal_pwr_ex.c ****    (#) Call HAL_PWREx_ConfigSupply() function to configure the regulator supply
  30:../Drivers/STM32N6xx_HAL_Driver/Src/stm32n6xx_hal_pwr_ex.c ****        with the following different setups according to hardware:
  31:../Drivers/STM32N6xx_HAL_Driver/Src/stm32n6xx_hal_pwr_ex.c ****        (+) PWR_SMPS_SUPPLY
  32:../Drivers/STM32N6xx_HAL_Driver/Src/stm32n6xx_hal_pwr_ex.c ****        (+) PWR_EXTERNAL_SOURCE_SUPPLY
  33:../Drivers/STM32N6xx_HAL_Driver/Src/stm32n6xx_hal_pwr_ex.c **** 
  34:../Drivers/STM32N6xx_HAL_Driver/Src/stm32n6xx_hal_pwr_ex.c ****    (#) Call HAL_PWREx_GetSupplyConfig() function to get the current supply setup.
  35:../Drivers/STM32N6xx_HAL_Driver/Src/stm32n6xx_hal_pwr_ex.c **** 
  36:../Drivers/STM32N6xx_HAL_Driver/Src/stm32n6xx_hal_pwr_ex.c ****    (#) Call HAL_PWREx_ControlVoltageScaling() function to configure the main
  37:../Drivers/STM32N6xx_HAL_Driver/Src/stm32n6xx_hal_pwr_ex.c ****        internal regulator output voltage. The voltage scaling could be one of
  38:../Drivers/STM32N6xx_HAL_Driver/Src/stm32n6xx_hal_pwr_ex.c ****        the following scales :
  39:../Drivers/STM32N6xx_HAL_Driver/Src/stm32n6xx_hal_pwr_ex.c ****        (+) PWR_REGULATOR_VOLTAGE_SCALE0
  40:../Drivers/STM32N6xx_HAL_Driver/Src/stm32n6xx_hal_pwr_ex.c ****        (+) PWR_REGULATOR_VOLTAGE_SCALE1
  41:../Drivers/STM32N6xx_HAL_Driver/Src/stm32n6xx_hal_pwr_ex.c **** 
  42:../Drivers/STM32N6xx_HAL_Driver/Src/stm32n6xx_hal_pwr_ex.c ****    (#) Call HAL_PWREx_GetVoltageRange() function to get the current output
  43:../Drivers/STM32N6xx_HAL_Driver/Src/stm32n6xx_hal_pwr_ex.c ****        voltage applied to the main regulator.
  44:../Drivers/STM32N6xx_HAL_Driver/Src/stm32n6xx_hal_pwr_ex.c **** 
  45:../Drivers/STM32N6xx_HAL_Driver/Src/stm32n6xx_hal_pwr_ex.c ****    (#) Call HAL_PWREx_ControlStopModeVoltageScaling() function to configure the main
  46:../Drivers/STM32N6xx_HAL_Driver/Src/stm32n6xx_hal_pwr_ex.c ****        internal regulator output voltage in STOP mode. The voltage scaling could be one of
  47:../Drivers/STM32N6xx_HAL_Driver/Src/stm32n6xx_hal_pwr_ex.c ****        the following scales :
  48:../Drivers/STM32N6xx_HAL_Driver/Src/stm32n6xx_hal_pwr_ex.c ****        (+) PWR_REGULATOR_STOP_VOLTAGE_SCALE3
  49:../Drivers/STM32N6xx_HAL_Driver/Src/stm32n6xx_hal_pwr_ex.c ****        (+) PWR_REGULATOR_STOP_VOLTAGE_SCALE5
  50:../Drivers/STM32N6xx_HAL_Driver/Src/stm32n6xx_hal_pwr_ex.c **** 
  51:../Drivers/STM32N6xx_HAL_Driver/Src/stm32n6xx_hal_pwr_ex.c ****    (#) Call HAL_PWREx_GetStopModeVoltageRange() function to get the current output
  52:../Drivers/STM32N6xx_HAL_Driver/Src/stm32n6xx_hal_pwr_ex.c ****        voltage applied to the main regulator in STOP mode.
  53:../Drivers/STM32N6xx_HAL_Driver/Src/stm32n6xx_hal_pwr_ex.c **** 
  54:../Drivers/STM32N6xx_HAL_Driver/Src/stm32n6xx_hal_pwr_ex.c ****    (#) Call HAL_PWREx_EnableWakeUpPin() functions to enable the Wake-up pin
  55:../Drivers/STM32N6xx_HAL_Driver/Src/stm32n6xx_hal_pwr_ex.c ****        functionality for the selected pin.
  56:../Drivers/STM32N6xx_HAL_Driver/Src/stm32n6xx_hal_pwr_ex.c **** 
  57:../Drivers/STM32N6xx_HAL_Driver/Src/stm32n6xx_hal_pwr_ex.c ****    (#) Call HAL_PWREx_EnableBkupRAMRetention() and HAL_PWREx_DisableBkupRAMRetention()
  58:../Drivers/STM32N6xx_HAL_Driver/Src/stm32n6xx_hal_pwr_ex.c ****        functions to enable and disable BKPSRAM retention in Standby mode.
  59:../Drivers/STM32N6xx_HAL_Driver/Src/stm32n6xx_hal_pwr_ex.c **** 
  60:../Drivers/STM32N6xx_HAL_Driver/Src/stm32n6xx_hal_pwr_ex.c ****    (#) Call HAL_PWREx_EnableTCMRetention() and HAL_PWREx_DisableTCMRetention() functions
  61:../Drivers/STM32N6xx_HAL_Driver/Src/stm32n6xx_hal_pwr_ex.c ****        to enable and disable the I-TCM and D-TCM RAMs retention in Standby mode.
  62:../Drivers/STM32N6xx_HAL_Driver/Src/stm32n6xx_hal_pwr_ex.c **** 
  63:../Drivers/STM32N6xx_HAL_Driver/Src/stm32n6xx_hal_pwr_ex.c ****    (#) Call HAL_PWREx_EnableTCMFLXRetention() and HAL_PWREx_DisableTCMFLXRetention()
  64:../Drivers/STM32N6xx_HAL_Driver/Src/stm32n6xx_hal_pwr_ex.c ****        functions to enable and disable the I-TCM FLEXMEM retention in Standby mode.
  65:../Drivers/STM32N6xx_HAL_Driver/Src/stm32n6xx_hal_pwr_ex.c **** 
  66:../Drivers/STM32N6xx_HAL_Driver/Src/stm32n6xx_hal_pwr_ex.c ****    (#) Call HAL_PWREx_SetPulseLow() function to configure the minimum guaranteed
  67:../Drivers/STM32N6xx_HAL_Driver/Src/stm32n6xx_hal_pwr_ex.c ****        duration of the pwr_on low pulse in Standby mode ( between ~ 0 -> 31 ms).
  68:../Drivers/STM32N6xx_HAL_Driver/Src/stm32n6xx_hal_pwr_ex.c **** 
  69:../Drivers/STM32N6xx_HAL_Driver/Src/stm32n6xx_hal_pwr_ex.c ****    (#) Call HAL_PWREx_GetPulseLow() function to get the minimum guaranteed
  70:../Drivers/STM32N6xx_HAL_Driver/Src/stm32n6xx_hal_pwr_ex.c ****        duration of the pwr_on low pulse in Standby mode.
  71:../Drivers/STM32N6xx_HAL_Driver/Src/stm32n6xx_hal_pwr_ex.c **** 
  72:../Drivers/STM32N6xx_HAL_Driver/Src/stm32n6xx_hal_pwr_ex.c ****    (#) Call HAL_PWREx_EnableTCMFLXRetention() and HAL_PWREx_DisableTCMFLXRetention()
  73:../Drivers/STM32N6xx_HAL_Driver/Src/stm32n6xx_hal_pwr_ex.c ****        functions to enable and disable the I-TCM FLEXMEM retention in Standby mode.
  74:../Drivers/STM32N6xx_HAL_Driver/Src/stm32n6xx_hal_pwr_ex.c **** 
  75:../Drivers/STM32N6xx_HAL_Driver/Src/stm32n6xx_hal_pwr_ex.c ****    (#) Call HAL_PWREx_EnableSMPSPWM() and HAL_PWREx_DisableSMPSPWM() functions to
  76:../Drivers/STM32N6xx_HAL_Driver/Src/stm32n6xx_hal_pwr_ex.c ****        enable and disable the SMPS low-power mode in Stop SVOS range 3.
  77:../Drivers/STM32N6xx_HAL_Driver/Src/stm32n6xx_hal_pwr_ex.c **** 
  78:../Drivers/STM32N6xx_HAL_Driver/Src/stm32n6xx_hal_pwr_ex.c ****    (#) Call HAL_PWREx_EnablePullDownOutput() and HAL_PWREx_DisablePullDownOutput()
  79:../Drivers/STM32N6xx_HAL_Driver/Src/stm32n6xx_hal_pwr_ex.c ****        functions to enable and disable the pull down on output voltage during
  80:../Drivers/STM32N6xx_HAL_Driver/Src/stm32n6xx_hal_pwr_ex.c ****        power-down mode.
  81:../Drivers/STM32N6xx_HAL_Driver/Src/stm32n6xx_hal_pwr_ex.c **** 
ARM GAS  /tmp/ccb319AI.s 			page 3


  82:../Drivers/STM32N6xx_HAL_Driver/Src/stm32n6xx_hal_pwr_ex.c ****    (#) Call HAL_PWREx_EnableMonitoring() and HAL_PWREx_DisableMonitoring()
  83:../Drivers/STM32N6xx_HAL_Driver/Src/stm32n6xx_hal_pwr_ex.c ****        functions to enable and disable the VBAT and Temperature monitoring.
  84:../Drivers/STM32N6xx_HAL_Driver/Src/stm32n6xx_hal_pwr_ex.c ****        When VBAT and Temperature monitoring feature is enables, use
  85:../Drivers/STM32N6xx_HAL_Driver/Src/stm32n6xx_hal_pwr_ex.c ****        HAL_PWREx_GetTemperatureLevel() and HAL_PWREx_GetVBATLevel() to get
  86:../Drivers/STM32N6xx_HAL_Driver/Src/stm32n6xx_hal_pwr_ex.c ****        respectively the Temperature level and VBAT level.
  87:../Drivers/STM32N6xx_HAL_Driver/Src/stm32n6xx_hal_pwr_ex.c **** 
  88:../Drivers/STM32N6xx_HAL_Driver/Src/stm32n6xx_hal_pwr_ex.c ****    (#) Call HAL_PWREx_EnableVDDCOREMonitoring() and HAL_PWREx_EnableVDDCOREMonitoring()
  89:../Drivers/STM32N6xx_HAL_Driver/Src/stm32n6xx_hal_pwr_ex.c ****        functions to enable and disable the VCORE monitoring.
  90:../Drivers/STM32N6xx_HAL_Driver/Src/stm32n6xx_hal_pwr_ex.c ****        When VDDCORE monitoring feature is enables, use HAL_PWREx_GetVDDCORELevel()
  91:../Drivers/STM32N6xx_HAL_Driver/Src/stm32n6xx_hal_pwr_ex.c ****        function to get the current VDDCORE level.
  92:../Drivers/STM32N6xx_HAL_Driver/Src/stm32n6xx_hal_pwr_ex.c **** 
  93:../Drivers/STM32N6xx_HAL_Driver/Src/stm32n6xx_hal_pwr_ex.c ****    (#) Call HAL_PWREx_ConfigVDDCORELevel() function to configure the VDDCORE
  94:../Drivers/STM32N6xx_HAL_Driver/Src/stm32n6xx_hal_pwr_ex.c ****        voltage detector low-level selection.
  95:../Drivers/STM32N6xx_HAL_Driver/Src/stm32n6xx_hal_pwr_ex.c **** 
  96:../Drivers/STM32N6xx_HAL_Driver/Src/stm32n6xx_hal_pwr_ex.c ****    (#) Call HAL_PWREx_ConfigVddIORange() functions to configure the Vdd IO range:
  97:../Drivers/STM32N6xx_HAL_Driver/Src/stm32n6xx_hal_pwr_ex.c ****        (+) PWR_VDDIO
  98:../Drivers/STM32N6xx_HAL_Driver/Src/stm32n6xx_hal_pwr_ex.c ****        (+) PWR_VDDIO2
  99:../Drivers/STM32N6xx_HAL_Driver/Src/stm32n6xx_hal_pwr_ex.c ****        (+) PWR_VDDIO3
 100:../Drivers/STM32N6xx_HAL_Driver/Src/stm32n6xx_hal_pwr_ex.c ****        (+) PWR_VDDIO4
 101:../Drivers/STM32N6xx_HAL_Driver/Src/stm32n6xx_hal_pwr_ex.c ****        (+) PWR_VDDIO5
 102:../Drivers/STM32N6xx_HAL_Driver/Src/stm32n6xx_hal_pwr_ex.c ****        The voltage range setting could be one of the following values:
 103:../Drivers/STM32N6xx_HAL_Driver/Src/stm32n6xx_hal_pwr_ex.c ****        (+) PWR_VDDIO_RANGE_3V3
 104:../Drivers/STM32N6xx_HAL_Driver/Src/stm32n6xx_hal_pwr_ex.c ****        (+) PWR_VDDIO_RANGE_1V8
 105:../Drivers/STM32N6xx_HAL_Driver/Src/stm32n6xx_hal_pwr_ex.c **** 
 106:../Drivers/STM32N6xx_HAL_Driver/Src/stm32n6xx_hal_pwr_ex.c ****    (#) Call HAL_PWREx_GetVddIORange() function to get the current
 107:../Drivers/STM32N6xx_HAL_Driver/Src/stm32n6xx_hal_pwr_ex.c ****        voltage range setting on the selected Vdd IO.
 108:../Drivers/STM32N6xx_HAL_Driver/Src/stm32n6xx_hal_pwr_ex.c **** 
 109:../Drivers/STM32N6xx_HAL_Driver/Src/stm32n6xx_hal_pwr_ex.c ****    (#) Call HAL_PWREx_EnableVddIO4RangeSTBY() and HAL_PWREx_DisableVddIO4RangeSTBY()
 110:../Drivers/STM32N6xx_HAL_Driver/Src/stm32n6xx_hal_pwr_ex.c ****        functions to enable and disable the VDD IO4 voltage range Standby mode.
 111:../Drivers/STM32N6xx_HAL_Driver/Src/stm32n6xx_hal_pwr_ex.c **** 
 112:../Drivers/STM32N6xx_HAL_Driver/Src/stm32n6xx_hal_pwr_ex.c ****    (#) Call HAL_PWREx_EnableVddIO5RangeSTBY() and HAL_PWREx_DisableVddIO5RangeSTBY()
 113:../Drivers/STM32N6xx_HAL_Driver/Src/stm32n6xx_hal_pwr_ex.c ****        functions to enable and disable the VDD IO5 voltage range Standby mode.
 114:../Drivers/STM32N6xx_HAL_Driver/Src/stm32n6xx_hal_pwr_ex.c **** 
 115:../Drivers/STM32N6xx_HAL_Driver/Src/stm32n6xx_hal_pwr_ex.c ****    (#) Call HAL_PWREx_EnableVddUSB() and HAL_PWREx_DisableVddUSB()
 116:../Drivers/STM32N6xx_HAL_Driver/Src/stm32n6xx_hal_pwr_ex.c ****        functions to enable and disable the VDD33USB supply valid.
 117:../Drivers/STM32N6xx_HAL_Driver/Src/stm32n6xx_hal_pwr_ex.c **** 
 118:../Drivers/STM32N6xx_HAL_Driver/Src/stm32n6xx_hal_pwr_ex.c ****    (#) Call HAL_PWREx_EnableVddIO2() and HAL_PWREx_DisableVddIO2()
 119:../Drivers/STM32N6xx_HAL_Driver/Src/stm32n6xx_hal_pwr_ex.c ****        functions to enable and disable the VDDIO2 supply valid.
 120:../Drivers/STM32N6xx_HAL_Driver/Src/stm32n6xx_hal_pwr_ex.c **** 
 121:../Drivers/STM32N6xx_HAL_Driver/Src/stm32n6xx_hal_pwr_ex.c ****    (#) Call HAL_PWREx_EnableVddIO3() and HAL_PWREx_DisableVddIO3()
 122:../Drivers/STM32N6xx_HAL_Driver/Src/stm32n6xx_hal_pwr_ex.c ****        functions to enable and disable the VDDIO3 supply valid.
 123:../Drivers/STM32N6xx_HAL_Driver/Src/stm32n6xx_hal_pwr_ex.c **** 
 124:../Drivers/STM32N6xx_HAL_Driver/Src/stm32n6xx_hal_pwr_ex.c ****    (#) Call HAL_PWREx_EnableVddIO4() and HAL_PWREx_DisableVddIO4()
 125:../Drivers/STM32N6xx_HAL_Driver/Src/stm32n6xx_hal_pwr_ex.c ****        functions to enable and disable the VDDIO4 supply valid.
 126:../Drivers/STM32N6xx_HAL_Driver/Src/stm32n6xx_hal_pwr_ex.c **** 
 127:../Drivers/STM32N6xx_HAL_Driver/Src/stm32n6xx_hal_pwr_ex.c ****    (#) Call HAL_PWREx_EnableVddIO5() and HAL_PWREx_DisableVddIO5()
 128:../Drivers/STM32N6xx_HAL_Driver/Src/stm32n6xx_hal_pwr_ex.c ****        functions to enable and disable the VDDIO5 supply valid.
 129:../Drivers/STM32N6xx_HAL_Driver/Src/stm32n6xx_hal_pwr_ex.c **** 
 130:../Drivers/STM32N6xx_HAL_Driver/Src/stm32n6xx_hal_pwr_ex.c ****    (#) Call HAL_PWREx_EnableVddA() and HAL_PWREx_DisableVddA()
 131:../Drivers/STM32N6xx_HAL_Driver/Src/stm32n6xx_hal_pwr_ex.c ****        functions to enable and disable the VDDA18ADC supply valid.
 132:../Drivers/STM32N6xx_HAL_Driver/Src/stm32n6xx_hal_pwr_ex.c **** 
 133:../Drivers/STM32N6xx_HAL_Driver/Src/stm32n6xx_hal_pwr_ex.c ****    (#) Call HAL_PWREx_ConfigPVM() after setting parameters to be configured
 134:../Drivers/STM32N6xx_HAL_Driver/Src/stm32n6xx_hal_pwr_ex.c ****        (event mode and PVD type) in order to set up the Peripheral Voltage
 135:../Drivers/STM32N6xx_HAL_Driver/Src/stm32n6xx_hal_pwr_ex.c ****        Monitor, then use HAL_PWREx_EnableVddUSBVMEN(), HAL_PWREx_EnableVddIO2VMEN(),
 136:../Drivers/STM32N6xx_HAL_Driver/Src/stm32n6xx_hal_pwr_ex.c ****        HAL_PWREx_EnableVddIO3VMEN(), HAL_PWREx_EnableVddIO4VMEN(),
 137:../Drivers/STM32N6xx_HAL_Driver/Src/stm32n6xx_hal_pwr_ex.c ****        HAL_PWREx_EnableVddIO5VMEN() and HAL_PWREx_EnableVddAVMEN() functions to
 138:../Drivers/STM32N6xx_HAL_Driver/Src/stm32n6xx_hal_pwr_ex.c ****        start the PVM VDDx monitoring.
ARM GAS  /tmp/ccb319AI.s 			page 4


 139:../Drivers/STM32N6xx_HAL_Driver/Src/stm32n6xx_hal_pwr_ex.c ****        Use HAL_PWREx_DisableVddUSBVMEN(), HAL_PWREx_DisableVddIO2VMEN(),
 140:../Drivers/STM32N6xx_HAL_Driver/Src/stm32n6xx_hal_pwr_ex.c ****        HAL_PWREx_DisableVddIO3VMEN(), HAL_PWREx_DisableVddIO4VMEN(),
 141:../Drivers/STM32N6xx_HAL_Driver/Src/stm32n6xx_hal_pwr_ex.c ****        HAL_PWREx_DisableVddIO5VMEN() and HAL_PWREx_DisableVddAVMEN() to stop
 142:../Drivers/STM32N6xx_HAL_Driver/Src/stm32n6xx_hal_pwr_ex.c ****        the PVM VDDx monitoring.
 143:../Drivers/STM32N6xx_HAL_Driver/Src/stm32n6xx_hal_pwr_ex.c ****        (+) PVM monitored voltages are :
 144:../Drivers/STM32N6xx_HAL_Driver/Src/stm32n6xx_hal_pwr_ex.c ****              (++) VDDUSB
 145:../Drivers/STM32N6xx_HAL_Driver/Src/stm32n6xx_hal_pwr_ex.c ****              (++) VDDIO2
 146:../Drivers/STM32N6xx_HAL_Driver/Src/stm32n6xx_hal_pwr_ex.c ****              (++) VDDIO3
 147:../Drivers/STM32N6xx_HAL_Driver/Src/stm32n6xx_hal_pwr_ex.c ****              (++) VDDIO4
 148:../Drivers/STM32N6xx_HAL_Driver/Src/stm32n6xx_hal_pwr_ex.c ****              (++) VDDIO5
 149:../Drivers/STM32N6xx_HAL_Driver/Src/stm32n6xx_hal_pwr_ex.c ****              (++) VDDA
 150:../Drivers/STM32N6xx_HAL_Driver/Src/stm32n6xx_hal_pwr_ex.c **** 
 151:../Drivers/STM32N6xx_HAL_Driver/Src/stm32n6xx_hal_pwr_ex.c ****    (#) Call HAL_PWREx_PVD_PVM_IRQHandler() function to handle the PWR PVD and
 152:../Drivers/STM32N6xx_HAL_Driver/Src/stm32n6xx_hal_pwr_ex.c ****        PVM interrupt request.
 153:../Drivers/STM32N6xx_HAL_Driver/Src/stm32n6xx_hal_pwr_ex.c **** 
 154:../Drivers/STM32N6xx_HAL_Driver/Src/stm32n6xx_hal_pwr_ex.c ****   @endverbatim
 155:../Drivers/STM32N6xx_HAL_Driver/Src/stm32n6xx_hal_pwr_ex.c ****   ******************************************************************************
 156:../Drivers/STM32N6xx_HAL_Driver/Src/stm32n6xx_hal_pwr_ex.c ****   */
 157:../Drivers/STM32N6xx_HAL_Driver/Src/stm32n6xx_hal_pwr_ex.c **** 
 158:../Drivers/STM32N6xx_HAL_Driver/Src/stm32n6xx_hal_pwr_ex.c **** /* Includes ------------------------------------------------------------------*/
 159:../Drivers/STM32N6xx_HAL_Driver/Src/stm32n6xx_hal_pwr_ex.c **** #include "stm32n6xx_hal.h"
 160:../Drivers/STM32N6xx_HAL_Driver/Src/stm32n6xx_hal_pwr_ex.c **** 
 161:../Drivers/STM32N6xx_HAL_Driver/Src/stm32n6xx_hal_pwr_ex.c **** /** @addtogroup STM32N6xx_HAL_Driver
 162:../Drivers/STM32N6xx_HAL_Driver/Src/stm32n6xx_hal_pwr_ex.c ****   * @{
 163:../Drivers/STM32N6xx_HAL_Driver/Src/stm32n6xx_hal_pwr_ex.c ****   */
 164:../Drivers/STM32N6xx_HAL_Driver/Src/stm32n6xx_hal_pwr_ex.c **** 
 165:../Drivers/STM32N6xx_HAL_Driver/Src/stm32n6xx_hal_pwr_ex.c **** /** @defgroup PWREx PWREx
 166:../Drivers/STM32N6xx_HAL_Driver/Src/stm32n6xx_hal_pwr_ex.c ****   * @brief    PWR Extended HAL module driver
 167:../Drivers/STM32N6xx_HAL_Driver/Src/stm32n6xx_hal_pwr_ex.c ****   * @{
 168:../Drivers/STM32N6xx_HAL_Driver/Src/stm32n6xx_hal_pwr_ex.c ****   */
 169:../Drivers/STM32N6xx_HAL_Driver/Src/stm32n6xx_hal_pwr_ex.c **** 
 170:../Drivers/STM32N6xx_HAL_Driver/Src/stm32n6xx_hal_pwr_ex.c **** #if defined (HAL_PWR_MODULE_ENABLED)
 171:../Drivers/STM32N6xx_HAL_Driver/Src/stm32n6xx_hal_pwr_ex.c **** 
 172:../Drivers/STM32N6xx_HAL_Driver/Src/stm32n6xx_hal_pwr_ex.c **** /* Private typedef -----------------------------------------------------------*/
 173:../Drivers/STM32N6xx_HAL_Driver/Src/stm32n6xx_hal_pwr_ex.c **** /* Private define ------------------------------------------------------------*/
 174:../Drivers/STM32N6xx_HAL_Driver/Src/stm32n6xx_hal_pwr_ex.c **** 
 175:../Drivers/STM32N6xx_HAL_Driver/Src/stm32n6xx_hal_pwr_ex.c **** /** @defgroup PWREx_REG_SET_TIMEOUT PWR Extended Flag Setting Time Out Value
 176:../Drivers/STM32N6xx_HAL_Driver/Src/stm32n6xx_hal_pwr_ex.c ****   * @{
 177:../Drivers/STM32N6xx_HAL_Driver/Src/stm32n6xx_hal_pwr_ex.c ****   */
 178:../Drivers/STM32N6xx_HAL_Driver/Src/stm32n6xx_hal_pwr_ex.c **** #define PWR_FLAG_SETTING_DELAY         (1000U)
 179:../Drivers/STM32N6xx_HAL_Driver/Src/stm32n6xx_hal_pwr_ex.c **** /**
 180:../Drivers/STM32N6xx_HAL_Driver/Src/stm32n6xx_hal_pwr_ex.c ****   * @}
 181:../Drivers/STM32N6xx_HAL_Driver/Src/stm32n6xx_hal_pwr_ex.c ****   */
 182:../Drivers/STM32N6xx_HAL_Driver/Src/stm32n6xx_hal_pwr_ex.c **** 
 183:../Drivers/STM32N6xx_HAL_Driver/Src/stm32n6xx_hal_pwr_ex.c **** /** @defgroup PWREx_WakeUp_Pins_Offsets PWREx Wake-Up Pins masks and offsets
 184:../Drivers/STM32N6xx_HAL_Driver/Src/stm32n6xx_hal_pwr_ex.c ****   * @{
 185:../Drivers/STM32N6xx_HAL_Driver/Src/stm32n6xx_hal_pwr_ex.c ****   */
 186:../Drivers/STM32N6xx_HAL_Driver/Src/stm32n6xx_hal_pwr_ex.c **** /* Wake-Up Pins EXTI register mask */
 187:../Drivers/STM32N6xx_HAL_Driver/Src/stm32n6xx_hal_pwr_ex.c **** #define PWR_EXTI_WAKEUP_PINS_MASK      (EXTI_IMR2_IM60 | EXTI_IMR2_IM61 |\
 188:../Drivers/STM32N6xx_HAL_Driver/Src/stm32n6xx_hal_pwr_ex.c ****                                         EXTI_IMR2_IM62 | EXTI_IMR2_IM63 )
 189:../Drivers/STM32N6xx_HAL_Driver/Src/stm32n6xx_hal_pwr_ex.c **** 
 190:../Drivers/STM32N6xx_HAL_Driver/Src/stm32n6xx_hal_pwr_ex.c **** /* Wake-Up Pins PWR Pin Pull shift offsets */
 191:../Drivers/STM32N6xx_HAL_Driver/Src/stm32n6xx_hal_pwr_ex.c **** #define PWR_WAKEUP_PINS_PULL_SHIFT_OFFSET (2U)
 192:../Drivers/STM32N6xx_HAL_Driver/Src/stm32n6xx_hal_pwr_ex.c **** /**
 193:../Drivers/STM32N6xx_HAL_Driver/Src/stm32n6xx_hal_pwr_ex.c ****   * @}
 194:../Drivers/STM32N6xx_HAL_Driver/Src/stm32n6xx_hal_pwr_ex.c ****   */
 195:../Drivers/STM32N6xx_HAL_Driver/Src/stm32n6xx_hal_pwr_ex.c **** 
ARM GAS  /tmp/ccb319AI.s 			page 5


 196:../Drivers/STM32N6xx_HAL_Driver/Src/stm32n6xx_hal_pwr_ex.c **** /** @defgroup PWR_PVM_Mode_Mask PWR PVM Mode Mask
 197:../Drivers/STM32N6xx_HAL_Driver/Src/stm32n6xx_hal_pwr_ex.c ****   * @{
 198:../Drivers/STM32N6xx_HAL_Driver/Src/stm32n6xx_hal_pwr_ex.c ****   */
 199:../Drivers/STM32N6xx_HAL_Driver/Src/stm32n6xx_hal_pwr_ex.c **** #define PVM_RISING_EDGE                (1U)                                    /*!< Mask for rising
 200:../Drivers/STM32N6xx_HAL_Driver/Src/stm32n6xx_hal_pwr_ex.c **** #define PVM_FALLING_EDGE               (2U)                                    /*!< Mask for fallin
 201:../Drivers/STM32N6xx_HAL_Driver/Src/stm32n6xx_hal_pwr_ex.c **** #define PVM_MODE_IT                    (4U)                                    /*!< Mask for interr
 202:../Drivers/STM32N6xx_HAL_Driver/Src/stm32n6xx_hal_pwr_ex.c **** #define PVM_MODE_EVT                   (8U)                                    /*!< Mask for event 
 203:../Drivers/STM32N6xx_HAL_Driver/Src/stm32n6xx_hal_pwr_ex.c **** /**
 204:../Drivers/STM32N6xx_HAL_Driver/Src/stm32n6xx_hal_pwr_ex.c ****   * @}
 205:../Drivers/STM32N6xx_HAL_Driver/Src/stm32n6xx_hal_pwr_ex.c ****   */
 206:../Drivers/STM32N6xx_HAL_Driver/Src/stm32n6xx_hal_pwr_ex.c **** 
 207:../Drivers/STM32N6xx_HAL_Driver/Src/stm32n6xx_hal_pwr_ex.c **** /** @defgroup PWR_VDDCOREVM_Mode_Mask PWR VddCORE VM Mode Mask
 208:../Drivers/STM32N6xx_HAL_Driver/Src/stm32n6xx_hal_pwr_ex.c ****   * @{
 209:../Drivers/STM32N6xx_HAL_Driver/Src/stm32n6xx_hal_pwr_ex.c ****   */
 210:../Drivers/STM32N6xx_HAL_Driver/Src/stm32n6xx_hal_pwr_ex.c **** #define VDDCOREVM_RISING_EDGE          (1U)                                    /*!< Mask for rising
 211:../Drivers/STM32N6xx_HAL_Driver/Src/stm32n6xx_hal_pwr_ex.c **** #define VDDCOREVM_FALLING_EDGE         (2U)                                    /*!< Mask for fallin
 212:../Drivers/STM32N6xx_HAL_Driver/Src/stm32n6xx_hal_pwr_ex.c **** #define VDDCOREVM_MODE_IT              (4U)                                    /*!< Mask for interr
 213:../Drivers/STM32N6xx_HAL_Driver/Src/stm32n6xx_hal_pwr_ex.c **** #define VDDCOREVM_MODE_EVT             (8U)                                    /*!< Mask for event 
 214:../Drivers/STM32N6xx_HAL_Driver/Src/stm32n6xx_hal_pwr_ex.c **** /**
 215:../Drivers/STM32N6xx_HAL_Driver/Src/stm32n6xx_hal_pwr_ex.c ****   * @}
 216:../Drivers/STM32N6xx_HAL_Driver/Src/stm32n6xx_hal_pwr_ex.c ****   */
 217:../Drivers/STM32N6xx_HAL_Driver/Src/stm32n6xx_hal_pwr_ex.c **** 
 218:../Drivers/STM32N6xx_HAL_Driver/Src/stm32n6xx_hal_pwr_ex.c **** 
 219:../Drivers/STM32N6xx_HAL_Driver/Src/stm32n6xx_hal_pwr_ex.c **** 
 220:../Drivers/STM32N6xx_HAL_Driver/Src/stm32n6xx_hal_pwr_ex.c **** /* Private macro -------------------------------------------------------------*/
 221:../Drivers/STM32N6xx_HAL_Driver/Src/stm32n6xx_hal_pwr_ex.c **** /* Private variables ---------------------------------------------------------*/
 222:../Drivers/STM32N6xx_HAL_Driver/Src/stm32n6xx_hal_pwr_ex.c **** /* Private function prototypes -----------------------------------------------*/
 223:../Drivers/STM32N6xx_HAL_Driver/Src/stm32n6xx_hal_pwr_ex.c **** /* Exported functions --------------------------------------------------------*/
 224:../Drivers/STM32N6xx_HAL_Driver/Src/stm32n6xx_hal_pwr_ex.c **** 
 225:../Drivers/STM32N6xx_HAL_Driver/Src/stm32n6xx_hal_pwr_ex.c **** /** @defgroup PWREx_Exported_Functions PWR Extended Exported Functions
 226:../Drivers/STM32N6xx_HAL_Driver/Src/stm32n6xx_hal_pwr_ex.c ****   * @{
 227:../Drivers/STM32N6xx_HAL_Driver/Src/stm32n6xx_hal_pwr_ex.c ****   */
 228:../Drivers/STM32N6xx_HAL_Driver/Src/stm32n6xx_hal_pwr_ex.c **** 
 229:../Drivers/STM32N6xx_HAL_Driver/Src/stm32n6xx_hal_pwr_ex.c **** /** @defgroup PWREx_Exported_Functions_Group1 Power Supply Control Functions
 230:../Drivers/STM32N6xx_HAL_Driver/Src/stm32n6xx_hal_pwr_ex.c ****   * @brief    Power supply control functions
 231:../Drivers/STM32N6xx_HAL_Driver/Src/stm32n6xx_hal_pwr_ex.c ****   *
 232:../Drivers/STM32N6xx_HAL_Driver/Src/stm32n6xx_hal_pwr_ex.c **** @verbatim
 233:../Drivers/STM32N6xx_HAL_Driver/Src/stm32n6xx_hal_pwr_ex.c ****  ===============================================================================
 234:../Drivers/STM32N6xx_HAL_Driver/Src/stm32n6xx_hal_pwr_ex.c ****                   ##### Power supply control functions #####
 235:../Drivers/STM32N6xx_HAL_Driver/Src/stm32n6xx_hal_pwr_ex.c ****  ===============================================================================
 236:../Drivers/STM32N6xx_HAL_Driver/Src/stm32n6xx_hal_pwr_ex.c ****     [..]
 237:../Drivers/STM32N6xx_HAL_Driver/Src/stm32n6xx_hal_pwr_ex.c ****        This section provides functions allowing to control power supply.
 238:../Drivers/STM32N6xx_HAL_Driver/Src/stm32n6xx_hal_pwr_ex.c **** 
 239:../Drivers/STM32N6xx_HAL_Driver/Src/stm32n6xx_hal_pwr_ex.c ****    (+) The STM32N6 series devices allows two different supply configurations:
 240:../Drivers/STM32N6xx_HAL_Driver/Src/stm32n6xx_hal_pwr_ex.c ****        Direct SMPS supply and external supply.
 241:../Drivers/STM32N6xx_HAL_Driver/Src/stm32n6xx_hal_pwr_ex.c **** 
 242:../Drivers/STM32N6xx_HAL_Driver/Src/stm32n6xx_hal_pwr_ex.c ****    (#) After a system reset, the software must configure the used supply configuration
 243:../Drivers/STM32N6xx_HAL_Driver/Src/stm32n6xx_hal_pwr_ex.c ****        in PWR_CR1 using  HAL_PWREx_ConfigSupply() function before changing VOS in PWR_VOSCR,
 244:../Drivers/STM32N6xx_HAL_Driver/Src/stm32n6xx_hal_pwr_ex.c ****        or the RCC sys_ck frequency.
 245:../Drivers/STM32N6xx_HAL_Driver/Src/stm32n6xx_hal_pwr_ex.c **** 
 246:../Drivers/STM32N6xx_HAL_Driver/Src/stm32n6xx_hal_pwr_ex.c **** @endverbatim
 247:../Drivers/STM32N6xx_HAL_Driver/Src/stm32n6xx_hal_pwr_ex.c ****   * @{
 248:../Drivers/STM32N6xx_HAL_Driver/Src/stm32n6xx_hal_pwr_ex.c ****   */
 249:../Drivers/STM32N6xx_HAL_Driver/Src/stm32n6xx_hal_pwr_ex.c **** 
 250:../Drivers/STM32N6xx_HAL_Driver/Src/stm32n6xx_hal_pwr_ex.c **** /**
 251:../Drivers/STM32N6xx_HAL_Driver/Src/stm32n6xx_hal_pwr_ex.c ****   * @brief Configure the system Power Supply.
 252:../Drivers/STM32N6xx_HAL_Driver/Src/stm32n6xx_hal_pwr_ex.c ****   * @param  SupplySource : Specifies the Power Supply source to set after a
ARM GAS  /tmp/ccb319AI.s 			page 6


 253:../Drivers/STM32N6xx_HAL_Driver/Src/stm32n6xx_hal_pwr_ex.c ****   *                        system startup.
 254:../Drivers/STM32N6xx_HAL_Driver/Src/stm32n6xx_hal_pwr_ex.c ****   *         This parameter can be one of the following values :
 255:../Drivers/STM32N6xx_HAL_Driver/Src/stm32n6xx_hal_pwr_ex.c ****   *            @arg @ref PWR_SMPS_SUPPLY            : VCORE power domains are supplied
 256:../Drivers/STM32N6xx_HAL_Driver/Src/stm32n6xx_hal_pwr_ex.c ****   *                                                   from SMPS step-down converter
 257:../Drivers/STM32N6xx_HAL_Driver/Src/stm32n6xx_hal_pwr_ex.c ****   *                                                   according to VOS.
 258:../Drivers/STM32N6xx_HAL_Driver/Src/stm32n6xx_hal_pwr_ex.c ****   *            @arg @ref PWR_EXTERNAL_SOURCE_SUPPLY : VCORE supplied from external source.
 259:../Drivers/STM32N6xx_HAL_Driver/Src/stm32n6xx_hal_pwr_ex.c ****   *                                                   SMPS step-down converter disabled.
 260:../Drivers/STM32N6xx_HAL_Driver/Src/stm32n6xx_hal_pwr_ex.c ****   * @note: The power supply configuration can be written only one time after POR.
 261:../Drivers/STM32N6xx_HAL_Driver/Src/stm32n6xx_hal_pwr_ex.c ****   * @note: The power supply configuration is not reset by wakeup from Standby mode and
 262:../Drivers/STM32N6xx_HAL_Driver/Src/stm32n6xx_hal_pwr_ex.c ****   *        application reset, but only reset by VDD POR.
 263:../Drivers/STM32N6xx_HAL_Driver/Src/stm32n6xx_hal_pwr_ex.c ****   * @retval HAL status.
 264:../Drivers/STM32N6xx_HAL_Driver/Src/stm32n6xx_hal_pwr_ex.c ****   */
 265:../Drivers/STM32N6xx_HAL_Driver/Src/stm32n6xx_hal_pwr_ex.c **** HAL_StatusTypeDef HAL_PWREx_ConfigSupply(uint32_t SupplySource)
 266:../Drivers/STM32N6xx_HAL_Driver/Src/stm32n6xx_hal_pwr_ex.c **** {
  35              		.loc 1 266 1 view -0
  36              		.cfi_startproc
  37              		@ args = 0, pretend = 0, frame = 0
  38              		@ frame_needed = 0, uses_anonymous_args = 0
  39              		.loc 1 266 1 is_stmt 0 view .LVU1
  40 0000 10B5     		push	{r4, lr}
  41              	.LCFI0:
  42              		.cfi_def_cfa_offset 8
  43              		.cfi_offset 4, -8
  44              		.cfi_offset 14, -4
 267:../Drivers/STM32N6xx_HAL_Driver/Src/stm32n6xx_hal_pwr_ex.c ****   uint32_t tickstart;
  45              		.loc 1 267 3 is_stmt 1 view .LVU2
 268:../Drivers/STM32N6xx_HAL_Driver/Src/stm32n6xx_hal_pwr_ex.c **** 
 269:../Drivers/STM32N6xx_HAL_Driver/Src/stm32n6xx_hal_pwr_ex.c ****   /* Check the parameters */
 270:../Drivers/STM32N6xx_HAL_Driver/Src/stm32n6xx_hal_pwr_ex.c ****   assert_param(IS_PWR_SUPPLY(SupplySource));
  46              		.loc 1 270 3 view .LVU3
 271:../Drivers/STM32N6xx_HAL_Driver/Src/stm32n6xx_hal_pwr_ex.c **** 
 272:../Drivers/STM32N6xx_HAL_Driver/Src/stm32n6xx_hal_pwr_ex.c ****   /* Set the power supply configuration */
 273:../Drivers/STM32N6xx_HAL_Driver/Src/stm32n6xx_hal_pwr_ex.c ****   MODIFY_REG(PWR->CR1, PWR_SUPPLY_CONFIG_MASK, SupplySource);
  47              		.loc 1 273 3 view .LVU4
  48 0002 0C4A     		ldr	r2, .L8
  49 0004 1368     		ldr	r3, [r2]
  50 0006 23F00403 		bic	r3, r3, #4
  51 000a 0343     		orrs	r3, r3, r0
  52 000c 1360     		str	r3, [r2]
 274:../Drivers/STM32N6xx_HAL_Driver/Src/stm32n6xx_hal_pwr_ex.c **** 
 275:../Drivers/STM32N6xx_HAL_Driver/Src/stm32n6xx_hal_pwr_ex.c ****   /* Get tick */
 276:../Drivers/STM32N6xx_HAL_Driver/Src/stm32n6xx_hal_pwr_ex.c ****   tickstart = HAL_GetTick();
  53              		.loc 1 276 3 view .LVU5
  54              		.loc 1 276 15 is_stmt 0 view .LVU6
  55 000e FFF7FEFF 		bl	HAL_GetTick
  56              	.LVL1:
  57              		.loc 1 276 15 view .LVU7
  58 0012 0446     		mov	r4, r0
  59              	.LVL2:
 277:../Drivers/STM32N6xx_HAL_Driver/Src/stm32n6xx_hal_pwr_ex.c **** 
 278:../Drivers/STM32N6xx_HAL_Driver/Src/stm32n6xx_hal_pwr_ex.c ****   /* Wait till voltage level flag is set */
 279:../Drivers/STM32N6xx_HAL_Driver/Src/stm32n6xx_hal_pwr_ex.c ****   while ((PWR->VOSCR & PWR_VOSCR_ACTVOSRDY) == 0U)
  60              		.loc 1 279 3 is_stmt 1 view .LVU8
  61              	.L2:
  62              		.loc 1 279 45 discriminator 1 view .LVU9
  63              		.loc 1 279 14 is_stmt 0 discriminator 1 view .LVU10
  64 0014 074B     		ldr	r3, .L8
ARM GAS  /tmp/ccb319AI.s 			page 7


  65 0016 1B6A     		ldr	r3, [r3, #32]
  66              		.loc 1 279 45 discriminator 1 view .LVU11
  67 0018 13F4003F 		tst	r3, #131072
  68 001c 07D1     		bne	.L7
 280:../Drivers/STM32N6xx_HAL_Driver/Src/stm32n6xx_hal_pwr_ex.c ****   {
 281:../Drivers/STM32N6xx_HAL_Driver/Src/stm32n6xx_hal_pwr_ex.c ****     if ((HAL_GetTick() - tickstart) > PWR_FLAG_SETTING_DELAY)
  69              		.loc 1 281 5 is_stmt 1 view .LVU12
  70              		.loc 1 281 10 is_stmt 0 view .LVU13
  71 001e FFF7FEFF 		bl	HAL_GetTick
  72              	.LVL3:
  73              		.loc 1 281 24 discriminator 1 view .LVU14
  74 0022 001B     		subs	r0, r0, r4
  75              		.loc 1 281 8 discriminator 1 view .LVU15
  76 0024 B0F57A7F 		cmp	r0, #1000
  77 0028 F4D9     		bls	.L2
 282:../Drivers/STM32N6xx_HAL_Driver/Src/stm32n6xx_hal_pwr_ex.c ****     {
 283:../Drivers/STM32N6xx_HAL_Driver/Src/stm32n6xx_hal_pwr_ex.c ****       return HAL_ERROR;
  78              		.loc 1 283 14 view .LVU16
  79 002a 0120     		movs	r0, #1
  80 002c 00E0     		b	.L3
  81              	.L7:
 284:../Drivers/STM32N6xx_HAL_Driver/Src/stm32n6xx_hal_pwr_ex.c ****     }
 285:../Drivers/STM32N6xx_HAL_Driver/Src/stm32n6xx_hal_pwr_ex.c ****   }
 286:../Drivers/STM32N6xx_HAL_Driver/Src/stm32n6xx_hal_pwr_ex.c **** 
 287:../Drivers/STM32N6xx_HAL_Driver/Src/stm32n6xx_hal_pwr_ex.c ****   return HAL_OK;
  82              		.loc 1 287 10 view .LVU17
  83 002e 0020     		movs	r0, #0
  84              	.L3:
 288:../Drivers/STM32N6xx_HAL_Driver/Src/stm32n6xx_hal_pwr_ex.c **** }
  85              		.loc 1 288 1 view .LVU18
  86 0030 10BD     		pop	{r4, pc}
  87              	.LVL4:
  88              	.L9:
  89              		.loc 1 288 1 view .LVU19
  90 0032 00BF     		.align	2
  91              	.L8:
  92 0034 00480256 		.word	1442990080
  93              		.cfi_endproc
  94              	.LFE881:
  96              		.section	.text.HAL_PWREx_GetSupplyConfig,"ax",%progbits
  97              		.align	1
  98              		.global	HAL_PWREx_GetSupplyConfig
  99              		.syntax unified
 100              		.thumb
 101              		.thumb_func
 103              	HAL_PWREx_GetSupplyConfig:
 104              	.LFB882:
 289:../Drivers/STM32N6xx_HAL_Driver/Src/stm32n6xx_hal_pwr_ex.c **** 
 290:../Drivers/STM32N6xx_HAL_Driver/Src/stm32n6xx_hal_pwr_ex.c **** /**
 291:../Drivers/STM32N6xx_HAL_Driver/Src/stm32n6xx_hal_pwr_ex.c ****   * @brief Get the power supply configuration.
 292:../Drivers/STM32N6xx_HAL_Driver/Src/stm32n6xx_hal_pwr_ex.c ****   * @retval The supply configuration.
 293:../Drivers/STM32N6xx_HAL_Driver/Src/stm32n6xx_hal_pwr_ex.c ****   */
 294:../Drivers/STM32N6xx_HAL_Driver/Src/stm32n6xx_hal_pwr_ex.c **** uint32_t HAL_PWREx_GetSupplyConfig(void)
 295:../Drivers/STM32N6xx_HAL_Driver/Src/stm32n6xx_hal_pwr_ex.c **** {
 105              		.loc 1 295 1 is_stmt 1 view -0
 106              		.cfi_startproc
 107              		@ args = 0, pretend = 0, frame = 0
ARM GAS  /tmp/ccb319AI.s 			page 8


 108              		@ frame_needed = 0, uses_anonymous_args = 0
 109              		@ link register save eliminated.
 296:../Drivers/STM32N6xx_HAL_Driver/Src/stm32n6xx_hal_pwr_ex.c ****   return (PWR->CR1 & PWR_SUPPLY_CONFIG_MASK);
 110              		.loc 1 296 3 view .LVU21
 111              		.loc 1 296 14 is_stmt 0 view .LVU22
 112 0000 024B     		ldr	r3, .L11
 113 0002 1868     		ldr	r0, [r3]
 297:../Drivers/STM32N6xx_HAL_Driver/Src/stm32n6xx_hal_pwr_ex.c **** }
 114              		.loc 1 297 1 view .LVU23
 115 0004 00F00400 		and	r0, r0, #4
 116 0008 7047     		bx	lr
 117              	.L12:
 118 000a 00BF     		.align	2
 119              	.L11:
 120 000c 00480256 		.word	1442990080
 121              		.cfi_endproc
 122              	.LFE882:
 124              		.section	.text.HAL_PWREx_ControlVoltageScaling,"ax",%progbits
 125              		.align	1
 126              		.global	HAL_PWREx_ControlVoltageScaling
 127              		.syntax unified
 128              		.thumb
 129              		.thumb_func
 131              	HAL_PWREx_ControlVoltageScaling:
 132              	.LVL5:
 133              	.LFB883:
 298:../Drivers/STM32N6xx_HAL_Driver/Src/stm32n6xx_hal_pwr_ex.c **** 
 299:../Drivers/STM32N6xx_HAL_Driver/Src/stm32n6xx_hal_pwr_ex.c **** /**
 300:../Drivers/STM32N6xx_HAL_Driver/Src/stm32n6xx_hal_pwr_ex.c ****   * @brief Configure the main internal regulator output voltage.
 301:../Drivers/STM32N6xx_HAL_Driver/Src/stm32n6xx_hal_pwr_ex.c ****   * @param  VoltageScaling : Specifies the regulator output voltage to achieve
 302:../Drivers/STM32N6xx_HAL_Driver/Src/stm32n6xx_hal_pwr_ex.c ****   *                          a tradeoff between performance and power
 303:../Drivers/STM32N6xx_HAL_Driver/Src/stm32n6xx_hal_pwr_ex.c ****   *                          consumption.
 304:../Drivers/STM32N6xx_HAL_Driver/Src/stm32n6xx_hal_pwr_ex.c ****   *          This parameter can be one of the following values :
 305:../Drivers/STM32N6xx_HAL_Driver/Src/stm32n6xx_hal_pwr_ex.c ****   *            @arg PWR_REGULATOR_VOLTAGE_SCALE0 : Regulator voltage scaling range 0 (highest frequ
 306:../Drivers/STM32N6xx_HAL_Driver/Src/stm32n6xx_hal_pwr_ex.c ****   *            @arg PWR_REGULATOR_VOLTAGE_SCALE1 : Regulator voltage scaling range 1 (lowest power)
 307:../Drivers/STM32N6xx_HAL_Driver/Src/stm32n6xx_hal_pwr_ex.c ****   * @note After reset, the system starts from HSI with VOS low.
 308:../Drivers/STM32N6xx_HAL_Driver/Src/stm32n6xx_hal_pwr_ex.c ****   * @note When increasing the performance, the voltage scaling must be changed
 309:../Drivers/STM32N6xx_HAL_Driver/Src/stm32n6xx_hal_pwr_ex.c ****   *       before increasing the system frequency.
 310:../Drivers/STM32N6xx_HAL_Driver/Src/stm32n6xx_hal_pwr_ex.c ****   *       When decreasing performance, the system frequency must first be decreased
 311:../Drivers/STM32N6xx_HAL_Driver/Src/stm32n6xx_hal_pwr_ex.c ****   *       before changing the voltage scaling.
 312:../Drivers/STM32N6xx_HAL_Driver/Src/stm32n6xx_hal_pwr_ex.c ****   * @note When exiting from Stop mode or Standby mode, the Run mode voltage
 313:../Drivers/STM32N6xx_HAL_Driver/Src/stm32n6xx_hal_pwr_ex.c ****   *       scaling is reset to the default VOS low value.
 314:../Drivers/STM32N6xx_HAL_Driver/Src/stm32n6xx_hal_pwr_ex.c ****   * @retval HAL Status
 315:../Drivers/STM32N6xx_HAL_Driver/Src/stm32n6xx_hal_pwr_ex.c ****   */
 316:../Drivers/STM32N6xx_HAL_Driver/Src/stm32n6xx_hal_pwr_ex.c **** HAL_StatusTypeDef HAL_PWREx_ControlVoltageScaling(uint32_t VoltageScaling)
 317:../Drivers/STM32N6xx_HAL_Driver/Src/stm32n6xx_hal_pwr_ex.c **** {
 134              		.loc 1 317 1 is_stmt 1 view -0
 135              		.cfi_startproc
 136              		@ args = 0, pretend = 0, frame = 0
 137              		@ frame_needed = 0, uses_anonymous_args = 0
 138              		.loc 1 317 1 is_stmt 0 view .LVU25
 139 0000 10B5     		push	{r4, lr}
 140              	.LCFI1:
 141              		.cfi_def_cfa_offset 8
 142              		.cfi_offset 4, -8
 143              		.cfi_offset 14, -4
 318:../Drivers/STM32N6xx_HAL_Driver/Src/stm32n6xx_hal_pwr_ex.c ****   uint32_t tickstart;
ARM GAS  /tmp/ccb319AI.s 			page 9


 144              		.loc 1 318 3 is_stmt 1 view .LVU26
 319:../Drivers/STM32N6xx_HAL_Driver/Src/stm32n6xx_hal_pwr_ex.c **** 
 320:../Drivers/STM32N6xx_HAL_Driver/Src/stm32n6xx_hal_pwr_ex.c ****   /* Check the parameters */
 321:../Drivers/STM32N6xx_HAL_Driver/Src/stm32n6xx_hal_pwr_ex.c ****   assert_param(IS_PWR_REGULATOR_VOLTAGE(VoltageScaling));
 145              		.loc 1 321 3 view .LVU27
 322:../Drivers/STM32N6xx_HAL_Driver/Src/stm32n6xx_hal_pwr_ex.c **** 
 323:../Drivers/STM32N6xx_HAL_Driver/Src/stm32n6xx_hal_pwr_ex.c ****   /* Set the voltage range */
 324:../Drivers/STM32N6xx_HAL_Driver/Src/stm32n6xx_hal_pwr_ex.c ****   MODIFY_REG(PWR->VOSCR, PWR_VOSCR_VOS, VoltageScaling);
 146              		.loc 1 324 3 view .LVU28
 147 0002 0C4A     		ldr	r2, .L20
 148 0004 136A     		ldr	r3, [r2, #32]
 149 0006 23F00103 		bic	r3, r3, #1
 150 000a 0343     		orrs	r3, r3, r0
 151 000c 1362     		str	r3, [r2, #32]
 325:../Drivers/STM32N6xx_HAL_Driver/Src/stm32n6xx_hal_pwr_ex.c **** 
 326:../Drivers/STM32N6xx_HAL_Driver/Src/stm32n6xx_hal_pwr_ex.c ****   /* Get tick */
 327:../Drivers/STM32N6xx_HAL_Driver/Src/stm32n6xx_hal_pwr_ex.c ****   tickstart = HAL_GetTick();
 152              		.loc 1 327 3 view .LVU29
 153              		.loc 1 327 15 is_stmt 0 view .LVU30
 154 000e FFF7FEFF 		bl	HAL_GetTick
 155              	.LVL6:
 156              		.loc 1 327 15 view .LVU31
 157 0012 0446     		mov	r4, r0
 158              	.LVL7:
 328:../Drivers/STM32N6xx_HAL_Driver/Src/stm32n6xx_hal_pwr_ex.c **** 
 329:../Drivers/STM32N6xx_HAL_Driver/Src/stm32n6xx_hal_pwr_ex.c ****   /* Wait till voltage level flag is set */
 330:../Drivers/STM32N6xx_HAL_Driver/Src/stm32n6xx_hal_pwr_ex.c ****   while ((PWR->VOSCR & PWR_VOSCR_VOSRDY) == 0U)
 159              		.loc 1 330 3 is_stmt 1 view .LVU32
 160              	.L14:
 161              		.loc 1 330 42 discriminator 1 view .LVU33
 162              		.loc 1 330 14 is_stmt 0 discriminator 1 view .LVU34
 163 0014 074B     		ldr	r3, .L20
 164 0016 1B6A     		ldr	r3, [r3, #32]
 165              		.loc 1 330 42 discriminator 1 view .LVU35
 166 0018 13F0020F 		tst	r3, #2
 167 001c 07D1     		bne	.L19
 331:../Drivers/STM32N6xx_HAL_Driver/Src/stm32n6xx_hal_pwr_ex.c ****   {
 332:../Drivers/STM32N6xx_HAL_Driver/Src/stm32n6xx_hal_pwr_ex.c ****     if ((HAL_GetTick() - tickstart) > PWR_FLAG_SETTING_DELAY)
 168              		.loc 1 332 5 is_stmt 1 view .LVU36
 169              		.loc 1 332 10 is_stmt 0 view .LVU37
 170 001e FFF7FEFF 		bl	HAL_GetTick
 171              	.LVL8:
 172              		.loc 1 332 24 discriminator 1 view .LVU38
 173 0022 001B     		subs	r0, r0, r4
 174              		.loc 1 332 8 discriminator 1 view .LVU39
 175 0024 B0F57A7F 		cmp	r0, #1000
 176 0028 F4D9     		bls	.L14
 333:../Drivers/STM32N6xx_HAL_Driver/Src/stm32n6xx_hal_pwr_ex.c ****     {
 334:../Drivers/STM32N6xx_HAL_Driver/Src/stm32n6xx_hal_pwr_ex.c ****       return HAL_ERROR;
 177              		.loc 1 334 14 view .LVU40
 178 002a 0120     		movs	r0, #1
 179 002c 00E0     		b	.L15
 180              	.L19:
 335:../Drivers/STM32N6xx_HAL_Driver/Src/stm32n6xx_hal_pwr_ex.c ****     }
 336:../Drivers/STM32N6xx_HAL_Driver/Src/stm32n6xx_hal_pwr_ex.c ****   }
 337:../Drivers/STM32N6xx_HAL_Driver/Src/stm32n6xx_hal_pwr_ex.c **** 
 338:../Drivers/STM32N6xx_HAL_Driver/Src/stm32n6xx_hal_pwr_ex.c ****   return HAL_OK;
ARM GAS  /tmp/ccb319AI.s 			page 10


 181              		.loc 1 338 10 view .LVU41
 182 002e 0020     		movs	r0, #0
 183              	.L15:
 339:../Drivers/STM32N6xx_HAL_Driver/Src/stm32n6xx_hal_pwr_ex.c **** }
 184              		.loc 1 339 1 view .LVU42
 185 0030 10BD     		pop	{r4, pc}
 186              	.LVL9:
 187              	.L21:
 188              		.loc 1 339 1 view .LVU43
 189 0032 00BF     		.align	2
 190              	.L20:
 191 0034 00480256 		.word	1442990080
 192              		.cfi_endproc
 193              	.LFE883:
 195              		.section	.text.HAL_PWREx_GetVoltageRange,"ax",%progbits
 196              		.align	1
 197              		.global	HAL_PWREx_GetVoltageRange
 198              		.syntax unified
 199              		.thumb
 200              		.thumb_func
 202              	HAL_PWREx_GetVoltageRange:
 203              	.LFB884:
 340:../Drivers/STM32N6xx_HAL_Driver/Src/stm32n6xx_hal_pwr_ex.c **** 
 341:../Drivers/STM32N6xx_HAL_Driver/Src/stm32n6xx_hal_pwr_ex.c **** /**
 342:../Drivers/STM32N6xx_HAL_Driver/Src/stm32n6xx_hal_pwr_ex.c ****   * @brief Get the main internal regulator output voltage. Reflecting the last
 343:../Drivers/STM32N6xx_HAL_Driver/Src/stm32n6xx_hal_pwr_ex.c ****   *        VOS value applied to the PMU.
 344:../Drivers/STM32N6xx_HAL_Driver/Src/stm32n6xx_hal_pwr_ex.c ****   * @retval The current applied VOS selection.
 345:../Drivers/STM32N6xx_HAL_Driver/Src/stm32n6xx_hal_pwr_ex.c ****   */
 346:../Drivers/STM32N6xx_HAL_Driver/Src/stm32n6xx_hal_pwr_ex.c **** uint32_t HAL_PWREx_GetVoltageRange(void)
 347:../Drivers/STM32N6xx_HAL_Driver/Src/stm32n6xx_hal_pwr_ex.c **** {
 204              		.loc 1 347 1 is_stmt 1 view -0
 205              		.cfi_startproc
 206              		@ args = 0, pretend = 0, frame = 0
 207              		@ frame_needed = 0, uses_anonymous_args = 0
 208              		@ link register save eliminated.
 348:../Drivers/STM32N6xx_HAL_Driver/Src/stm32n6xx_hal_pwr_ex.c ****   /* Get the active voltage scaling */
 349:../Drivers/STM32N6xx_HAL_Driver/Src/stm32n6xx_hal_pwr_ex.c ****   return ((PWR->VOSCR & PWR_VOSCR_ACTVOS) >> PWR_VOSCR_ACTVOS_Pos);
 209              		.loc 1 349 3 view .LVU45
 210              		.loc 1 349 15 is_stmt 0 view .LVU46
 211 0000 024B     		ldr	r3, .L23
 212 0002 186A     		ldr	r0, [r3, #32]
 350:../Drivers/STM32N6xx_HAL_Driver/Src/stm32n6xx_hal_pwr_ex.c **** }
 213              		.loc 1 350 1 view .LVU47
 214 0004 C0F30040 		ubfx	r0, r0, #16, #1
 215 0008 7047     		bx	lr
 216              	.L24:
 217 000a 00BF     		.align	2
 218              	.L23:
 219 000c 00480256 		.word	1442990080
 220              		.cfi_endproc
 221              	.LFE884:
 223              		.section	.text.HAL_PWREx_ControlStopModeVoltageScaling,"ax",%progbits
 224              		.align	1
 225              		.global	HAL_PWREx_ControlStopModeVoltageScaling
 226              		.syntax unified
 227              		.thumb
 228              		.thumb_func
ARM GAS  /tmp/ccb319AI.s 			page 11


 230              	HAL_PWREx_ControlStopModeVoltageScaling:
 231              	.LVL10:
 232              	.LFB885:
 351:../Drivers/STM32N6xx_HAL_Driver/Src/stm32n6xx_hal_pwr_ex.c **** 
 352:../Drivers/STM32N6xx_HAL_Driver/Src/stm32n6xx_hal_pwr_ex.c **** /**
 353:../Drivers/STM32N6xx_HAL_Driver/Src/stm32n6xx_hal_pwr_ex.c ****   * @brief Configure the main internal regulator output voltage in STOP mode.
 354:../Drivers/STM32N6xx_HAL_Driver/Src/stm32n6xx_hal_pwr_ex.c ****   * @param  VoltageScaling : Specifies the regulator output voltage when the
 355:../Drivers/STM32N6xx_HAL_Driver/Src/stm32n6xx_hal_pwr_ex.c ****   *         system enters Stop mode to achieve a tradeoff between performance
 356:../Drivers/STM32N6xx_HAL_Driver/Src/stm32n6xx_hal_pwr_ex.c ****   *         and power consumption.
 357:../Drivers/STM32N6xx_HAL_Driver/Src/stm32n6xx_hal_pwr_ex.c ****   *          This parameter can be one of the following values:
 358:../Drivers/STM32N6xx_HAL_Driver/Src/stm32n6xx_hal_pwr_ex.c ****   *            @arg PWR_REGULATOR_STOP_VOLTAGE_SCALE3 : System Stop mode voltage scaling range 3 (h
 359:../Drivers/STM32N6xx_HAL_Driver/Src/stm32n6xx_hal_pwr_ex.c ****   *            @arg PWR_REGULATOR_STOP_VOLTAGE_SCALE5 : System Stop mode voltage scaling range 5 (l
 360:../Drivers/STM32N6xx_HAL_Driver/Src/stm32n6xx_hal_pwr_ex.c ****   * @retval None.
 361:../Drivers/STM32N6xx_HAL_Driver/Src/stm32n6xx_hal_pwr_ex.c ****   */
 362:../Drivers/STM32N6xx_HAL_Driver/Src/stm32n6xx_hal_pwr_ex.c **** void HAL_PWREx_ControlStopModeVoltageScaling(uint32_t VoltageScaling)
 363:../Drivers/STM32N6xx_HAL_Driver/Src/stm32n6xx_hal_pwr_ex.c **** {
 233              		.loc 1 363 1 is_stmt 1 view -0
 234              		.cfi_startproc
 235              		@ args = 0, pretend = 0, frame = 0
 236              		@ frame_needed = 0, uses_anonymous_args = 0
 237              		@ link register save eliminated.
 364:../Drivers/STM32N6xx_HAL_Driver/Src/stm32n6xx_hal_pwr_ex.c ****   /* Check the parameters */
 365:../Drivers/STM32N6xx_HAL_Driver/Src/stm32n6xx_hal_pwr_ex.c ****   assert_param(IS_PWR_STOP_MODE_REGULATOR_VOLTAGE(VoltageScaling));
 238              		.loc 1 365 3 view .LVU49
 366:../Drivers/STM32N6xx_HAL_Driver/Src/stm32n6xx_hal_pwr_ex.c **** 
 367:../Drivers/STM32N6xx_HAL_Driver/Src/stm32n6xx_hal_pwr_ex.c ****   /* Return the stop mode voltage range */
 368:../Drivers/STM32N6xx_HAL_Driver/Src/stm32n6xx_hal_pwr_ex.c ****   MODIFY_REG(PWR->CPUCR, PWR_CPUCR_SVOS, VoltageScaling);
 239              		.loc 1 368 3 view .LVU50
 240 0000 034A     		ldr	r2, .L26
 241 0002 136B     		ldr	r3, [r2, #48]
 242 0004 23F48033 		bic	r3, r3, #65536
 243 0008 0343     		orrs	r3, r3, r0
 244 000a 1363     		str	r3, [r2, #48]
 369:../Drivers/STM32N6xx_HAL_Driver/Src/stm32n6xx_hal_pwr_ex.c **** }
 245              		.loc 1 369 1 is_stmt 0 view .LVU51
 246 000c 7047     		bx	lr
 247              	.L27:
 248 000e 00BF     		.align	2
 249              	.L26:
 250 0010 00480256 		.word	1442990080
 251              		.cfi_endproc
 252              	.LFE885:
 254              		.section	.text.HAL_PWREx_GetStopModeVoltageRange,"ax",%progbits
 255              		.align	1
 256              		.global	HAL_PWREx_GetStopModeVoltageRange
 257              		.syntax unified
 258              		.thumb
 259              		.thumb_func
 261              	HAL_PWREx_GetStopModeVoltageRange:
 262              	.LFB886:
 370:../Drivers/STM32N6xx_HAL_Driver/Src/stm32n6xx_hal_pwr_ex.c **** 
 371:../Drivers/STM32N6xx_HAL_Driver/Src/stm32n6xx_hal_pwr_ex.c **** /**
 372:../Drivers/STM32N6xx_HAL_Driver/Src/stm32n6xx_hal_pwr_ex.c ****   * @brief Get the main internal regulator output voltage in STOP mode.
 373:../Drivers/STM32N6xx_HAL_Driver/Src/stm32n6xx_hal_pwr_ex.c ****   * @retval The actual applied SVOS selection.
 374:../Drivers/STM32N6xx_HAL_Driver/Src/stm32n6xx_hal_pwr_ex.c ****   */
 375:../Drivers/STM32N6xx_HAL_Driver/Src/stm32n6xx_hal_pwr_ex.c **** uint32_t HAL_PWREx_GetStopModeVoltageRange(void)
 376:../Drivers/STM32N6xx_HAL_Driver/Src/stm32n6xx_hal_pwr_ex.c **** {
ARM GAS  /tmp/ccb319AI.s 			page 12


 263              		.loc 1 376 1 is_stmt 1 view -0
 264              		.cfi_startproc
 265              		@ args = 0, pretend = 0, frame = 0
 266              		@ frame_needed = 0, uses_anonymous_args = 0
 267              		@ link register save eliminated.
 377:../Drivers/STM32N6xx_HAL_Driver/Src/stm32n6xx_hal_pwr_ex.c ****   /* Return the stop voltage scaling */
 378:../Drivers/STM32N6xx_HAL_Driver/Src/stm32n6xx_hal_pwr_ex.c ****   return (PWR->CPUCR & PWR_CPUCR_SVOS);
 268              		.loc 1 378 3 view .LVU53
 269              		.loc 1 378 14 is_stmt 0 view .LVU54
 270 0000 024B     		ldr	r3, .L29
 271 0002 186B     		ldr	r0, [r3, #48]
 379:../Drivers/STM32N6xx_HAL_Driver/Src/stm32n6xx_hal_pwr_ex.c **** }
 272              		.loc 1 379 1 view .LVU55
 273 0004 00F48030 		and	r0, r0, #65536
 274 0008 7047     		bx	lr
 275              	.L30:
 276 000a 00BF     		.align	2
 277              	.L29:
 278 000c 00480256 		.word	1442990080
 279              		.cfi_endproc
 280              	.LFE886:
 282              		.section	.text.HAL_PWREx_EnableWakeUpPin,"ax",%progbits
 283              		.align	1
 284              		.global	HAL_PWREx_EnableWakeUpPin
 285              		.syntax unified
 286              		.thumb
 287              		.thumb_func
 289              	HAL_PWREx_EnableWakeUpPin:
 290              	.LVL11:
 291              	.LFB887:
 380:../Drivers/STM32N6xx_HAL_Driver/Src/stm32n6xx_hal_pwr_ex.c **** /**
 381:../Drivers/STM32N6xx_HAL_Driver/Src/stm32n6xx_hal_pwr_ex.c ****   * @}
 382:../Drivers/STM32N6xx_HAL_Driver/Src/stm32n6xx_hal_pwr_ex.c ****   */
 383:../Drivers/STM32N6xx_HAL_Driver/Src/stm32n6xx_hal_pwr_ex.c **** 
 384:../Drivers/STM32N6xx_HAL_Driver/Src/stm32n6xx_hal_pwr_ex.c **** /** @defgroup PWREx_Exported_Functions_Group2 Wakeup Pins configuration functions
 385:../Drivers/STM32N6xx_HAL_Driver/Src/stm32n6xx_hal_pwr_ex.c ****   * @brief     Wakeup Pins configuration functions
 386:../Drivers/STM32N6xx_HAL_Driver/Src/stm32n6xx_hal_pwr_ex.c ****   *
 387:../Drivers/STM32N6xx_HAL_Driver/Src/stm32n6xx_hal_pwr_ex.c **** @verbatim
 388:../Drivers/STM32N6xx_HAL_Driver/Src/stm32n6xx_hal_pwr_ex.c ****  ===============================================================================
 389:../Drivers/STM32N6xx_HAL_Driver/Src/stm32n6xx_hal_pwr_ex.c ****                      ##### Wakeup Pins configuration functions #####
 390:../Drivers/STM32N6xx_HAL_Driver/Src/stm32n6xx_hal_pwr_ex.c ****  ===============================================================================
 391:../Drivers/STM32N6xx_HAL_Driver/Src/stm32n6xx_hal_pwr_ex.c ****     [..]
 392:../Drivers/STM32N6xx_HAL_Driver/Src/stm32n6xx_hal_pwr_ex.c **** 
 393:../Drivers/STM32N6xx_HAL_Driver/Src/stm32n6xx_hal_pwr_ex.c ****     *** Wakeup Pins configuration ****
 394:../Drivers/STM32N6xx_HAL_Driver/Src/stm32n6xx_hal_pwr_ex.c ****     ===================================
 395:../Drivers/STM32N6xx_HAL_Driver/Src/stm32n6xx_hal_pwr_ex.c ****     [..]
 396:../Drivers/STM32N6xx_HAL_Driver/Src/stm32n6xx_hal_pwr_ex.c ****       Wakeup pins allow the system to exit from Standby mode. The configuration
 397:../Drivers/STM32N6xx_HAL_Driver/Src/stm32n6xx_hal_pwr_ex.c ****       of wakeup pins is done with the HAL_PWREx_EnableWakeUpPin(sPinParams)
 398:../Drivers/STM32N6xx_HAL_Driver/Src/stm32n6xx_hal_pwr_ex.c ****       function with:
 399:../Drivers/STM32N6xx_HAL_Driver/Src/stm32n6xx_hal_pwr_ex.c ****        (+) sPinParams: structure to enable and configure a wakeup pin:
 400:../Drivers/STM32N6xx_HAL_Driver/Src/stm32n6xx_hal_pwr_ex.c ****         (++) WakeUpPin: Wakeup pin to be enabled.
 401:../Drivers/STM32N6xx_HAL_Driver/Src/stm32n6xx_hal_pwr_ex.c ****         (++) PinPolarity: Wakeup pin polarity (rising or falling edge).
 402:../Drivers/STM32N6xx_HAL_Driver/Src/stm32n6xx_hal_pwr_ex.c ****         (++) PinPull: Wakeup pin pull (no pull, pull-up or pull-down).
 403:../Drivers/STM32N6xx_HAL_Driver/Src/stm32n6xx_hal_pwr_ex.c ****     [..]
 404:../Drivers/STM32N6xx_HAL_Driver/Src/stm32n6xx_hal_pwr_ex.c ****       The wakeup pins are internally connected to the EXTI lines [60-63] to
 405:../Drivers/STM32N6xx_HAL_Driver/Src/stm32n6xx_hal_pwr_ex.c ****       generate an interrupt if enabled.
 406:../Drivers/STM32N6xx_HAL_Driver/Src/stm32n6xx_hal_pwr_ex.c ****     [..]
ARM GAS  /tmp/ccb319AI.s 			page 13


 407:../Drivers/STM32N6xx_HAL_Driver/Src/stm32n6xx_hal_pwr_ex.c ****       When a wakeup pin event is received the HAL_PWR_WAKEUP_PIN_IRQHandler is
 408:../Drivers/STM32N6xx_HAL_Driver/Src/stm32n6xx_hal_pwr_ex.c ****       called and the appropriate flag is set in the PWR_WKUPSR register. Then in
 409:../Drivers/STM32N6xx_HAL_Driver/Src/stm32n6xx_hal_pwr_ex.c ****       the HAL_PWR_WAKEUP_PIN_IRQHandler function the wakeup pin flag will be
 410:../Drivers/STM32N6xx_HAL_Driver/Src/stm32n6xx_hal_pwr_ex.c ****       cleared and the appropriate user callback will be called. The user can add
 411:../Drivers/STM32N6xx_HAL_Driver/Src/stm32n6xx_hal_pwr_ex.c ****       his own code by customization of function pointer HAL_PWR_WKUPx_Callback.
 412:../Drivers/STM32N6xx_HAL_Driver/Src/stm32n6xx_hal_pwr_ex.c **** 
 413:../Drivers/STM32N6xx_HAL_Driver/Src/stm32n6xx_hal_pwr_ex.c **** @endverbatim
 414:../Drivers/STM32N6xx_HAL_Driver/Src/stm32n6xx_hal_pwr_ex.c ****   * @{
 415:../Drivers/STM32N6xx_HAL_Driver/Src/stm32n6xx_hal_pwr_ex.c ****   */
 416:../Drivers/STM32N6xx_HAL_Driver/Src/stm32n6xx_hal_pwr_ex.c **** /**
 417:../Drivers/STM32N6xx_HAL_Driver/Src/stm32n6xx_hal_pwr_ex.c ****   * @brief Enable the Wake-up PINx functionality.
 418:../Drivers/STM32N6xx_HAL_Driver/Src/stm32n6xx_hal_pwr_ex.c ****   * @param  sPinParams : Pointer to a PWREx_WakeupPinTypeDef structure that
 419:../Drivers/STM32N6xx_HAL_Driver/Src/stm32n6xx_hal_pwr_ex.c ****   *                      contains the configuration information for the wake-up
 420:../Drivers/STM32N6xx_HAL_Driver/Src/stm32n6xx_hal_pwr_ex.c ****   *                      Pin.
 421:../Drivers/STM32N6xx_HAL_Driver/Src/stm32n6xx_hal_pwr_ex.c ****   * @retval None.
 422:../Drivers/STM32N6xx_HAL_Driver/Src/stm32n6xx_hal_pwr_ex.c ****   */
 423:../Drivers/STM32N6xx_HAL_Driver/Src/stm32n6xx_hal_pwr_ex.c **** void HAL_PWREx_EnableWakeUpPin(const PWREx_WakeupPinTypeDef *sPinParams)
 424:../Drivers/STM32N6xx_HAL_Driver/Src/stm32n6xx_hal_pwr_ex.c **** {
 292              		.loc 1 424 1 is_stmt 1 view -0
 293              		.cfi_startproc
 294              		@ args = 0, pretend = 0, frame = 0
 295              		@ frame_needed = 0, uses_anonymous_args = 0
 296              		@ link register save eliminated.
 425:../Drivers/STM32N6xx_HAL_Driver/Src/stm32n6xx_hal_pwr_ex.c ****   uint32_t pinConfig;
 297              		.loc 1 425 3 view .LVU57
 426:../Drivers/STM32N6xx_HAL_Driver/Src/stm32n6xx_hal_pwr_ex.c ****   uint32_t regMask;
 298              		.loc 1 426 3 view .LVU58
 427:../Drivers/STM32N6xx_HAL_Driver/Src/stm32n6xx_hal_pwr_ex.c ****   const uint32_t pullMask = PWR_WKUPEPR_WKUPPUPD1;
 299              		.loc 1 427 3 view .LVU59
 428:../Drivers/STM32N6xx_HAL_Driver/Src/stm32n6xx_hal_pwr_ex.c **** 
 429:../Drivers/STM32N6xx_HAL_Driver/Src/stm32n6xx_hal_pwr_ex.c ****   /* Check the parameters */
 430:../Drivers/STM32N6xx_HAL_Driver/Src/stm32n6xx_hal_pwr_ex.c ****   assert_param(IS_PWR_WAKEUP_PIN(sPinParams->WakeUpPin));
 300              		.loc 1 430 3 view .LVU60
 431:../Drivers/STM32N6xx_HAL_Driver/Src/stm32n6xx_hal_pwr_ex.c ****   assert_param(IS_PWR_WAKEUP_PIN_POLARITY(sPinParams->PinPolarity));
 301              		.loc 1 431 3 view .LVU61
 432:../Drivers/STM32N6xx_HAL_Driver/Src/stm32n6xx_hal_pwr_ex.c ****   assert_param(IS_PWR_WAKEUP_PIN_PULL(sPinParams->PinPull));
 302              		.loc 1 432 3 view .LVU62
 433:../Drivers/STM32N6xx_HAL_Driver/Src/stm32n6xx_hal_pwr_ex.c **** 
 434:../Drivers/STM32N6xx_HAL_Driver/Src/stm32n6xx_hal_pwr_ex.c ****   pinConfig = sPinParams->WakeUpPin | \
 303              		.loc 1 434 3 view .LVU63
 304              		.loc 1 434 25 is_stmt 0 view .LVU64
 305 0000 0368     		ldr	r3, [r0]
 435:../Drivers/STM32N6xx_HAL_Driver/Src/stm32n6xx_hal_pwr_ex.c ****               (sPinParams->PinPolarity << ((POSITION_VAL(sPinParams->WakeUpPin) + PWR_WKUPEPR_WKUPP
 306              		.loc 1 435 26 view .LVU65
 307 0002 4168     		ldr	r1, [r0, #4]
 308              	.LVL12:
 309              	.LBB18:
 310              	.LBI18:
 311              		.file 2 "../Drivers/CMSIS/Include/cmsis_gcc.h"
   1:../Drivers/CMSIS/Include/cmsis_gcc.h **** /**************************************************************************//**
   2:../Drivers/CMSIS/Include/cmsis_gcc.h ****  * @file     cmsis_gcc.h
   3:../Drivers/CMSIS/Include/cmsis_gcc.h ****  * @brief    CMSIS compiler GCC header file
   4:../Drivers/CMSIS/Include/cmsis_gcc.h ****  * @version  V6.0.0
   5:../Drivers/CMSIS/Include/cmsis_gcc.h ****  * @date     27. July 2024
   6:../Drivers/CMSIS/Include/cmsis_gcc.h ****  ******************************************************************************/
   7:../Drivers/CMSIS/Include/cmsis_gcc.h **** /*
   8:../Drivers/CMSIS/Include/cmsis_gcc.h ****  * Copyright (c) 2009-2023 Arm Limited. All rights reserved.
ARM GAS  /tmp/ccb319AI.s 			page 14


   9:../Drivers/CMSIS/Include/cmsis_gcc.h ****  *
  10:../Drivers/CMSIS/Include/cmsis_gcc.h ****  * SPDX-License-Identifier: Apache-2.0
  11:../Drivers/CMSIS/Include/cmsis_gcc.h ****  *
  12:../Drivers/CMSIS/Include/cmsis_gcc.h ****  * Licensed under the Apache License, Version 2.0 (the License); you may
  13:../Drivers/CMSIS/Include/cmsis_gcc.h ****  * not use this file except in compliance with the License.
  14:../Drivers/CMSIS/Include/cmsis_gcc.h ****  * You may obtain a copy of the License at
  15:../Drivers/CMSIS/Include/cmsis_gcc.h ****  *
  16:../Drivers/CMSIS/Include/cmsis_gcc.h ****  * www.apache.org/licenses/LICENSE-2.0
  17:../Drivers/CMSIS/Include/cmsis_gcc.h ****  *
  18:../Drivers/CMSIS/Include/cmsis_gcc.h ****  * Unless required by applicable law or agreed to in writing, software
  19:../Drivers/CMSIS/Include/cmsis_gcc.h ****  * distributed under the License is distributed on an AS IS BASIS, WITHOUT
  20:../Drivers/CMSIS/Include/cmsis_gcc.h ****  * WARRANTIES OR CONDITIONS OF ANY KIND, either express or implied.
  21:../Drivers/CMSIS/Include/cmsis_gcc.h ****  * See the License for the specific language governing permissions and
  22:../Drivers/CMSIS/Include/cmsis_gcc.h ****  * limitations under the License.
  23:../Drivers/CMSIS/Include/cmsis_gcc.h ****  */
  24:../Drivers/CMSIS/Include/cmsis_gcc.h **** 
  25:../Drivers/CMSIS/Include/cmsis_gcc.h **** #ifndef __CMSIS_GCC_H
  26:../Drivers/CMSIS/Include/cmsis_gcc.h **** #define __CMSIS_GCC_H
  27:../Drivers/CMSIS/Include/cmsis_gcc.h **** 
  28:../Drivers/CMSIS/Include/cmsis_gcc.h **** #pragma GCC system_header   /* treat file as system include file */
  29:../Drivers/CMSIS/Include/cmsis_gcc.h **** 
  30:../Drivers/CMSIS/Include/cmsis_gcc.h **** #include <arm_acle.h>
  31:../Drivers/CMSIS/Include/cmsis_gcc.h **** 
  32:../Drivers/CMSIS/Include/cmsis_gcc.h **** /* Fallback for __has_builtin */
  33:../Drivers/CMSIS/Include/cmsis_gcc.h **** #ifndef __has_builtin
  34:../Drivers/CMSIS/Include/cmsis_gcc.h ****   #define __has_builtin(x) (0)
  35:../Drivers/CMSIS/Include/cmsis_gcc.h **** #endif
  36:../Drivers/CMSIS/Include/cmsis_gcc.h **** 
  37:../Drivers/CMSIS/Include/cmsis_gcc.h **** /* CMSIS compiler specific defines */
  38:../Drivers/CMSIS/Include/cmsis_gcc.h **** #ifndef   __ASM
  39:../Drivers/CMSIS/Include/cmsis_gcc.h ****   #define __ASM                                  __asm
  40:../Drivers/CMSIS/Include/cmsis_gcc.h **** #endif
  41:../Drivers/CMSIS/Include/cmsis_gcc.h **** #ifndef   __INLINE
  42:../Drivers/CMSIS/Include/cmsis_gcc.h ****   #define __INLINE                               inline
  43:../Drivers/CMSIS/Include/cmsis_gcc.h **** #endif
  44:../Drivers/CMSIS/Include/cmsis_gcc.h **** #ifndef   __STATIC_INLINE
  45:../Drivers/CMSIS/Include/cmsis_gcc.h ****   #define __STATIC_INLINE                        static inline
  46:../Drivers/CMSIS/Include/cmsis_gcc.h **** #endif
  47:../Drivers/CMSIS/Include/cmsis_gcc.h **** #ifndef   __STATIC_FORCEINLINE
  48:../Drivers/CMSIS/Include/cmsis_gcc.h ****   #define __STATIC_FORCEINLINE                   __attribute__((always_inline)) static inline
  49:../Drivers/CMSIS/Include/cmsis_gcc.h **** #endif
  50:../Drivers/CMSIS/Include/cmsis_gcc.h **** #ifndef   __NO_RETURN
  51:../Drivers/CMSIS/Include/cmsis_gcc.h ****   #define __NO_RETURN                            __attribute__((__noreturn__))
  52:../Drivers/CMSIS/Include/cmsis_gcc.h **** #endif
  53:../Drivers/CMSIS/Include/cmsis_gcc.h **** #ifndef   CMSIS_DEPRECATED
  54:../Drivers/CMSIS/Include/cmsis_gcc.h ****   #define CMSIS_DEPRECATED                       __attribute__((deprecated))
  55:../Drivers/CMSIS/Include/cmsis_gcc.h **** #endif
  56:../Drivers/CMSIS/Include/cmsis_gcc.h **** #ifndef   __USED
  57:../Drivers/CMSIS/Include/cmsis_gcc.h ****   #define __USED                                 __attribute__((used))
  58:../Drivers/CMSIS/Include/cmsis_gcc.h **** #endif
  59:../Drivers/CMSIS/Include/cmsis_gcc.h **** #ifndef   __WEAK
  60:../Drivers/CMSIS/Include/cmsis_gcc.h ****   #define __WEAK                                 __attribute__((weak))
  61:../Drivers/CMSIS/Include/cmsis_gcc.h **** #endif
  62:../Drivers/CMSIS/Include/cmsis_gcc.h **** #ifndef   __PACKED
  63:../Drivers/CMSIS/Include/cmsis_gcc.h ****   #define __PACKED                               __attribute__((packed, aligned(1)))
  64:../Drivers/CMSIS/Include/cmsis_gcc.h **** #endif
  65:../Drivers/CMSIS/Include/cmsis_gcc.h **** #ifndef   __PACKED_STRUCT
ARM GAS  /tmp/ccb319AI.s 			page 15


  66:../Drivers/CMSIS/Include/cmsis_gcc.h ****   #define __PACKED_STRUCT                        struct __attribute__((packed, aligned(1)))
  67:../Drivers/CMSIS/Include/cmsis_gcc.h **** #endif
  68:../Drivers/CMSIS/Include/cmsis_gcc.h **** #ifndef   __PACKED_UNION
  69:../Drivers/CMSIS/Include/cmsis_gcc.h ****   #define __PACKED_UNION                         union __attribute__((packed, aligned(1)))
  70:../Drivers/CMSIS/Include/cmsis_gcc.h **** #endif
  71:../Drivers/CMSIS/Include/cmsis_gcc.h **** #ifndef   __UNALIGNED_UINT16_WRITE
  72:../Drivers/CMSIS/Include/cmsis_gcc.h ****   #pragma GCC diagnostic push
  73:../Drivers/CMSIS/Include/cmsis_gcc.h ****   #pragma GCC diagnostic ignored "-Wpacked"
  74:../Drivers/CMSIS/Include/cmsis_gcc.h ****   #pragma GCC diagnostic ignored "-Wattributes"
  75:../Drivers/CMSIS/Include/cmsis_gcc.h ****   __PACKED_STRUCT T_UINT16_WRITE { uint16_t v; };
  76:../Drivers/CMSIS/Include/cmsis_gcc.h ****   #pragma GCC diagnostic pop
  77:../Drivers/CMSIS/Include/cmsis_gcc.h ****   #define __UNALIGNED_UINT16_WRITE(addr, val)    (void)((((struct T_UINT16_WRITE *)(void *)(addr))-
  78:../Drivers/CMSIS/Include/cmsis_gcc.h **** #endif
  79:../Drivers/CMSIS/Include/cmsis_gcc.h **** #ifndef   __UNALIGNED_UINT16_READ
  80:../Drivers/CMSIS/Include/cmsis_gcc.h ****   #pragma GCC diagnostic push
  81:../Drivers/CMSIS/Include/cmsis_gcc.h ****   #pragma GCC diagnostic ignored "-Wpacked"
  82:../Drivers/CMSIS/Include/cmsis_gcc.h ****   #pragma GCC diagnostic ignored "-Wattributes"
  83:../Drivers/CMSIS/Include/cmsis_gcc.h ****   __PACKED_STRUCT T_UINT16_READ { uint16_t v; };
  84:../Drivers/CMSIS/Include/cmsis_gcc.h ****   #pragma GCC diagnostic pop
  85:../Drivers/CMSIS/Include/cmsis_gcc.h ****   #define __UNALIGNED_UINT16_READ(addr)          (((const struct T_UINT16_READ *)(const void *)(add
  86:../Drivers/CMSIS/Include/cmsis_gcc.h **** #endif
  87:../Drivers/CMSIS/Include/cmsis_gcc.h **** #ifndef   __UNALIGNED_UINT32_WRITE
  88:../Drivers/CMSIS/Include/cmsis_gcc.h ****   #pragma GCC diagnostic push
  89:../Drivers/CMSIS/Include/cmsis_gcc.h ****   #pragma GCC diagnostic ignored "-Wpacked"
  90:../Drivers/CMSIS/Include/cmsis_gcc.h ****   #pragma GCC diagnostic ignored "-Wattributes"
  91:../Drivers/CMSIS/Include/cmsis_gcc.h ****   __PACKED_STRUCT T_UINT32_WRITE { uint32_t v; };
  92:../Drivers/CMSIS/Include/cmsis_gcc.h ****   #pragma GCC diagnostic pop
  93:../Drivers/CMSIS/Include/cmsis_gcc.h ****   #define __UNALIGNED_UINT32_WRITE(addr, val)    (void)((((struct T_UINT32_WRITE *)(void *)(addr))-
  94:../Drivers/CMSIS/Include/cmsis_gcc.h **** #endif
  95:../Drivers/CMSIS/Include/cmsis_gcc.h **** #ifndef   __UNALIGNED_UINT32_READ
  96:../Drivers/CMSIS/Include/cmsis_gcc.h ****   #pragma GCC diagnostic push
  97:../Drivers/CMSIS/Include/cmsis_gcc.h ****   #pragma GCC diagnostic ignored "-Wpacked"
  98:../Drivers/CMSIS/Include/cmsis_gcc.h ****   #pragma GCC diagnostic ignored "-Wattributes"
  99:../Drivers/CMSIS/Include/cmsis_gcc.h ****   __PACKED_STRUCT T_UINT32_READ { uint32_t v; };
 100:../Drivers/CMSIS/Include/cmsis_gcc.h ****   #pragma GCC diagnostic pop
 101:../Drivers/CMSIS/Include/cmsis_gcc.h ****   #define __UNALIGNED_UINT32_READ(addr)          (((const struct T_UINT32_READ *)(const void *)(add
 102:../Drivers/CMSIS/Include/cmsis_gcc.h **** #endif
 103:../Drivers/CMSIS/Include/cmsis_gcc.h **** #ifndef   __ALIGNED
 104:../Drivers/CMSIS/Include/cmsis_gcc.h ****   #define __ALIGNED(x)                           __attribute__((aligned(x)))
 105:../Drivers/CMSIS/Include/cmsis_gcc.h **** #endif
 106:../Drivers/CMSIS/Include/cmsis_gcc.h **** #ifndef   __RESTRICT
 107:../Drivers/CMSIS/Include/cmsis_gcc.h ****   #define __RESTRICT                             __restrict
 108:../Drivers/CMSIS/Include/cmsis_gcc.h **** #endif
 109:../Drivers/CMSIS/Include/cmsis_gcc.h **** #ifndef   __COMPILER_BARRIER
 110:../Drivers/CMSIS/Include/cmsis_gcc.h ****   #define __COMPILER_BARRIER()                   __ASM volatile("":::"memory")
 111:../Drivers/CMSIS/Include/cmsis_gcc.h **** #endif
 112:../Drivers/CMSIS/Include/cmsis_gcc.h **** #ifndef __NO_INIT
 113:../Drivers/CMSIS/Include/cmsis_gcc.h ****   #define __NO_INIT                              __attribute__ ((section (".noinit")))
 114:../Drivers/CMSIS/Include/cmsis_gcc.h **** #endif
 115:../Drivers/CMSIS/Include/cmsis_gcc.h **** #ifndef __ALIAS
 116:../Drivers/CMSIS/Include/cmsis_gcc.h ****   #define __ALIAS(x)                             __attribute__ ((alias(x)))
 117:../Drivers/CMSIS/Include/cmsis_gcc.h **** #endif
 118:../Drivers/CMSIS/Include/cmsis_gcc.h **** 
 119:../Drivers/CMSIS/Include/cmsis_gcc.h **** /* ##########################  Core Instruction Access  ######################### */
 120:../Drivers/CMSIS/Include/cmsis_gcc.h **** /** \defgroup CMSIS_Core_InstructionInterface CMSIS Core Instruction Interface
 121:../Drivers/CMSIS/Include/cmsis_gcc.h ****   Access to dedicated instructions
 122:../Drivers/CMSIS/Include/cmsis_gcc.h ****   @{
ARM GAS  /tmp/ccb319AI.s 			page 16


 123:../Drivers/CMSIS/Include/cmsis_gcc.h **** */
 124:../Drivers/CMSIS/Include/cmsis_gcc.h **** 
 125:../Drivers/CMSIS/Include/cmsis_gcc.h **** /* Define macros for porting to both thumb1 and thumb2.
 126:../Drivers/CMSIS/Include/cmsis_gcc.h ****  * For thumb1, use low register (r0-r7), specified by constraint "l"
 127:../Drivers/CMSIS/Include/cmsis_gcc.h ****  * Otherwise, use general registers, specified by constraint "r" */
 128:../Drivers/CMSIS/Include/cmsis_gcc.h **** #if defined (__thumb__) && !defined (__thumb2__)
 129:../Drivers/CMSIS/Include/cmsis_gcc.h **** #define __CMSIS_GCC_OUT_REG(r) "=l" (r)
 130:../Drivers/CMSIS/Include/cmsis_gcc.h **** #define __CMSIS_GCC_RW_REG(r) "+l" (r)
 131:../Drivers/CMSIS/Include/cmsis_gcc.h **** #define __CMSIS_GCC_USE_REG(r) "l" (r)
 132:../Drivers/CMSIS/Include/cmsis_gcc.h **** #else
 133:../Drivers/CMSIS/Include/cmsis_gcc.h **** #define __CMSIS_GCC_OUT_REG(r) "=r" (r)
 134:../Drivers/CMSIS/Include/cmsis_gcc.h **** #define __CMSIS_GCC_RW_REG(r) "+r" (r)
 135:../Drivers/CMSIS/Include/cmsis_gcc.h **** #define __CMSIS_GCC_USE_REG(r) "r" (r)
 136:../Drivers/CMSIS/Include/cmsis_gcc.h **** #endif
 137:../Drivers/CMSIS/Include/cmsis_gcc.h **** 
 138:../Drivers/CMSIS/Include/cmsis_gcc.h **** /**
 139:../Drivers/CMSIS/Include/cmsis_gcc.h ****   \brief   No Operation
 140:../Drivers/CMSIS/Include/cmsis_gcc.h ****   \details No Operation does nothing. This instruction can be used for code alignment purposes.
 141:../Drivers/CMSIS/Include/cmsis_gcc.h ****  */
 142:../Drivers/CMSIS/Include/cmsis_gcc.h **** #define __NOP()         __ASM volatile ("nop")
 143:../Drivers/CMSIS/Include/cmsis_gcc.h **** 
 144:../Drivers/CMSIS/Include/cmsis_gcc.h **** 
 145:../Drivers/CMSIS/Include/cmsis_gcc.h **** /**
 146:../Drivers/CMSIS/Include/cmsis_gcc.h ****   \brief   Wait For Interrupt
 147:../Drivers/CMSIS/Include/cmsis_gcc.h ****   \details Wait For Interrupt is a hint instruction that suspends execution until one of a number o
 148:../Drivers/CMSIS/Include/cmsis_gcc.h ****  */
 149:../Drivers/CMSIS/Include/cmsis_gcc.h **** #define __WFI()         __ASM volatile ("wfi":::"memory")
 150:../Drivers/CMSIS/Include/cmsis_gcc.h **** 
 151:../Drivers/CMSIS/Include/cmsis_gcc.h **** 
 152:../Drivers/CMSIS/Include/cmsis_gcc.h **** /**
 153:../Drivers/CMSIS/Include/cmsis_gcc.h ****   \brief   Wait For Event
 154:../Drivers/CMSIS/Include/cmsis_gcc.h ****   \details Wait For Event is a hint instruction that permits the processor to enter
 155:../Drivers/CMSIS/Include/cmsis_gcc.h ****            a low-power state until one of a number of events occurs.
 156:../Drivers/CMSIS/Include/cmsis_gcc.h ****  */
 157:../Drivers/CMSIS/Include/cmsis_gcc.h **** #define __WFE()         __ASM volatile ("wfe":::"memory")
 158:../Drivers/CMSIS/Include/cmsis_gcc.h **** 
 159:../Drivers/CMSIS/Include/cmsis_gcc.h **** 
 160:../Drivers/CMSIS/Include/cmsis_gcc.h **** /**
 161:../Drivers/CMSIS/Include/cmsis_gcc.h ****   \brief   Send Event
 162:../Drivers/CMSIS/Include/cmsis_gcc.h ****   \details Send Event is a hint instruction. It causes an event to be signaled to the CPU.
 163:../Drivers/CMSIS/Include/cmsis_gcc.h ****  */
 164:../Drivers/CMSIS/Include/cmsis_gcc.h **** #define __SEV()         __ASM volatile ("sev")
 165:../Drivers/CMSIS/Include/cmsis_gcc.h **** 
 166:../Drivers/CMSIS/Include/cmsis_gcc.h **** 
 167:../Drivers/CMSIS/Include/cmsis_gcc.h **** /**
 168:../Drivers/CMSIS/Include/cmsis_gcc.h ****   \brief   Instruction Synchronization Barrier
 169:../Drivers/CMSIS/Include/cmsis_gcc.h ****   \details Instruction Synchronization Barrier flushes the pipeline in the processor,
 170:../Drivers/CMSIS/Include/cmsis_gcc.h ****            so that all instructions following the ISB are fetched from cache or memory,
 171:../Drivers/CMSIS/Include/cmsis_gcc.h ****            after the instruction has been completed.
 172:../Drivers/CMSIS/Include/cmsis_gcc.h ****  */
 173:../Drivers/CMSIS/Include/cmsis_gcc.h **** __STATIC_FORCEINLINE void __ISB(void)
 174:../Drivers/CMSIS/Include/cmsis_gcc.h **** {
 175:../Drivers/CMSIS/Include/cmsis_gcc.h ****   __ASM volatile ("isb 0xF":::"memory");
 176:../Drivers/CMSIS/Include/cmsis_gcc.h **** }
 177:../Drivers/CMSIS/Include/cmsis_gcc.h **** 
 178:../Drivers/CMSIS/Include/cmsis_gcc.h **** 
 179:../Drivers/CMSIS/Include/cmsis_gcc.h **** /**
ARM GAS  /tmp/ccb319AI.s 			page 17


 180:../Drivers/CMSIS/Include/cmsis_gcc.h ****   \brief   Data Synchronization Barrier
 181:../Drivers/CMSIS/Include/cmsis_gcc.h ****   \details Acts as a special kind of Data Memory Barrier.
 182:../Drivers/CMSIS/Include/cmsis_gcc.h ****            It completes when all explicit memory accesses before this instruction complete.
 183:../Drivers/CMSIS/Include/cmsis_gcc.h ****  */
 184:../Drivers/CMSIS/Include/cmsis_gcc.h **** __STATIC_FORCEINLINE void __DSB(void)
 185:../Drivers/CMSIS/Include/cmsis_gcc.h **** {
 186:../Drivers/CMSIS/Include/cmsis_gcc.h ****   __ASM volatile ("dsb 0xF":::"memory");
 187:../Drivers/CMSIS/Include/cmsis_gcc.h **** }
 188:../Drivers/CMSIS/Include/cmsis_gcc.h **** 
 189:../Drivers/CMSIS/Include/cmsis_gcc.h **** 
 190:../Drivers/CMSIS/Include/cmsis_gcc.h **** /**
 191:../Drivers/CMSIS/Include/cmsis_gcc.h ****   \brief   Data Memory Barrier
 192:../Drivers/CMSIS/Include/cmsis_gcc.h ****   \details Ensures the apparent order of the explicit memory operations before
 193:../Drivers/CMSIS/Include/cmsis_gcc.h ****            and after the instruction, without ensuring their completion.
 194:../Drivers/CMSIS/Include/cmsis_gcc.h ****  */
 195:../Drivers/CMSIS/Include/cmsis_gcc.h **** __STATIC_FORCEINLINE void __DMB(void)
 196:../Drivers/CMSIS/Include/cmsis_gcc.h **** {
 197:../Drivers/CMSIS/Include/cmsis_gcc.h ****   __ASM volatile ("dmb 0xF":::"memory");
 198:../Drivers/CMSIS/Include/cmsis_gcc.h **** }
 199:../Drivers/CMSIS/Include/cmsis_gcc.h **** 
 200:../Drivers/CMSIS/Include/cmsis_gcc.h **** 
 201:../Drivers/CMSIS/Include/cmsis_gcc.h **** /**
 202:../Drivers/CMSIS/Include/cmsis_gcc.h ****   \brief   Reverse byte order (32 bit)
 203:../Drivers/CMSIS/Include/cmsis_gcc.h ****   \details Reverses the byte order in unsigned integer value. For example, 0x12345678 becomes 0x785
 204:../Drivers/CMSIS/Include/cmsis_gcc.h ****   \param [in]    value  Value to reverse
 205:../Drivers/CMSIS/Include/cmsis_gcc.h ****   \return               Reversed value
 206:../Drivers/CMSIS/Include/cmsis_gcc.h ****  */
 207:../Drivers/CMSIS/Include/cmsis_gcc.h **** __STATIC_FORCEINLINE uint32_t __REV(uint32_t value)
 208:../Drivers/CMSIS/Include/cmsis_gcc.h **** {
 209:../Drivers/CMSIS/Include/cmsis_gcc.h ****   return __builtin_bswap32(value);
 210:../Drivers/CMSIS/Include/cmsis_gcc.h **** }
 211:../Drivers/CMSIS/Include/cmsis_gcc.h **** 
 212:../Drivers/CMSIS/Include/cmsis_gcc.h **** 
 213:../Drivers/CMSIS/Include/cmsis_gcc.h **** /**
 214:../Drivers/CMSIS/Include/cmsis_gcc.h ****   \brief   Reverse byte order (16 bit)
 215:../Drivers/CMSIS/Include/cmsis_gcc.h ****   \details Reverses the byte order within each halfword of a word. For example, 0x12345678 becomes 
 216:../Drivers/CMSIS/Include/cmsis_gcc.h ****   \param [in]    value  Value to reverse
 217:../Drivers/CMSIS/Include/cmsis_gcc.h ****   \return               Reversed value
 218:../Drivers/CMSIS/Include/cmsis_gcc.h ****  */
 219:../Drivers/CMSIS/Include/cmsis_gcc.h **** __STATIC_FORCEINLINE uint32_t __REV16(uint32_t value)
 220:../Drivers/CMSIS/Include/cmsis_gcc.h **** {
 221:../Drivers/CMSIS/Include/cmsis_gcc.h ****   uint32_t result;
 222:../Drivers/CMSIS/Include/cmsis_gcc.h **** 
 223:../Drivers/CMSIS/Include/cmsis_gcc.h ****   __ASM ("rev16 %0, %1" : __CMSIS_GCC_OUT_REG (result) : __CMSIS_GCC_USE_REG (value) );
 224:../Drivers/CMSIS/Include/cmsis_gcc.h ****   return (result);
 225:../Drivers/CMSIS/Include/cmsis_gcc.h **** }
 226:../Drivers/CMSIS/Include/cmsis_gcc.h **** 
 227:../Drivers/CMSIS/Include/cmsis_gcc.h **** 
 228:../Drivers/CMSIS/Include/cmsis_gcc.h **** /**
 229:../Drivers/CMSIS/Include/cmsis_gcc.h ****   \brief   Reverse byte order (16 bit)
 230:../Drivers/CMSIS/Include/cmsis_gcc.h ****   \details Reverses the byte order in a 16-bit value and returns the signed 16-bit result. For exam
 231:../Drivers/CMSIS/Include/cmsis_gcc.h ****   \param [in]    value  Value to reverse
 232:../Drivers/CMSIS/Include/cmsis_gcc.h ****   \return               Reversed value
 233:../Drivers/CMSIS/Include/cmsis_gcc.h ****  */
 234:../Drivers/CMSIS/Include/cmsis_gcc.h **** __STATIC_FORCEINLINE int16_t __REVSH(int16_t value)
 235:../Drivers/CMSIS/Include/cmsis_gcc.h **** {
 236:../Drivers/CMSIS/Include/cmsis_gcc.h ****   return (int16_t)__builtin_bswap16(value);
ARM GAS  /tmp/ccb319AI.s 			page 18


 237:../Drivers/CMSIS/Include/cmsis_gcc.h **** }
 238:../Drivers/CMSIS/Include/cmsis_gcc.h **** 
 239:../Drivers/CMSIS/Include/cmsis_gcc.h **** 
 240:../Drivers/CMSIS/Include/cmsis_gcc.h **** /**
 241:../Drivers/CMSIS/Include/cmsis_gcc.h ****   \brief   Rotate Right in unsigned value (32 bit)
 242:../Drivers/CMSIS/Include/cmsis_gcc.h ****   \details Rotate Right (immediate) provides the value of the contents of a register rotated by a v
 243:../Drivers/CMSIS/Include/cmsis_gcc.h ****   \param [in]    op1  Value to rotate
 244:../Drivers/CMSIS/Include/cmsis_gcc.h ****   \param [in]    op2  Number of Bits to rotate
 245:../Drivers/CMSIS/Include/cmsis_gcc.h ****   \return               Rotated value
 246:../Drivers/CMSIS/Include/cmsis_gcc.h ****  */
 247:../Drivers/CMSIS/Include/cmsis_gcc.h **** __STATIC_FORCEINLINE uint32_t __ROR(uint32_t op1, uint32_t op2)
 248:../Drivers/CMSIS/Include/cmsis_gcc.h **** {
 249:../Drivers/CMSIS/Include/cmsis_gcc.h ****   op2 %= 32U;
 250:../Drivers/CMSIS/Include/cmsis_gcc.h ****   if (op2 == 0U)
 251:../Drivers/CMSIS/Include/cmsis_gcc.h ****   {
 252:../Drivers/CMSIS/Include/cmsis_gcc.h ****     return op1;
 253:../Drivers/CMSIS/Include/cmsis_gcc.h ****   }
 254:../Drivers/CMSIS/Include/cmsis_gcc.h ****   return (op1 >> op2) | (op1 << (32U - op2));
 255:../Drivers/CMSIS/Include/cmsis_gcc.h **** }
 256:../Drivers/CMSIS/Include/cmsis_gcc.h **** 
 257:../Drivers/CMSIS/Include/cmsis_gcc.h **** 
 258:../Drivers/CMSIS/Include/cmsis_gcc.h **** /**
 259:../Drivers/CMSIS/Include/cmsis_gcc.h ****   \brief   Breakpoint
 260:../Drivers/CMSIS/Include/cmsis_gcc.h ****   \details Causes the processor to enter Debug state.
 261:../Drivers/CMSIS/Include/cmsis_gcc.h ****            Debug tools can use this to investigate system state when the instruction at a particula
 262:../Drivers/CMSIS/Include/cmsis_gcc.h ****   \param [in]    value  is ignored by the processor.
 263:../Drivers/CMSIS/Include/cmsis_gcc.h ****                  If required, a debugger can use it to store additional information about the break
 264:../Drivers/CMSIS/Include/cmsis_gcc.h ****  */
 265:../Drivers/CMSIS/Include/cmsis_gcc.h **** #define __BKPT(value) __ASM volatile ("bkpt "#value)
 266:../Drivers/CMSIS/Include/cmsis_gcc.h **** 
 267:../Drivers/CMSIS/Include/cmsis_gcc.h **** 
 268:../Drivers/CMSIS/Include/cmsis_gcc.h **** /**
 269:../Drivers/CMSIS/Include/cmsis_gcc.h ****   \brief   Reverse bit order of value
 270:../Drivers/CMSIS/Include/cmsis_gcc.h ****   \details Reverses the bit order of the given value.
 271:../Drivers/CMSIS/Include/cmsis_gcc.h ****   \param [in]    value  Value to reverse
 272:../Drivers/CMSIS/Include/cmsis_gcc.h ****   \return               Reversed value
 273:../Drivers/CMSIS/Include/cmsis_gcc.h ****  */
 274:../Drivers/CMSIS/Include/cmsis_gcc.h **** __STATIC_FORCEINLINE uint32_t __RBIT(uint32_t value)
 312              		.loc 2 274 31 is_stmt 1 view .LVU66
 313              	.LBB19:
 275:../Drivers/CMSIS/Include/cmsis_gcc.h **** {
 276:../Drivers/CMSIS/Include/cmsis_gcc.h ****   uint32_t result;
 314              		.loc 2 276 3 view .LVU67
 277:../Drivers/CMSIS/Include/cmsis_gcc.h **** 
 278:../Drivers/CMSIS/Include/cmsis_gcc.h **** #if (__ARM_ARCH_ISA_THUMB >= 2)
 279:../Drivers/CMSIS/Include/cmsis_gcc.h ****    __ASM ("rbit %0, %1" : "=r" (result) : "r" (value) );
 315              		.loc 2 279 4 view .LVU68
 316              		.syntax unified
 317              	@ 279 "../Drivers/CMSIS/Include/cmsis_gcc.h" 1
 318 0004 93FAA3F2 		rbit r2, r3
 319              	@ 0 "" 2
 280:../Drivers/CMSIS/Include/cmsis_gcc.h **** #else
 281:../Drivers/CMSIS/Include/cmsis_gcc.h ****   uint32_t s = (4U /*sizeof(v)*/ * 8U) - 1U; /* extra shift needed at end */
 282:../Drivers/CMSIS/Include/cmsis_gcc.h **** 
 283:../Drivers/CMSIS/Include/cmsis_gcc.h ****   result = value;                      /* r will be reversed bits of v; first get LSB of v */
 284:../Drivers/CMSIS/Include/cmsis_gcc.h ****   for (value >>= 1U; value != 0U; value >>= 1U)
 285:../Drivers/CMSIS/Include/cmsis_gcc.h ****   {
ARM GAS  /tmp/ccb319AI.s 			page 19


 286:../Drivers/CMSIS/Include/cmsis_gcc.h ****     result <<= 1U;
 287:../Drivers/CMSIS/Include/cmsis_gcc.h ****     result |= value & 1U;
 288:../Drivers/CMSIS/Include/cmsis_gcc.h ****     s--;
 289:../Drivers/CMSIS/Include/cmsis_gcc.h ****   }
 290:../Drivers/CMSIS/Include/cmsis_gcc.h ****   result <<= s;                        /* shift when v's highest bits are zero */
 291:../Drivers/CMSIS/Include/cmsis_gcc.h **** #endif
 292:../Drivers/CMSIS/Include/cmsis_gcc.h ****   return (result);
 320              		.loc 2 292 3 view .LVU69
 321              	.LVL13:
 322              		.loc 2 292 3 is_stmt 0 view .LVU70
 323              		.thumb
 324              		.syntax unified
 325              	.LBE19:
 326              	.LBE18:
 327              	.LBB20:
 328              	.LBI20:
 293:../Drivers/CMSIS/Include/cmsis_gcc.h **** }
 294:../Drivers/CMSIS/Include/cmsis_gcc.h **** 
 295:../Drivers/CMSIS/Include/cmsis_gcc.h **** 
 296:../Drivers/CMSIS/Include/cmsis_gcc.h **** /**
 297:../Drivers/CMSIS/Include/cmsis_gcc.h ****   \brief   Count leading zeros
 298:../Drivers/CMSIS/Include/cmsis_gcc.h ****   \details Counts the number of leading zeros of a data value.
 299:../Drivers/CMSIS/Include/cmsis_gcc.h ****   \param [in]  value  Value to count the leading zeros
 300:../Drivers/CMSIS/Include/cmsis_gcc.h ****   \return             number of leading zeros in value
 301:../Drivers/CMSIS/Include/cmsis_gcc.h ****  */
 302:../Drivers/CMSIS/Include/cmsis_gcc.h **** __STATIC_FORCEINLINE uint8_t __CLZ(uint32_t value)
 329              		.loc 2 302 30 is_stmt 1 view .LVU71
 330              	.LBB21:
 303:../Drivers/CMSIS/Include/cmsis_gcc.h **** {
 304:../Drivers/CMSIS/Include/cmsis_gcc.h ****   /* Even though __builtin_clz produces a CLZ instruction on ARM, formally
 305:../Drivers/CMSIS/Include/cmsis_gcc.h ****      __builtin_clz(0) is undefined behaviour, so handle this case specially.
 306:../Drivers/CMSIS/Include/cmsis_gcc.h ****      This guarantees ARM-compatible results if happening to compile on a non-ARM
 307:../Drivers/CMSIS/Include/cmsis_gcc.h ****      target, and ensures the compiler doesn't decide to activate any
 308:../Drivers/CMSIS/Include/cmsis_gcc.h ****      optimisations using the logic "value was passed to __builtin_clz, so it
 309:../Drivers/CMSIS/Include/cmsis_gcc.h ****      is non-zero".
 310:../Drivers/CMSIS/Include/cmsis_gcc.h ****      ARM GCC 7.3 and possibly earlier will optimise this test away, leaving a
 311:../Drivers/CMSIS/Include/cmsis_gcc.h ****      single CLZ instruction.
 312:../Drivers/CMSIS/Include/cmsis_gcc.h ****    */
 313:../Drivers/CMSIS/Include/cmsis_gcc.h ****   if (value == 0U)
 331              		.loc 2 313 3 view .LVU72
 332              		.loc 2 313 6 is_stmt 0 view .LVU73
 333 0008 002A     		cmp	r2, #0
 334 000a 43D0     		beq	.L36
 314:../Drivers/CMSIS/Include/cmsis_gcc.h ****   {
 315:../Drivers/CMSIS/Include/cmsis_gcc.h ****     return 32U;
 316:../Drivers/CMSIS/Include/cmsis_gcc.h ****   }
 317:../Drivers/CMSIS/Include/cmsis_gcc.h ****   return __builtin_clz(value);
 335              		.loc 2 317 3 is_stmt 1 view .LVU74
 336              		.loc 2 317 10 is_stmt 0 discriminator 1 view .LVU75
 337 000c B2FA82F2 		clz	r2, r2
 338              	.LVL14:
 339              	.L32:
 340              		.loc 2 317 10 discriminator 1 view .LVU76
 341              	.LBE21:
 342              	.LBE20:
 343              		.loc 1 435 81 discriminator 2 view .LVU77
 344 0010 0832     		adds	r2, r2, #8
ARM GAS  /tmp/ccb319AI.s 			page 20


 345              		.loc 1 435 107 discriminator 2 view .LVU78
 346 0012 02F01F02 		and	r2, r2, #31
 347              		.loc 1 435 40 discriminator 2 view .LVU79
 348 0016 01FA02F2 		lsl	r2, r1, r2
 434:../Drivers/STM32N6xx_HAL_Driver/Src/stm32n6xx_hal_pwr_ex.c ****               (sPinParams->PinPolarity << ((POSITION_VAL(sPinParams->WakeUpPin) + PWR_WKUPEPR_WKUPP
 349              		.loc 1 434 37 discriminator 1 view .LVU80
 350 001a 43EA0201 		orr	r1, r3, r2
 436:../Drivers/STM32N6xx_HAL_Driver/Src/stm32n6xx_hal_pwr_ex.c ****               (sPinParams->PinPull << (((POSITION_VAL(sPinParams->WakeUpPin) * PWR_WAKEUP_PINS_PULL
 351              		.loc 1 436 26 view .LVU81
 352 001e D0F808C0 		ldr	ip, [r0, #8]
 353              	.LVL15:
 354              	.LBB23:
 355              	.LBI23:
 274:../Drivers/CMSIS/Include/cmsis_gcc.h **** {
 356              		.loc 2 274 31 is_stmt 1 view .LVU82
 357              	.LBB24:
 276:../Drivers/CMSIS/Include/cmsis_gcc.h **** 
 358              		.loc 2 276 3 view .LVU83
 279:../Drivers/CMSIS/Include/cmsis_gcc.h **** #else
 359              		.loc 2 279 4 view .LVU84
 360              		.syntax unified
 361              	@ 279 "../Drivers/CMSIS/Include/cmsis_gcc.h" 1
 362 0022 93FAA3F2 		rbit r2, r3
 363              	@ 0 "" 2
 292:../Drivers/CMSIS/Include/cmsis_gcc.h **** }
 364              		.loc 2 292 3 view .LVU85
 365              	.LVL16:
 292:../Drivers/CMSIS/Include/cmsis_gcc.h **** }
 366              		.loc 2 292 3 is_stmt 0 view .LVU86
 367              		.thumb
 368              		.syntax unified
 369              	.LBE24:
 370              	.LBE23:
 371              	.LBB25:
 372              	.LBI25:
 302:../Drivers/CMSIS/Include/cmsis_gcc.h **** {
 373              		.loc 2 302 30 is_stmt 1 view .LVU87
 374              	.LBB26:
 313:../Drivers/CMSIS/Include/cmsis_gcc.h ****   {
 375              		.loc 2 313 3 view .LVU88
 313:../Drivers/CMSIS/Include/cmsis_gcc.h ****   {
 376              		.loc 2 313 6 is_stmt 0 view .LVU89
 377 0026 BAB3     		cbz	r2, .L37
 378              		.loc 2 317 3 is_stmt 1 view .LVU90
 379              		.loc 2 317 10 is_stmt 0 discriminator 1 view .LVU91
 380 0028 B2FA82F2 		clz	r2, r2
 381              	.LVL17:
 382              	.L33:
 383              		.loc 2 317 10 discriminator 1 view .LVU92
 384              	.LBE26:
 385              	.LBE25:
 386              		.loc 1 436 115 discriminator 2 view .LVU93
 387 002c 0832     		adds	r2, r2, #8
 388 002e 5200     		lsls	r2, r2, #1
 437:../Drivers/STM32N6xx_HAL_Driver/Src/stm32n6xx_hal_pwr_ex.c ****                                         PWR_WKUPEPR_WKUPPUPD1_Pos) & 0x1FU));
 389              		.loc 1 437 68 view .LVU94
 390 0030 02F01E02 		and	r2, r2, #30
ARM GAS  /tmp/ccb319AI.s 			page 21


 436:../Drivers/STM32N6xx_HAL_Driver/Src/stm32n6xx_hal_pwr_ex.c ****                                         PWR_WKUPEPR_WKUPPUPD1_Pos) & 0x1FU));
 391              		.loc 1 436 36 discriminator 2 view .LVU95
 392 0034 0CFA02F2 		lsl	r2, ip, r2
 434:../Drivers/STM32N6xx_HAL_Driver/Src/stm32n6xx_hal_pwr_ex.c ****               (sPinParams->PinPolarity << ((POSITION_VAL(sPinParams->WakeUpPin) + PWR_WKUPEPR_WKUPP
 393              		.loc 1 434 13 discriminator 2 view .LVU96
 394 0038 0A43     		orrs	r2, r2, r1
 395              	.LVL18:
 438:../Drivers/STM32N6xx_HAL_Driver/Src/stm32n6xx_hal_pwr_ex.c **** 
 439:../Drivers/STM32N6xx_HAL_Driver/Src/stm32n6xx_hal_pwr_ex.c ****   regMask   = sPinParams->WakeUpPin | \
 396              		.loc 1 439 3 is_stmt 1 view .LVU97
 397              	.LBB28:
 398              	.LBI28:
 274:../Drivers/CMSIS/Include/cmsis_gcc.h **** {
 399              		.loc 2 274 31 view .LVU98
 400              	.LBB29:
 276:../Drivers/CMSIS/Include/cmsis_gcc.h **** 
 401              		.loc 2 276 3 view .LVU99
 279:../Drivers/CMSIS/Include/cmsis_gcc.h **** #else
 402              		.loc 2 279 4 view .LVU100
 403              		.syntax unified
 404              	@ 279 "../Drivers/CMSIS/Include/cmsis_gcc.h" 1
 405 003a 93FAA3F1 		rbit r1, r3
 406              	@ 0 "" 2
 292:../Drivers/CMSIS/Include/cmsis_gcc.h **** }
 407              		.loc 2 292 3 view .LVU101
 408              	.LVL19:
 292:../Drivers/CMSIS/Include/cmsis_gcc.h **** }
 409              		.loc 2 292 3 is_stmt 0 view .LVU102
 410              		.thumb
 411              		.syntax unified
 412              	.LBE29:
 413              	.LBE28:
 414              	.LBB30:
 415              	.LBI30:
 302:../Drivers/CMSIS/Include/cmsis_gcc.h **** {
 416              		.loc 2 302 30 is_stmt 1 view .LVU103
 417              	.LBB31:
 313:../Drivers/CMSIS/Include/cmsis_gcc.h ****   {
 418              		.loc 2 313 3 view .LVU104
 313:../Drivers/CMSIS/Include/cmsis_gcc.h ****   {
 419              		.loc 2 313 6 is_stmt 0 view .LVU105
 420 003e 69B3     		cbz	r1, .L38
 421              		.loc 2 317 3 is_stmt 1 view .LVU106
 422              		.loc 2 317 10 is_stmt 0 discriminator 1 view .LVU107
 423 0040 B1FA81F1 		clz	r1, r1
 424              	.LVL20:
 425              	.L34:
 426              		.loc 2 317 10 discriminator 1 view .LVU108
 427              	.LBE31:
 428              	.LBE30:
 440:../Drivers/STM32N6xx_HAL_Driver/Src/stm32n6xx_hal_pwr_ex.c ****               (PWR_WKUPEPR_WKUPP1 << (POSITION_VAL(sPinParams->WakeUpPin) & 0x1FU)) | \
 429              		.loc 1 440 75 discriminator 2 view .LVU109
 430 0044 01F01F0C 		and	ip, r1, #31
 431              		.loc 1 440 35 discriminator 2 view .LVU110
 432 0048 4FF48071 		mov	r1, #256
 433 004c 01FA0CF1 		lsl	r1, r1, ip
 439:../Drivers/STM32N6xx_HAL_Driver/Src/stm32n6xx_hal_pwr_ex.c ****               (PWR_WKUPEPR_WKUPP1 << (POSITION_VAL(sPinParams->WakeUpPin) & 0x1FU)) | \
ARM GAS  /tmp/ccb319AI.s 			page 22


 434              		.loc 1 439 37 discriminator 1 view .LVU111
 435 0050 1943     		orrs	r1, r1, r3
 436              	.LVL21:
 437              	.LBB33:
 438              	.LBI33:
 274:../Drivers/CMSIS/Include/cmsis_gcc.h **** {
 439              		.loc 2 274 31 is_stmt 1 view .LVU112
 440              	.LBB34:
 276:../Drivers/CMSIS/Include/cmsis_gcc.h **** 
 441              		.loc 2 276 3 view .LVU113
 279:../Drivers/CMSIS/Include/cmsis_gcc.h **** #else
 442              		.loc 2 279 4 view .LVU114
 443              		.syntax unified
 444              	@ 279 "../Drivers/CMSIS/Include/cmsis_gcc.h" 1
 445 0052 93FAA3F3 		rbit r3, r3
 446              	@ 0 "" 2
 447              	.LVL22:
 292:../Drivers/CMSIS/Include/cmsis_gcc.h **** }
 448              		.loc 2 292 3 view .LVU115
 292:../Drivers/CMSIS/Include/cmsis_gcc.h **** }
 449              		.loc 2 292 3 is_stmt 0 view .LVU116
 450              		.thumb
 451              		.syntax unified
 452              	.LBE34:
 453              	.LBE33:
 454              	.LBB35:
 455              	.LBI35:
 302:../Drivers/CMSIS/Include/cmsis_gcc.h **** {
 456              		.loc 2 302 30 is_stmt 1 view .LVU117
 457              	.LBB36:
 313:../Drivers/CMSIS/Include/cmsis_gcc.h ****   {
 458              		.loc 2 313 3 view .LVU118
 313:../Drivers/CMSIS/Include/cmsis_gcc.h ****   {
 459              		.loc 2 313 6 is_stmt 0 view .LVU119
 460 0056 1BB3     		cbz	r3, .L39
 461              		.loc 2 317 3 is_stmt 1 view .LVU120
 462              		.loc 2 317 10 is_stmt 0 discriminator 1 view .LVU121
 463 0058 B3FA83F3 		clz	r3, r3
 464              	.LVL23:
 465              	.L35:
 466              		.loc 2 317 10 discriminator 1 view .LVU122
 467              	.LBE36:
 468              	.LBE35:
 441:../Drivers/STM32N6xx_HAL_Driver/Src/stm32n6xx_hal_pwr_ex.c ****               (pullMask << ((POSITION_VAL(sPinParams->WakeUpPin) * PWR_WAKEUP_PINS_PULL_SHIFT_OFFSE
 469              		.loc 1 441 66 discriminator 2 view .LVU123
 470 005c 5B00     		lsls	r3, r3, #1
 471              		.loc 1 441 103 discriminator 2 view .LVU124
 472 005e 03F01E03 		and	r3, r3, #30
 473              		.loc 1 441 25 discriminator 2 view .LVU125
 474 0062 4FF4403C 		mov	ip, #196608
 475 0066 0CFA03F3 		lsl	r3, ip, r3
 439:../Drivers/STM32N6xx_HAL_Driver/Src/stm32n6xx_hal_pwr_ex.c ****               (PWR_WKUPEPR_WKUPP1 << (POSITION_VAL(sPinParams->WakeUpPin) & 0x1FU)) | \
 476              		.loc 1 439 13 discriminator 2 view .LVU126
 477 006a 0B43     		orrs	r3, r3, r1
 478              	.LVL24:
 442:../Drivers/STM32N6xx_HAL_Driver/Src/stm32n6xx_hal_pwr_ex.c **** 
 443:../Drivers/STM32N6xx_HAL_Driver/Src/stm32n6xx_hal_pwr_ex.c ****   /* Enable and Specify the Wake-Up pin polarity and the pull configuration
ARM GAS  /tmp/ccb319AI.s 			page 23


 444:../Drivers/STM32N6xx_HAL_Driver/Src/stm32n6xx_hal_pwr_ex.c ****      for the event detection (rising or falling edge) */
 445:../Drivers/STM32N6xx_HAL_Driver/Src/stm32n6xx_hal_pwr_ex.c ****   MODIFY_REG(PWR->WKUPEPR, regMask, pinConfig);
 479              		.loc 1 445 3 is_stmt 1 view .LVU127
 480 006c DFF838C0 		ldr	ip, .L40+4
 481 0070 DCF85810 		ldr	r1, [ip, #88]
 482 0074 21EA0303 		bic	r3, r1, r3
 483              	.LVL25:
 484              		.loc 1 445 3 is_stmt 0 view .LVU128
 485 0078 1343     		orrs	r3, r3, r2
 486 007a CCF85830 		str	r3, [ip, #88]
 446:../Drivers/STM32N6xx_HAL_Driver/Src/stm32n6xx_hal_pwr_ex.c **** 
 447:../Drivers/STM32N6xx_HAL_Driver/Src/stm32n6xx_hal_pwr_ex.c ****   /* Configure the Wakeup Pin EXTI Line */
 448:../Drivers/STM32N6xx_HAL_Driver/Src/stm32n6xx_hal_pwr_ex.c ****   MODIFY_REG(EXTI->IMR2, PWR_EXTI_WAKEUP_PINS_MASK, (sPinParams->WakeUpPin << EXTI_IMR2_IM60_Pos));
 487              		.loc 1 448 3 is_stmt 1 view .LVU129
 488 007e 094A     		ldr	r2, .L40
 489              	.LVL26:
 490              		.loc 1 448 3 is_stmt 0 view .LVU130
 491 0080 D2F89030 		ldr	r3, [r2, #144]
 492 0084 23F07043 		bic	r3, r3, #-268435456
 493 0088 0168     		ldr	r1, [r0]
 494 008a 43EA0173 		orr	r3, r3, r1, lsl #28
 495 008e C2F89030 		str	r3, [r2, #144]
 449:../Drivers/STM32N6xx_HAL_Driver/Src/stm32n6xx_hal_pwr_ex.c **** }
 496              		.loc 1 449 1 view .LVU131
 497 0092 7047     		bx	lr
 498              	.LVL27:
 499              	.L36:
 500              	.LBB38:
 501              	.LBB22:
 315:../Drivers/CMSIS/Include/cmsis_gcc.h ****   }
 502              		.loc 2 315 12 view .LVU132
 503 0094 2022     		movs	r2, #32
 504              	.LVL28:
 315:../Drivers/CMSIS/Include/cmsis_gcc.h ****   }
 505              		.loc 2 315 12 view .LVU133
 506 0096 BBE7     		b	.L32
 507              	.LVL29:
 508              	.L37:
 315:../Drivers/CMSIS/Include/cmsis_gcc.h ****   }
 509              		.loc 2 315 12 view .LVU134
 510              	.LBE22:
 511              	.LBE38:
 512              	.LBB39:
 513              	.LBB27:
 514 0098 2022     		movs	r2, #32
 515              	.LVL30:
 315:../Drivers/CMSIS/Include/cmsis_gcc.h ****   }
 516              		.loc 2 315 12 view .LVU135
 517 009a C7E7     		b	.L33
 518              	.LVL31:
 519              	.L38:
 315:../Drivers/CMSIS/Include/cmsis_gcc.h ****   }
 520              		.loc 2 315 12 view .LVU136
 521              	.LBE27:
 522              	.LBE39:
 523              	.LBB40:
 524              	.LBB32:
ARM GAS  /tmp/ccb319AI.s 			page 24


 525 009c 2021     		movs	r1, #32
 526              	.LVL32:
 315:../Drivers/CMSIS/Include/cmsis_gcc.h ****   }
 527              		.loc 2 315 12 view .LVU137
 528 009e D1E7     		b	.L34
 529              	.LVL33:
 530              	.L39:
 315:../Drivers/CMSIS/Include/cmsis_gcc.h ****   }
 531              		.loc 2 315 12 view .LVU138
 532              	.LBE32:
 533              	.LBE40:
 534              	.LBB41:
 535              	.LBB37:
 536 00a0 2023     		movs	r3, #32
 537              	.LVL34:
 315:../Drivers/CMSIS/Include/cmsis_gcc.h ****   }
 538              		.loc 2 315 12 view .LVU139
 539 00a2 DBE7     		b	.L35
 540              	.L41:
 541              		.align	2
 542              	.L40:
 543 00a4 00500256 		.word	1442992128
 544 00a8 00480256 		.word	1442990080
 545              	.LBE37:
 546              	.LBE41:
 547              		.cfi_endproc
 548              	.LFE887:
 550              		.section	.text.HAL_PWREx_EnableBkupRAMRetention,"ax",%progbits
 551              		.align	1
 552              		.global	HAL_PWREx_EnableBkupRAMRetention
 553              		.syntax unified
 554              		.thumb
 555              		.thumb_func
 557              	HAL_PWREx_EnableBkupRAMRetention:
 558              	.LFB888:
 450:../Drivers/STM32N6xx_HAL_Driver/Src/stm32n6xx_hal_pwr_ex.c **** /**
 451:../Drivers/STM32N6xx_HAL_Driver/Src/stm32n6xx_hal_pwr_ex.c ****   * @}
 452:../Drivers/STM32N6xx_HAL_Driver/Src/stm32n6xx_hal_pwr_ex.c ****   */
 453:../Drivers/STM32N6xx_HAL_Driver/Src/stm32n6xx_hal_pwr_ex.c **** 
 454:../Drivers/STM32N6xx_HAL_Driver/Src/stm32n6xx_hal_pwr_ex.c **** 
 455:../Drivers/STM32N6xx_HAL_Driver/Src/stm32n6xx_hal_pwr_ex.c **** /** @defgroup PWREx_Exported_Functions_Group3 Memories Retention Functions
 456:../Drivers/STM32N6xx_HAL_Driver/Src/stm32n6xx_hal_pwr_ex.c ****   * @brief    Memories Retention Functions
 457:../Drivers/STM32N6xx_HAL_Driver/Src/stm32n6xx_hal_pwr_ex.c ****   *
 458:../Drivers/STM32N6xx_HAL_Driver/Src/stm32n6xx_hal_pwr_ex.c **** @verbatim
 459:../Drivers/STM32N6xx_HAL_Driver/Src/stm32n6xx_hal_pwr_ex.c ****  ===============================================================================
 460:../Drivers/STM32N6xx_HAL_Driver/Src/stm32n6xx_hal_pwr_ex.c ****                      ##### Memories Retention Functions #####
 461:../Drivers/STM32N6xx_HAL_Driver/Src/stm32n6xx_hal_pwr_ex.c ****  ===============================================================================
 462:../Drivers/STM32N6xx_HAL_Driver/Src/stm32n6xx_hal_pwr_ex.c ****     [..]
 463:../Drivers/STM32N6xx_HAL_Driver/Src/stm32n6xx_hal_pwr_ex.c **** 
 464:../Drivers/STM32N6xx_HAL_Driver/Src/stm32n6xx_hal_pwr_ex.c ****     *** Backup RAM (BKPSRAM) retention ****
 465:../Drivers/STM32N6xx_HAL_Driver/Src/stm32n6xx_hal_pwr_ex.c ****     =======================================
 466:../Drivers/STM32N6xx_HAL_Driver/Src/stm32n6xx_hal_pwr_ex.c ****     [..]
 467:../Drivers/STM32N6xx_HAL_Driver/Src/stm32n6xx_hal_pwr_ex.c ****       By default the content of BKPSRAM memories aren't retained in Standby mode.
 468:../Drivers/STM32N6xx_HAL_Driver/Src/stm32n6xx_hal_pwr_ex.c ****       By setting the BKPRBSEN bit in the PWR_BDCR2 register using the
 469:../Drivers/STM32N6xx_HAL_Driver/Src/stm32n6xx_hal_pwr_ex.c ****       HAL_PWREx_EnableBkupRAMRetention() function, the content of these memories
 470:../Drivers/STM32N6xx_HAL_Driver/Src/stm32n6xx_hal_pwr_ex.c ****       are retained even in Standby mode.
 471:../Drivers/STM32N6xx_HAL_Driver/Src/stm32n6xx_hal_pwr_ex.c **** 
ARM GAS  /tmp/ccb319AI.s 			page 25


 472:../Drivers/STM32N6xx_HAL_Driver/Src/stm32n6xx_hal_pwr_ex.c ****     *** TCM RAMs and I-TCM FLEXMEM retention ****
 473:../Drivers/STM32N6xx_HAL_Driver/Src/stm32n6xx_hal_pwr_ex.c ****     =======================================
 474:../Drivers/STM32N6xx_HAL_Driver/Src/stm32n6xx_hal_pwr_ex.c ****     [..]
 475:../Drivers/STM32N6xx_HAL_Driver/Src/stm32n6xx_hal_pwr_ex.c ****       By default the content of TCM RAMs and I-TCM FLEXMEM aren't retained in
 476:../Drivers/STM32N6xx_HAL_Driver/Src/stm32n6xx_hal_pwr_ex.c ****       Standby mode.
 477:../Drivers/STM32N6xx_HAL_Driver/Src/stm32n6xx_hal_pwr_ex.c **** 
 478:../Drivers/STM32N6xx_HAL_Driver/Src/stm32n6xx_hal_pwr_ex.c ****       By setting the TCMRBSEN bit in the PWR_CR4 register using the
 479:../Drivers/STM32N6xx_HAL_Driver/Src/stm32n6xx_hal_pwr_ex.c ****       HAL_PWREx_EnableTCMRetention() function, the content of these memories
 480:../Drivers/STM32N6xx_HAL_Driver/Src/stm32n6xx_hal_pwr_ex.c ****       are retained even in Standby mode.
 481:../Drivers/STM32N6xx_HAL_Driver/Src/stm32n6xx_hal_pwr_ex.c **** 
 482:../Drivers/STM32N6xx_HAL_Driver/Src/stm32n6xx_hal_pwr_ex.c ****       By setting the TCMFLXRBSEN bit in the PWR_CR4 register using the
 483:../Drivers/STM32N6xx_HAL_Driver/Src/stm32n6xx_hal_pwr_ex.c ****       HAL_PWREx_EnableTCMFLXRetention () function, the content of these memories
 484:../Drivers/STM32N6xx_HAL_Driver/Src/stm32n6xx_hal_pwr_ex.c ****       are retained even in Standby mode.
 485:../Drivers/STM32N6xx_HAL_Driver/Src/stm32n6xx_hal_pwr_ex.c **** 
 486:../Drivers/STM32N6xx_HAL_Driver/Src/stm32n6xx_hal_pwr_ex.c **** @endverbatim
 487:../Drivers/STM32N6xx_HAL_Driver/Src/stm32n6xx_hal_pwr_ex.c ****   * @{
 488:../Drivers/STM32N6xx_HAL_Driver/Src/stm32n6xx_hal_pwr_ex.c ****   */
 489:../Drivers/STM32N6xx_HAL_Driver/Src/stm32n6xx_hal_pwr_ex.c **** 
 490:../Drivers/STM32N6xx_HAL_Driver/Src/stm32n6xx_hal_pwr_ex.c **** /**
 491:../Drivers/STM32N6xx_HAL_Driver/Src/stm32n6xx_hal_pwr_ex.c ****   * @brief  Enable the Backup RAM retention in Standby and VBAT modes.
 492:../Drivers/STM32N6xx_HAL_Driver/Src/stm32n6xx_hal_pwr_ex.c ****   * @note  After reset, PWR_BDCR2 is write-protected.
 493:../Drivers/STM32N6xx_HAL_Driver/Src/stm32n6xx_hal_pwr_ex.c ****   *        DBP must be set in PWR_DBPCR to disable the write protection.
 494:../Drivers/STM32N6xx_HAL_Driver/Src/stm32n6xx_hal_pwr_ex.c ****   * @retval None.
 495:../Drivers/STM32N6xx_HAL_Driver/Src/stm32n6xx_hal_pwr_ex.c ****   */
 496:../Drivers/STM32N6xx_HAL_Driver/Src/stm32n6xx_hal_pwr_ex.c **** void HAL_PWREx_EnableBkupRAMRetention(void)
 497:../Drivers/STM32N6xx_HAL_Driver/Src/stm32n6xx_hal_pwr_ex.c **** {
 559              		.loc 1 497 1 is_stmt 1 view -0
 560              		.cfi_startproc
 561              		@ args = 0, pretend = 0, frame = 0
 562              		@ frame_needed = 0, uses_anonymous_args = 0
 563              		@ link register save eliminated.
 498:../Drivers/STM32N6xx_HAL_Driver/Src/stm32n6xx_hal_pwr_ex.c ****   SET_BIT(PWR->BDCR2, PWR_BDCR2_BKPRBSEN);
 564              		.loc 1 498 3 view .LVU141
 565 0000 024A     		ldr	r2, .L43
 566 0002 936A     		ldr	r3, [r2, #40]
 567 0004 43F00103 		orr	r3, r3, #1
 568 0008 9362     		str	r3, [r2, #40]
 499:../Drivers/STM32N6xx_HAL_Driver/Src/stm32n6xx_hal_pwr_ex.c **** }
 569              		.loc 1 499 1 is_stmt 0 view .LVU142
 570 000a 7047     		bx	lr
 571              	.L44:
 572              		.align	2
 573              	.L43:
 574 000c 00480256 		.word	1442990080
 575              		.cfi_endproc
 576              	.LFE888:
 578              		.section	.text.HAL_PWREx_DisableBkupRAMRetention,"ax",%progbits
 579              		.align	1
 580              		.global	HAL_PWREx_DisableBkupRAMRetention
 581              		.syntax unified
 582              		.thumb
 583              		.thumb_func
 585              	HAL_PWREx_DisableBkupRAMRetention:
 586              	.LFB889:
 500:../Drivers/STM32N6xx_HAL_Driver/Src/stm32n6xx_hal_pwr_ex.c **** 
 501:../Drivers/STM32N6xx_HAL_Driver/Src/stm32n6xx_hal_pwr_ex.c **** /**
 502:../Drivers/STM32N6xx_HAL_Driver/Src/stm32n6xx_hal_pwr_ex.c ****   * @brief  Disable the Backup RAM retention in Standby and VBAT modes.
ARM GAS  /tmp/ccb319AI.s 			page 26


 503:../Drivers/STM32N6xx_HAL_Driver/Src/stm32n6xx_hal_pwr_ex.c ****   * @note  After reset, PWR_BDCR2 is write-protected.
 504:../Drivers/STM32N6xx_HAL_Driver/Src/stm32n6xx_hal_pwr_ex.c ****   *        DBP must be set in PWR_DBPCR to disable the write protection.
 505:../Drivers/STM32N6xx_HAL_Driver/Src/stm32n6xx_hal_pwr_ex.c ****   * @retval None.
 506:../Drivers/STM32N6xx_HAL_Driver/Src/stm32n6xx_hal_pwr_ex.c ****   */
 507:../Drivers/STM32N6xx_HAL_Driver/Src/stm32n6xx_hal_pwr_ex.c **** void HAL_PWREx_DisableBkupRAMRetention(void)
 508:../Drivers/STM32N6xx_HAL_Driver/Src/stm32n6xx_hal_pwr_ex.c **** {
 587              		.loc 1 508 1 is_stmt 1 view -0
 588              		.cfi_startproc
 589              		@ args = 0, pretend = 0, frame = 0
 590              		@ frame_needed = 0, uses_anonymous_args = 0
 591              		@ link register save eliminated.
 509:../Drivers/STM32N6xx_HAL_Driver/Src/stm32n6xx_hal_pwr_ex.c ****   CLEAR_BIT(PWR->BDCR2, PWR_BDCR2_BKPRBSEN);
 592              		.loc 1 509 3 view .LVU144
 593 0000 024A     		ldr	r2, .L46
 594 0002 936A     		ldr	r3, [r2, #40]
 595 0004 23F00103 		bic	r3, r3, #1
 596 0008 9362     		str	r3, [r2, #40]
 510:../Drivers/STM32N6xx_HAL_Driver/Src/stm32n6xx_hal_pwr_ex.c **** }
 597              		.loc 1 510 1 is_stmt 0 view .LVU145
 598 000a 7047     		bx	lr
 599              	.L47:
 600              		.align	2
 601              	.L46:
 602 000c 00480256 		.word	1442990080
 603              		.cfi_endproc
 604              	.LFE889:
 606              		.section	.text.HAL_PWREx_EnableTCMRetention,"ax",%progbits
 607              		.align	1
 608              		.global	HAL_PWREx_EnableTCMRetention
 609              		.syntax unified
 610              		.thumb
 611              		.thumb_func
 613              	HAL_PWREx_EnableTCMRetention:
 614              	.LFB890:
 511:../Drivers/STM32N6xx_HAL_Driver/Src/stm32n6xx_hal_pwr_ex.c **** 
 512:../Drivers/STM32N6xx_HAL_Driver/Src/stm32n6xx_hal_pwr_ex.c **** /**
 513:../Drivers/STM32N6xx_HAL_Driver/Src/stm32n6xx_hal_pwr_ex.c ****   * @brief Enable the TCM RAMs retention in Standby mode.
 514:../Drivers/STM32N6xx_HAL_Driver/Src/stm32n6xx_hal_pwr_ex.c ****   * @retval None.
 515:../Drivers/STM32N6xx_HAL_Driver/Src/stm32n6xx_hal_pwr_ex.c ****   */
 516:../Drivers/STM32N6xx_HAL_Driver/Src/stm32n6xx_hal_pwr_ex.c **** void HAL_PWREx_EnableTCMRetention(void)
 517:../Drivers/STM32N6xx_HAL_Driver/Src/stm32n6xx_hal_pwr_ex.c **** {
 615              		.loc 1 517 1 is_stmt 1 view -0
 616              		.cfi_startproc
 617              		@ args = 0, pretend = 0, frame = 0
 618              		@ frame_needed = 0, uses_anonymous_args = 0
 619              		@ link register save eliminated.
 518:../Drivers/STM32N6xx_HAL_Driver/Src/stm32n6xx_hal_pwr_ex.c ****   SET_BIT(PWR->CR4, PWR_CR4_TCMRBSEN);
 620              		.loc 1 518 3 view .LVU147
 621 0000 024A     		ldr	r2, .L49
 622 0002 D368     		ldr	r3, [r2, #12]
 623 0004 43F00103 		orr	r3, r3, #1
 624 0008 D360     		str	r3, [r2, #12]
 519:../Drivers/STM32N6xx_HAL_Driver/Src/stm32n6xx_hal_pwr_ex.c **** }
 625              		.loc 1 519 1 is_stmt 0 view .LVU148
 626 000a 7047     		bx	lr
 627              	.L50:
 628              		.align	2
ARM GAS  /tmp/ccb319AI.s 			page 27


 629              	.L49:
 630 000c 00480256 		.word	1442990080
 631              		.cfi_endproc
 632              	.LFE890:
 634              		.section	.text.HAL_PWREx_DisableTCMRetention,"ax",%progbits
 635              		.align	1
 636              		.global	HAL_PWREx_DisableTCMRetention
 637              		.syntax unified
 638              		.thumb
 639              		.thumb_func
 641              	HAL_PWREx_DisableTCMRetention:
 642              	.LFB891:
 520:../Drivers/STM32N6xx_HAL_Driver/Src/stm32n6xx_hal_pwr_ex.c **** 
 521:../Drivers/STM32N6xx_HAL_Driver/Src/stm32n6xx_hal_pwr_ex.c **** /**
 522:../Drivers/STM32N6xx_HAL_Driver/Src/stm32n6xx_hal_pwr_ex.c ****   * @brief Disable the TCM RAMs retention in Standby mode.
 523:../Drivers/STM32N6xx_HAL_Driver/Src/stm32n6xx_hal_pwr_ex.c ****   * @retval None.
 524:../Drivers/STM32N6xx_HAL_Driver/Src/stm32n6xx_hal_pwr_ex.c ****   */
 525:../Drivers/STM32N6xx_HAL_Driver/Src/stm32n6xx_hal_pwr_ex.c **** void HAL_PWREx_DisableTCMRetention(void)
 526:../Drivers/STM32N6xx_HAL_Driver/Src/stm32n6xx_hal_pwr_ex.c **** {
 643              		.loc 1 526 1 is_stmt 1 view -0
 644              		.cfi_startproc
 645              		@ args = 0, pretend = 0, frame = 0
 646              		@ frame_needed = 0, uses_anonymous_args = 0
 647              		@ link register save eliminated.
 527:../Drivers/STM32N6xx_HAL_Driver/Src/stm32n6xx_hal_pwr_ex.c ****   CLEAR_BIT(PWR->CR4, PWR_CR4_TCMRBSEN);
 648              		.loc 1 527 3 view .LVU150
 649 0000 024A     		ldr	r2, .L52
 650 0002 D368     		ldr	r3, [r2, #12]
 651 0004 23F00103 		bic	r3, r3, #1
 652 0008 D360     		str	r3, [r2, #12]
 528:../Drivers/STM32N6xx_HAL_Driver/Src/stm32n6xx_hal_pwr_ex.c **** }
 653              		.loc 1 528 1 is_stmt 0 view .LVU151
 654 000a 7047     		bx	lr
 655              	.L53:
 656              		.align	2
 657              	.L52:
 658 000c 00480256 		.word	1442990080
 659              		.cfi_endproc
 660              	.LFE891:
 662              		.section	.text.HAL_PWREx_EnableTCMFLXRetention,"ax",%progbits
 663              		.align	1
 664              		.global	HAL_PWREx_EnableTCMFLXRetention
 665              		.syntax unified
 666              		.thumb
 667              		.thumb_func
 669              	HAL_PWREx_EnableTCMFLXRetention:
 670              	.LFB892:
 529:../Drivers/STM32N6xx_HAL_Driver/Src/stm32n6xx_hal_pwr_ex.c **** 
 530:../Drivers/STM32N6xx_HAL_Driver/Src/stm32n6xx_hal_pwr_ex.c **** /**
 531:../Drivers/STM32N6xx_HAL_Driver/Src/stm32n6xx_hal_pwr_ex.c ****   * @brief Enable the I-TCM FLEXMEM retention in Standby mode.
 532:../Drivers/STM32N6xx_HAL_Driver/Src/stm32n6xx_hal_pwr_ex.c ****   * @retval None.
 533:../Drivers/STM32N6xx_HAL_Driver/Src/stm32n6xx_hal_pwr_ex.c ****   */
 534:../Drivers/STM32N6xx_HAL_Driver/Src/stm32n6xx_hal_pwr_ex.c **** void HAL_PWREx_EnableTCMFLXRetention(void)
 535:../Drivers/STM32N6xx_HAL_Driver/Src/stm32n6xx_hal_pwr_ex.c **** {
 671              		.loc 1 535 1 is_stmt 1 view -0
 672              		.cfi_startproc
 673              		@ args = 0, pretend = 0, frame = 0
ARM GAS  /tmp/ccb319AI.s 			page 28


 674              		@ frame_needed = 0, uses_anonymous_args = 0
 675              		@ link register save eliminated.
 536:../Drivers/STM32N6xx_HAL_Driver/Src/stm32n6xx_hal_pwr_ex.c ****   SET_BIT(PWR->CR4, PWR_CR4_TCMFLXRBSEN);
 676              		.loc 1 536 3 view .LVU153
 677 0000 024A     		ldr	r2, .L55
 678 0002 D368     		ldr	r3, [r2, #12]
 679 0004 43F01003 		orr	r3, r3, #16
 680 0008 D360     		str	r3, [r2, #12]
 537:../Drivers/STM32N6xx_HAL_Driver/Src/stm32n6xx_hal_pwr_ex.c **** }
 681              		.loc 1 537 1 is_stmt 0 view .LVU154
 682 000a 7047     		bx	lr
 683              	.L56:
 684              		.align	2
 685              	.L55:
 686 000c 00480256 		.word	1442990080
 687              		.cfi_endproc
 688              	.LFE892:
 690              		.section	.text.HAL_PWREx_DisableTCMFLXRetention,"ax",%progbits
 691              		.align	1
 692              		.global	HAL_PWREx_DisableTCMFLXRetention
 693              		.syntax unified
 694              		.thumb
 695              		.thumb_func
 697              	HAL_PWREx_DisableTCMFLXRetention:
 698              	.LFB893:
 538:../Drivers/STM32N6xx_HAL_Driver/Src/stm32n6xx_hal_pwr_ex.c **** 
 539:../Drivers/STM32N6xx_HAL_Driver/Src/stm32n6xx_hal_pwr_ex.c **** /**
 540:../Drivers/STM32N6xx_HAL_Driver/Src/stm32n6xx_hal_pwr_ex.c ****   * @brief Disable the I-TCM FLEXMEM retention in Standby mode.
 541:../Drivers/STM32N6xx_HAL_Driver/Src/stm32n6xx_hal_pwr_ex.c ****   * @retval None.
 542:../Drivers/STM32N6xx_HAL_Driver/Src/stm32n6xx_hal_pwr_ex.c ****   */
 543:../Drivers/STM32N6xx_HAL_Driver/Src/stm32n6xx_hal_pwr_ex.c **** void HAL_PWREx_DisableTCMFLXRetention(void)
 544:../Drivers/STM32N6xx_HAL_Driver/Src/stm32n6xx_hal_pwr_ex.c **** {
 699              		.loc 1 544 1 is_stmt 1 view -0
 700              		.cfi_startproc
 701              		@ args = 0, pretend = 0, frame = 0
 702              		@ frame_needed = 0, uses_anonymous_args = 0
 703              		@ link register save eliminated.
 545:../Drivers/STM32N6xx_HAL_Driver/Src/stm32n6xx_hal_pwr_ex.c ****   CLEAR_BIT(PWR->CR4, PWR_CR4_TCMFLXRBSEN);
 704              		.loc 1 545 3 view .LVU156
 705 0000 024A     		ldr	r2, .L58
 706 0002 D368     		ldr	r3, [r2, #12]
 707 0004 23F01003 		bic	r3, r3, #16
 708 0008 D360     		str	r3, [r2, #12]
 546:../Drivers/STM32N6xx_HAL_Driver/Src/stm32n6xx_hal_pwr_ex.c **** }
 709              		.loc 1 546 1 is_stmt 0 view .LVU157
 710 000a 7047     		bx	lr
 711              	.L59:
 712              		.align	2
 713              	.L58:
 714 000c 00480256 		.word	1442990080
 715              		.cfi_endproc
 716              	.LFE893:
 718              		.section	.text.HAL_PWREx_SetPulseLow,"ax",%progbits
 719              		.align	1
 720              		.global	HAL_PWREx_SetPulseLow
 721              		.syntax unified
 722              		.thumb
ARM GAS  /tmp/ccb319AI.s 			page 29


 723              		.thumb_func
 725              	HAL_PWREx_SetPulseLow:
 726              	.LVL35:
 727              	.LFB894:
 547:../Drivers/STM32N6xx_HAL_Driver/Src/stm32n6xx_hal_pwr_ex.c **** /**
 548:../Drivers/STM32N6xx_HAL_Driver/Src/stm32n6xx_hal_pwr_ex.c ****   * @}
 549:../Drivers/STM32N6xx_HAL_Driver/Src/stm32n6xx_hal_pwr_ex.c ****   */
 550:../Drivers/STM32N6xx_HAL_Driver/Src/stm32n6xx_hal_pwr_ex.c **** 
 551:../Drivers/STM32N6xx_HAL_Driver/Src/stm32n6xx_hal_pwr_ex.c **** 
 552:../Drivers/STM32N6xx_HAL_Driver/Src/stm32n6xx_hal_pwr_ex.c **** /** @defgroup PWREx_Exported_Functions_Group4 Low Power Control Functions
 553:../Drivers/STM32N6xx_HAL_Driver/Src/stm32n6xx_hal_pwr_ex.c ****   * @brief    Low Power Control Functions
 554:../Drivers/STM32N6xx_HAL_Driver/Src/stm32n6xx_hal_pwr_ex.c ****   *
 555:../Drivers/STM32N6xx_HAL_Driver/Src/stm32n6xx_hal_pwr_ex.c **** @verbatim
 556:../Drivers/STM32N6xx_HAL_Driver/Src/stm32n6xx_hal_pwr_ex.c ****  ===============================================================================
 557:../Drivers/STM32N6xx_HAL_Driver/Src/stm32n6xx_hal_pwr_ex.c ****                      ##### Low Power Control Functions #####
 558:../Drivers/STM32N6xx_HAL_Driver/Src/stm32n6xx_hal_pwr_ex.c ****  ===============================================================================
 559:../Drivers/STM32N6xx_HAL_Driver/Src/stm32n6xx_hal_pwr_ex.c ****     [..]
 560:../Drivers/STM32N6xx_HAL_Driver/Src/stm32n6xx_hal_pwr_ex.c **** @endverbatim
 561:../Drivers/STM32N6xx_HAL_Driver/Src/stm32n6xx_hal_pwr_ex.c ****   * @{
 562:../Drivers/STM32N6xx_HAL_Driver/Src/stm32n6xx_hal_pwr_ex.c ****   */
 563:../Drivers/STM32N6xx_HAL_Driver/Src/stm32n6xx_hal_pwr_ex.c **** 
 564:../Drivers/STM32N6xx_HAL_Driver/Src/stm32n6xx_hal_pwr_ex.c **** /**
 565:../Drivers/STM32N6xx_HAL_Driver/Src/stm32n6xx_hal_pwr_ex.c ****   * @brief Configure the pwr_on pulse low configuration.
 566:../Drivers/STM32N6xx_HAL_Driver/Src/stm32n6xx_hal_pwr_ex.c ****   * @param  Pulselowtime : Specifies minimum guaranteed duration of
 567:../Drivers/STM32N6xx_HAL_Driver/Src/stm32n6xx_hal_pwr_ex.c ****                            the pwr_on low pulse in Standby mode.
 568:../Drivers/STM32N6xx_HAL_Driver/Src/stm32n6xx_hal_pwr_ex.c ****   *          This parameter can be a value between 0 and 31:
 569:../Drivers/STM32N6xx_HAL_Driver/Src/stm32n6xx_hal_pwr_ex.c ****   *            0: No guaranteed minimum low time.
 570:../Drivers/STM32N6xx_HAL_Driver/Src/stm32n6xx_hal_pwr_ex.c ****   *            1: 1* 32 LSI cycles= ~ 1 ms guaranteed minimum low time.
 571:../Drivers/STM32N6xx_HAL_Driver/Src/stm32n6xx_hal_pwr_ex.c ****   *            X: X* 32 LSI cycles= ~ X ms guaranteed minimum low time.
 572:../Drivers/STM32N6xx_HAL_Driver/Src/stm32n6xx_hal_pwr_ex.c ****   * @retval None.
 573:../Drivers/STM32N6xx_HAL_Driver/Src/stm32n6xx_hal_pwr_ex.c ****   */
 574:../Drivers/STM32N6xx_HAL_Driver/Src/stm32n6xx_hal_pwr_ex.c **** void HAL_PWREx_SetPulseLow(uint32_t Pulselowtime)
 575:../Drivers/STM32N6xx_HAL_Driver/Src/stm32n6xx_hal_pwr_ex.c **** {
 728              		.loc 1 575 1 is_stmt 1 view -0
 729              		.cfi_startproc
 730              		@ args = 0, pretend = 0, frame = 0
 731              		@ frame_needed = 0, uses_anonymous_args = 0
 732              		@ link register save eliminated.
 576:../Drivers/STM32N6xx_HAL_Driver/Src/stm32n6xx_hal_pwr_ex.c ****   assert_param(IS_PWR_PULSE_LOW_TIME(Pulselowtime));
 733              		.loc 1 576 3 view .LVU159
 577:../Drivers/STM32N6xx_HAL_Driver/Src/stm32n6xx_hal_pwr_ex.c **** 
 578:../Drivers/STM32N6xx_HAL_Driver/Src/stm32n6xx_hal_pwr_ex.c ****   /* Set the pwr_on pulse low configuration */
 579:../Drivers/STM32N6xx_HAL_Driver/Src/stm32n6xx_hal_pwr_ex.c ****   MODIFY_REG(PWR->CR1, PWR_CR1_POPL_Msk, (Pulselowtime << PWR_CR1_POPL_Pos));
 734              		.loc 1 579 3 view .LVU160
 735 0000 034A     		ldr	r2, .L61
 736 0002 1368     		ldr	r3, [r2]
 737 0004 23F4F813 		bic	r3, r3, #2031616
 738 0008 43EA0043 		orr	r3, r3, r0, lsl #16
 739 000c 1360     		str	r3, [r2]
 580:../Drivers/STM32N6xx_HAL_Driver/Src/stm32n6xx_hal_pwr_ex.c **** }
 740              		.loc 1 580 1 is_stmt 0 view .LVU161
 741 000e 7047     		bx	lr
 742              	.L62:
 743              		.align	2
 744              	.L61:
 745 0010 00480256 		.word	1442990080
 746              		.cfi_endproc
ARM GAS  /tmp/ccb319AI.s 			page 30


 747              	.LFE894:
 749              		.section	.text.HAL_PWREx_GetPulseLow,"ax",%progbits
 750              		.align	1
 751              		.global	HAL_PWREx_GetPulseLow
 752              		.syntax unified
 753              		.thumb
 754              		.thumb_func
 756              	HAL_PWREx_GetPulseLow:
 757              	.LFB895:
 581:../Drivers/STM32N6xx_HAL_Driver/Src/stm32n6xx_hal_pwr_ex.c **** 
 582:../Drivers/STM32N6xx_HAL_Driver/Src/stm32n6xx_hal_pwr_ex.c **** /**
 583:../Drivers/STM32N6xx_HAL_Driver/Src/stm32n6xx_hal_pwr_ex.c ****   * @brief Get the pwr_on pulse low configuration.
 584:../Drivers/STM32N6xx_HAL_Driver/Src/stm32n6xx_hal_pwr_ex.c ****   * @retval The actual applied minimum guaranteed duration of the
 585:../Drivers/STM32N6xx_HAL_Driver/Src/stm32n6xx_hal_pwr_ex.c ****   *         pwr_on low pulse in Standby mode.
 586:../Drivers/STM32N6xx_HAL_Driver/Src/stm32n6xx_hal_pwr_ex.c ****   */
 587:../Drivers/STM32N6xx_HAL_Driver/Src/stm32n6xx_hal_pwr_ex.c **** uint32_t HAL_PWREx_GetPulseLow(void)
 588:../Drivers/STM32N6xx_HAL_Driver/Src/stm32n6xx_hal_pwr_ex.c **** {
 758              		.loc 1 588 1 is_stmt 1 view -0
 759              		.cfi_startproc
 760              		@ args = 0, pretend = 0, frame = 0
 761              		@ frame_needed = 0, uses_anonymous_args = 0
 762              		@ link register save eliminated.
 589:../Drivers/STM32N6xx_HAL_Driver/Src/stm32n6xx_hal_pwr_ex.c ****   /* Return the stop voltage scaling */
 590:../Drivers/STM32N6xx_HAL_Driver/Src/stm32n6xx_hal_pwr_ex.c ****   return ((PWR->CR1 & PWR_CR1_POPL_Msk) >> PWR_CR1_POPL_Pos);
 763              		.loc 1 590 3 view .LVU163
 764              		.loc 1 590 15 is_stmt 0 view .LVU164
 765 0000 024B     		ldr	r3, .L64
 766 0002 1868     		ldr	r0, [r3]
 591:../Drivers/STM32N6xx_HAL_Driver/Src/stm32n6xx_hal_pwr_ex.c **** }
 767              		.loc 1 591 1 view .LVU165
 768 0004 C0F30440 		ubfx	r0, r0, #16, #5
 769 0008 7047     		bx	lr
 770              	.L65:
 771 000a 00BF     		.align	2
 772              	.L64:
 773 000c 00480256 		.word	1442990080
 774              		.cfi_endproc
 775              	.LFE895:
 777              		.section	.text.HAL_PWREx_EnableSMPSPWM,"ax",%progbits
 778              		.align	1
 779              		.global	HAL_PWREx_EnableSMPSPWM
 780              		.syntax unified
 781              		.thumb
 782              		.thumb_func
 784              	HAL_PWREx_EnableSMPSPWM:
 785              	.LFB896:
 592:../Drivers/STM32N6xx_HAL_Driver/Src/stm32n6xx_hal_pwr_ex.c **** 
 593:../Drivers/STM32N6xx_HAL_Driver/Src/stm32n6xx_hal_pwr_ex.c **** /**
 594:../Drivers/STM32N6xx_HAL_Driver/Src/stm32n6xx_hal_pwr_ex.c ****   * @brief  Enable SMPS low-power mode (SVOS range 3 only).
 595:../Drivers/STM32N6xx_HAL_Driver/Src/stm32n6xx_hal_pwr_ex.c ****   * @note   LPDS08V bit is used to keep the SMPS in PWM mode (MR) in Stop SVOS range 3.
 596:../Drivers/STM32N6xx_HAL_Driver/Src/stm32n6xx_hal_pwr_ex.c ****   * @retval None.
 597:../Drivers/STM32N6xx_HAL_Driver/Src/stm32n6xx_hal_pwr_ex.c ****   */
 598:../Drivers/STM32N6xx_HAL_Driver/Src/stm32n6xx_hal_pwr_ex.c **** void HAL_PWREx_EnableSMPSPWM(void)
 599:../Drivers/STM32N6xx_HAL_Driver/Src/stm32n6xx_hal_pwr_ex.c **** {
 786              		.loc 1 599 1 is_stmt 1 view -0
 787              		.cfi_startproc
 788              		@ args = 0, pretend = 0, frame = 0
ARM GAS  /tmp/ccb319AI.s 			page 31


 789              		@ frame_needed = 0, uses_anonymous_args = 0
 790              		@ link register save eliminated.
 600:../Drivers/STM32N6xx_HAL_Driver/Src/stm32n6xx_hal_pwr_ex.c ****   SET_BIT(PWR->CR1, PWR_CR1_LPDS08V);
 791              		.loc 1 600 3 view .LVU167
 792 0000 024A     		ldr	r2, .L67
 793 0002 1368     		ldr	r3, [r2]
 794 0004 43F02003 		orr	r3, r3, #32
 795 0008 1360     		str	r3, [r2]
 601:../Drivers/STM32N6xx_HAL_Driver/Src/stm32n6xx_hal_pwr_ex.c **** }
 796              		.loc 1 601 1 is_stmt 0 view .LVU168
 797 000a 7047     		bx	lr
 798              	.L68:
 799              		.align	2
 800              	.L67:
 801 000c 00480256 		.word	1442990080
 802              		.cfi_endproc
 803              	.LFE896:
 805              		.section	.text.HAL_PWREx_DisableSMPSPWM,"ax",%progbits
 806              		.align	1
 807              		.global	HAL_PWREx_DisableSMPSPWM
 808              		.syntax unified
 809              		.thumb
 810              		.thumb_func
 812              	HAL_PWREx_DisableSMPSPWM:
 813              	.LFB897:
 602:../Drivers/STM32N6xx_HAL_Driver/Src/stm32n6xx_hal_pwr_ex.c **** 
 603:../Drivers/STM32N6xx_HAL_Driver/Src/stm32n6xx_hal_pwr_ex.c **** /**
 604:../Drivers/STM32N6xx_HAL_Driver/Src/stm32n6xx_hal_pwr_ex.c ****   * @brief  Disable SMPS low-power mode (SVOS range 3 only).
 605:../Drivers/STM32N6xx_HAL_Driver/Src/stm32n6xx_hal_pwr_ex.c ****   * @retval None.
 606:../Drivers/STM32N6xx_HAL_Driver/Src/stm32n6xx_hal_pwr_ex.c ****   */
 607:../Drivers/STM32N6xx_HAL_Driver/Src/stm32n6xx_hal_pwr_ex.c **** void HAL_PWREx_DisableSMPSPWM(void)
 608:../Drivers/STM32N6xx_HAL_Driver/Src/stm32n6xx_hal_pwr_ex.c **** {
 814              		.loc 1 608 1 is_stmt 1 view -0
 815              		.cfi_startproc
 816              		@ args = 0, pretend = 0, frame = 0
 817              		@ frame_needed = 0, uses_anonymous_args = 0
 818              		@ link register save eliminated.
 609:../Drivers/STM32N6xx_HAL_Driver/Src/stm32n6xx_hal_pwr_ex.c ****   CLEAR_BIT(PWR->CR1, PWR_CR1_LPDS08V);
 819              		.loc 1 609 3 view .LVU170
 820 0000 024A     		ldr	r2, .L70
 821 0002 1368     		ldr	r3, [r2]
 822 0004 23F02003 		bic	r3, r3, #32
 823 0008 1360     		str	r3, [r2]
 610:../Drivers/STM32N6xx_HAL_Driver/Src/stm32n6xx_hal_pwr_ex.c **** }
 824              		.loc 1 610 1 is_stmt 0 view .LVU171
 825 000a 7047     		bx	lr
 826              	.L71:
 827              		.align	2
 828              	.L70:
 829 000c 00480256 		.word	1442990080
 830              		.cfi_endproc
 831              	.LFE897:
 833              		.section	.text.HAL_PWREx_EnablePullDownOutput,"ax",%progbits
 834              		.align	1
 835              		.global	HAL_PWREx_EnablePullDownOutput
 836              		.syntax unified
 837              		.thumb
ARM GAS  /tmp/ccb319AI.s 			page 32


 838              		.thumb_func
 840              	HAL_PWREx_EnablePullDownOutput:
 841              	.LFB898:
 611:../Drivers/STM32N6xx_HAL_Driver/Src/stm32n6xx_hal_pwr_ex.c **** 
 612:../Drivers/STM32N6xx_HAL_Driver/Src/stm32n6xx_hal_pwr_ex.c **** /**
 613:../Drivers/STM32N6xx_HAL_Driver/Src/stm32n6xx_hal_pwr_ex.c ****   * @brief  Enable the pull down on output voltage during power-down mode.
 614:../Drivers/STM32N6xx_HAL_Driver/Src/stm32n6xx_hal_pwr_ex.c ****   * @retval None.
 615:../Drivers/STM32N6xx_HAL_Driver/Src/stm32n6xx_hal_pwr_ex.c ****   */
 616:../Drivers/STM32N6xx_HAL_Driver/Src/stm32n6xx_hal_pwr_ex.c **** void HAL_PWREx_EnablePullDownOutput(void)
 617:../Drivers/STM32N6xx_HAL_Driver/Src/stm32n6xx_hal_pwr_ex.c **** {
 842              		.loc 1 617 1 is_stmt 1 view -0
 843              		.cfi_startproc
 844              		@ args = 0, pretend = 0, frame = 0
 845              		@ frame_needed = 0, uses_anonymous_args = 0
 846              		@ link register save eliminated.
 618:../Drivers/STM32N6xx_HAL_Driver/Src/stm32n6xx_hal_pwr_ex.c ****   SET_BIT(PWR->CR1, PWR_CR1_MODE_PDN);
 847              		.loc 1 618 3 view .LVU173
 848 0000 024A     		ldr	r2, .L73
 849 0002 1368     		ldr	r3, [r2]
 850 0004 43F01003 		orr	r3, r3, #16
 851 0008 1360     		str	r3, [r2]
 619:../Drivers/STM32N6xx_HAL_Driver/Src/stm32n6xx_hal_pwr_ex.c **** }
 852              		.loc 1 619 1 is_stmt 0 view .LVU174
 853 000a 7047     		bx	lr
 854              	.L74:
 855              		.align	2
 856              	.L73:
 857 000c 00480256 		.word	1442990080
 858              		.cfi_endproc
 859              	.LFE898:
 861              		.section	.text.HAL_PWREx_DisablePullDownOutput,"ax",%progbits
 862              		.align	1
 863              		.global	HAL_PWREx_DisablePullDownOutput
 864              		.syntax unified
 865              		.thumb
 866              		.thumb_func
 868              	HAL_PWREx_DisablePullDownOutput:
 869              	.LFB899:
 620:../Drivers/STM32N6xx_HAL_Driver/Src/stm32n6xx_hal_pwr_ex.c **** 
 621:../Drivers/STM32N6xx_HAL_Driver/Src/stm32n6xx_hal_pwr_ex.c **** /**
 622:../Drivers/STM32N6xx_HAL_Driver/Src/stm32n6xx_hal_pwr_ex.c ****   * @brief  Disable the pull down on output voltage during power-down mode.
 623:../Drivers/STM32N6xx_HAL_Driver/Src/stm32n6xx_hal_pwr_ex.c ****   * @retval None.
 624:../Drivers/STM32N6xx_HAL_Driver/Src/stm32n6xx_hal_pwr_ex.c ****   */
 625:../Drivers/STM32N6xx_HAL_Driver/Src/stm32n6xx_hal_pwr_ex.c **** void HAL_PWREx_DisablePullDownOutput(void)
 626:../Drivers/STM32N6xx_HAL_Driver/Src/stm32n6xx_hal_pwr_ex.c **** {
 870              		.loc 1 626 1 is_stmt 1 view -0
 871              		.cfi_startproc
 872              		@ args = 0, pretend = 0, frame = 0
 873              		@ frame_needed = 0, uses_anonymous_args = 0
 874              		@ link register save eliminated.
 627:../Drivers/STM32N6xx_HAL_Driver/Src/stm32n6xx_hal_pwr_ex.c ****   CLEAR_BIT(PWR->CR1, PWR_CR1_MODE_PDN);
 875              		.loc 1 627 3 view .LVU176
 876 0000 024A     		ldr	r2, .L76
 877 0002 1368     		ldr	r3, [r2]
 878 0004 23F01003 		bic	r3, r3, #16
 879 0008 1360     		str	r3, [r2]
 628:../Drivers/STM32N6xx_HAL_Driver/Src/stm32n6xx_hal_pwr_ex.c **** }
ARM GAS  /tmp/ccb319AI.s 			page 33


 880              		.loc 1 628 1 is_stmt 0 view .LVU177
 881 000a 7047     		bx	lr
 882              	.L77:
 883              		.align	2
 884              	.L76:
 885 000c 00480256 		.word	1442990080
 886              		.cfi_endproc
 887              	.LFE899:
 889              		.section	.text.HAL_PWREx_EnableMonitoring,"ax",%progbits
 890              		.align	1
 891              		.global	HAL_PWREx_EnableMonitoring
 892              		.syntax unified
 893              		.thumb
 894              		.thumb_func
 896              	HAL_PWREx_EnableMonitoring:
 897              	.LFB900:
 629:../Drivers/STM32N6xx_HAL_Driver/Src/stm32n6xx_hal_pwr_ex.c **** /**
 630:../Drivers/STM32N6xx_HAL_Driver/Src/stm32n6xx_hal_pwr_ex.c ****   * @}
 631:../Drivers/STM32N6xx_HAL_Driver/Src/stm32n6xx_hal_pwr_ex.c ****   */
 632:../Drivers/STM32N6xx_HAL_Driver/Src/stm32n6xx_hal_pwr_ex.c **** 
 633:../Drivers/STM32N6xx_HAL_Driver/Src/stm32n6xx_hal_pwr_ex.c **** /** @defgroup PWREx_Exported_Functions_Group5 Power Monitoring functions
 634:../Drivers/STM32N6xx_HAL_Driver/Src/stm32n6xx_hal_pwr_ex.c ****   * @brief    Power Monitoring functions
 635:../Drivers/STM32N6xx_HAL_Driver/Src/stm32n6xx_hal_pwr_ex.c ****   *
 636:../Drivers/STM32N6xx_HAL_Driver/Src/stm32n6xx_hal_pwr_ex.c **** @verbatim
 637:../Drivers/STM32N6xx_HAL_Driver/Src/stm32n6xx_hal_pwr_ex.c ****  ===============================================================================
 638:../Drivers/STM32N6xx_HAL_Driver/Src/stm32n6xx_hal_pwr_ex.c ****                  ##### Power Monitoring functions #####
 639:../Drivers/STM32N6xx_HAL_Driver/Src/stm32n6xx_hal_pwr_ex.c ****  ===============================================================================
 640:../Drivers/STM32N6xx_HAL_Driver/Src/stm32n6xx_hal_pwr_ex.c **** 
 641:../Drivers/STM32N6xx_HAL_Driver/Src/stm32n6xx_hal_pwr_ex.c ****     *** VBAT and Temperature supervision ***
 642:../Drivers/STM32N6xx_HAL_Driver/Src/stm32n6xx_hal_pwr_ex.c ****     ========================================
 643:../Drivers/STM32N6xx_HAL_Driver/Src/stm32n6xx_hal_pwr_ex.c ****     [..]
 644:../Drivers/STM32N6xx_HAL_Driver/Src/stm32n6xx_hal_pwr_ex.c ****       (+) The VBAT battery voltage supply can be monitored by comparing it with
 645:../Drivers/STM32N6xx_HAL_Driver/Src/stm32n6xx_hal_pwr_ex.c ****           two threshold levels: VBAThigh and VBATlow. VBATH flag and VBATL flags
 646:../Drivers/STM32N6xx_HAL_Driver/Src/stm32n6xx_hal_pwr_ex.c ****           in the PWR control register 2 (PWR_BDCR1), indicate if VBAT is higher or
 647:../Drivers/STM32N6xx_HAL_Driver/Src/stm32n6xx_hal_pwr_ex.c ****           lower than the threshold.
 648:../Drivers/STM32N6xx_HAL_Driver/Src/stm32n6xx_hal_pwr_ex.c ****       (+) The temperature can be monitored by comparing it with two threshold
 649:../Drivers/STM32N6xx_HAL_Driver/Src/stm32n6xx_hal_pwr_ex.c ****           levels, TEMPhigh and TEMPlow. TEMPH and TEMPL flags, in the PWR
 650:../Drivers/STM32N6xx_HAL_Driver/Src/stm32n6xx_hal_pwr_ex.c ****           control register 2 (PWR_BDCR1), indicate whether the device temperature
 651:../Drivers/STM32N6xx_HAL_Driver/Src/stm32n6xx_hal_pwr_ex.c ****           is higher or lower than the threshold.
 652:../Drivers/STM32N6xx_HAL_Driver/Src/stm32n6xx_hal_pwr_ex.c ****       (+) The VBAT and the temperature monitoring is enabled by
 653:../Drivers/STM32N6xx_HAL_Driver/Src/stm32n6xx_hal_pwr_ex.c ****           HAL_PWREx_EnableMonitoring() function and disabled by
 654:../Drivers/STM32N6xx_HAL_Driver/Src/stm32n6xx_hal_pwr_ex.c ****           HAL_PWREx_DisableMonitoring() function.
 655:../Drivers/STM32N6xx_HAL_Driver/Src/stm32n6xx_hal_pwr_ex.c ****       (+) The HAL_PWREx_GetVBATLevel() function returns the VBAT level which can
 656:../Drivers/STM32N6xx_HAL_Driver/Src/stm32n6xx_hal_pwr_ex.c ****           be : PWR_VBAT_BELOW_LOW_THRESHOLD or PWR_VBAT_ABOVE_HIGH_THRESHOLD or
 657:../Drivers/STM32N6xx_HAL_Driver/Src/stm32n6xx_hal_pwr_ex.c ****           PWR_VBAT_BETWEEN_HIGH_LOW_THRESHOLD.
 658:../Drivers/STM32N6xx_HAL_Driver/Src/stm32n6xx_hal_pwr_ex.c ****       (+) The HAL_PWREx_GetTemperatureLevel() function returns the Temperature
 659:../Drivers/STM32N6xx_HAL_Driver/Src/stm32n6xx_hal_pwr_ex.c ****           level which can be :
 660:../Drivers/STM32N6xx_HAL_Driver/Src/stm32n6xx_hal_pwr_ex.c ****           PWR_TEMP_BELOW_LOW_THRESHOLD or PWR_TEMP_ABOVE_HIGH_THRESHOLD or
 661:../Drivers/STM32N6xx_HAL_Driver/Src/stm32n6xx_hal_pwr_ex.c ****           PWR_TEMP_BETWEEN_HIGH_LOW_THRESHOLD.
 662:../Drivers/STM32N6xx_HAL_Driver/Src/stm32n6xx_hal_pwr_ex.c **** 
 663:../Drivers/STM32N6xx_HAL_Driver/Src/stm32n6xx_hal_pwr_ex.c **** @endverbatim
 664:../Drivers/STM32N6xx_HAL_Driver/Src/stm32n6xx_hal_pwr_ex.c ****   * @{
 665:../Drivers/STM32N6xx_HAL_Driver/Src/stm32n6xx_hal_pwr_ex.c ****   */
 666:../Drivers/STM32N6xx_HAL_Driver/Src/stm32n6xx_hal_pwr_ex.c **** 
 667:../Drivers/STM32N6xx_HAL_Driver/Src/stm32n6xx_hal_pwr_ex.c **** /**
 668:../Drivers/STM32N6xx_HAL_Driver/Src/stm32n6xx_hal_pwr_ex.c ****   * @brief Enable the VBAT and temperature monitoring.
 669:../Drivers/STM32N6xx_HAL_Driver/Src/stm32n6xx_hal_pwr_ex.c ****   * @note  After reset, PWR_BDCR1 is write-protected.
ARM GAS  /tmp/ccb319AI.s 			page 34


 670:../Drivers/STM32N6xx_HAL_Driver/Src/stm32n6xx_hal_pwr_ex.c ****   *        DBP must be set in PWR_DBPCR to disable the write protection.
 671:../Drivers/STM32N6xx_HAL_Driver/Src/stm32n6xx_hal_pwr_ex.c ****   * @retval HAL status.
 672:../Drivers/STM32N6xx_HAL_Driver/Src/stm32n6xx_hal_pwr_ex.c ****   */
 673:../Drivers/STM32N6xx_HAL_Driver/Src/stm32n6xx_hal_pwr_ex.c **** void HAL_PWREx_EnableMonitoring(void)
 674:../Drivers/STM32N6xx_HAL_Driver/Src/stm32n6xx_hal_pwr_ex.c **** {
 898              		.loc 1 674 1 is_stmt 1 view -0
 899              		.cfi_startproc
 900              		@ args = 0, pretend = 0, frame = 0
 901              		@ frame_needed = 0, uses_anonymous_args = 0
 902              		@ link register save eliminated.
 675:../Drivers/STM32N6xx_HAL_Driver/Src/stm32n6xx_hal_pwr_ex.c ****   /* Enable the VBAT and Temperature monitoring */
 676:../Drivers/STM32N6xx_HAL_Driver/Src/stm32n6xx_hal_pwr_ex.c ****   SET_BIT(PWR->BDCR1, PWR_BDCR1_MONEN);
 903              		.loc 1 676 3 view .LVU179
 904 0000 024A     		ldr	r2, .L79
 905 0002 536A     		ldr	r3, [r2, #36]
 906 0004 43F00103 		orr	r3, r3, #1
 907 0008 5362     		str	r3, [r2, #36]
 677:../Drivers/STM32N6xx_HAL_Driver/Src/stm32n6xx_hal_pwr_ex.c **** }
 908              		.loc 1 677 1 is_stmt 0 view .LVU180
 909 000a 7047     		bx	lr
 910              	.L80:
 911              		.align	2
 912              	.L79:
 913 000c 00480256 		.word	1442990080
 914              		.cfi_endproc
 915              	.LFE900:
 917              		.section	.text.HAL_PWREx_DisableMonitoring,"ax",%progbits
 918              		.align	1
 919              		.global	HAL_PWREx_DisableMonitoring
 920              		.syntax unified
 921              		.thumb
 922              		.thumb_func
 924              	HAL_PWREx_DisableMonitoring:
 925              	.LFB901:
 678:../Drivers/STM32N6xx_HAL_Driver/Src/stm32n6xx_hal_pwr_ex.c **** 
 679:../Drivers/STM32N6xx_HAL_Driver/Src/stm32n6xx_hal_pwr_ex.c **** /**
 680:../Drivers/STM32N6xx_HAL_Driver/Src/stm32n6xx_hal_pwr_ex.c ****   * @brief Disable the VBAT and temperature monitoring.
 681:../Drivers/STM32N6xx_HAL_Driver/Src/stm32n6xx_hal_pwr_ex.c ****   * @note  After reset, PWR_BDCR1 is write-protected.
 682:../Drivers/STM32N6xx_HAL_Driver/Src/stm32n6xx_hal_pwr_ex.c ****   *        DBP must be set in PWR_DBPCR to disable the write protection.
 683:../Drivers/STM32N6xx_HAL_Driver/Src/stm32n6xx_hal_pwr_ex.c ****   * @retval HAL status.
 684:../Drivers/STM32N6xx_HAL_Driver/Src/stm32n6xx_hal_pwr_ex.c ****   */
 685:../Drivers/STM32N6xx_HAL_Driver/Src/stm32n6xx_hal_pwr_ex.c **** void HAL_PWREx_DisableMonitoring(void)
 686:../Drivers/STM32N6xx_HAL_Driver/Src/stm32n6xx_hal_pwr_ex.c **** {
 926              		.loc 1 686 1 is_stmt 1 view -0
 927              		.cfi_startproc
 928              		@ args = 0, pretend = 0, frame = 0
 929              		@ frame_needed = 0, uses_anonymous_args = 0
 930              		@ link register save eliminated.
 687:../Drivers/STM32N6xx_HAL_Driver/Src/stm32n6xx_hal_pwr_ex.c ****   /* Disable the VBAT and Temperature monitoring */
 688:../Drivers/STM32N6xx_HAL_Driver/Src/stm32n6xx_hal_pwr_ex.c ****   CLEAR_BIT(PWR->BDCR1, PWR_BDCR1_MONEN);
 931              		.loc 1 688 3 view .LVU182
 932 0000 024A     		ldr	r2, .L82
 933 0002 536A     		ldr	r3, [r2, #36]
 934 0004 23F00103 		bic	r3, r3, #1
 935 0008 5362     		str	r3, [r2, #36]
 689:../Drivers/STM32N6xx_HAL_Driver/Src/stm32n6xx_hal_pwr_ex.c **** }
 936              		.loc 1 689 1 is_stmt 0 view .LVU183
ARM GAS  /tmp/ccb319AI.s 			page 35


 937 000a 7047     		bx	lr
 938              	.L83:
 939              		.align	2
 940              	.L82:
 941 000c 00480256 		.word	1442990080
 942              		.cfi_endproc
 943              	.LFE901:
 945              		.section	.text.HAL_PWREx_GetTemperatureLevel,"ax",%progbits
 946              		.align	1
 947              		.global	HAL_PWREx_GetTemperatureLevel
 948              		.syntax unified
 949              		.thumb
 950              		.thumb_func
 952              	HAL_PWREx_GetTemperatureLevel:
 953              	.LFB902:
 690:../Drivers/STM32N6xx_HAL_Driver/Src/stm32n6xx_hal_pwr_ex.c **** 
 691:../Drivers/STM32N6xx_HAL_Driver/Src/stm32n6xx_hal_pwr_ex.c **** /**
 692:../Drivers/STM32N6xx_HAL_Driver/Src/stm32n6xx_hal_pwr_ex.c ****   * @brief Indicate whether the junction temperature is between, above or below
 693:../Drivers/STM32N6xx_HAL_Driver/Src/stm32n6xx_hal_pwr_ex.c ****   *        the thresholds.
 694:../Drivers/STM32N6xx_HAL_Driver/Src/stm32n6xx_hal_pwr_ex.c ****   * @retval Temperature level.
 695:../Drivers/STM32N6xx_HAL_Driver/Src/stm32n6xx_hal_pwr_ex.c ****   */
 696:../Drivers/STM32N6xx_HAL_Driver/Src/stm32n6xx_hal_pwr_ex.c **** uint32_t HAL_PWREx_GetTemperatureLevel(void)
 697:../Drivers/STM32N6xx_HAL_Driver/Src/stm32n6xx_hal_pwr_ex.c **** {
 954              		.loc 1 697 1 is_stmt 1 view -0
 955              		.cfi_startproc
 956              		@ args = 0, pretend = 0, frame = 0
 957              		@ frame_needed = 0, uses_anonymous_args = 0
 958              		@ link register save eliminated.
 698:../Drivers/STM32N6xx_HAL_Driver/Src/stm32n6xx_hal_pwr_ex.c ****   uint32_t tempLevel;
 959              		.loc 1 698 3 view .LVU185
 699:../Drivers/STM32N6xx_HAL_Driver/Src/stm32n6xx_hal_pwr_ex.c ****   uint32_t regValue;
 960              		.loc 1 699 3 view .LVU186
 700:../Drivers/STM32N6xx_HAL_Driver/Src/stm32n6xx_hal_pwr_ex.c **** 
 701:../Drivers/STM32N6xx_HAL_Driver/Src/stm32n6xx_hal_pwr_ex.c ****   /* Read the temperature flags */
 702:../Drivers/STM32N6xx_HAL_Driver/Src/stm32n6xx_hal_pwr_ex.c ****   regValue = READ_BIT(PWR->BDCR1, (PWR_BDCR1_TEMPH | PWR_BDCR1_TEMPL));
 961              		.loc 1 702 3 view .LVU187
 962              		.loc 1 702 14 is_stmt 0 view .LVU188
 963 0000 054B     		ldr	r3, .L87
 964 0002 586A     		ldr	r0, [r3, #36]
 965              		.loc 1 702 12 view .LVU189
 966 0004 00F44020 		and	r0, r0, #786432
 967              	.LVL36:
 703:../Drivers/STM32N6xx_HAL_Driver/Src/stm32n6xx_hal_pwr_ex.c **** 
 704:../Drivers/STM32N6xx_HAL_Driver/Src/stm32n6xx_hal_pwr_ex.c ****   /* Check if the temperature is below the threshold */
 705:../Drivers/STM32N6xx_HAL_Driver/Src/stm32n6xx_hal_pwr_ex.c ****   if (regValue == PWR_BDCR1_TEMPL)
 968              		.loc 1 705 3 is_stmt 1 view .LVU190
 969              		.loc 1 705 6 is_stmt 0 view .LVU191
 970 0008 B0F5802F 		cmp	r0, #262144
 971 000c 03D0     		beq	.L84
 706:../Drivers/STM32N6xx_HAL_Driver/Src/stm32n6xx_hal_pwr_ex.c ****   {
 707:../Drivers/STM32N6xx_HAL_Driver/Src/stm32n6xx_hal_pwr_ex.c ****     tempLevel = PWR_TEMP_BELOW_LOW_THRESHOLD;
 708:../Drivers/STM32N6xx_HAL_Driver/Src/stm32n6xx_hal_pwr_ex.c ****   }
 709:../Drivers/STM32N6xx_HAL_Driver/Src/stm32n6xx_hal_pwr_ex.c ****   /* Check if the temperature is above the threshold */
 710:../Drivers/STM32N6xx_HAL_Driver/Src/stm32n6xx_hal_pwr_ex.c ****   else if (regValue == PWR_BDCR1_TEMPH)
 972              		.loc 1 710 8 is_stmt 1 view .LVU192
 973              		.loc 1 710 11 is_stmt 0 view .LVU193
 974 000e B0F5002F 		cmp	r0, #524288
ARM GAS  /tmp/ccb319AI.s 			page 36


 975 0012 00D0     		beq	.L84
 711:../Drivers/STM32N6xx_HAL_Driver/Src/stm32n6xx_hal_pwr_ex.c ****   {
 712:../Drivers/STM32N6xx_HAL_Driver/Src/stm32n6xx_hal_pwr_ex.c ****     tempLevel = PWR_TEMP_ABOVE_HIGH_THRESHOLD;
 713:../Drivers/STM32N6xx_HAL_Driver/Src/stm32n6xx_hal_pwr_ex.c ****   }
 714:../Drivers/STM32N6xx_HAL_Driver/Src/stm32n6xx_hal_pwr_ex.c ****   /* The temperature is between the thresholds */
 715:../Drivers/STM32N6xx_HAL_Driver/Src/stm32n6xx_hal_pwr_ex.c ****   else
 716:../Drivers/STM32N6xx_HAL_Driver/Src/stm32n6xx_hal_pwr_ex.c ****   {
 717:../Drivers/STM32N6xx_HAL_Driver/Src/stm32n6xx_hal_pwr_ex.c ****     tempLevel = PWR_TEMP_BETWEEN_HIGH_LOW_THRESHOLD;
 976              		.loc 1 717 15 view .LVU194
 977 0014 0020     		movs	r0, #0
 978              	.LVL37:
 718:../Drivers/STM32N6xx_HAL_Driver/Src/stm32n6xx_hal_pwr_ex.c ****   }
 719:../Drivers/STM32N6xx_HAL_Driver/Src/stm32n6xx_hal_pwr_ex.c **** 
 720:../Drivers/STM32N6xx_HAL_Driver/Src/stm32n6xx_hal_pwr_ex.c ****   return tempLevel;
 979              		.loc 1 720 3 is_stmt 1 view .LVU195
 980              	.L84:
 721:../Drivers/STM32N6xx_HAL_Driver/Src/stm32n6xx_hal_pwr_ex.c **** }
 981              		.loc 1 721 1 is_stmt 0 view .LVU196
 982 0016 7047     		bx	lr
 983              	.L88:
 984              		.align	2
 985              	.L87:
 986 0018 00480256 		.word	1442990080
 987              		.cfi_endproc
 988              	.LFE902:
 990              		.section	.text.HAL_PWREx_GetVBATLevel,"ax",%progbits
 991              		.align	1
 992              		.global	HAL_PWREx_GetVBATLevel
 993              		.syntax unified
 994              		.thumb
 995              		.thumb_func
 997              	HAL_PWREx_GetVBATLevel:
 998              	.LFB903:
 722:../Drivers/STM32N6xx_HAL_Driver/Src/stm32n6xx_hal_pwr_ex.c **** 
 723:../Drivers/STM32N6xx_HAL_Driver/Src/stm32n6xx_hal_pwr_ex.c **** /**
 724:../Drivers/STM32N6xx_HAL_Driver/Src/stm32n6xx_hal_pwr_ex.c ****   * @brief Indicate whether the Battery voltage level is between, above or below
 725:../Drivers/STM32N6xx_HAL_Driver/Src/stm32n6xx_hal_pwr_ex.c ****   *        the thresholds.
 726:../Drivers/STM32N6xx_HAL_Driver/Src/stm32n6xx_hal_pwr_ex.c ****   * @retval VBAT level.
 727:../Drivers/STM32N6xx_HAL_Driver/Src/stm32n6xx_hal_pwr_ex.c ****   */
 728:../Drivers/STM32N6xx_HAL_Driver/Src/stm32n6xx_hal_pwr_ex.c **** uint32_t HAL_PWREx_GetVBATLevel(void)
 729:../Drivers/STM32N6xx_HAL_Driver/Src/stm32n6xx_hal_pwr_ex.c **** {
 999              		.loc 1 729 1 is_stmt 1 view -0
 1000              		.cfi_startproc
 1001              		@ args = 0, pretend = 0, frame = 0
 1002              		@ frame_needed = 0, uses_anonymous_args = 0
 1003              		@ link register save eliminated.
 730:../Drivers/STM32N6xx_HAL_Driver/Src/stm32n6xx_hal_pwr_ex.c ****   uint32_t vbatLevel;
 1004              		.loc 1 730 3 view .LVU198
 731:../Drivers/STM32N6xx_HAL_Driver/Src/stm32n6xx_hal_pwr_ex.c ****   uint32_t regValue;
 1005              		.loc 1 731 3 view .LVU199
 732:../Drivers/STM32N6xx_HAL_Driver/Src/stm32n6xx_hal_pwr_ex.c **** 
 733:../Drivers/STM32N6xx_HAL_Driver/Src/stm32n6xx_hal_pwr_ex.c ****   /* Read the VBAT flags */
 734:../Drivers/STM32N6xx_HAL_Driver/Src/stm32n6xx_hal_pwr_ex.c ****   regValue = READ_BIT(PWR->BDCR1, (PWR_BDCR1_VBATH | PWR_BDCR1_VBATL));
 1006              		.loc 1 734 3 view .LVU200
 1007              		.loc 1 734 14 is_stmt 0 view .LVU201
 1008 0000 054B     		ldr	r3, .L92
 1009 0002 586A     		ldr	r0, [r3, #36]
ARM GAS  /tmp/ccb319AI.s 			page 37


 1010              		.loc 1 734 12 view .LVU202
 1011 0004 00F44030 		and	r0, r0, #196608
 1012              	.LVL38:
 735:../Drivers/STM32N6xx_HAL_Driver/Src/stm32n6xx_hal_pwr_ex.c **** 
 736:../Drivers/STM32N6xx_HAL_Driver/Src/stm32n6xx_hal_pwr_ex.c ****   /* Check if the VBAT is below the threshold */
 737:../Drivers/STM32N6xx_HAL_Driver/Src/stm32n6xx_hal_pwr_ex.c ****   if (regValue == PWR_BDCR1_VBATL)
 1013              		.loc 1 737 3 is_stmt 1 view .LVU203
 1014              		.loc 1 737 6 is_stmt 0 view .LVU204
 1015 0008 B0F5803F 		cmp	r0, #65536
 1016 000c 03D0     		beq	.L89
 738:../Drivers/STM32N6xx_HAL_Driver/Src/stm32n6xx_hal_pwr_ex.c ****   {
 739:../Drivers/STM32N6xx_HAL_Driver/Src/stm32n6xx_hal_pwr_ex.c ****     vbatLevel = PWR_VBAT_BELOW_LOW_THRESHOLD;
 740:../Drivers/STM32N6xx_HAL_Driver/Src/stm32n6xx_hal_pwr_ex.c ****   }
 741:../Drivers/STM32N6xx_HAL_Driver/Src/stm32n6xx_hal_pwr_ex.c ****   /* Check if the VBAT is above the threshold */
 742:../Drivers/STM32N6xx_HAL_Driver/Src/stm32n6xx_hal_pwr_ex.c ****   else if (regValue == PWR_BDCR1_VBATH)
 1017              		.loc 1 742 8 is_stmt 1 view .LVU205
 1018              		.loc 1 742 11 is_stmt 0 view .LVU206
 1019 000e B0F5003F 		cmp	r0, #131072
 1020 0012 00D0     		beq	.L89
 743:../Drivers/STM32N6xx_HAL_Driver/Src/stm32n6xx_hal_pwr_ex.c ****   {
 744:../Drivers/STM32N6xx_HAL_Driver/Src/stm32n6xx_hal_pwr_ex.c ****     vbatLevel = PWR_VBAT_ABOVE_HIGH_THRESHOLD;
 745:../Drivers/STM32N6xx_HAL_Driver/Src/stm32n6xx_hal_pwr_ex.c ****   }
 746:../Drivers/STM32N6xx_HAL_Driver/Src/stm32n6xx_hal_pwr_ex.c ****   /* The VBAT is between the thresholds */
 747:../Drivers/STM32N6xx_HAL_Driver/Src/stm32n6xx_hal_pwr_ex.c ****   else
 748:../Drivers/STM32N6xx_HAL_Driver/Src/stm32n6xx_hal_pwr_ex.c ****   {
 749:../Drivers/STM32N6xx_HAL_Driver/Src/stm32n6xx_hal_pwr_ex.c ****     vbatLevel = PWR_VBAT_BETWEEN_HIGH_LOW_THRESHOLD;
 1021              		.loc 1 749 15 view .LVU207
 1022 0014 0020     		movs	r0, #0
 1023              	.LVL39:
 750:../Drivers/STM32N6xx_HAL_Driver/Src/stm32n6xx_hal_pwr_ex.c ****   }
 751:../Drivers/STM32N6xx_HAL_Driver/Src/stm32n6xx_hal_pwr_ex.c **** 
 752:../Drivers/STM32N6xx_HAL_Driver/Src/stm32n6xx_hal_pwr_ex.c ****   return vbatLevel;
 1024              		.loc 1 752 3 is_stmt 1 view .LVU208
 1025              	.L89:
 753:../Drivers/STM32N6xx_HAL_Driver/Src/stm32n6xx_hal_pwr_ex.c **** }
 1026              		.loc 1 753 1 is_stmt 0 view .LVU209
 1027 0016 7047     		bx	lr
 1028              	.L93:
 1029              		.align	2
 1030              	.L92:
 1031 0018 00480256 		.word	1442990080
 1032              		.cfi_endproc
 1033              	.LFE903:
 1035              		.section	.text.HAL_PWREx_EnableVDDCOREMonitoring,"ax",%progbits
 1036              		.align	1
 1037              		.global	HAL_PWREx_EnableVDDCOREMonitoring
 1038              		.syntax unified
 1039              		.thumb
 1040              		.thumb_func
 1042              	HAL_PWREx_EnableVDDCOREMonitoring:
 1043              	.LFB904:
 754:../Drivers/STM32N6xx_HAL_Driver/Src/stm32n6xx_hal_pwr_ex.c **** 
 755:../Drivers/STM32N6xx_HAL_Driver/Src/stm32n6xx_hal_pwr_ex.c **** /**
 756:../Drivers/STM32N6xx_HAL_Driver/Src/stm32n6xx_hal_pwr_ex.c ****   * @brief Enable the VDDCORE monitoring.
 757:../Drivers/STM32N6xx_HAL_Driver/Src/stm32n6xx_hal_pwr_ex.c ****   * @retval HAL status.
 758:../Drivers/STM32N6xx_HAL_Driver/Src/stm32n6xx_hal_pwr_ex.c ****   */
 759:../Drivers/STM32N6xx_HAL_Driver/Src/stm32n6xx_hal_pwr_ex.c **** void HAL_PWREx_EnableVDDCOREMonitoring(void)
ARM GAS  /tmp/ccb319AI.s 			page 38


 760:../Drivers/STM32N6xx_HAL_Driver/Src/stm32n6xx_hal_pwr_ex.c **** {
 1044              		.loc 1 760 1 is_stmt 1 view -0
 1045              		.cfi_startproc
 1046              		@ args = 0, pretend = 0, frame = 0
 1047              		@ frame_needed = 0, uses_anonymous_args = 0
 1048              		@ link register save eliminated.
 761:../Drivers/STM32N6xx_HAL_Driver/Src/stm32n6xx_hal_pwr_ex.c ****   /* Enable the VDDCORE monitoring */
 762:../Drivers/STM32N6xx_HAL_Driver/Src/stm32n6xx_hal_pwr_ex.c ****   SET_BIT(PWR->CR3, PWR_CR3_VCOREMONEN);
 1049              		.loc 1 762 3 view .LVU211
 1050 0000 024A     		ldr	r2, .L95
 1051 0002 9368     		ldr	r3, [r2, #8]
 1052 0004 43F00103 		orr	r3, r3, #1
 1053 0008 9360     		str	r3, [r2, #8]
 763:../Drivers/STM32N6xx_HAL_Driver/Src/stm32n6xx_hal_pwr_ex.c **** }
 1054              		.loc 1 763 1 is_stmt 0 view .LVU212
 1055 000a 7047     		bx	lr
 1056              	.L96:
 1057              		.align	2
 1058              	.L95:
 1059 000c 00480256 		.word	1442990080
 1060              		.cfi_endproc
 1061              	.LFE904:
 1063              		.section	.text.HAL_PWREx_DisableVDDCOREMonitoring,"ax",%progbits
 1064              		.align	1
 1065              		.global	HAL_PWREx_DisableVDDCOREMonitoring
 1066              		.syntax unified
 1067              		.thumb
 1068              		.thumb_func
 1070              	HAL_PWREx_DisableVDDCOREMonitoring:
 1071              	.LFB905:
 764:../Drivers/STM32N6xx_HAL_Driver/Src/stm32n6xx_hal_pwr_ex.c **** 
 765:../Drivers/STM32N6xx_HAL_Driver/Src/stm32n6xx_hal_pwr_ex.c **** /**
 766:../Drivers/STM32N6xx_HAL_Driver/Src/stm32n6xx_hal_pwr_ex.c ****   * @brief Disable the VDDCORE monitoring.
 767:../Drivers/STM32N6xx_HAL_Driver/Src/stm32n6xx_hal_pwr_ex.c ****   * @retval HAL status.
 768:../Drivers/STM32N6xx_HAL_Driver/Src/stm32n6xx_hal_pwr_ex.c ****   */
 769:../Drivers/STM32N6xx_HAL_Driver/Src/stm32n6xx_hal_pwr_ex.c **** void HAL_PWREx_DisableVDDCOREMonitoring(void)
 770:../Drivers/STM32N6xx_HAL_Driver/Src/stm32n6xx_hal_pwr_ex.c **** {
 1072              		.loc 1 770 1 is_stmt 1 view -0
 1073              		.cfi_startproc
 1074              		@ args = 0, pretend = 0, frame = 0
 1075              		@ frame_needed = 0, uses_anonymous_args = 0
 1076              		@ link register save eliminated.
 771:../Drivers/STM32N6xx_HAL_Driver/Src/stm32n6xx_hal_pwr_ex.c ****   /* Disable the VDDCORE monitoring */
 772:../Drivers/STM32N6xx_HAL_Driver/Src/stm32n6xx_hal_pwr_ex.c ****   CLEAR_BIT(PWR->CR3, PWR_CR3_VCOREMONEN);
 1077              		.loc 1 772 3 view .LVU214
 1078 0000 024A     		ldr	r2, .L98
 1079 0002 9368     		ldr	r3, [r2, #8]
 1080 0004 23F00103 		bic	r3, r3, #1
 1081 0008 9360     		str	r3, [r2, #8]
 773:../Drivers/STM32N6xx_HAL_Driver/Src/stm32n6xx_hal_pwr_ex.c **** }
 1082              		.loc 1 773 1 is_stmt 0 view .LVU215
 1083 000a 7047     		bx	lr
 1084              	.L99:
 1085              		.align	2
 1086              	.L98:
 1087 000c 00480256 		.word	1442990080
 1088              		.cfi_endproc
ARM GAS  /tmp/ccb319AI.s 			page 39


 1089              	.LFE905:
 1091              		.section	.text.HAL_PWREx_ConfigVDDCOREVM,"ax",%progbits
 1092              		.align	1
 1093              		.global	HAL_PWREx_ConfigVDDCOREVM
 1094              		.syntax unified
 1095              		.thumb
 1096              		.thumb_func
 1098              	HAL_PWREx_ConfigVDDCOREVM:
 1099              	.LVL40:
 1100              	.LFB906:
 774:../Drivers/STM32N6xx_HAL_Driver/Src/stm32n6xx_hal_pwr_ex.c **** 
 775:../Drivers/STM32N6xx_HAL_Driver/Src/stm32n6xx_hal_pwr_ex.c **** /**
 776:../Drivers/STM32N6xx_HAL_Driver/Src/stm32n6xx_hal_pwr_ex.c ****   * @brief  Configure the VDDCORE voltage detector low-level selection.
 777:../Drivers/STM32N6xx_HAL_Driver/Src/stm32n6xx_hal_pwr_ex.c ****   * @param  pConfigVddCOREVM : Pointer to a PWR_VddCOREVMTypeDef structure that contains the
 778:../Drivers/STM32N6xx_HAL_Driver/Src/stm32n6xx_hal_pwr_ex.c ****   *                            PVM configuration information (LowVoltageThreshold and Mode).
 779:../Drivers/STM32N6xx_HAL_Driver/Src/stm32n6xx_hal_pwr_ex.c ****   * @retval None.
 780:../Drivers/STM32N6xx_HAL_Driver/Src/stm32n6xx_hal_pwr_ex.c ****   */
 781:../Drivers/STM32N6xx_HAL_Driver/Src/stm32n6xx_hal_pwr_ex.c **** void HAL_PWREx_ConfigVDDCOREVM(const PWR_VddCOREVMTypeDef *pConfigVddCOREVM)
 782:../Drivers/STM32N6xx_HAL_Driver/Src/stm32n6xx_hal_pwr_ex.c **** {
 1101              		.loc 1 782 1 is_stmt 1 view -0
 1102              		.cfi_startproc
 1103              		@ args = 0, pretend = 0, frame = 0
 1104              		@ frame_needed = 0, uses_anonymous_args = 0
 1105              		@ link register save eliminated.
 783:../Drivers/STM32N6xx_HAL_Driver/Src/stm32n6xx_hal_pwr_ex.c ****   assert_param(IS_PWR_VDDCOREVM_LEVEL(pConfigVddCOREVM->LowVoltageThreshold));
 1106              		.loc 1 783 3 view .LVU217
 784:../Drivers/STM32N6xx_HAL_Driver/Src/stm32n6xx_hal_pwr_ex.c ****   assert_param(IS_PWR_VDDCOREVM_MODE(pConfigVddCOREVM->Mode));
 1107              		.loc 1 784 3 view .LVU218
 785:../Drivers/STM32N6xx_HAL_Driver/Src/stm32n6xx_hal_pwr_ex.c **** 
 786:../Drivers/STM32N6xx_HAL_Driver/Src/stm32n6xx_hal_pwr_ex.c ****   /* Disable VDDCORE monitoring Event/Interrupt */
 787:../Drivers/STM32N6xx_HAL_Driver/Src/stm32n6xx_hal_pwr_ex.c ****   __HAL_PWR_VCOREVM_EXTI_DISABLE_EVENT();
 1108              		.loc 1 787 3 view .LVU219
 1109 0000 224B     		ldr	r3, .L105
 1110 0002 D3F8A420 		ldr	r2, [r3, #164]
 1111 0006 22F01002 		bic	r2, r2, #16
 1112 000a C3F8A420 		str	r2, [r3, #164]
 788:../Drivers/STM32N6xx_HAL_Driver/Src/stm32n6xx_hal_pwr_ex.c ****   __HAL_PWR_VCOREVM_EXTI_DISABLE_IT();
 1113              		.loc 1 788 3 view .LVU220
 1114 000e D3F8A020 		ldr	r2, [r3, #160]
 1115 0012 22F01002 		bic	r2, r2, #16
 1116 0016 C3F8A020 		str	r2, [r3, #160]
 789:../Drivers/STM32N6xx_HAL_Driver/Src/stm32n6xx_hal_pwr_ex.c ****   __HAL_PWR_VCOREVM_EXTI_DISABLE_RISING_EDGE();
 1117              		.loc 1 789 3 view .LVU221
 1118 001a 1A6C     		ldr	r2, [r3, #64]
 1119 001c 22F01002 		bic	r2, r2, #16
 1120 0020 1A64     		str	r2, [r3, #64]
 790:../Drivers/STM32N6xx_HAL_Driver/Src/stm32n6xx_hal_pwr_ex.c ****   __HAL_PWR_VCOREVM_EXTI_DISABLE_FALLING_EDGE();
 1121              		.loc 1 790 3 view .LVU222
 1122 0022 5A6C     		ldr	r2, [r3, #68]
 1123 0024 22F01002 		bic	r2, r2, #16
 1124 0028 5A64     		str	r2, [r3, #68]
 791:../Drivers/STM32N6xx_HAL_Driver/Src/stm32n6xx_hal_pwr_ex.c **** 
 792:../Drivers/STM32N6xx_HAL_Driver/Src/stm32n6xx_hal_pwr_ex.c ****   /* Set the VDDCORE voltage detector low-level selection */
 793:../Drivers/STM32N6xx_HAL_Driver/Src/stm32n6xx_hal_pwr_ex.c ****   MODIFY_REG(PWR->CR3, PWR_CR3_VCORELLS_Msk, pConfigVddCOREVM->LowVoltageThreshold);
 1125              		.loc 1 793 3 view .LVU223
 1126 002a 194A     		ldr	r2, .L105+4
 1127 002c 9368     		ldr	r3, [r2, #8]
ARM GAS  /tmp/ccb319AI.s 			page 40


 1128 002e 23F01003 		bic	r3, r3, #16
 1129 0032 0168     		ldr	r1, [r0]
 1130 0034 0B43     		orrs	r3, r3, r1
 1131 0036 9360     		str	r3, [r2, #8]
 794:../Drivers/STM32N6xx_HAL_Driver/Src/stm32n6xx_hal_pwr_ex.c **** 
 795:../Drivers/STM32N6xx_HAL_Driver/Src/stm32n6xx_hal_pwr_ex.c ****   /* Configure the VDDCORE monitoring in interrupt mode */
 796:../Drivers/STM32N6xx_HAL_Driver/Src/stm32n6xx_hal_pwr_ex.c ****   if ((pConfigVddCOREVM->Mode & VDDCOREVM_MODE_IT) == VDDCOREVM_MODE_IT)
 1132              		.loc 1 796 3 view .LVU224
 1133              		.loc 1 796 24 is_stmt 0 view .LVU225
 1134 0038 4368     		ldr	r3, [r0, #4]
 1135              		.loc 1 796 6 view .LVU226
 1136 003a 13F0040F 		tst	r3, #4
 1137 003e 07D0     		beq	.L101
 797:../Drivers/STM32N6xx_HAL_Driver/Src/stm32n6xx_hal_pwr_ex.c ****   {
 798:../Drivers/STM32N6xx_HAL_Driver/Src/stm32n6xx_hal_pwr_ex.c ****     __HAL_PWR_VCOREVM_EXTI_ENABLE_IT();
 1138              		.loc 1 798 5 is_stmt 1 view .LVU227
 1139 0040 02F50062 		add	r2, r2, #2048
 1140 0044 D2F8A030 		ldr	r3, [r2, #160]
 1141 0048 43F01003 		orr	r3, r3, #16
 1142 004c C2F8A030 		str	r3, [r2, #160]
 1143              	.L101:
 799:../Drivers/STM32N6xx_HAL_Driver/Src/stm32n6xx_hal_pwr_ex.c ****   }
 800:../Drivers/STM32N6xx_HAL_Driver/Src/stm32n6xx_hal_pwr_ex.c **** 
 801:../Drivers/STM32N6xx_HAL_Driver/Src/stm32n6xx_hal_pwr_ex.c ****   /* Configure the VDDCORE monitoring in event mode */
 802:../Drivers/STM32N6xx_HAL_Driver/Src/stm32n6xx_hal_pwr_ex.c ****   if ((pConfigVddCOREVM->Mode & VDDCOREVM_MODE_EVT) == VDDCOREVM_MODE_EVT)
 1144              		.loc 1 802 3 view .LVU228
 1145              		.loc 1 802 24 is_stmt 0 view .LVU229
 1146 0050 4368     		ldr	r3, [r0, #4]
 1147              		.loc 1 802 6 view .LVU230
 1148 0052 13F0080F 		tst	r3, #8
 1149 0056 06D0     		beq	.L102
 803:../Drivers/STM32N6xx_HAL_Driver/Src/stm32n6xx_hal_pwr_ex.c ****   {
 804:../Drivers/STM32N6xx_HAL_Driver/Src/stm32n6xx_hal_pwr_ex.c ****     __HAL_PWR_VCOREVM_EXTI_ENABLE_EVENT();
 1150              		.loc 1 804 5 is_stmt 1 view .LVU231
 1151 0058 0C4A     		ldr	r2, .L105
 1152 005a D2F8A430 		ldr	r3, [r2, #164]
 1153 005e 43F01003 		orr	r3, r3, #16
 1154 0062 C2F8A430 		str	r3, [r2, #164]
 1155              	.L102:
 805:../Drivers/STM32N6xx_HAL_Driver/Src/stm32n6xx_hal_pwr_ex.c ****   }
 806:../Drivers/STM32N6xx_HAL_Driver/Src/stm32n6xx_hal_pwr_ex.c **** 
 807:../Drivers/STM32N6xx_HAL_Driver/Src/stm32n6xx_hal_pwr_ex.c ****   /* Rising edge configuration */
 808:../Drivers/STM32N6xx_HAL_Driver/Src/stm32n6xx_hal_pwr_ex.c ****   if ((pConfigVddCOREVM->Mode & VDDCOREVM_RISING_EDGE) == VDDCOREVM_RISING_EDGE)
 1156              		.loc 1 808 3 view .LVU232
 1157              		.loc 1 808 24 is_stmt 0 view .LVU233
 1158 0066 4368     		ldr	r3, [r0, #4]
 1159              		.loc 1 808 6 view .LVU234
 1160 0068 13F0010F 		tst	r3, #1
 1161 006c 04D0     		beq	.L103
 809:../Drivers/STM32N6xx_HAL_Driver/Src/stm32n6xx_hal_pwr_ex.c ****   {
 810:../Drivers/STM32N6xx_HAL_Driver/Src/stm32n6xx_hal_pwr_ex.c ****     __HAL_PWR_VCOREVM_EXTI_ENABLE_RISING_EDGE();
 1162              		.loc 1 810 5 is_stmt 1 view .LVU235
 1163 006e 074A     		ldr	r2, .L105
 1164 0070 136C     		ldr	r3, [r2, #64]
 1165 0072 43F01003 		orr	r3, r3, #16
 1166 0076 1364     		str	r3, [r2, #64]
 1167              	.L103:
ARM GAS  /tmp/ccb319AI.s 			page 41


 811:../Drivers/STM32N6xx_HAL_Driver/Src/stm32n6xx_hal_pwr_ex.c ****   }
 812:../Drivers/STM32N6xx_HAL_Driver/Src/stm32n6xx_hal_pwr_ex.c **** 
 813:../Drivers/STM32N6xx_HAL_Driver/Src/stm32n6xx_hal_pwr_ex.c ****   /* Falling edge configuration */
 814:../Drivers/STM32N6xx_HAL_Driver/Src/stm32n6xx_hal_pwr_ex.c ****   if ((pConfigVddCOREVM->Mode & VDDCOREVM_FALLING_EDGE) == VDDCOREVM_FALLING_EDGE)
 1168              		.loc 1 814 3 view .LVU236
 1169              		.loc 1 814 24 is_stmt 0 view .LVU237
 1170 0078 4368     		ldr	r3, [r0, #4]
 1171              		.loc 1 814 6 view .LVU238
 1172 007a 13F0020F 		tst	r3, #2
 1173 007e 04D0     		beq	.L100
 815:../Drivers/STM32N6xx_HAL_Driver/Src/stm32n6xx_hal_pwr_ex.c ****   {
 816:../Drivers/STM32N6xx_HAL_Driver/Src/stm32n6xx_hal_pwr_ex.c ****     __HAL_PWR_VCOREVM_EXTI_ENABLE_FALLING_EDGE();
 1174              		.loc 1 816 5 is_stmt 1 view .LVU239
 1175 0080 024A     		ldr	r2, .L105
 1176 0082 536C     		ldr	r3, [r2, #68]
 1177 0084 43F01003 		orr	r3, r3, #16
 1178 0088 5364     		str	r3, [r2, #68]
 1179              	.L100:
 817:../Drivers/STM32N6xx_HAL_Driver/Src/stm32n6xx_hal_pwr_ex.c ****   }
 818:../Drivers/STM32N6xx_HAL_Driver/Src/stm32n6xx_hal_pwr_ex.c **** }
 1180              		.loc 1 818 1 is_stmt 0 view .LVU240
 1181 008a 7047     		bx	lr
 1182              	.L106:
 1183              		.align	2
 1184              	.L105:
 1185 008c 00500256 		.word	1442992128
 1186 0090 00480256 		.word	1442990080
 1187              		.cfi_endproc
 1188              	.LFE906:
 1190              		.section	.text.HAL_PWREx_GetVDDCORELevel,"ax",%progbits
 1191              		.align	1
 1192              		.global	HAL_PWREx_GetVDDCORELevel
 1193              		.syntax unified
 1194              		.thumb
 1195              		.thumb_func
 1197              	HAL_PWREx_GetVDDCORELevel:
 1198              	.LFB907:
 819:../Drivers/STM32N6xx_HAL_Driver/Src/stm32n6xx_hal_pwr_ex.c **** 
 820:../Drivers/STM32N6xx_HAL_Driver/Src/stm32n6xx_hal_pwr_ex.c **** /**
 821:../Drivers/STM32N6xx_HAL_Driver/Src/stm32n6xx_hal_pwr_ex.c ****   * @brief Indicate whether the VDDCORE level is between, above or below
 822:../Drivers/STM32N6xx_HAL_Driver/Src/stm32n6xx_hal_pwr_ex.c ****   *        the thresholds.
 823:../Drivers/STM32N6xx_HAL_Driver/Src/stm32n6xx_hal_pwr_ex.c ****   * @retval VDDCORE level.
 824:../Drivers/STM32N6xx_HAL_Driver/Src/stm32n6xx_hal_pwr_ex.c ****   */
 825:../Drivers/STM32N6xx_HAL_Driver/Src/stm32n6xx_hal_pwr_ex.c **** uint32_t HAL_PWREx_GetVDDCORELevel(void)
 826:../Drivers/STM32N6xx_HAL_Driver/Src/stm32n6xx_hal_pwr_ex.c **** {
 1199              		.loc 1 826 1 is_stmt 1 view -0
 1200              		.cfi_startproc
 1201              		@ args = 0, pretend = 0, frame = 0
 1202              		@ frame_needed = 0, uses_anonymous_args = 0
 1203              		@ link register save eliminated.
 827:../Drivers/STM32N6xx_HAL_Driver/Src/stm32n6xx_hal_pwr_ex.c ****   uint32_t vcoreLevel;
 1204              		.loc 1 827 3 view .LVU242
 828:../Drivers/STM32N6xx_HAL_Driver/Src/stm32n6xx_hal_pwr_ex.c ****   uint32_t regValue;
 1205              		.loc 1 828 3 view .LVU243
 829:../Drivers/STM32N6xx_HAL_Driver/Src/stm32n6xx_hal_pwr_ex.c **** 
 830:../Drivers/STM32N6xx_HAL_Driver/Src/stm32n6xx_hal_pwr_ex.c ****   /* Read the VCORE flags */
 831:../Drivers/STM32N6xx_HAL_Driver/Src/stm32n6xx_hal_pwr_ex.c ****   regValue = READ_BIT(PWR->CR3, (PWR_CR3_VCOREH | PWR_CR3_VCOREL));
ARM GAS  /tmp/ccb319AI.s 			page 42


 1206              		.loc 1 831 3 view .LVU244
 1207              		.loc 1 831 14 is_stmt 0 view .LVU245
 1208 0000 054B     		ldr	r3, .L110
 1209 0002 9868     		ldr	r0, [r3, #8]
 1210              		.loc 1 831 12 view .LVU246
 1211 0004 00F44070 		and	r0, r0, #768
 1212              	.LVL41:
 832:../Drivers/STM32N6xx_HAL_Driver/Src/stm32n6xx_hal_pwr_ex.c **** 
 833:../Drivers/STM32N6xx_HAL_Driver/Src/stm32n6xx_hal_pwr_ex.c ****   /* Check if the VCORE is below the threshold */
 834:../Drivers/STM32N6xx_HAL_Driver/Src/stm32n6xx_hal_pwr_ex.c ****   if (regValue == PWR_CR3_VCOREL)
 1213              		.loc 1 834 3 is_stmt 1 view .LVU247
 1214              		.loc 1 834 6 is_stmt 0 view .LVU248
 1215 0008 B0F5807F 		cmp	r0, #256
 1216 000c 03D0     		beq	.L107
 835:../Drivers/STM32N6xx_HAL_Driver/Src/stm32n6xx_hal_pwr_ex.c ****   {
 836:../Drivers/STM32N6xx_HAL_Driver/Src/stm32n6xx_hal_pwr_ex.c ****     vcoreLevel = PWR_VDDCORE_BELOW_LOW_THRESHOLD;
 837:../Drivers/STM32N6xx_HAL_Driver/Src/stm32n6xx_hal_pwr_ex.c ****   }
 838:../Drivers/STM32N6xx_HAL_Driver/Src/stm32n6xx_hal_pwr_ex.c ****   /* Check if the VCORE is above the threshold */
 839:../Drivers/STM32N6xx_HAL_Driver/Src/stm32n6xx_hal_pwr_ex.c ****   else if (regValue == PWR_CR3_VCOREH)
 1217              		.loc 1 839 8 is_stmt 1 view .LVU249
 1218              		.loc 1 839 11 is_stmt 0 view .LVU250
 1219 000e B0F5007F 		cmp	r0, #512
 1220 0012 00D0     		beq	.L107
 840:../Drivers/STM32N6xx_HAL_Driver/Src/stm32n6xx_hal_pwr_ex.c ****   {
 841:../Drivers/STM32N6xx_HAL_Driver/Src/stm32n6xx_hal_pwr_ex.c ****     vcoreLevel = PWR_VDDCORE_ABOVE_HIGH_THRESHOLD;
 842:../Drivers/STM32N6xx_HAL_Driver/Src/stm32n6xx_hal_pwr_ex.c ****   }
 843:../Drivers/STM32N6xx_HAL_Driver/Src/stm32n6xx_hal_pwr_ex.c ****   /* The VCORE is between the thresholds */
 844:../Drivers/STM32N6xx_HAL_Driver/Src/stm32n6xx_hal_pwr_ex.c ****   else
 845:../Drivers/STM32N6xx_HAL_Driver/Src/stm32n6xx_hal_pwr_ex.c ****   {
 846:../Drivers/STM32N6xx_HAL_Driver/Src/stm32n6xx_hal_pwr_ex.c ****     vcoreLevel = PWR_VDDCORE_BETWEEN_HIGH_LOW_THRESHOLD;
 1221              		.loc 1 846 16 view .LVU251
 1222 0014 0020     		movs	r0, #0
 1223              	.LVL42:
 847:../Drivers/STM32N6xx_HAL_Driver/Src/stm32n6xx_hal_pwr_ex.c ****   }
 848:../Drivers/STM32N6xx_HAL_Driver/Src/stm32n6xx_hal_pwr_ex.c **** 
 849:../Drivers/STM32N6xx_HAL_Driver/Src/stm32n6xx_hal_pwr_ex.c ****   return vcoreLevel;
 1224              		.loc 1 849 3 is_stmt 1 view .LVU252
 1225              	.L107:
 850:../Drivers/STM32N6xx_HAL_Driver/Src/stm32n6xx_hal_pwr_ex.c **** }
 1226              		.loc 1 850 1 is_stmt 0 view .LVU253
 1227 0016 7047     		bx	lr
 1228              	.L111:
 1229              		.align	2
 1230              	.L110:
 1231 0018 00480256 		.word	1442990080
 1232              		.cfi_endproc
 1233              	.LFE907:
 1235              		.section	.text.HAL_PWREx_ConfigVddIORange,"ax",%progbits
 1236              		.align	1
 1237              		.global	HAL_PWREx_ConfigVddIORange
 1238              		.syntax unified
 1239              		.thumb
 1240              		.thumb_func
 1242              	HAL_PWREx_ConfigVddIORange:
 1243              	.LVL43:
 1244              	.LFB908:
 851:../Drivers/STM32N6xx_HAL_Driver/Src/stm32n6xx_hal_pwr_ex.c **** 
ARM GAS  /tmp/ccb319AI.s 			page 43


 852:../Drivers/STM32N6xx_HAL_Driver/Src/stm32n6xx_hal_pwr_ex.c **** /**
 853:../Drivers/STM32N6xx_HAL_Driver/Src/stm32n6xx_hal_pwr_ex.c ****   * @brief  Configure the VDD I/O voltage range.
 854:../Drivers/STM32N6xx_HAL_Driver/Src/stm32n6xx_hal_pwr_ex.c ****   * @param  VddIOPort VDD I/O
 855:../Drivers/STM32N6xx_HAL_Driver/Src/stm32n6xx_hal_pwr_ex.c ****   *         This parameter can be one of the following values:
 856:../Drivers/STM32N6xx_HAL_Driver/Src/stm32n6xx_hal_pwr_ex.c ****   *           @arg @ref PWR_VDDIO           Vdd IO
 857:../Drivers/STM32N6xx_HAL_Driver/Src/stm32n6xx_hal_pwr_ex.c ****   *           @arg @ref PWR_VDDIO2          Vdd IO2
 858:../Drivers/STM32N6xx_HAL_Driver/Src/stm32n6xx_hal_pwr_ex.c ****   *           @arg @ref PWR_VDDIO3          Vdd IO3
 859:../Drivers/STM32N6xx_HAL_Driver/Src/stm32n6xx_hal_pwr_ex.c ****   *           @arg @ref PWR_VDDIO4          Vdd IO4
 860:../Drivers/STM32N6xx_HAL_Driver/Src/stm32n6xx_hal_pwr_ex.c ****   *           @arg @ref PWR_VDDIO5          Vdd IO5
 861:../Drivers/STM32N6xx_HAL_Driver/Src/stm32n6xx_hal_pwr_ex.c ****   * @param  VoltageRange Voltage range
 862:../Drivers/STM32N6xx_HAL_Driver/Src/stm32n6xx_hal_pwr_ex.c ****   *         This parameter can be one of the following values:
 863:../Drivers/STM32N6xx_HAL_Driver/Src/stm32n6xx_hal_pwr_ex.c ****   *           @arg @ref PWR_VDDIO_RANGE_3V3   3v3 voltage range
 864:../Drivers/STM32N6xx_HAL_Driver/Src/stm32n6xx_hal_pwr_ex.c ****   *           @arg @ref PWR_VDDIO_RANGE_1V8   1v8 voltage range
 865:../Drivers/STM32N6xx_HAL_Driver/Src/stm32n6xx_hal_pwr_ex.c ****   * @note   HSLV_VDDIOx option bit must be set to allow 1v8 voltage
 866:../Drivers/STM32N6xx_HAL_Driver/Src/stm32n6xx_hal_pwr_ex.c ****   *         range operation.
 867:../Drivers/STM32N6xx_HAL_Driver/Src/stm32n6xx_hal_pwr_ex.c ****   * @note   Setting this configuration while VDDIOx is in 3v3 range
 868:../Drivers/STM32N6xx_HAL_Driver/Src/stm32n6xx_hal_pwr_ex.c ****   *         damages the device.
 869:../Drivers/STM32N6xx_HAL_Driver/Src/stm32n6xx_hal_pwr_ex.c ****   * @retval None.
 870:../Drivers/STM32N6xx_HAL_Driver/Src/stm32n6xx_hal_pwr_ex.c ****   */
 871:../Drivers/STM32N6xx_HAL_Driver/Src/stm32n6xx_hal_pwr_ex.c **** void HAL_PWREx_ConfigVddIORange(uint32_t VddIOPort, uint32_t VoltageRange)
 872:../Drivers/STM32N6xx_HAL_Driver/Src/stm32n6xx_hal_pwr_ex.c **** {
 1245              		.loc 1 872 1 is_stmt 1 view -0
 1246              		.cfi_startproc
 1247              		@ args = 0, pretend = 0, frame = 0
 1248              		@ frame_needed = 0, uses_anonymous_args = 0
 1249              		@ link register save eliminated.
 873:../Drivers/STM32N6xx_HAL_Driver/Src/stm32n6xx_hal_pwr_ex.c ****   /* Check the parameters */
 874:../Drivers/STM32N6xx_HAL_Driver/Src/stm32n6xx_hal_pwr_ex.c ****   assert_param(IS_PWR_VDDIO(VddIOPort));
 1250              		.loc 1 874 3 view .LVU255
 875:../Drivers/STM32N6xx_HAL_Driver/Src/stm32n6xx_hal_pwr_ex.c ****   assert_param(IS_PWR_VDDIO_RANGE(VoltageRange));
 1251              		.loc 1 875 3 view .LVU256
 876:../Drivers/STM32N6xx_HAL_Driver/Src/stm32n6xx_hal_pwr_ex.c **** 
 877:../Drivers/STM32N6xx_HAL_Driver/Src/stm32n6xx_hal_pwr_ex.c ****   switch (VddIOPort)
 1252              		.loc 1 877 3 view .LVU257
 1253 0000 0428     		cmp	r0, #4
 1254 0002 2BD8     		bhi	.L112
 1255 0004 DFE800F0 		tbb	[pc, r0]
 1256              	.L115:
 1257 0008 03       		.byte	(.L119-.L115)/2
 1258 0009 0B       		.byte	(.L118-.L115)/2
 1259 000a 13       		.byte	(.L117-.L115)/2
 1260 000b 1B       		.byte	(.L116-.L115)/2
 1261 000c 23       		.byte	(.L114-.L115)/2
 1262 000d 00       		.p2align 1
 1263              	.L119:
 878:../Drivers/STM32N6xx_HAL_Driver/Src/stm32n6xx_hal_pwr_ex.c ****   {
 879:../Drivers/STM32N6xx_HAL_Driver/Src/stm32n6xx_hal_pwr_ex.c ****     case PWR_VDDIO:
 880:../Drivers/STM32N6xx_HAL_Driver/Src/stm32n6xx_hal_pwr_ex.c ****       MODIFY_REG(PWR->SVMCR3, PWR_SVMCR3_VDDIOVRSEL, VoltageRange << PWR_SVMCR3_VDDIOVRSEL_Pos);
 1264              		.loc 1 880 7 view .LVU258
 1265 000e 144A     		ldr	r2, .L121
 1266 0010 D36B     		ldr	r3, [r2, #60]
 1267 0012 23F08073 		bic	r3, r3, #16777216
 1268 0016 43EA0163 		orr	r3, r3, r1, lsl #24
 1269 001a D363     		str	r3, [r2, #60]
 881:../Drivers/STM32N6xx_HAL_Driver/Src/stm32n6xx_hal_pwr_ex.c ****       break;
 1270              		.loc 1 881 7 view .LVU259
 1271 001c 7047     		bx	lr
ARM GAS  /tmp/ccb319AI.s 			page 44


 1272              	.L118:
 882:../Drivers/STM32N6xx_HAL_Driver/Src/stm32n6xx_hal_pwr_ex.c **** 
 883:../Drivers/STM32N6xx_HAL_Driver/Src/stm32n6xx_hal_pwr_ex.c ****     case PWR_VDDIO2:
 884:../Drivers/STM32N6xx_HAL_Driver/Src/stm32n6xx_hal_pwr_ex.c ****       MODIFY_REG(PWR->SVMCR3, PWR_SVMCR3_VDDIO2VRSEL, VoltageRange << PWR_SVMCR3_VDDIO2VRSEL_Pos);
 1273              		.loc 1 884 7 view .LVU260
 1274 001e 104A     		ldr	r2, .L121
 1275 0020 D36B     		ldr	r3, [r2, #60]
 1276 0022 23F00073 		bic	r3, r3, #33554432
 1277 0026 43EA4163 		orr	r3, r3, r1, lsl #25
 1278 002a D363     		str	r3, [r2, #60]
 885:../Drivers/STM32N6xx_HAL_Driver/Src/stm32n6xx_hal_pwr_ex.c ****       break;
 1279              		.loc 1 885 7 view .LVU261
 1280 002c 7047     		bx	lr
 1281              	.L117:
 886:../Drivers/STM32N6xx_HAL_Driver/Src/stm32n6xx_hal_pwr_ex.c **** 
 887:../Drivers/STM32N6xx_HAL_Driver/Src/stm32n6xx_hal_pwr_ex.c ****     case PWR_VDDIO3:
 888:../Drivers/STM32N6xx_HAL_Driver/Src/stm32n6xx_hal_pwr_ex.c ****       MODIFY_REG(PWR->SVMCR3, PWR_SVMCR3_VDDIO3VRSEL, VoltageRange << PWR_SVMCR3_VDDIO3VRSEL_Pos);
 1282              		.loc 1 888 7 view .LVU262
 1283 002e 0C4A     		ldr	r2, .L121
 1284 0030 D36B     		ldr	r3, [r2, #60]
 1285 0032 23F08063 		bic	r3, r3, #67108864
 1286 0036 43EA8163 		orr	r3, r3, r1, lsl #26
 1287 003a D363     		str	r3, [r2, #60]
 889:../Drivers/STM32N6xx_HAL_Driver/Src/stm32n6xx_hal_pwr_ex.c ****       break;
 1288              		.loc 1 889 7 view .LVU263
 1289 003c 7047     		bx	lr
 1290              	.L116:
 890:../Drivers/STM32N6xx_HAL_Driver/Src/stm32n6xx_hal_pwr_ex.c **** 
 891:../Drivers/STM32N6xx_HAL_Driver/Src/stm32n6xx_hal_pwr_ex.c ****     case PWR_VDDIO4:
 892:../Drivers/STM32N6xx_HAL_Driver/Src/stm32n6xx_hal_pwr_ex.c ****       MODIFY_REG(PWR->SVMCR1, PWR_SVMCR1_VDDIO4VRSEL, VoltageRange << PWR_SVMCR1_VDDIO4VRSEL_Pos);
 1291              		.loc 1 892 7 view .LVU264
 1292 003e 084A     		ldr	r2, .L121
 1293 0040 536B     		ldr	r3, [r2, #52]
 1294 0042 23F08073 		bic	r3, r3, #16777216
 1295 0046 43EA0163 		orr	r3, r3, r1, lsl #24
 1296 004a 5363     		str	r3, [r2, #52]
 893:../Drivers/STM32N6xx_HAL_Driver/Src/stm32n6xx_hal_pwr_ex.c ****       break;
 1297              		.loc 1 893 7 view .LVU265
 1298 004c 7047     		bx	lr
 1299              	.L114:
 894:../Drivers/STM32N6xx_HAL_Driver/Src/stm32n6xx_hal_pwr_ex.c **** 
 895:../Drivers/STM32N6xx_HAL_Driver/Src/stm32n6xx_hal_pwr_ex.c ****     case PWR_VDDIO5:
 896:../Drivers/STM32N6xx_HAL_Driver/Src/stm32n6xx_hal_pwr_ex.c ****       MODIFY_REG(PWR->SVMCR2, PWR_SVMCR2_VDDIO5VRSEL, VoltageRange << PWR_SVMCR2_VDDIO5VRSEL_Pos);
 1300              		.loc 1 896 7 view .LVU266
 1301 004e 044A     		ldr	r2, .L121
 1302 0050 936B     		ldr	r3, [r2, #56]
 1303 0052 23F08073 		bic	r3, r3, #16777216
 1304 0056 43EA0163 		orr	r3, r3, r1, lsl #24
 1305 005a 9363     		str	r3, [r2, #56]
 897:../Drivers/STM32N6xx_HAL_Driver/Src/stm32n6xx_hal_pwr_ex.c ****       break;
 1306              		.loc 1 897 7 view .LVU267
 1307              	.L112:
 898:../Drivers/STM32N6xx_HAL_Driver/Src/stm32n6xx_hal_pwr_ex.c **** 
 899:../Drivers/STM32N6xx_HAL_Driver/Src/stm32n6xx_hal_pwr_ex.c ****     default:
 900:../Drivers/STM32N6xx_HAL_Driver/Src/stm32n6xx_hal_pwr_ex.c ****       break;
 901:../Drivers/STM32N6xx_HAL_Driver/Src/stm32n6xx_hal_pwr_ex.c ****   }
 902:../Drivers/STM32N6xx_HAL_Driver/Src/stm32n6xx_hal_pwr_ex.c **** }
ARM GAS  /tmp/ccb319AI.s 			page 45


 1308              		.loc 1 902 1 is_stmt 0 view .LVU268
 1309 005c 7047     		bx	lr
 1310              	.L122:
 1311 005e 00BF     		.align	2
 1312              	.L121:
 1313 0060 00480256 		.word	1442990080
 1314              		.cfi_endproc
 1315              	.LFE908:
 1317              		.section	.text.HAL_PWREx_GetVddIORange,"ax",%progbits
 1318              		.align	1
 1319              		.global	HAL_PWREx_GetVddIORange
 1320              		.syntax unified
 1321              		.thumb
 1322              		.thumb_func
 1324              	HAL_PWREx_GetVddIORange:
 1325              	.LVL44:
 1326              	.LFB909:
 903:../Drivers/STM32N6xx_HAL_Driver/Src/stm32n6xx_hal_pwr_ex.c **** 
 904:../Drivers/STM32N6xx_HAL_Driver/Src/stm32n6xx_hal_pwr_ex.c **** /**
 905:../Drivers/STM32N6xx_HAL_Driver/Src/stm32n6xx_hal_pwr_ex.c ****   * @brief  Configure the VDD I/O voltage range.
 906:../Drivers/STM32N6xx_HAL_Driver/Src/stm32n6xx_hal_pwr_ex.c ****   * @param  VddIOPort VDD I/O
 907:../Drivers/STM32N6xx_HAL_Driver/Src/stm32n6xx_hal_pwr_ex.c ****   *         This parameter can be one of the following values:
 908:../Drivers/STM32N6xx_HAL_Driver/Src/stm32n6xx_hal_pwr_ex.c ****   *           @arg @ref PWR_VDDIO           Vdd IO
 909:../Drivers/STM32N6xx_HAL_Driver/Src/stm32n6xx_hal_pwr_ex.c ****   *           @arg @ref PWR_VDDIO2          Vdd IO2
 910:../Drivers/STM32N6xx_HAL_Driver/Src/stm32n6xx_hal_pwr_ex.c ****   *           @arg @ref PWR_VDDIO3          Vdd IO3
 911:../Drivers/STM32N6xx_HAL_Driver/Src/stm32n6xx_hal_pwr_ex.c ****   *           @arg @ref PWR_VDDIO4          Vdd IO4
 912:../Drivers/STM32N6xx_HAL_Driver/Src/stm32n6xx_hal_pwr_ex.c ****   *           @arg @ref PWR_VDDIO5          Vdd IO5
 913:../Drivers/STM32N6xx_HAL_Driver/Src/stm32n6xx_hal_pwr_ex.c ****   * @retval The voltage range:
 914:../Drivers/STM32N6xx_HAL_Driver/Src/stm32n6xx_hal_pwr_ex.c ****   *           @arg @ref PWR_VDDIO_RANGE_3V3   3v3 voltage range
 915:../Drivers/STM32N6xx_HAL_Driver/Src/stm32n6xx_hal_pwr_ex.c ****   *           @arg @ref PWR_VDDIO_RANGE_1V8   1v8 voltage range
 916:../Drivers/STM32N6xx_HAL_Driver/Src/stm32n6xx_hal_pwr_ex.c ****   */
 917:../Drivers/STM32N6xx_HAL_Driver/Src/stm32n6xx_hal_pwr_ex.c **** uint32_t HAL_PWREx_GetVddIORange(uint32_t VddIOPort)
 918:../Drivers/STM32N6xx_HAL_Driver/Src/stm32n6xx_hal_pwr_ex.c **** {
 1327              		.loc 1 918 1 is_stmt 1 view -0
 1328              		.cfi_startproc
 1329              		@ args = 0, pretend = 0, frame = 0
 1330              		@ frame_needed = 0, uses_anonymous_args = 0
 1331              		@ link register save eliminated.
 919:../Drivers/STM32N6xx_HAL_Driver/Src/stm32n6xx_hal_pwr_ex.c ****   uint32_t voltage_range = 0U;
 1332              		.loc 1 919 3 view .LVU270
 920:../Drivers/STM32N6xx_HAL_Driver/Src/stm32n6xx_hal_pwr_ex.c **** 
 921:../Drivers/STM32N6xx_HAL_Driver/Src/stm32n6xx_hal_pwr_ex.c ****   /* Check the parameters */
 922:../Drivers/STM32N6xx_HAL_Driver/Src/stm32n6xx_hal_pwr_ex.c ****   assert_param(IS_PWR_VDDIO(VddIOPort));
 1333              		.loc 1 922 3 view .LVU271
 923:../Drivers/STM32N6xx_HAL_Driver/Src/stm32n6xx_hal_pwr_ex.c **** 
 924:../Drivers/STM32N6xx_HAL_Driver/Src/stm32n6xx_hal_pwr_ex.c ****   switch (VddIOPort)
 1334              		.loc 1 924 3 view .LVU272
 1335 0000 0428     		cmp	r0, #4
 1336 0002 1DD8     		bhi	.L131
 1337 0004 DFE800F0 		tbb	[pc, r0]
 1338              	.L126:
 1339 0008 03       		.byte	(.L130-.L126)/2
 1340 0009 08       		.byte	(.L129-.L126)/2
 1341 000a 0D       		.byte	(.L128-.L126)/2
 1342 000b 12       		.byte	(.L127-.L126)/2
 1343 000c 17       		.byte	(.L125-.L126)/2
 1344 000d 00       		.p2align 1
ARM GAS  /tmp/ccb319AI.s 			page 46


 1345              	.L130:
 925:../Drivers/STM32N6xx_HAL_Driver/Src/stm32n6xx_hal_pwr_ex.c ****   {
 926:../Drivers/STM32N6xx_HAL_Driver/Src/stm32n6xx_hal_pwr_ex.c ****     case PWR_VDDIO:
 927:../Drivers/STM32N6xx_HAL_Driver/Src/stm32n6xx_hal_pwr_ex.c ****       voltage_range = (READ_BIT(PWR->SVMCR3, PWR_SVMCR3_VDDIOVRSEL) >> PWR_SVMCR3_VDDIOVRSEL_Pos);
 1346              		.loc 1 927 7 view .LVU273
 1347              		.loc 1 927 24 is_stmt 0 view .LVU274
 1348 000e 0D4B     		ldr	r3, .L132
 1349 0010 D86B     		ldr	r0, [r3, #60]
 1350              	.LVL45:
 1351              		.loc 1 927 21 view .LVU275
 1352 0012 C0F30060 		ubfx	r0, r0, #24, #1
 1353              	.LVL46:
 928:../Drivers/STM32N6xx_HAL_Driver/Src/stm32n6xx_hal_pwr_ex.c ****       break;
 1354              		.loc 1 928 7 is_stmt 1 view .LVU276
 1355 0016 7047     		bx	lr
 1356              	.LVL47:
 1357              	.L129:
 929:../Drivers/STM32N6xx_HAL_Driver/Src/stm32n6xx_hal_pwr_ex.c **** 
 930:../Drivers/STM32N6xx_HAL_Driver/Src/stm32n6xx_hal_pwr_ex.c ****     case PWR_VDDIO2:
 931:../Drivers/STM32N6xx_HAL_Driver/Src/stm32n6xx_hal_pwr_ex.c ****       voltage_range = (READ_BIT(PWR->SVMCR3, PWR_SVMCR3_VDDIO2VRSEL) >> PWR_SVMCR3_VDDIO2VRSEL_Pos)
 1358              		.loc 1 931 7 view .LVU277
 1359              		.loc 1 931 24 is_stmt 0 view .LVU278
 1360 0018 0A4B     		ldr	r3, .L132
 1361 001a D86B     		ldr	r0, [r3, #60]
 1362              	.LVL48:
 1363              		.loc 1 931 21 view .LVU279
 1364 001c C0F34060 		ubfx	r0, r0, #25, #1
 1365              	.LVL49:
 932:../Drivers/STM32N6xx_HAL_Driver/Src/stm32n6xx_hal_pwr_ex.c ****       break;
 1366              		.loc 1 932 7 is_stmt 1 view .LVU280
 1367 0020 7047     		bx	lr
 1368              	.LVL50:
 1369              	.L128:
 933:../Drivers/STM32N6xx_HAL_Driver/Src/stm32n6xx_hal_pwr_ex.c **** 
 934:../Drivers/STM32N6xx_HAL_Driver/Src/stm32n6xx_hal_pwr_ex.c ****     case PWR_VDDIO3:
 935:../Drivers/STM32N6xx_HAL_Driver/Src/stm32n6xx_hal_pwr_ex.c ****       voltage_range = (READ_BIT(PWR->SVMCR3, PWR_SVMCR3_VDDIO3VRSEL) >> PWR_SVMCR3_VDDIO3VRSEL_Pos)
 1370              		.loc 1 935 7 view .LVU281
 1371              		.loc 1 935 24 is_stmt 0 view .LVU282
 1372 0022 084B     		ldr	r3, .L132
 1373 0024 D86B     		ldr	r0, [r3, #60]
 1374              	.LVL51:
 1375              		.loc 1 935 21 view .LVU283
 1376 0026 C0F38060 		ubfx	r0, r0, #26, #1
 1377              	.LVL52:
 936:../Drivers/STM32N6xx_HAL_Driver/Src/stm32n6xx_hal_pwr_ex.c ****       break;
 1378              		.loc 1 936 7 is_stmt 1 view .LVU284
 1379 002a 7047     		bx	lr
 1380              	.LVL53:
 1381              	.L127:
 937:../Drivers/STM32N6xx_HAL_Driver/Src/stm32n6xx_hal_pwr_ex.c **** 
 938:../Drivers/STM32N6xx_HAL_Driver/Src/stm32n6xx_hal_pwr_ex.c ****     case PWR_VDDIO4:
 939:../Drivers/STM32N6xx_HAL_Driver/Src/stm32n6xx_hal_pwr_ex.c ****       voltage_range = (READ_BIT(PWR->SVMCR1, PWR_SVMCR1_VDDIO4VRSEL) >> PWR_SVMCR1_VDDIO4VRSEL_Pos)
 1382              		.loc 1 939 7 view .LVU285
 1383              		.loc 1 939 24 is_stmt 0 view .LVU286
 1384 002c 054B     		ldr	r3, .L132
 1385 002e 586B     		ldr	r0, [r3, #52]
 1386              	.LVL54:
ARM GAS  /tmp/ccb319AI.s 			page 47


 1387              		.loc 1 939 21 view .LVU287
 1388 0030 C0F30060 		ubfx	r0, r0, #24, #1
 1389              	.LVL55:
 940:../Drivers/STM32N6xx_HAL_Driver/Src/stm32n6xx_hal_pwr_ex.c ****       break;
 1390              		.loc 1 940 7 is_stmt 1 view .LVU288
 1391 0034 7047     		bx	lr
 1392              	.LVL56:
 1393              	.L125:
 941:../Drivers/STM32N6xx_HAL_Driver/Src/stm32n6xx_hal_pwr_ex.c **** 
 942:../Drivers/STM32N6xx_HAL_Driver/Src/stm32n6xx_hal_pwr_ex.c ****     case PWR_VDDIO5:
 943:../Drivers/STM32N6xx_HAL_Driver/Src/stm32n6xx_hal_pwr_ex.c ****       voltage_range = (READ_BIT(PWR->SVMCR2, PWR_SVMCR2_VDDIO5VRSEL) >> PWR_SVMCR2_VDDIO5VRSEL_Pos)
 1394              		.loc 1 943 7 view .LVU289
 1395              		.loc 1 943 24 is_stmt 0 view .LVU290
 1396 0036 034B     		ldr	r3, .L132
 1397 0038 986B     		ldr	r0, [r3, #56]
 1398              	.LVL57:
 1399              		.loc 1 943 21 view .LVU291
 1400 003a C0F30060 		ubfx	r0, r0, #24, #1
 1401              	.LVL58:
 944:../Drivers/STM32N6xx_HAL_Driver/Src/stm32n6xx_hal_pwr_ex.c ****       break;
 1402              		.loc 1 944 7 is_stmt 1 view .LVU292
 1403 003e 7047     		bx	lr
 1404              	.LVL59:
 1405              	.L131:
 924:../Drivers/STM32N6xx_HAL_Driver/Src/stm32n6xx_hal_pwr_ex.c ****   {
 1406              		.loc 1 924 3 is_stmt 0 view .LVU293
 1407 0040 0020     		movs	r0, #0
 1408              	.LVL60:
 945:../Drivers/STM32N6xx_HAL_Driver/Src/stm32n6xx_hal_pwr_ex.c **** 
 946:../Drivers/STM32N6xx_HAL_Driver/Src/stm32n6xx_hal_pwr_ex.c ****     default:
 947:../Drivers/STM32N6xx_HAL_Driver/Src/stm32n6xx_hal_pwr_ex.c ****       break;
 948:../Drivers/STM32N6xx_HAL_Driver/Src/stm32n6xx_hal_pwr_ex.c ****   }
 949:../Drivers/STM32N6xx_HAL_Driver/Src/stm32n6xx_hal_pwr_ex.c ****   return voltage_range;
 1409              		.loc 1 949 3 is_stmt 1 view .LVU294
 950:../Drivers/STM32N6xx_HAL_Driver/Src/stm32n6xx_hal_pwr_ex.c **** }
 1410              		.loc 1 950 1 is_stmt 0 view .LVU295
 1411 0042 7047     		bx	lr
 1412              	.L133:
 1413              		.align	2
 1414              	.L132:
 1415 0044 00480256 		.word	1442990080
 1416              		.cfi_endproc
 1417              	.LFE909:
 1419              		.section	.text.HAL_PWREx_EnableVddIO4RangeSTBY,"ax",%progbits
 1420              		.align	1
 1421              		.global	HAL_PWREx_EnableVddIO4RangeSTBY
 1422              		.syntax unified
 1423              		.thumb
 1424              		.thumb_func
 1426              	HAL_PWREx_EnableVddIO4RangeSTBY:
 1427              	.LFB910:
 951:../Drivers/STM32N6xx_HAL_Driver/Src/stm32n6xx_hal_pwr_ex.c **** 
 952:../Drivers/STM32N6xx_HAL_Driver/Src/stm32n6xx_hal_pwr_ex.c **** /**
 953:../Drivers/STM32N6xx_HAL_Driver/Src/stm32n6xx_hal_pwr_ex.c ****   * @brief  Enable VDD IO4 voltage range Standby mode.
 954:../Drivers/STM32N6xx_HAL_Driver/Src/stm32n6xx_hal_pwr_ex.c ****   * @note   When this bit is set, the VDDIO4VRSEL configuration
 955:../Drivers/STM32N6xx_HAL_Driver/Src/stm32n6xx_hal_pwr_ex.c ****   *         is retained in Standby mode.
 956:../Drivers/STM32N6xx_HAL_Driver/Src/stm32n6xx_hal_pwr_ex.c ****   * @note   This bit must be set if the VDDIO4 is in 1v8 range
ARM GAS  /tmp/ccb319AI.s 			page 48


 957:../Drivers/STM32N6xx_HAL_Driver/Src/stm32n6xx_hal_pwr_ex.c ****   *         in Standby mode, and when exiting Standby mode.
 958:../Drivers/STM32N6xx_HAL_Driver/Src/stm32n6xx_hal_pwr_ex.c ****   * @note   It must not be set when VDDIO4 is in 3v3 range in
 959:../Drivers/STM32N6xx_HAL_Driver/Src/stm32n6xx_hal_pwr_ex.c ****   *         Standby mode, or when exiting Standby mode.
 960:../Drivers/STM32N6xx_HAL_Driver/Src/stm32n6xx_hal_pwr_ex.c ****   * @retval None.
 961:../Drivers/STM32N6xx_HAL_Driver/Src/stm32n6xx_hal_pwr_ex.c ****   */
 962:../Drivers/STM32N6xx_HAL_Driver/Src/stm32n6xx_hal_pwr_ex.c **** void HAL_PWREx_EnableVddIO4RangeSTBY(void)
 963:../Drivers/STM32N6xx_HAL_Driver/Src/stm32n6xx_hal_pwr_ex.c **** {
 1428              		.loc 1 963 1 is_stmt 1 view -0
 1429              		.cfi_startproc
 1430              		@ args = 0, pretend = 0, frame = 0
 1431              		@ frame_needed = 0, uses_anonymous_args = 0
 1432              		@ link register save eliminated.
 964:../Drivers/STM32N6xx_HAL_Driver/Src/stm32n6xx_hal_pwr_ex.c ****   SET_BIT(PWR->SVMCR1, PWR_SVMCR1_VDDIO4VRSTBY);
 1433              		.loc 1 964 3 view .LVU297
 1434 0000 024A     		ldr	r2, .L135
 1435 0002 536B     		ldr	r3, [r2, #52]
 1436 0004 43F00073 		orr	r3, r3, #33554432
 1437 0008 5363     		str	r3, [r2, #52]
 965:../Drivers/STM32N6xx_HAL_Driver/Src/stm32n6xx_hal_pwr_ex.c **** }
 1438              		.loc 1 965 1 is_stmt 0 view .LVU298
 1439 000a 7047     		bx	lr
 1440              	.L136:
 1441              		.align	2
 1442              	.L135:
 1443 000c 00480256 		.word	1442990080
 1444              		.cfi_endproc
 1445              	.LFE910:
 1447              		.section	.text.HAL_PWREx_DisableVddIO4RangeSTBY,"ax",%progbits
 1448              		.align	1
 1449              		.global	HAL_PWREx_DisableVddIO4RangeSTBY
 1450              		.syntax unified
 1451              		.thumb
 1452              		.thumb_func
 1454              	HAL_PWREx_DisableVddIO4RangeSTBY:
 1455              	.LFB911:
 966:../Drivers/STM32N6xx_HAL_Driver/Src/stm32n6xx_hal_pwr_ex.c **** 
 967:../Drivers/STM32N6xx_HAL_Driver/Src/stm32n6xx_hal_pwr_ex.c **** /**
 968:../Drivers/STM32N6xx_HAL_Driver/Src/stm32n6xx_hal_pwr_ex.c ****   * @brief  Disable VDD IO4 voltage range Standby mode.
 969:../Drivers/STM32N6xx_HAL_Driver/Src/stm32n6xx_hal_pwr_ex.c ****   * @retval None.
 970:../Drivers/STM32N6xx_HAL_Driver/Src/stm32n6xx_hal_pwr_ex.c ****   */
 971:../Drivers/STM32N6xx_HAL_Driver/Src/stm32n6xx_hal_pwr_ex.c **** void HAL_PWREx_DisableVddIO4RangeSTBY(void)
 972:../Drivers/STM32N6xx_HAL_Driver/Src/stm32n6xx_hal_pwr_ex.c **** {
 1456              		.loc 1 972 1 is_stmt 1 view -0
 1457              		.cfi_startproc
 1458              		@ args = 0, pretend = 0, frame = 0
 1459              		@ frame_needed = 0, uses_anonymous_args = 0
 1460              		@ link register save eliminated.
 973:../Drivers/STM32N6xx_HAL_Driver/Src/stm32n6xx_hal_pwr_ex.c ****   CLEAR_BIT(PWR->SVMCR1, PWR_SVMCR1_VDDIO4VRSTBY);
 1461              		.loc 1 973 3 view .LVU300
 1462 0000 024A     		ldr	r2, .L138
 1463 0002 536B     		ldr	r3, [r2, #52]
 1464 0004 23F00073 		bic	r3, r3, #33554432
 1465 0008 5363     		str	r3, [r2, #52]
 974:../Drivers/STM32N6xx_HAL_Driver/Src/stm32n6xx_hal_pwr_ex.c **** }
 1466              		.loc 1 974 1 is_stmt 0 view .LVU301
 1467 000a 7047     		bx	lr
 1468              	.L139:
ARM GAS  /tmp/ccb319AI.s 			page 49


 1469              		.align	2
 1470              	.L138:
 1471 000c 00480256 		.word	1442990080
 1472              		.cfi_endproc
 1473              	.LFE911:
 1475              		.section	.text.HAL_PWREx_EnableVddIO5RangeSTBY,"ax",%progbits
 1476              		.align	1
 1477              		.global	HAL_PWREx_EnableVddIO5RangeSTBY
 1478              		.syntax unified
 1479              		.thumb
 1480              		.thumb_func
 1482              	HAL_PWREx_EnableVddIO5RangeSTBY:
 1483              	.LFB912:
 975:../Drivers/STM32N6xx_HAL_Driver/Src/stm32n6xx_hal_pwr_ex.c **** 
 976:../Drivers/STM32N6xx_HAL_Driver/Src/stm32n6xx_hal_pwr_ex.c **** /**
 977:../Drivers/STM32N6xx_HAL_Driver/Src/stm32n6xx_hal_pwr_ex.c ****   * @brief  Enable VDD IO5 voltage range Standby mode.
 978:../Drivers/STM32N6xx_HAL_Driver/Src/stm32n6xx_hal_pwr_ex.c ****   * @note   When this bit is set, the VDDIO5VRSEL configuration
 979:../Drivers/STM32N6xx_HAL_Driver/Src/stm32n6xx_hal_pwr_ex.c ****   *         is retained in Standby mode.
 980:../Drivers/STM32N6xx_HAL_Driver/Src/stm32n6xx_hal_pwr_ex.c ****   * @note   This bit must be set if the VDDIO5 is in 1v8 range
 981:../Drivers/STM32N6xx_HAL_Driver/Src/stm32n6xx_hal_pwr_ex.c ****   *         in Standby mode, and when exiting Standby mode.
 982:../Drivers/STM32N6xx_HAL_Driver/Src/stm32n6xx_hal_pwr_ex.c ****   * @note   It must not be set when VDDIO5 is in 3v3 range in
 983:../Drivers/STM32N6xx_HAL_Driver/Src/stm32n6xx_hal_pwr_ex.c ****   *         Standby mode, or when exiting Standby mode.
 984:../Drivers/STM32N6xx_HAL_Driver/Src/stm32n6xx_hal_pwr_ex.c ****   * @retval None.
 985:../Drivers/STM32N6xx_HAL_Driver/Src/stm32n6xx_hal_pwr_ex.c ****   */
 986:../Drivers/STM32N6xx_HAL_Driver/Src/stm32n6xx_hal_pwr_ex.c **** void HAL_PWREx_EnableVddIO5RangeSTBY(void)
 987:../Drivers/STM32N6xx_HAL_Driver/Src/stm32n6xx_hal_pwr_ex.c **** {
 1484              		.loc 1 987 1 is_stmt 1 view -0
 1485              		.cfi_startproc
 1486              		@ args = 0, pretend = 0, frame = 0
 1487              		@ frame_needed = 0, uses_anonymous_args = 0
 1488              		@ link register save eliminated.
 988:../Drivers/STM32N6xx_HAL_Driver/Src/stm32n6xx_hal_pwr_ex.c ****   SET_BIT(PWR->SVMCR2, PWR_SVMCR2_VDDIO5VRSTBY);
 1489              		.loc 1 988 3 view .LVU303
 1490 0000 024A     		ldr	r2, .L141
 1491 0002 936B     		ldr	r3, [r2, #56]
 1492 0004 43F00073 		orr	r3, r3, #33554432
 1493 0008 9363     		str	r3, [r2, #56]
 989:../Drivers/STM32N6xx_HAL_Driver/Src/stm32n6xx_hal_pwr_ex.c **** }
 1494              		.loc 1 989 1 is_stmt 0 view .LVU304
 1495 000a 7047     		bx	lr
 1496              	.L142:
 1497              		.align	2
 1498              	.L141:
 1499 000c 00480256 		.word	1442990080
 1500              		.cfi_endproc
 1501              	.LFE912:
 1503              		.section	.text.HAL_PWREx_DisableVddIO5RangeSTBY,"ax",%progbits
 1504              		.align	1
 1505              		.global	HAL_PWREx_DisableVddIO5RangeSTBY
 1506              		.syntax unified
 1507              		.thumb
 1508              		.thumb_func
 1510              	HAL_PWREx_DisableVddIO5RangeSTBY:
 1511              	.LFB913:
 990:../Drivers/STM32N6xx_HAL_Driver/Src/stm32n6xx_hal_pwr_ex.c **** 
 991:../Drivers/STM32N6xx_HAL_Driver/Src/stm32n6xx_hal_pwr_ex.c **** /**
 992:../Drivers/STM32N6xx_HAL_Driver/Src/stm32n6xx_hal_pwr_ex.c ****   * @brief  Disable VDD IO5 voltage range Standby mode.
ARM GAS  /tmp/ccb319AI.s 			page 50


 993:../Drivers/STM32N6xx_HAL_Driver/Src/stm32n6xx_hal_pwr_ex.c ****   * @retval None.
 994:../Drivers/STM32N6xx_HAL_Driver/Src/stm32n6xx_hal_pwr_ex.c ****   */
 995:../Drivers/STM32N6xx_HAL_Driver/Src/stm32n6xx_hal_pwr_ex.c **** void HAL_PWREx_DisableVddIO5RangeSTBY(void)
 996:../Drivers/STM32N6xx_HAL_Driver/Src/stm32n6xx_hal_pwr_ex.c **** {
 1512              		.loc 1 996 1 is_stmt 1 view -0
 1513              		.cfi_startproc
 1514              		@ args = 0, pretend = 0, frame = 0
 1515              		@ frame_needed = 0, uses_anonymous_args = 0
 1516              		@ link register save eliminated.
 997:../Drivers/STM32N6xx_HAL_Driver/Src/stm32n6xx_hal_pwr_ex.c ****   CLEAR_BIT(PWR->SVMCR2, PWR_SVMCR2_VDDIO5VRSTBY);
 1517              		.loc 1 997 3 view .LVU306
 1518 0000 024A     		ldr	r2, .L144
 1519 0002 936B     		ldr	r3, [r2, #56]
 1520 0004 23F00073 		bic	r3, r3, #33554432
 1521 0008 9363     		str	r3, [r2, #56]
 998:../Drivers/STM32N6xx_HAL_Driver/Src/stm32n6xx_hal_pwr_ex.c **** }
 1522              		.loc 1 998 1 is_stmt 0 view .LVU307
 1523 000a 7047     		bx	lr
 1524              	.L145:
 1525              		.align	2
 1526              	.L144:
 1527 000c 00480256 		.word	1442990080
 1528              		.cfi_endproc
 1529              	.LFE913:
 1531              		.section	.text.HAL_PWREx_EnableVddUSB,"ax",%progbits
 1532              		.align	1
 1533              		.global	HAL_PWREx_EnableVddUSB
 1534              		.syntax unified
 1535              		.thumb
 1536              		.thumb_func
 1538              	HAL_PWREx_EnableVddUSB:
 1539              	.LFB914:
 999:../Drivers/STM32N6xx_HAL_Driver/Src/stm32n6xx_hal_pwr_ex.c **** 
1000:../Drivers/STM32N6xx_HAL_Driver/Src/stm32n6xx_hal_pwr_ex.c **** /**
1001:../Drivers/STM32N6xx_HAL_Driver/Src/stm32n6xx_hal_pwr_ex.c ****   * @brief  Enable VDDUSB supply valid.
1002:../Drivers/STM32N6xx_HAL_Driver/Src/stm32n6xx_hal_pwr_ex.c ****   * @note   Setting this bit is mandatory to use the USB2 HS PHYs.
1003:../Drivers/STM32N6xx_HAL_Driver/Src/stm32n6xx_hal_pwr_ex.c ****   *         is present for consumption saving.
1004:../Drivers/STM32N6xx_HAL_Driver/Src/stm32n6xx_hal_pwr_ex.c ****   * @retval None.
1005:../Drivers/STM32N6xx_HAL_Driver/Src/stm32n6xx_hal_pwr_ex.c ****   */
1006:../Drivers/STM32N6xx_HAL_Driver/Src/stm32n6xx_hal_pwr_ex.c **** void HAL_PWREx_EnableVddUSB(void)
1007:../Drivers/STM32N6xx_HAL_Driver/Src/stm32n6xx_hal_pwr_ex.c **** {
 1540              		.loc 1 1007 1 is_stmt 1 view -0
 1541              		.cfi_startproc
 1542              		@ args = 0, pretend = 0, frame = 0
 1543              		@ frame_needed = 0, uses_anonymous_args = 0
 1544              		@ link register save eliminated.
1008:../Drivers/STM32N6xx_HAL_Driver/Src/stm32n6xx_hal_pwr_ex.c ****   SET_BIT(PWR->SVMCR3, PWR_SVMCR3_USB33SV);
 1545              		.loc 1 1008 3 view .LVU309
 1546 0000 024A     		ldr	r2, .L147
 1547 0002 D36B     		ldr	r3, [r2, #60]
 1548 0004 43F48063 		orr	r3, r3, #1024
 1549 0008 D363     		str	r3, [r2, #60]
1009:../Drivers/STM32N6xx_HAL_Driver/Src/stm32n6xx_hal_pwr_ex.c **** }
 1550              		.loc 1 1009 1 is_stmt 0 view .LVU310
 1551 000a 7047     		bx	lr
 1552              	.L148:
 1553              		.align	2
ARM GAS  /tmp/ccb319AI.s 			page 51


 1554              	.L147:
 1555 000c 00480256 		.word	1442990080
 1556              		.cfi_endproc
 1557              	.LFE914:
 1559              		.section	.text.HAL_PWREx_DisableVddUSB,"ax",%progbits
 1560              		.align	1
 1561              		.global	HAL_PWREx_DisableVddUSB
 1562              		.syntax unified
 1563              		.thumb
 1564              		.thumb_func
 1566              	HAL_PWREx_DisableVddUSB:
 1567              	.LFB915:
1010:../Drivers/STM32N6xx_HAL_Driver/Src/stm32n6xx_hal_pwr_ex.c **** 
1011:../Drivers/STM32N6xx_HAL_Driver/Src/stm32n6xx_hal_pwr_ex.c **** /**
1012:../Drivers/STM32N6xx_HAL_Driver/Src/stm32n6xx_hal_pwr_ex.c ****   * @brief  Disable VDDUSB supply valid.
1013:../Drivers/STM32N6xx_HAL_Driver/Src/stm32n6xx_hal_pwr_ex.c ****   * @retval None.
1014:../Drivers/STM32N6xx_HAL_Driver/Src/stm32n6xx_hal_pwr_ex.c ****   */
1015:../Drivers/STM32N6xx_HAL_Driver/Src/stm32n6xx_hal_pwr_ex.c **** void HAL_PWREx_DisableVddUSB(void)
1016:../Drivers/STM32N6xx_HAL_Driver/Src/stm32n6xx_hal_pwr_ex.c **** {
 1568              		.loc 1 1016 1 is_stmt 1 view -0
 1569              		.cfi_startproc
 1570              		@ args = 0, pretend = 0, frame = 0
 1571              		@ frame_needed = 0, uses_anonymous_args = 0
 1572              		@ link register save eliminated.
1017:../Drivers/STM32N6xx_HAL_Driver/Src/stm32n6xx_hal_pwr_ex.c ****   CLEAR_BIT(PWR->SVMCR3, PWR_SVMCR3_USB33SV);
 1573              		.loc 1 1017 3 view .LVU312
 1574 0000 024A     		ldr	r2, .L150
 1575 0002 D36B     		ldr	r3, [r2, #60]
 1576 0004 23F48063 		bic	r3, r3, #1024
 1577 0008 D363     		str	r3, [r2, #60]
1018:../Drivers/STM32N6xx_HAL_Driver/Src/stm32n6xx_hal_pwr_ex.c **** }
 1578              		.loc 1 1018 1 is_stmt 0 view .LVU313
 1579 000a 7047     		bx	lr
 1580              	.L151:
 1581              		.align	2
 1582              	.L150:
 1583 000c 00480256 		.word	1442990080
 1584              		.cfi_endproc
 1585              	.LFE915:
 1587              		.section	.text.HAL_PWREx_EnableVddIO2,"ax",%progbits
 1588              		.align	1
 1589              		.global	HAL_PWREx_EnableVddIO2
 1590              		.syntax unified
 1591              		.thumb
 1592              		.thumb_func
 1594              	HAL_PWREx_EnableVddIO2:
 1595              	.LFB916:
1019:../Drivers/STM32N6xx_HAL_Driver/Src/stm32n6xx_hal_pwr_ex.c **** 
1020:../Drivers/STM32N6xx_HAL_Driver/Src/stm32n6xx_hal_pwr_ex.c **** /**
1021:../Drivers/STM32N6xx_HAL_Driver/Src/stm32n6xx_hal_pwr_ex.c ****   * @brief  Enable VDDIO2 supply valid.
1022:../Drivers/STM32N6xx_HAL_Driver/Src/stm32n6xx_hal_pwr_ex.c ****   * @note   Setting this bit is mandatory to use PO[5:0] and PP[15:0] I/Os.
1023:../Drivers/STM32N6xx_HAL_Driver/Src/stm32n6xx_hal_pwr_ex.c ****   * @retval None.
1024:../Drivers/STM32N6xx_HAL_Driver/Src/stm32n6xx_hal_pwr_ex.c ****   */
1025:../Drivers/STM32N6xx_HAL_Driver/Src/stm32n6xx_hal_pwr_ex.c **** void HAL_PWREx_EnableVddIO2(void)
1026:../Drivers/STM32N6xx_HAL_Driver/Src/stm32n6xx_hal_pwr_ex.c **** {
 1596              		.loc 1 1026 1 is_stmt 1 view -0
 1597              		.cfi_startproc
ARM GAS  /tmp/ccb319AI.s 			page 52


 1598              		@ args = 0, pretend = 0, frame = 0
 1599              		@ frame_needed = 0, uses_anonymous_args = 0
 1600              		@ link register save eliminated.
1027:../Drivers/STM32N6xx_HAL_Driver/Src/stm32n6xx_hal_pwr_ex.c ****   SET_BIT(PWR->SVMCR3, PWR_SVMCR3_VDDIO2SV);
 1601              		.loc 1 1027 3 view .LVU315
 1602 0000 024A     		ldr	r2, .L153
 1603 0002 D36B     		ldr	r3, [r2, #60]
 1604 0004 43F48073 		orr	r3, r3, #256
 1605 0008 D363     		str	r3, [r2, #60]
1028:../Drivers/STM32N6xx_HAL_Driver/Src/stm32n6xx_hal_pwr_ex.c **** }
 1606              		.loc 1 1028 1 is_stmt 0 view .LVU316
 1607 000a 7047     		bx	lr
 1608              	.L154:
 1609              		.align	2
 1610              	.L153:
 1611 000c 00480256 		.word	1442990080
 1612              		.cfi_endproc
 1613              	.LFE916:
 1615              		.section	.text.HAL_PWREx_DisableVddIO2,"ax",%progbits
 1616              		.align	1
 1617              		.global	HAL_PWREx_DisableVddIO2
 1618              		.syntax unified
 1619              		.thumb
 1620              		.thumb_func
 1622              	HAL_PWREx_DisableVddIO2:
 1623              	.LFB917:
1029:../Drivers/STM32N6xx_HAL_Driver/Src/stm32n6xx_hal_pwr_ex.c **** 
1030:../Drivers/STM32N6xx_HAL_Driver/Src/stm32n6xx_hal_pwr_ex.c **** /**
1031:../Drivers/STM32N6xx_HAL_Driver/Src/stm32n6xx_hal_pwr_ex.c ****   * @brief  Disable VDDIO2 supply valid.
1032:../Drivers/STM32N6xx_HAL_Driver/Src/stm32n6xx_hal_pwr_ex.c ****   * @retval None.
1033:../Drivers/STM32N6xx_HAL_Driver/Src/stm32n6xx_hal_pwr_ex.c ****   */
1034:../Drivers/STM32N6xx_HAL_Driver/Src/stm32n6xx_hal_pwr_ex.c **** void HAL_PWREx_DisableVddIO2(void)
1035:../Drivers/STM32N6xx_HAL_Driver/Src/stm32n6xx_hal_pwr_ex.c **** {
 1624              		.loc 1 1035 1 is_stmt 1 view -0
 1625              		.cfi_startproc
 1626              		@ args = 0, pretend = 0, frame = 0
 1627              		@ frame_needed = 0, uses_anonymous_args = 0
 1628              		@ link register save eliminated.
1036:../Drivers/STM32N6xx_HAL_Driver/Src/stm32n6xx_hal_pwr_ex.c ****   CLEAR_BIT(PWR->SVMCR3, PWR_SVMCR3_VDDIO2SV);
 1629              		.loc 1 1036 3 view .LVU318
 1630 0000 024A     		ldr	r2, .L156
 1631 0002 D36B     		ldr	r3, [r2, #60]
 1632 0004 23F48073 		bic	r3, r3, #256
 1633 0008 D363     		str	r3, [r2, #60]
1037:../Drivers/STM32N6xx_HAL_Driver/Src/stm32n6xx_hal_pwr_ex.c **** }
 1634              		.loc 1 1037 1 is_stmt 0 view .LVU319
 1635 000a 7047     		bx	lr
 1636              	.L157:
 1637              		.align	2
 1638              	.L156:
 1639 000c 00480256 		.word	1442990080
 1640              		.cfi_endproc
 1641              	.LFE917:
 1643              		.section	.text.HAL_PWREx_EnableVddIO3,"ax",%progbits
 1644              		.align	1
 1645              		.global	HAL_PWREx_EnableVddIO3
 1646              		.syntax unified
ARM GAS  /tmp/ccb319AI.s 			page 53


 1647              		.thumb
 1648              		.thumb_func
 1650              	HAL_PWREx_EnableVddIO3:
 1651              	.LFB918:
1038:../Drivers/STM32N6xx_HAL_Driver/Src/stm32n6xx_hal_pwr_ex.c **** 
1039:../Drivers/STM32N6xx_HAL_Driver/Src/stm32n6xx_hal_pwr_ex.c **** /**
1040:../Drivers/STM32N6xx_HAL_Driver/Src/stm32n6xx_hal_pwr_ex.c ****   * @brief  Enable VDDIO3 supply valid.
1041:../Drivers/STM32N6xx_HAL_Driver/Src/stm32n6xx_hal_pwr_ex.c ****   * @note   Setting this bit is mandatory to use PN[12:0] I/Os.
1042:../Drivers/STM32N6xx_HAL_Driver/Src/stm32n6xx_hal_pwr_ex.c ****   * @retval None.
1043:../Drivers/STM32N6xx_HAL_Driver/Src/stm32n6xx_hal_pwr_ex.c ****   */
1044:../Drivers/STM32N6xx_HAL_Driver/Src/stm32n6xx_hal_pwr_ex.c **** void HAL_PWREx_EnableVddIO3(void)
1045:../Drivers/STM32N6xx_HAL_Driver/Src/stm32n6xx_hal_pwr_ex.c **** {
 1652              		.loc 1 1045 1 is_stmt 1 view -0
 1653              		.cfi_startproc
 1654              		@ args = 0, pretend = 0, frame = 0
 1655              		@ frame_needed = 0, uses_anonymous_args = 0
 1656              		@ link register save eliminated.
1046:../Drivers/STM32N6xx_HAL_Driver/Src/stm32n6xx_hal_pwr_ex.c ****   SET_BIT(PWR->SVMCR3, PWR_SVMCR3_VDDIO3SV);
 1657              		.loc 1 1046 3 view .LVU321
 1658 0000 024A     		ldr	r2, .L159
 1659 0002 D36B     		ldr	r3, [r2, #60]
 1660 0004 43F40073 		orr	r3, r3, #512
 1661 0008 D363     		str	r3, [r2, #60]
1047:../Drivers/STM32N6xx_HAL_Driver/Src/stm32n6xx_hal_pwr_ex.c **** }
 1662              		.loc 1 1047 1 is_stmt 0 view .LVU322
 1663 000a 7047     		bx	lr
 1664              	.L160:
 1665              		.align	2
 1666              	.L159:
 1667 000c 00480256 		.word	1442990080
 1668              		.cfi_endproc
 1669              	.LFE918:
 1671              		.section	.text.HAL_PWREx_DisableVddIO3,"ax",%progbits
 1672              		.align	1
 1673              		.global	HAL_PWREx_DisableVddIO3
 1674              		.syntax unified
 1675              		.thumb
 1676              		.thumb_func
 1678              	HAL_PWREx_DisableVddIO3:
 1679              	.LFB919:
1048:../Drivers/STM32N6xx_HAL_Driver/Src/stm32n6xx_hal_pwr_ex.c **** 
1049:../Drivers/STM32N6xx_HAL_Driver/Src/stm32n6xx_hal_pwr_ex.c **** /**
1050:../Drivers/STM32N6xx_HAL_Driver/Src/stm32n6xx_hal_pwr_ex.c ****   * @brief  Disable VDDIO3 supply valid.
1051:../Drivers/STM32N6xx_HAL_Driver/Src/stm32n6xx_hal_pwr_ex.c ****   * @retval None.
1052:../Drivers/STM32N6xx_HAL_Driver/Src/stm32n6xx_hal_pwr_ex.c ****   */
1053:../Drivers/STM32N6xx_HAL_Driver/Src/stm32n6xx_hal_pwr_ex.c **** void HAL_PWREx_DisableVddIO3(void)
1054:../Drivers/STM32N6xx_HAL_Driver/Src/stm32n6xx_hal_pwr_ex.c **** {
 1680              		.loc 1 1054 1 is_stmt 1 view -0
 1681              		.cfi_startproc
 1682              		@ args = 0, pretend = 0, frame = 0
 1683              		@ frame_needed = 0, uses_anonymous_args = 0
 1684              		@ link register save eliminated.
1055:../Drivers/STM32N6xx_HAL_Driver/Src/stm32n6xx_hal_pwr_ex.c ****   CLEAR_BIT(PWR->SVMCR3, PWR_SVMCR3_VDDIO3SV);
 1685              		.loc 1 1055 3 view .LVU324
 1686 0000 024A     		ldr	r2, .L162
 1687 0002 D36B     		ldr	r3, [r2, #60]
 1688 0004 23F40073 		bic	r3, r3, #512
ARM GAS  /tmp/ccb319AI.s 			page 54


 1689 0008 D363     		str	r3, [r2, #60]
1056:../Drivers/STM32N6xx_HAL_Driver/Src/stm32n6xx_hal_pwr_ex.c **** }
 1690              		.loc 1 1056 1 is_stmt 0 view .LVU325
 1691 000a 7047     		bx	lr
 1692              	.L163:
 1693              		.align	2
 1694              	.L162:
 1695 000c 00480256 		.word	1442990080
 1696              		.cfi_endproc
 1697              	.LFE919:
 1699              		.section	.text.HAL_PWREx_EnableVddIO4,"ax",%progbits
 1700              		.align	1
 1701              		.global	HAL_PWREx_EnableVddIO4
 1702              		.syntax unified
 1703              		.thumb
 1704              		.thumb_func
 1706              	HAL_PWREx_EnableVddIO4:
 1707              	.LFB920:
1057:../Drivers/STM32N6xx_HAL_Driver/Src/stm32n6xx_hal_pwr_ex.c **** 
1058:../Drivers/STM32N6xx_HAL_Driver/Src/stm32n6xx_hal_pwr_ex.c **** /**
1059:../Drivers/STM32N6xx_HAL_Driver/Src/stm32n6xx_hal_pwr_ex.c ****   * @brief  Enable VDDIO4 supply valid.
1060:../Drivers/STM32N6xx_HAL_Driver/Src/stm32n6xx_hal_pwr_ex.c ****   * @note   Setting this bit is mandatory to use PB[9,8], PC[12:6], and PD[2] I/Os.
1061:../Drivers/STM32N6xx_HAL_Driver/Src/stm32n6xx_hal_pwr_ex.c ****   * @retval None.
1062:../Drivers/STM32N6xx_HAL_Driver/Src/stm32n6xx_hal_pwr_ex.c ****   */
1063:../Drivers/STM32N6xx_HAL_Driver/Src/stm32n6xx_hal_pwr_ex.c **** void HAL_PWREx_EnableVddIO4(void)
1064:../Drivers/STM32N6xx_HAL_Driver/Src/stm32n6xx_hal_pwr_ex.c **** {
 1708              		.loc 1 1064 1 is_stmt 1 view -0
 1709              		.cfi_startproc
 1710              		@ args = 0, pretend = 0, frame = 0
 1711              		@ frame_needed = 0, uses_anonymous_args = 0
 1712              		@ link register save eliminated.
1065:../Drivers/STM32N6xx_HAL_Driver/Src/stm32n6xx_hal_pwr_ex.c ****   SET_BIT(PWR->SVMCR1, PWR_SVMCR1_VDDIO4SV);
 1713              		.loc 1 1065 3 view .LVU327
 1714 0000 024A     		ldr	r2, .L165
 1715 0002 536B     		ldr	r3, [r2, #52]
 1716 0004 43F48073 		orr	r3, r3, #256
 1717 0008 5363     		str	r3, [r2, #52]
1066:../Drivers/STM32N6xx_HAL_Driver/Src/stm32n6xx_hal_pwr_ex.c **** }
 1718              		.loc 1 1066 1 is_stmt 0 view .LVU328
 1719 000a 7047     		bx	lr
 1720              	.L166:
 1721              		.align	2
 1722              	.L165:
 1723 000c 00480256 		.word	1442990080
 1724              		.cfi_endproc
 1725              	.LFE920:
 1727              		.section	.text.HAL_PWREx_DisableVddIO4,"ax",%progbits
 1728              		.align	1
 1729              		.global	HAL_PWREx_DisableVddIO4
 1730              		.syntax unified
 1731              		.thumb
 1732              		.thumb_func
 1734              	HAL_PWREx_DisableVddIO4:
 1735              	.LFB921:
1067:../Drivers/STM32N6xx_HAL_Driver/Src/stm32n6xx_hal_pwr_ex.c **** 
1068:../Drivers/STM32N6xx_HAL_Driver/Src/stm32n6xx_hal_pwr_ex.c **** /**
1069:../Drivers/STM32N6xx_HAL_Driver/Src/stm32n6xx_hal_pwr_ex.c ****   * @brief  Disable VDDIO4 supply valid.
ARM GAS  /tmp/ccb319AI.s 			page 55


1070:../Drivers/STM32N6xx_HAL_Driver/Src/stm32n6xx_hal_pwr_ex.c ****   * @retval None.
1071:../Drivers/STM32N6xx_HAL_Driver/Src/stm32n6xx_hal_pwr_ex.c ****   */
1072:../Drivers/STM32N6xx_HAL_Driver/Src/stm32n6xx_hal_pwr_ex.c **** void HAL_PWREx_DisableVddIO4(void)
1073:../Drivers/STM32N6xx_HAL_Driver/Src/stm32n6xx_hal_pwr_ex.c **** {
 1736              		.loc 1 1073 1 is_stmt 1 view -0
 1737              		.cfi_startproc
 1738              		@ args = 0, pretend = 0, frame = 0
 1739              		@ frame_needed = 0, uses_anonymous_args = 0
 1740              		@ link register save eliminated.
1074:../Drivers/STM32N6xx_HAL_Driver/Src/stm32n6xx_hal_pwr_ex.c ****   CLEAR_BIT(PWR->SVMCR1, PWR_SVMCR1_VDDIO4SV);
 1741              		.loc 1 1074 3 view .LVU330
 1742 0000 024A     		ldr	r2, .L168
 1743 0002 536B     		ldr	r3, [r2, #52]
 1744 0004 23F48073 		bic	r3, r3, #256
 1745 0008 5363     		str	r3, [r2, #52]
1075:../Drivers/STM32N6xx_HAL_Driver/Src/stm32n6xx_hal_pwr_ex.c **** }
 1746              		.loc 1 1075 1 is_stmt 0 view .LVU331
 1747 000a 7047     		bx	lr
 1748              	.L169:
 1749              		.align	2
 1750              	.L168:
 1751 000c 00480256 		.word	1442990080
 1752              		.cfi_endproc
 1753              	.LFE921:
 1755              		.section	.text.HAL_PWREx_EnableVddIO5,"ax",%progbits
 1756              		.align	1
 1757              		.global	HAL_PWREx_EnableVddIO5
 1758              		.syntax unified
 1759              		.thumb
 1760              		.thumb_func
 1762              	HAL_PWREx_EnableVddIO5:
 1763              	.LFB922:
1076:../Drivers/STM32N6xx_HAL_Driver/Src/stm32n6xx_hal_pwr_ex.c **** 
1077:../Drivers/STM32N6xx_HAL_Driver/Src/stm32n6xx_hal_pwr_ex.c **** /**
1078:../Drivers/STM32N6xx_HAL_Driver/Src/stm32n6xx_hal_pwr_ex.c ****   * @brief  Enable VDDIO5 supply valid.
1079:../Drivers/STM32N6xx_HAL_Driver/Src/stm32n6xx_hal_pwr_ex.c ****   * @note   Setting this bit is mandatory to use PN[12:0] I/Os.
1080:../Drivers/STM32N6xx_HAL_Driver/Src/stm32n6xx_hal_pwr_ex.c ****   * @retval None.
1081:../Drivers/STM32N6xx_HAL_Driver/Src/stm32n6xx_hal_pwr_ex.c ****   */
1082:../Drivers/STM32N6xx_HAL_Driver/Src/stm32n6xx_hal_pwr_ex.c **** void HAL_PWREx_EnableVddIO5(void)
1083:../Drivers/STM32N6xx_HAL_Driver/Src/stm32n6xx_hal_pwr_ex.c **** {
 1764              		.loc 1 1083 1 is_stmt 1 view -0
 1765              		.cfi_startproc
 1766              		@ args = 0, pretend = 0, frame = 0
 1767              		@ frame_needed = 0, uses_anonymous_args = 0
 1768              		@ link register save eliminated.
1084:../Drivers/STM32N6xx_HAL_Driver/Src/stm32n6xx_hal_pwr_ex.c ****   SET_BIT(PWR->SVMCR2, PWR_SVMCR2_VDDIO5SV);
 1769              		.loc 1 1084 3 view .LVU333
 1770 0000 024A     		ldr	r2, .L171
 1771 0002 936B     		ldr	r3, [r2, #56]
 1772 0004 43F48073 		orr	r3, r3, #256
 1773 0008 9363     		str	r3, [r2, #56]
1085:../Drivers/STM32N6xx_HAL_Driver/Src/stm32n6xx_hal_pwr_ex.c **** }
 1774              		.loc 1 1085 1 is_stmt 0 view .LVU334
 1775 000a 7047     		bx	lr
 1776              	.L172:
 1777              		.align	2
 1778              	.L171:
ARM GAS  /tmp/ccb319AI.s 			page 56


 1779 000c 00480256 		.word	1442990080
 1780              		.cfi_endproc
 1781              	.LFE922:
 1783              		.section	.text.HAL_PWREx_DisableVddIO5,"ax",%progbits
 1784              		.align	1
 1785              		.global	HAL_PWREx_DisableVddIO5
 1786              		.syntax unified
 1787              		.thumb
 1788              		.thumb_func
 1790              	HAL_PWREx_DisableVddIO5:
 1791              	.LFB923:
1086:../Drivers/STM32N6xx_HAL_Driver/Src/stm32n6xx_hal_pwr_ex.c **** 
1087:../Drivers/STM32N6xx_HAL_Driver/Src/stm32n6xx_hal_pwr_ex.c **** /**
1088:../Drivers/STM32N6xx_HAL_Driver/Src/stm32n6xx_hal_pwr_ex.c ****   * @brief  Disable VDDIO5 supply valid.
1089:../Drivers/STM32N6xx_HAL_Driver/Src/stm32n6xx_hal_pwr_ex.c ****   * @retval None.
1090:../Drivers/STM32N6xx_HAL_Driver/Src/stm32n6xx_hal_pwr_ex.c ****   */
1091:../Drivers/STM32N6xx_HAL_Driver/Src/stm32n6xx_hal_pwr_ex.c **** void HAL_PWREx_DisableVddIO5(void)
1092:../Drivers/STM32N6xx_HAL_Driver/Src/stm32n6xx_hal_pwr_ex.c **** {
 1792              		.loc 1 1092 1 is_stmt 1 view -0
 1793              		.cfi_startproc
 1794              		@ args = 0, pretend = 0, frame = 0
 1795              		@ frame_needed = 0, uses_anonymous_args = 0
 1796              		@ link register save eliminated.
1093:../Drivers/STM32N6xx_HAL_Driver/Src/stm32n6xx_hal_pwr_ex.c ****   CLEAR_BIT(PWR->SVMCR2, PWR_SVMCR2_VDDIO5SV);
 1797              		.loc 1 1093 3 view .LVU336
 1798 0000 024A     		ldr	r2, .L174
 1799 0002 936B     		ldr	r3, [r2, #56]
 1800 0004 23F48073 		bic	r3, r3, #256
 1801 0008 9363     		str	r3, [r2, #56]
1094:../Drivers/STM32N6xx_HAL_Driver/Src/stm32n6xx_hal_pwr_ex.c **** }
 1802              		.loc 1 1094 1 is_stmt 0 view .LVU337
 1803 000a 7047     		bx	lr
 1804              	.L175:
 1805              		.align	2
 1806              	.L174:
 1807 000c 00480256 		.word	1442990080
 1808              		.cfi_endproc
 1809              	.LFE923:
 1811              		.section	.text.HAL_PWREx_EnableVddA,"ax",%progbits
 1812              		.align	1
 1813              		.global	HAL_PWREx_EnableVddA
 1814              		.syntax unified
 1815              		.thumb
 1816              		.thumb_func
 1818              	HAL_PWREx_EnableVddA:
 1819              	.LFB924:
1095:../Drivers/STM32N6xx_HAL_Driver/Src/stm32n6xx_hal_pwr_ex.c **** 
1096:../Drivers/STM32N6xx_HAL_Driver/Src/stm32n6xx_hal_pwr_ex.c **** /**
1097:../Drivers/STM32N6xx_HAL_Driver/Src/stm32n6xx_hal_pwr_ex.c ****   * @brief  Enable VDDA supply valid.
1098:../Drivers/STM32N6xx_HAL_Driver/Src/stm32n6xx_hal_pwr_ex.c ****   * @note   Setting this bit is mandatory to use the analog to digital converters.
1099:../Drivers/STM32N6xx_HAL_Driver/Src/stm32n6xx_hal_pwr_ex.c ****   * @retval None.
1100:../Drivers/STM32N6xx_HAL_Driver/Src/stm32n6xx_hal_pwr_ex.c ****   */
1101:../Drivers/STM32N6xx_HAL_Driver/Src/stm32n6xx_hal_pwr_ex.c **** void HAL_PWREx_EnableVddA(void)
1102:../Drivers/STM32N6xx_HAL_Driver/Src/stm32n6xx_hal_pwr_ex.c **** {
 1820              		.loc 1 1102 1 is_stmt 1 view -0
 1821              		.cfi_startproc
 1822              		@ args = 0, pretend = 0, frame = 0
ARM GAS  /tmp/ccb319AI.s 			page 57


 1823              		@ frame_needed = 0, uses_anonymous_args = 0
 1824              		@ link register save eliminated.
1103:../Drivers/STM32N6xx_HAL_Driver/Src/stm32n6xx_hal_pwr_ex.c ****   SET_BIT(PWR->SVMCR3, PWR_SVMCR3_ASV);
 1825              		.loc 1 1103 3 view .LVU339
 1826 0000 024A     		ldr	r2, .L177
 1827 0002 D36B     		ldr	r3, [r2, #60]
 1828 0004 43F48053 		orr	r3, r3, #4096
 1829 0008 D363     		str	r3, [r2, #60]
1104:../Drivers/STM32N6xx_HAL_Driver/Src/stm32n6xx_hal_pwr_ex.c **** }
 1830              		.loc 1 1104 1 is_stmt 0 view .LVU340
 1831 000a 7047     		bx	lr
 1832              	.L178:
 1833              		.align	2
 1834              	.L177:
 1835 000c 00480256 		.word	1442990080
 1836              		.cfi_endproc
 1837              	.LFE924:
 1839              		.section	.text.HAL_PWREx_DisableVddA,"ax",%progbits
 1840              		.align	1
 1841              		.global	HAL_PWREx_DisableVddA
 1842              		.syntax unified
 1843              		.thumb
 1844              		.thumb_func
 1846              	HAL_PWREx_DisableVddA:
 1847              	.LFB925:
1105:../Drivers/STM32N6xx_HAL_Driver/Src/stm32n6xx_hal_pwr_ex.c **** 
1106:../Drivers/STM32N6xx_HAL_Driver/Src/stm32n6xx_hal_pwr_ex.c **** /**
1107:../Drivers/STM32N6xx_HAL_Driver/Src/stm32n6xx_hal_pwr_ex.c ****   * @brief  Disable VDDA supply valid.
1108:../Drivers/STM32N6xx_HAL_Driver/Src/stm32n6xx_hal_pwr_ex.c ****   * @retval None.
1109:../Drivers/STM32N6xx_HAL_Driver/Src/stm32n6xx_hal_pwr_ex.c ****   */
1110:../Drivers/STM32N6xx_HAL_Driver/Src/stm32n6xx_hal_pwr_ex.c **** void HAL_PWREx_DisableVddA(void)
1111:../Drivers/STM32N6xx_HAL_Driver/Src/stm32n6xx_hal_pwr_ex.c **** {
 1848              		.loc 1 1111 1 is_stmt 1 view -0
 1849              		.cfi_startproc
 1850              		@ args = 0, pretend = 0, frame = 0
 1851              		@ frame_needed = 0, uses_anonymous_args = 0
 1852              		@ link register save eliminated.
1112:../Drivers/STM32N6xx_HAL_Driver/Src/stm32n6xx_hal_pwr_ex.c ****   CLEAR_BIT(PWR->SVMCR3, PWR_SVMCR3_ASV);
 1853              		.loc 1 1112 3 view .LVU342
 1854 0000 024A     		ldr	r2, .L180
 1855 0002 D36B     		ldr	r3, [r2, #60]
 1856 0004 23F48053 		bic	r3, r3, #4096
 1857 0008 D363     		str	r3, [r2, #60]
1113:../Drivers/STM32N6xx_HAL_Driver/Src/stm32n6xx_hal_pwr_ex.c **** }
 1858              		.loc 1 1113 1 is_stmt 0 view .LVU343
 1859 000a 7047     		bx	lr
 1860              	.L181:
 1861              		.align	2
 1862              	.L180:
 1863 000c 00480256 		.word	1442990080
 1864              		.cfi_endproc
 1865              	.LFE925:
 1867              		.section	.text.HAL_PWREx_EnableVddUSBVMEN,"ax",%progbits
 1868              		.align	1
 1869              		.global	HAL_PWREx_EnableVddUSBVMEN
 1870              		.syntax unified
 1871              		.thumb
ARM GAS  /tmp/ccb319AI.s 			page 58


 1872              		.thumb_func
 1874              	HAL_PWREx_EnableVddUSBVMEN:
 1875              	.LFB926:
1114:../Drivers/STM32N6xx_HAL_Driver/Src/stm32n6xx_hal_pwr_ex.c **** 
1115:../Drivers/STM32N6xx_HAL_Driver/Src/stm32n6xx_hal_pwr_ex.c **** /**
1116:../Drivers/STM32N6xx_HAL_Driver/Src/stm32n6xx_hal_pwr_ex.c ****   * @brief  Enable the VDD33USB independent USB 33 voltage monitor.
1117:../Drivers/STM32N6xx_HAL_Driver/Src/stm32n6xx_hal_pwr_ex.c ****   * @retval None.
1118:../Drivers/STM32N6xx_HAL_Driver/Src/stm32n6xx_hal_pwr_ex.c ****   */
1119:../Drivers/STM32N6xx_HAL_Driver/Src/stm32n6xx_hal_pwr_ex.c **** void HAL_PWREx_EnableVddUSBVMEN(void)
1120:../Drivers/STM32N6xx_HAL_Driver/Src/stm32n6xx_hal_pwr_ex.c **** {
 1876              		.loc 1 1120 1 is_stmt 1 view -0
 1877              		.cfi_startproc
 1878              		@ args = 0, pretend = 0, frame = 0
 1879              		@ frame_needed = 0, uses_anonymous_args = 0
 1880              		@ link register save eliminated.
1121:../Drivers/STM32N6xx_HAL_Driver/Src/stm32n6xx_hal_pwr_ex.c ****   SET_BIT(PWR->SVMCR3, PWR_SVMCR3_USB33VMEN);
 1881              		.loc 1 1121 3 view .LVU345
 1882 0000 024A     		ldr	r2, .L183
 1883 0002 D36B     		ldr	r3, [r2, #60]
 1884 0004 43F00403 		orr	r3, r3, #4
 1885 0008 D363     		str	r3, [r2, #60]
1122:../Drivers/STM32N6xx_HAL_Driver/Src/stm32n6xx_hal_pwr_ex.c **** }
 1886              		.loc 1 1122 1 is_stmt 0 view .LVU346
 1887 000a 7047     		bx	lr
 1888              	.L184:
 1889              		.align	2
 1890              	.L183:
 1891 000c 00480256 		.word	1442990080
 1892              		.cfi_endproc
 1893              	.LFE926:
 1895              		.section	.text.HAL_PWREx_DisableVddUSBVMEN,"ax",%progbits
 1896              		.align	1
 1897              		.global	HAL_PWREx_DisableVddUSBVMEN
 1898              		.syntax unified
 1899              		.thumb
 1900              		.thumb_func
 1902              	HAL_PWREx_DisableVddUSBVMEN:
 1903              	.LFB927:
1123:../Drivers/STM32N6xx_HAL_Driver/Src/stm32n6xx_hal_pwr_ex.c **** 
1124:../Drivers/STM32N6xx_HAL_Driver/Src/stm32n6xx_hal_pwr_ex.c **** /**
1125:../Drivers/STM32N6xx_HAL_Driver/Src/stm32n6xx_hal_pwr_ex.c ****   * @brief  Disable the VDD33USB independent USB 33 voltage monitor.
1126:../Drivers/STM32N6xx_HAL_Driver/Src/stm32n6xx_hal_pwr_ex.c ****   * @retval None.
1127:../Drivers/STM32N6xx_HAL_Driver/Src/stm32n6xx_hal_pwr_ex.c ****   */
1128:../Drivers/STM32N6xx_HAL_Driver/Src/stm32n6xx_hal_pwr_ex.c **** void HAL_PWREx_DisableVddUSBVMEN(void)
1129:../Drivers/STM32N6xx_HAL_Driver/Src/stm32n6xx_hal_pwr_ex.c **** {
 1904              		.loc 1 1129 1 is_stmt 1 view -0
 1905              		.cfi_startproc
 1906              		@ args = 0, pretend = 0, frame = 0
 1907              		@ frame_needed = 0, uses_anonymous_args = 0
 1908              		@ link register save eliminated.
1130:../Drivers/STM32N6xx_HAL_Driver/Src/stm32n6xx_hal_pwr_ex.c ****   CLEAR_BIT(PWR->SVMCR3, PWR_SVMCR3_USB33VMEN);
 1909              		.loc 1 1130 3 view .LVU348
 1910 0000 024A     		ldr	r2, .L186
 1911 0002 D36B     		ldr	r3, [r2, #60]
 1912 0004 23F00403 		bic	r3, r3, #4
 1913 0008 D363     		str	r3, [r2, #60]
1131:../Drivers/STM32N6xx_HAL_Driver/Src/stm32n6xx_hal_pwr_ex.c **** }
ARM GAS  /tmp/ccb319AI.s 			page 59


 1914              		.loc 1 1131 1 is_stmt 0 view .LVU349
 1915 000a 7047     		bx	lr
 1916              	.L187:
 1917              		.align	2
 1918              	.L186:
 1919 000c 00480256 		.word	1442990080
 1920              		.cfi_endproc
 1921              	.LFE927:
 1923              		.section	.text.HAL_PWREx_EnableVddIO2VMEN,"ax",%progbits
 1924              		.align	1
 1925              		.global	HAL_PWREx_EnableVddIO2VMEN
 1926              		.syntax unified
 1927              		.thumb
 1928              		.thumb_func
 1930              	HAL_PWREx_EnableVddIO2VMEN:
 1931              	.LFB928:
1132:../Drivers/STM32N6xx_HAL_Driver/Src/stm32n6xx_hal_pwr_ex.c **** 
1133:../Drivers/STM32N6xx_HAL_Driver/Src/stm32n6xx_hal_pwr_ex.c **** /**
1134:../Drivers/STM32N6xx_HAL_Driver/Src/stm32n6xx_hal_pwr_ex.c ****   * @brief  Enable the VDDIO2 independent voltage monitor.
1135:../Drivers/STM32N6xx_HAL_Driver/Src/stm32n6xx_hal_pwr_ex.c ****   * @retval None.
1136:../Drivers/STM32N6xx_HAL_Driver/Src/stm32n6xx_hal_pwr_ex.c ****   */
1137:../Drivers/STM32N6xx_HAL_Driver/Src/stm32n6xx_hal_pwr_ex.c **** void HAL_PWREx_EnableVddIO2VMEN(void)
1138:../Drivers/STM32N6xx_HAL_Driver/Src/stm32n6xx_hal_pwr_ex.c **** {
 1932              		.loc 1 1138 1 is_stmt 1 view -0
 1933              		.cfi_startproc
 1934              		@ args = 0, pretend = 0, frame = 0
 1935              		@ frame_needed = 0, uses_anonymous_args = 0
 1936              		@ link register save eliminated.
1139:../Drivers/STM32N6xx_HAL_Driver/Src/stm32n6xx_hal_pwr_ex.c ****   SET_BIT(PWR->SVMCR3, PWR_SVMCR3_VDDIO2VMEN);
 1937              		.loc 1 1139 3 view .LVU351
 1938 0000 024A     		ldr	r2, .L189
 1939 0002 D36B     		ldr	r3, [r2, #60]
 1940 0004 43F00103 		orr	r3, r3, #1
 1941 0008 D363     		str	r3, [r2, #60]
1140:../Drivers/STM32N6xx_HAL_Driver/Src/stm32n6xx_hal_pwr_ex.c **** }
 1942              		.loc 1 1140 1 is_stmt 0 view .LVU352
 1943 000a 7047     		bx	lr
 1944              	.L190:
 1945              		.align	2
 1946              	.L189:
 1947 000c 00480256 		.word	1442990080
 1948              		.cfi_endproc
 1949              	.LFE928:
 1951              		.section	.text.HAL_PWREx_DisableVddIO2VMEN,"ax",%progbits
 1952              		.align	1
 1953              		.global	HAL_PWREx_DisableVddIO2VMEN
 1954              		.syntax unified
 1955              		.thumb
 1956              		.thumb_func
 1958              	HAL_PWREx_DisableVddIO2VMEN:
 1959              	.LFB929:
1141:../Drivers/STM32N6xx_HAL_Driver/Src/stm32n6xx_hal_pwr_ex.c **** 
1142:../Drivers/STM32N6xx_HAL_Driver/Src/stm32n6xx_hal_pwr_ex.c **** /**
1143:../Drivers/STM32N6xx_HAL_Driver/Src/stm32n6xx_hal_pwr_ex.c ****   * @brief  Disable the VDDIO2 independent voltage monitor.
1144:../Drivers/STM32N6xx_HAL_Driver/Src/stm32n6xx_hal_pwr_ex.c ****   * @retval None.
1145:../Drivers/STM32N6xx_HAL_Driver/Src/stm32n6xx_hal_pwr_ex.c ****   */
1146:../Drivers/STM32N6xx_HAL_Driver/Src/stm32n6xx_hal_pwr_ex.c **** void HAL_PWREx_DisableVddIO2VMEN(void)
ARM GAS  /tmp/ccb319AI.s 			page 60


1147:../Drivers/STM32N6xx_HAL_Driver/Src/stm32n6xx_hal_pwr_ex.c **** {
 1960              		.loc 1 1147 1 is_stmt 1 view -0
 1961              		.cfi_startproc
 1962              		@ args = 0, pretend = 0, frame = 0
 1963              		@ frame_needed = 0, uses_anonymous_args = 0
 1964              		@ link register save eliminated.
1148:../Drivers/STM32N6xx_HAL_Driver/Src/stm32n6xx_hal_pwr_ex.c ****   CLEAR_BIT(PWR->SVMCR3, PWR_SVMCR3_VDDIO2VMEN);
 1965              		.loc 1 1148 3 view .LVU354
 1966 0000 024A     		ldr	r2, .L192
 1967 0002 D36B     		ldr	r3, [r2, #60]
 1968 0004 23F00103 		bic	r3, r3, #1
 1969 0008 D363     		str	r3, [r2, #60]
1149:../Drivers/STM32N6xx_HAL_Driver/Src/stm32n6xx_hal_pwr_ex.c **** }
 1970              		.loc 1 1149 1 is_stmt 0 view .LVU355
 1971 000a 7047     		bx	lr
 1972              	.L193:
 1973              		.align	2
 1974              	.L192:
 1975 000c 00480256 		.word	1442990080
 1976              		.cfi_endproc
 1977              	.LFE929:
 1979              		.section	.text.HAL_PWREx_EnableVddIO3VMEN,"ax",%progbits
 1980              		.align	1
 1981              		.global	HAL_PWREx_EnableVddIO3VMEN
 1982              		.syntax unified
 1983              		.thumb
 1984              		.thumb_func
 1986              	HAL_PWREx_EnableVddIO3VMEN:
 1987              	.LFB930:
1150:../Drivers/STM32N6xx_HAL_Driver/Src/stm32n6xx_hal_pwr_ex.c **** 
1151:../Drivers/STM32N6xx_HAL_Driver/Src/stm32n6xx_hal_pwr_ex.c **** /**
1152:../Drivers/STM32N6xx_HAL_Driver/Src/stm32n6xx_hal_pwr_ex.c ****   * @brief  Enable the VDDIO3 independent voltage monitor.
1153:../Drivers/STM32N6xx_HAL_Driver/Src/stm32n6xx_hal_pwr_ex.c ****   * @retval None.
1154:../Drivers/STM32N6xx_HAL_Driver/Src/stm32n6xx_hal_pwr_ex.c ****   */
1155:../Drivers/STM32N6xx_HAL_Driver/Src/stm32n6xx_hal_pwr_ex.c **** void HAL_PWREx_EnableVddIO3VMEN(void)
1156:../Drivers/STM32N6xx_HAL_Driver/Src/stm32n6xx_hal_pwr_ex.c **** {
 1988              		.loc 1 1156 1 is_stmt 1 view -0
 1989              		.cfi_startproc
 1990              		@ args = 0, pretend = 0, frame = 0
 1991              		@ frame_needed = 0, uses_anonymous_args = 0
 1992              		@ link register save eliminated.
1157:../Drivers/STM32N6xx_HAL_Driver/Src/stm32n6xx_hal_pwr_ex.c ****   SET_BIT(PWR->SVMCR3, PWR_SVMCR3_VDDIO3VMEN);
 1993              		.loc 1 1157 3 view .LVU357
 1994 0000 024A     		ldr	r2, .L195
 1995 0002 D36B     		ldr	r3, [r2, #60]
 1996 0004 43F00203 		orr	r3, r3, #2
 1997 0008 D363     		str	r3, [r2, #60]
1158:../Drivers/STM32N6xx_HAL_Driver/Src/stm32n6xx_hal_pwr_ex.c **** }
 1998              		.loc 1 1158 1 is_stmt 0 view .LVU358
 1999 000a 7047     		bx	lr
 2000              	.L196:
 2001              		.align	2
 2002              	.L195:
 2003 000c 00480256 		.word	1442990080
 2004              		.cfi_endproc
 2005              	.LFE930:
 2007              		.section	.text.HAL_PWREx_DisableVddIO3VMEN,"ax",%progbits
ARM GAS  /tmp/ccb319AI.s 			page 61


 2008              		.align	1
 2009              		.global	HAL_PWREx_DisableVddIO3VMEN
 2010              		.syntax unified
 2011              		.thumb
 2012              		.thumb_func
 2014              	HAL_PWREx_DisableVddIO3VMEN:
 2015              	.LFB931:
1159:../Drivers/STM32N6xx_HAL_Driver/Src/stm32n6xx_hal_pwr_ex.c **** 
1160:../Drivers/STM32N6xx_HAL_Driver/Src/stm32n6xx_hal_pwr_ex.c **** /**
1161:../Drivers/STM32N6xx_HAL_Driver/Src/stm32n6xx_hal_pwr_ex.c ****   * @brief  Disable the VDDIO3 independent voltage monitor.
1162:../Drivers/STM32N6xx_HAL_Driver/Src/stm32n6xx_hal_pwr_ex.c ****   * @retval None.
1163:../Drivers/STM32N6xx_HAL_Driver/Src/stm32n6xx_hal_pwr_ex.c ****   */
1164:../Drivers/STM32N6xx_HAL_Driver/Src/stm32n6xx_hal_pwr_ex.c **** void HAL_PWREx_DisableVddIO3VMEN(void)
1165:../Drivers/STM32N6xx_HAL_Driver/Src/stm32n6xx_hal_pwr_ex.c **** {
 2016              		.loc 1 1165 1 is_stmt 1 view -0
 2017              		.cfi_startproc
 2018              		@ args = 0, pretend = 0, frame = 0
 2019              		@ frame_needed = 0, uses_anonymous_args = 0
 2020              		@ link register save eliminated.
1166:../Drivers/STM32N6xx_HAL_Driver/Src/stm32n6xx_hal_pwr_ex.c ****   CLEAR_BIT(PWR->SVMCR3, PWR_SVMCR3_VDDIO3VMEN);
 2021              		.loc 1 1166 3 view .LVU360
 2022 0000 024A     		ldr	r2, .L198
 2023 0002 D36B     		ldr	r3, [r2, #60]
 2024 0004 23F00203 		bic	r3, r3, #2
 2025 0008 D363     		str	r3, [r2, #60]
1167:../Drivers/STM32N6xx_HAL_Driver/Src/stm32n6xx_hal_pwr_ex.c **** }
 2026              		.loc 1 1167 1 is_stmt 0 view .LVU361
 2027 000a 7047     		bx	lr
 2028              	.L199:
 2029              		.align	2
 2030              	.L198:
 2031 000c 00480256 		.word	1442990080
 2032              		.cfi_endproc
 2033              	.LFE931:
 2035              		.section	.text.HAL_PWREx_EnableVddIO4VMEN,"ax",%progbits
 2036              		.align	1
 2037              		.global	HAL_PWREx_EnableVddIO4VMEN
 2038              		.syntax unified
 2039              		.thumb
 2040              		.thumb_func
 2042              	HAL_PWREx_EnableVddIO4VMEN:
 2043              	.LFB932:
1168:../Drivers/STM32N6xx_HAL_Driver/Src/stm32n6xx_hal_pwr_ex.c **** 
1169:../Drivers/STM32N6xx_HAL_Driver/Src/stm32n6xx_hal_pwr_ex.c **** /**
1170:../Drivers/STM32N6xx_HAL_Driver/Src/stm32n6xx_hal_pwr_ex.c ****   * @brief  Enable the VDDIO4 independent voltage monitor.
1171:../Drivers/STM32N6xx_HAL_Driver/Src/stm32n6xx_hal_pwr_ex.c ****   * @retval None.
1172:../Drivers/STM32N6xx_HAL_Driver/Src/stm32n6xx_hal_pwr_ex.c ****   */
1173:../Drivers/STM32N6xx_HAL_Driver/Src/stm32n6xx_hal_pwr_ex.c **** void HAL_PWREx_EnableVddIO4VMEN(void)
1174:../Drivers/STM32N6xx_HAL_Driver/Src/stm32n6xx_hal_pwr_ex.c **** {
 2044              		.loc 1 1174 1 is_stmt 1 view -0
 2045              		.cfi_startproc
 2046              		@ args = 0, pretend = 0, frame = 0
 2047              		@ frame_needed = 0, uses_anonymous_args = 0
 2048              		@ link register save eliminated.
1175:../Drivers/STM32N6xx_HAL_Driver/Src/stm32n6xx_hal_pwr_ex.c ****   SET_BIT(PWR->SVMCR1, PWR_SVMCR1_VDDIO4VMEN);
 2049              		.loc 1 1175 3 view .LVU363
 2050 0000 024A     		ldr	r2, .L201
ARM GAS  /tmp/ccb319AI.s 			page 62


 2051 0002 536B     		ldr	r3, [r2, #52]
 2052 0004 43F00103 		orr	r3, r3, #1
 2053 0008 5363     		str	r3, [r2, #52]
1176:../Drivers/STM32N6xx_HAL_Driver/Src/stm32n6xx_hal_pwr_ex.c **** }
 2054              		.loc 1 1176 1 is_stmt 0 view .LVU364
 2055 000a 7047     		bx	lr
 2056              	.L202:
 2057              		.align	2
 2058              	.L201:
 2059 000c 00480256 		.word	1442990080
 2060              		.cfi_endproc
 2061              	.LFE932:
 2063              		.section	.text.HAL_PWREx_DisableVddIO4VMEN,"ax",%progbits
 2064              		.align	1
 2065              		.global	HAL_PWREx_DisableVddIO4VMEN
 2066              		.syntax unified
 2067              		.thumb
 2068              		.thumb_func
 2070              	HAL_PWREx_DisableVddIO4VMEN:
 2071              	.LFB933:
1177:../Drivers/STM32N6xx_HAL_Driver/Src/stm32n6xx_hal_pwr_ex.c **** 
1178:../Drivers/STM32N6xx_HAL_Driver/Src/stm32n6xx_hal_pwr_ex.c **** /**
1179:../Drivers/STM32N6xx_HAL_Driver/Src/stm32n6xx_hal_pwr_ex.c ****   * @brief  Disable the VDDIO4 independent voltage monitor.
1180:../Drivers/STM32N6xx_HAL_Driver/Src/stm32n6xx_hal_pwr_ex.c ****   * @retval None.
1181:../Drivers/STM32N6xx_HAL_Driver/Src/stm32n6xx_hal_pwr_ex.c ****   */
1182:../Drivers/STM32N6xx_HAL_Driver/Src/stm32n6xx_hal_pwr_ex.c **** void HAL_PWREx_DisableVddIO4VMEN(void)
1183:../Drivers/STM32N6xx_HAL_Driver/Src/stm32n6xx_hal_pwr_ex.c **** {
 2072              		.loc 1 1183 1 is_stmt 1 view -0
 2073              		.cfi_startproc
 2074              		@ args = 0, pretend = 0, frame = 0
 2075              		@ frame_needed = 0, uses_anonymous_args = 0
 2076              		@ link register save eliminated.
1184:../Drivers/STM32N6xx_HAL_Driver/Src/stm32n6xx_hal_pwr_ex.c ****   CLEAR_BIT(PWR->SVMCR1, PWR_SVMCR1_VDDIO4VMEN);
 2077              		.loc 1 1184 3 view .LVU366
 2078 0000 024A     		ldr	r2, .L204
 2079 0002 536B     		ldr	r3, [r2, #52]
 2080 0004 23F00103 		bic	r3, r3, #1
 2081 0008 5363     		str	r3, [r2, #52]
1185:../Drivers/STM32N6xx_HAL_Driver/Src/stm32n6xx_hal_pwr_ex.c **** }
 2082              		.loc 1 1185 1 is_stmt 0 view .LVU367
 2083 000a 7047     		bx	lr
 2084              	.L205:
 2085              		.align	2
 2086              	.L204:
 2087 000c 00480256 		.word	1442990080
 2088              		.cfi_endproc
 2089              	.LFE933:
 2091              		.section	.text.HAL_PWREx_EnableVddIO5VMEN,"ax",%progbits
 2092              		.align	1
 2093              		.global	HAL_PWREx_EnableVddIO5VMEN
 2094              		.syntax unified
 2095              		.thumb
 2096              		.thumb_func
 2098              	HAL_PWREx_EnableVddIO5VMEN:
 2099              	.LFB934:
1186:../Drivers/STM32N6xx_HAL_Driver/Src/stm32n6xx_hal_pwr_ex.c **** 
1187:../Drivers/STM32N6xx_HAL_Driver/Src/stm32n6xx_hal_pwr_ex.c **** /**
ARM GAS  /tmp/ccb319AI.s 			page 63


1188:../Drivers/STM32N6xx_HAL_Driver/Src/stm32n6xx_hal_pwr_ex.c ****   * @brief  Enable the VDDIO5 independent voltage monitor.
1189:../Drivers/STM32N6xx_HAL_Driver/Src/stm32n6xx_hal_pwr_ex.c ****   * @retval None.
1190:../Drivers/STM32N6xx_HAL_Driver/Src/stm32n6xx_hal_pwr_ex.c ****   */
1191:../Drivers/STM32N6xx_HAL_Driver/Src/stm32n6xx_hal_pwr_ex.c **** void HAL_PWREx_EnableVddIO5VMEN(void)
1192:../Drivers/STM32N6xx_HAL_Driver/Src/stm32n6xx_hal_pwr_ex.c **** {
 2100              		.loc 1 1192 1 is_stmt 1 view -0
 2101              		.cfi_startproc
 2102              		@ args = 0, pretend = 0, frame = 0
 2103              		@ frame_needed = 0, uses_anonymous_args = 0
 2104              		@ link register save eliminated.
1193:../Drivers/STM32N6xx_HAL_Driver/Src/stm32n6xx_hal_pwr_ex.c ****   SET_BIT(PWR->SVMCR2, PWR_SVMCR2_VDDIO5VMEN);
 2105              		.loc 1 1193 3 view .LVU369
 2106 0000 024A     		ldr	r2, .L207
 2107 0002 936B     		ldr	r3, [r2, #56]
 2108 0004 43F00103 		orr	r3, r3, #1
 2109 0008 9363     		str	r3, [r2, #56]
1194:../Drivers/STM32N6xx_HAL_Driver/Src/stm32n6xx_hal_pwr_ex.c **** }
 2110              		.loc 1 1194 1 is_stmt 0 view .LVU370
 2111 000a 7047     		bx	lr
 2112              	.L208:
 2113              		.align	2
 2114              	.L207:
 2115 000c 00480256 		.word	1442990080
 2116              		.cfi_endproc
 2117              	.LFE934:
 2119              		.section	.text.HAL_PWREx_DisableVddIO5VMEN,"ax",%progbits
 2120              		.align	1
 2121              		.global	HAL_PWREx_DisableVddIO5VMEN
 2122              		.syntax unified
 2123              		.thumb
 2124              		.thumb_func
 2126              	HAL_PWREx_DisableVddIO5VMEN:
 2127              	.LFB935:
1195:../Drivers/STM32N6xx_HAL_Driver/Src/stm32n6xx_hal_pwr_ex.c **** 
1196:../Drivers/STM32N6xx_HAL_Driver/Src/stm32n6xx_hal_pwr_ex.c **** /**
1197:../Drivers/STM32N6xx_HAL_Driver/Src/stm32n6xx_hal_pwr_ex.c ****   * @brief  Disable the VDDIO5 independent voltage monitor.
1198:../Drivers/STM32N6xx_HAL_Driver/Src/stm32n6xx_hal_pwr_ex.c ****   * @retval None.
1199:../Drivers/STM32N6xx_HAL_Driver/Src/stm32n6xx_hal_pwr_ex.c ****   */
1200:../Drivers/STM32N6xx_HAL_Driver/Src/stm32n6xx_hal_pwr_ex.c **** void HAL_PWREx_DisableVddIO5VMEN(void)
1201:../Drivers/STM32N6xx_HAL_Driver/Src/stm32n6xx_hal_pwr_ex.c **** {
 2128              		.loc 1 1201 1 is_stmt 1 view -0
 2129              		.cfi_startproc
 2130              		@ args = 0, pretend = 0, frame = 0
 2131              		@ frame_needed = 0, uses_anonymous_args = 0
 2132              		@ link register save eliminated.
1202:../Drivers/STM32N6xx_HAL_Driver/Src/stm32n6xx_hal_pwr_ex.c ****   CLEAR_BIT(PWR->SVMCR2, PWR_SVMCR2_VDDIO5VMEN);
 2133              		.loc 1 1202 3 view .LVU372
 2134 0000 024A     		ldr	r2, .L210
 2135 0002 936B     		ldr	r3, [r2, #56]
 2136 0004 23F00103 		bic	r3, r3, #1
 2137 0008 9363     		str	r3, [r2, #56]
1203:../Drivers/STM32N6xx_HAL_Driver/Src/stm32n6xx_hal_pwr_ex.c **** }
 2138              		.loc 1 1203 1 is_stmt 0 view .LVU373
 2139 000a 7047     		bx	lr
 2140              	.L211:
 2141              		.align	2
 2142              	.L210:
ARM GAS  /tmp/ccb319AI.s 			page 64


 2143 000c 00480256 		.word	1442990080
 2144              		.cfi_endproc
 2145              	.LFE935:
 2147              		.section	.text.HAL_PWREx_EnableVddAVMEN,"ax",%progbits
 2148              		.align	1
 2149              		.global	HAL_PWREx_EnableVddAVMEN
 2150              		.syntax unified
 2151              		.thumb
 2152              		.thumb_func
 2154              	HAL_PWREx_EnableVddAVMEN:
 2155              	.LFB936:
1204:../Drivers/STM32N6xx_HAL_Driver/Src/stm32n6xx_hal_pwr_ex.c **** 
1205:../Drivers/STM32N6xx_HAL_Driver/Src/stm32n6xx_hal_pwr_ex.c **** /**
1206:../Drivers/STM32N6xx_HAL_Driver/Src/stm32n6xx_hal_pwr_ex.c ****   * @brief  Enable the VDDA18ADC independent ADC voltage monitor.
1207:../Drivers/STM32N6xx_HAL_Driver/Src/stm32n6xx_hal_pwr_ex.c ****   * @retval None.
1208:../Drivers/STM32N6xx_HAL_Driver/Src/stm32n6xx_hal_pwr_ex.c ****   */
1209:../Drivers/STM32N6xx_HAL_Driver/Src/stm32n6xx_hal_pwr_ex.c **** void HAL_PWREx_EnableVddAVMEN(void)
1210:../Drivers/STM32N6xx_HAL_Driver/Src/stm32n6xx_hal_pwr_ex.c **** {
 2156              		.loc 1 1210 1 is_stmt 1 view -0
 2157              		.cfi_startproc
 2158              		@ args = 0, pretend = 0, frame = 0
 2159              		@ frame_needed = 0, uses_anonymous_args = 0
 2160              		@ link register save eliminated.
1211:../Drivers/STM32N6xx_HAL_Driver/Src/stm32n6xx_hal_pwr_ex.c ****   SET_BIT(PWR->SVMCR3, PWR_SVMCR3_AVMEN);
 2161              		.loc 1 1211 3 view .LVU375
 2162 0000 024A     		ldr	r2, .L213
 2163 0002 D36B     		ldr	r3, [r2, #60]
 2164 0004 43F01003 		orr	r3, r3, #16
 2165 0008 D363     		str	r3, [r2, #60]
1212:../Drivers/STM32N6xx_HAL_Driver/Src/stm32n6xx_hal_pwr_ex.c **** }
 2166              		.loc 1 1212 1 is_stmt 0 view .LVU376
 2167 000a 7047     		bx	lr
 2168              	.L214:
 2169              		.align	2
 2170              	.L213:
 2171 000c 00480256 		.word	1442990080
 2172              		.cfi_endproc
 2173              	.LFE936:
 2175              		.section	.text.HAL_PWREx_DisableVddAVMEN,"ax",%progbits
 2176              		.align	1
 2177              		.global	HAL_PWREx_DisableVddAVMEN
 2178              		.syntax unified
 2179              		.thumb
 2180              		.thumb_func
 2182              	HAL_PWREx_DisableVddAVMEN:
 2183              	.LFB937:
1213:../Drivers/STM32N6xx_HAL_Driver/Src/stm32n6xx_hal_pwr_ex.c **** 
1214:../Drivers/STM32N6xx_HAL_Driver/Src/stm32n6xx_hal_pwr_ex.c **** /**
1215:../Drivers/STM32N6xx_HAL_Driver/Src/stm32n6xx_hal_pwr_ex.c ****   * @brief  Disable the VDDA18ADC independent ADC voltage monitor.
1216:../Drivers/STM32N6xx_HAL_Driver/Src/stm32n6xx_hal_pwr_ex.c ****   * @retval None.
1217:../Drivers/STM32N6xx_HAL_Driver/Src/stm32n6xx_hal_pwr_ex.c ****   */
1218:../Drivers/STM32N6xx_HAL_Driver/Src/stm32n6xx_hal_pwr_ex.c **** void HAL_PWREx_DisableVddAVMEN(void)
1219:../Drivers/STM32N6xx_HAL_Driver/Src/stm32n6xx_hal_pwr_ex.c **** {
 2184              		.loc 1 1219 1 is_stmt 1 view -0
 2185              		.cfi_startproc
 2186              		@ args = 0, pretend = 0, frame = 0
 2187              		@ frame_needed = 0, uses_anonymous_args = 0
ARM GAS  /tmp/ccb319AI.s 			page 65


 2188              		@ link register save eliminated.
1220:../Drivers/STM32N6xx_HAL_Driver/Src/stm32n6xx_hal_pwr_ex.c ****   CLEAR_BIT(PWR->SVMCR3, PWR_SVMCR3_AVMEN);
 2189              		.loc 1 1220 3 view .LVU378
 2190 0000 024A     		ldr	r2, .L216
 2191 0002 D36B     		ldr	r3, [r2, #60]
 2192 0004 23F01003 		bic	r3, r3, #16
 2193 0008 D363     		str	r3, [r2, #60]
1221:../Drivers/STM32N6xx_HAL_Driver/Src/stm32n6xx_hal_pwr_ex.c **** }
 2194              		.loc 1 1221 1 is_stmt 0 view .LVU379
 2195 000a 7047     		bx	lr
 2196              	.L217:
 2197              		.align	2
 2198              	.L216:
 2199 000c 00480256 		.word	1442990080
 2200              		.cfi_endproc
 2201              	.LFE937:
 2203              		.section	.text.HAL_PWREx_ConfigPVM,"ax",%progbits
 2204              		.align	1
 2205              		.global	HAL_PWREx_ConfigPVM
 2206              		.syntax unified
 2207              		.thumb
 2208              		.thumb_func
 2210              	HAL_PWREx_ConfigPVM:
 2211              	.LVL61:
 2212              	.LFB938:
1222:../Drivers/STM32N6xx_HAL_Driver/Src/stm32n6xx_hal_pwr_ex.c **** 
1223:../Drivers/STM32N6xx_HAL_Driver/Src/stm32n6xx_hal_pwr_ex.c **** /**
1224:../Drivers/STM32N6xx_HAL_Driver/Src/stm32n6xx_hal_pwr_ex.c ****   * @brief  Configure the voltage monitor threshold detected by the Peripheral
1225:../Drivers/STM32N6xx_HAL_Driver/Src/stm32n6xx_hal_pwr_ex.c ****   *         voltage monitoring (PVM).
1226:../Drivers/STM32N6xx_HAL_Driver/Src/stm32n6xx_hal_pwr_ex.c ****   * @param  pConfigPVM : Pointer to a PWR_PVMTypeDef structure that contains the
1227:../Drivers/STM32N6xx_HAL_Driver/Src/stm32n6xx_hal_pwr_ex.c ****   *                      PVM configuration information (PVMType and EventMode).
1228:../Drivers/STM32N6xx_HAL_Driver/Src/stm32n6xx_hal_pwr_ex.c ****   * @retval HAL Status.
1229:../Drivers/STM32N6xx_HAL_Driver/Src/stm32n6xx_hal_pwr_ex.c ****   */
1230:../Drivers/STM32N6xx_HAL_Driver/Src/stm32n6xx_hal_pwr_ex.c **** HAL_StatusTypeDef HAL_PWREx_ConfigPVM(const PWR_PVMTypeDef *pConfigPVM)
1231:../Drivers/STM32N6xx_HAL_Driver/Src/stm32n6xx_hal_pwr_ex.c **** {
 2213              		.loc 1 1231 1 is_stmt 1 view -0
 2214              		.cfi_startproc
 2215              		@ args = 0, pretend = 0, frame = 0
 2216              		@ frame_needed = 0, uses_anonymous_args = 0
 2217              		@ link register save eliminated.
1232:../Drivers/STM32N6xx_HAL_Driver/Src/stm32n6xx_hal_pwr_ex.c **** 
1233:../Drivers/STM32N6xx_HAL_Driver/Src/stm32n6xx_hal_pwr_ex.c ****   /* Check the parameters */
1234:../Drivers/STM32N6xx_HAL_Driver/Src/stm32n6xx_hal_pwr_ex.c ****   assert_param(IS_PWR_PVM_TYPE(pConfigPVM->PVMType));
 2218              		.loc 1 1234 3 view .LVU381
1235:../Drivers/STM32N6xx_HAL_Driver/Src/stm32n6xx_hal_pwr_ex.c ****   assert_param(IS_PWR_PVM_MODE(pConfigPVM->Mode));
 2219              		.loc 1 1235 3 view .LVU382
1236:../Drivers/STM32N6xx_HAL_Driver/Src/stm32n6xx_hal_pwr_ex.c **** 
1237:../Drivers/STM32N6xx_HAL_Driver/Src/stm32n6xx_hal_pwr_ex.c ****   /* Check the peripheral voltage monitor type */
1238:../Drivers/STM32N6xx_HAL_Driver/Src/stm32n6xx_hal_pwr_ex.c ****   switch (pConfigPVM->PVMType)
 2220              		.loc 1 1238 3 view .LVU383
 2221              		.loc 1 1238 21 is_stmt 0 view .LVU384
 2222 0000 0368     		ldr	r3, [r0]
 2223              		.loc 1 1238 3 view .LVU385
 2224 0002 052B     		cmp	r3, #5
 2225 0004 00F28381 		bhi	.L246
 2226 0008 DFE813F0 		tbh	[pc, r3, lsl #1]
 2227              	.L221:
ARM GAS  /tmp/ccb319AI.s 			page 66


 2228 000c 0600     		.2byte	(.L226-.L221)/2
 2229 000e 4500     		.2byte	(.L225-.L221)/2
 2230 0010 8300     		.2byte	(.L224-.L221)/2
 2231 0012 C100     		.2byte	(.L223-.L221)/2
 2232 0014 0001     		.2byte	(.L222-.L221)/2
 2233 0016 4201     		.2byte	(.L220-.L221)/2
 2234              		.p2align 1
 2235              	.L226:
1239:../Drivers/STM32N6xx_HAL_Driver/Src/stm32n6xx_hal_pwr_ex.c ****   {
1240:../Drivers/STM32N6xx_HAL_Driver/Src/stm32n6xx_hal_pwr_ex.c ****     case PWR_VDDUSB_VM: /* Independent USB voltage monitor */
1241:../Drivers/STM32N6xx_HAL_Driver/Src/stm32n6xx_hal_pwr_ex.c **** 
1242:../Drivers/STM32N6xx_HAL_Driver/Src/stm32n6xx_hal_pwr_ex.c ****       /* Disable EXTI USBVM event and interrupt */
1243:../Drivers/STM32N6xx_HAL_Driver/Src/stm32n6xx_hal_pwr_ex.c ****       __HAL_PWR_USBVM_EXTI_DISABLE_EVENT();
 2236              		.loc 1 1243 7 is_stmt 1 view .LVU386
 2237 0018 9C4B     		ldr	r3, .L247
 2238 001a D3F8A420 		ldr	r2, [r3, #164]
 2239 001e 22F40072 		bic	r2, r2, #512
 2240 0022 C3F8A420 		str	r2, [r3, #164]
1244:../Drivers/STM32N6xx_HAL_Driver/Src/stm32n6xx_hal_pwr_ex.c ****       __HAL_PWR_USBVM_EXTI_DISABLE_IT();
 2241              		.loc 1 1244 7 view .LVU387
 2242 0026 D3F8A020 		ldr	r2, [r3, #160]
 2243 002a 22F40072 		bic	r2, r2, #512
 2244 002e C3F8A020 		str	r2, [r3, #160]
1245:../Drivers/STM32N6xx_HAL_Driver/Src/stm32n6xx_hal_pwr_ex.c ****       __HAL_PWR_USBVM_EXTI_DISABLE_RISING_EDGE();
 2245              		.loc 1 1245 7 view .LVU388
 2246 0032 1A6C     		ldr	r2, [r3, #64]
 2247 0034 22F40072 		bic	r2, r2, #512
 2248 0038 1A64     		str	r2, [r3, #64]
1246:../Drivers/STM32N6xx_HAL_Driver/Src/stm32n6xx_hal_pwr_ex.c ****       __HAL_PWR_USBVM_EXTI_DISABLE_FALLING_EDGE();
 2249              		.loc 1 1246 7 view .LVU389
 2250 003a 5A6C     		ldr	r2, [r3, #68]
 2251 003c 22F40072 		bic	r2, r2, #512
 2252 0040 5A64     		str	r2, [r3, #68]
1247:../Drivers/STM32N6xx_HAL_Driver/Src/stm32n6xx_hal_pwr_ex.c **** 
1248:../Drivers/STM32N6xx_HAL_Driver/Src/stm32n6xx_hal_pwr_ex.c ****       /* Configure the USBVM in interrupt mode */
1249:../Drivers/STM32N6xx_HAL_Driver/Src/stm32n6xx_hal_pwr_ex.c ****       if ((pConfigPVM->Mode & PVM_MODE_IT) == PVM_MODE_IT)
 2253              		.loc 1 1249 7 view .LVU390
 2254              		.loc 1 1249 22 is_stmt 0 view .LVU391
 2255 0042 4368     		ldr	r3, [r0, #4]
 2256              		.loc 1 1249 10 view .LVU392
 2257 0044 13F0040F 		tst	r3, #4
 2258 0048 06D0     		beq	.L227
1250:../Drivers/STM32N6xx_HAL_Driver/Src/stm32n6xx_hal_pwr_ex.c ****       {
1251:../Drivers/STM32N6xx_HAL_Driver/Src/stm32n6xx_hal_pwr_ex.c ****         __HAL_PWR_USBVM_EXTI_ENABLE_IT();
 2259              		.loc 1 1251 9 is_stmt 1 view .LVU393
 2260 004a 904A     		ldr	r2, .L247
 2261 004c D2F8A030 		ldr	r3, [r2, #160]
 2262 0050 43F40073 		orr	r3, r3, #512
 2263 0054 C2F8A030 		str	r3, [r2, #160]
 2264              	.L227:
1252:../Drivers/STM32N6xx_HAL_Driver/Src/stm32n6xx_hal_pwr_ex.c ****       }
1253:../Drivers/STM32N6xx_HAL_Driver/Src/stm32n6xx_hal_pwr_ex.c **** 
1254:../Drivers/STM32N6xx_HAL_Driver/Src/stm32n6xx_hal_pwr_ex.c ****       /* Configure the USBVM in event mode */
1255:../Drivers/STM32N6xx_HAL_Driver/Src/stm32n6xx_hal_pwr_ex.c ****       if ((pConfigPVM->Mode & PVM_MODE_EVT) == PVM_MODE_EVT)
 2265              		.loc 1 1255 7 view .LVU394
 2266              		.loc 1 1255 22 is_stmt 0 view .LVU395
 2267 0058 4368     		ldr	r3, [r0, #4]
ARM GAS  /tmp/ccb319AI.s 			page 67


 2268              		.loc 1 1255 10 view .LVU396
 2269 005a 13F0080F 		tst	r3, #8
 2270 005e 06D0     		beq	.L228
1256:../Drivers/STM32N6xx_HAL_Driver/Src/stm32n6xx_hal_pwr_ex.c ****       {
1257:../Drivers/STM32N6xx_HAL_Driver/Src/stm32n6xx_hal_pwr_ex.c ****         __HAL_PWR_USBVM_EXTI_ENABLE_EVENT();
 2271              		.loc 1 1257 9 is_stmt 1 view .LVU397
 2272 0060 8A4A     		ldr	r2, .L247
 2273 0062 D2F8A430 		ldr	r3, [r2, #164]
 2274 0066 43F40073 		orr	r3, r3, #512
 2275 006a C2F8A430 		str	r3, [r2, #164]
 2276              	.L228:
1258:../Drivers/STM32N6xx_HAL_Driver/Src/stm32n6xx_hal_pwr_ex.c ****       }
1259:../Drivers/STM32N6xx_HAL_Driver/Src/stm32n6xx_hal_pwr_ex.c **** 
1260:../Drivers/STM32N6xx_HAL_Driver/Src/stm32n6xx_hal_pwr_ex.c ****       /* Configure the USBVM in rising edge */
1261:../Drivers/STM32N6xx_HAL_Driver/Src/stm32n6xx_hal_pwr_ex.c ****       if ((pConfigPVM->Mode & PVM_RISING_EDGE) == PVM_RISING_EDGE)
 2277              		.loc 1 1261 7 view .LVU398
 2278              		.loc 1 1261 22 is_stmt 0 view .LVU399
 2279 006e 4368     		ldr	r3, [r0, #4]
 2280              		.loc 1 1261 10 view .LVU400
 2281 0070 13F0010F 		tst	r3, #1
 2282 0074 04D0     		beq	.L229
1262:../Drivers/STM32N6xx_HAL_Driver/Src/stm32n6xx_hal_pwr_ex.c ****       {
1263:../Drivers/STM32N6xx_HAL_Driver/Src/stm32n6xx_hal_pwr_ex.c ****         __HAL_PWR_USBVM_EXTI_ENABLE_RISING_EDGE();
 2283              		.loc 1 1263 9 is_stmt 1 view .LVU401
 2284 0076 854A     		ldr	r2, .L247
 2285 0078 136C     		ldr	r3, [r2, #64]
 2286 007a 43F40073 		orr	r3, r3, #512
 2287 007e 1364     		str	r3, [r2, #64]
 2288              	.L229:
1264:../Drivers/STM32N6xx_HAL_Driver/Src/stm32n6xx_hal_pwr_ex.c ****       }
1265:../Drivers/STM32N6xx_HAL_Driver/Src/stm32n6xx_hal_pwr_ex.c **** 
1266:../Drivers/STM32N6xx_HAL_Driver/Src/stm32n6xx_hal_pwr_ex.c ****       /* Configure the USBVM in falling edge */
1267:../Drivers/STM32N6xx_HAL_Driver/Src/stm32n6xx_hal_pwr_ex.c ****       if ((pConfigPVM->Mode & PVM_FALLING_EDGE) == PVM_FALLING_EDGE)
 2289              		.loc 1 1267 7 view .LVU402
 2290              		.loc 1 1267 22 is_stmt 0 view .LVU403
 2291 0080 4368     		ldr	r3, [r0, #4]
 2292              		.loc 1 1267 10 view .LVU404
 2293 0082 13F0020F 		tst	r3, #2
 2294 0086 04D0     		beq	.L230
1268:../Drivers/STM32N6xx_HAL_Driver/Src/stm32n6xx_hal_pwr_ex.c ****       {
1269:../Drivers/STM32N6xx_HAL_Driver/Src/stm32n6xx_hal_pwr_ex.c ****         __HAL_PWR_USBVM_EXTI_ENABLE_FALLING_EDGE();
 2295              		.loc 1 1269 9 is_stmt 1 view .LVU405
 2296 0088 804A     		ldr	r2, .L247
 2297 008a 536C     		ldr	r3, [r2, #68]
 2298 008c 43F40073 		orr	r3, r3, #512
 2299 0090 5364     		str	r3, [r2, #68]
 2300              	.L230:
1270:../Drivers/STM32N6xx_HAL_Driver/Src/stm32n6xx_hal_pwr_ex.c ****       }
1271:../Drivers/STM32N6xx_HAL_Driver/Src/stm32n6xx_hal_pwr_ex.c ****       break;
1272:../Drivers/STM32N6xx_HAL_Driver/Src/stm32n6xx_hal_pwr_ex.c **** 
1273:../Drivers/STM32N6xx_HAL_Driver/Src/stm32n6xx_hal_pwr_ex.c ****     case PWR_VDDIO2_VM: /* Independent I/Os voltage monitor */
1274:../Drivers/STM32N6xx_HAL_Driver/Src/stm32n6xx_hal_pwr_ex.c **** 
1275:../Drivers/STM32N6xx_HAL_Driver/Src/stm32n6xx_hal_pwr_ex.c ****       /* Disable EXTI IO2VM event and interrupt */
1276:../Drivers/STM32N6xx_HAL_Driver/Src/stm32n6xx_hal_pwr_ex.c ****       __HAL_PWR_IO2VM_EXTI_DISABLE_EVENT();
1277:../Drivers/STM32N6xx_HAL_Driver/Src/stm32n6xx_hal_pwr_ex.c ****       __HAL_PWR_IO2VM_EXTI_DISABLE_IT();
1278:../Drivers/STM32N6xx_HAL_Driver/Src/stm32n6xx_hal_pwr_ex.c ****       __HAL_PWR_IO2VM_EXTI_DISABLE_RISING_EDGE();
1279:../Drivers/STM32N6xx_HAL_Driver/Src/stm32n6xx_hal_pwr_ex.c ****       __HAL_PWR_IO2VM_EXTI_DISABLE_FALLING_EDGE();
ARM GAS  /tmp/ccb319AI.s 			page 68


1280:../Drivers/STM32N6xx_HAL_Driver/Src/stm32n6xx_hal_pwr_ex.c **** 
1281:../Drivers/STM32N6xx_HAL_Driver/Src/stm32n6xx_hal_pwr_ex.c ****       /* Configure the IO2VM in interrupt mode */
1282:../Drivers/STM32N6xx_HAL_Driver/Src/stm32n6xx_hal_pwr_ex.c ****       if ((pConfigPVM->Mode & PVM_MODE_IT) == PVM_MODE_IT)
1283:../Drivers/STM32N6xx_HAL_Driver/Src/stm32n6xx_hal_pwr_ex.c ****       {
1284:../Drivers/STM32N6xx_HAL_Driver/Src/stm32n6xx_hal_pwr_ex.c ****         __HAL_PWR_IO2VM_EXTI_ENABLE_IT();
1285:../Drivers/STM32N6xx_HAL_Driver/Src/stm32n6xx_hal_pwr_ex.c ****       }
1286:../Drivers/STM32N6xx_HAL_Driver/Src/stm32n6xx_hal_pwr_ex.c **** 
1287:../Drivers/STM32N6xx_HAL_Driver/Src/stm32n6xx_hal_pwr_ex.c ****       /* Configure the IO2VM in event mode */
1288:../Drivers/STM32N6xx_HAL_Driver/Src/stm32n6xx_hal_pwr_ex.c ****       if ((pConfigPVM->Mode & PVM_MODE_EVT) == PVM_MODE_EVT)
1289:../Drivers/STM32N6xx_HAL_Driver/Src/stm32n6xx_hal_pwr_ex.c ****       {
1290:../Drivers/STM32N6xx_HAL_Driver/Src/stm32n6xx_hal_pwr_ex.c ****         __HAL_PWR_IO2VM_EXTI_ENABLE_EVENT();
1291:../Drivers/STM32N6xx_HAL_Driver/Src/stm32n6xx_hal_pwr_ex.c ****       }
1292:../Drivers/STM32N6xx_HAL_Driver/Src/stm32n6xx_hal_pwr_ex.c **** 
1293:../Drivers/STM32N6xx_HAL_Driver/Src/stm32n6xx_hal_pwr_ex.c ****       /* Configure the IO2VM in rising edge */
1294:../Drivers/STM32N6xx_HAL_Driver/Src/stm32n6xx_hal_pwr_ex.c ****       if ((pConfigPVM->Mode & PVM_RISING_EDGE) == PVM_RISING_EDGE)
1295:../Drivers/STM32N6xx_HAL_Driver/Src/stm32n6xx_hal_pwr_ex.c ****       {
1296:../Drivers/STM32N6xx_HAL_Driver/Src/stm32n6xx_hal_pwr_ex.c ****         __HAL_PWR_IO2VM_EXTI_ENABLE_RISING_EDGE();
1297:../Drivers/STM32N6xx_HAL_Driver/Src/stm32n6xx_hal_pwr_ex.c ****       }
1298:../Drivers/STM32N6xx_HAL_Driver/Src/stm32n6xx_hal_pwr_ex.c **** 
