ARM GAS  /tmp/ccRTxeLm.s 			page 1


   1              		.arch armv8.1-m.main
   2              		.fpu fpv5-d16
   3              		.arch_extension dsp
   4              		.arch_extension fp
   5              		.arch_extension fp.dp
   6              		.arch_extension mve
   7              		.arch_extension mve.fp
   8              		.eabi_attribute 5, "cortex-m55"
   9              		.eabi_attribute 28, 1
  10              		.eabi_attribute 20, 1
  11              		.eabi_attribute 21, 1
  12              		.eabi_attribute 23, 3
  13              		.eabi_attribute 24, 1
  14              		.eabi_attribute 25, 1
  15              		.eabi_attribute 26, 1
  16              		.eabi_attribute 30, 1
  17              		.eabi_attribute 34, 1
  18              		.eabi_attribute 38, 1
  19              		.eabi_attribute 18, 4
  20              		.file	"stm32n6xx_hal_dma.c"
  21              		.text
  22              	.Ltext0:
  23              		.cfi_sections	.debug_frame
  24              		.file 1 "../Drivers/STM32N6xx_HAL_Driver/Src/stm32n6xx_hal_dma.c"
  25              		.section	.text.DMA_SetConfig,"ax",%progbits
  26              		.align	1
  27              		.syntax unified
  28              		.thumb
  29              		.thumb_func
  31              	DMA_SetConfig:
  32              	.LVL0:
  33              	.LFB899:
   1:../Drivers/STM32N6xx_HAL_Driver/Src/stm32n6xx_hal_dma.c **** /**
   2:../Drivers/STM32N6xx_HAL_Driver/Src/stm32n6xx_hal_dma.c ****   *************************************************************************************************
   3:../Drivers/STM32N6xx_HAL_Driver/Src/stm32n6xx_hal_dma.c ****   * @file    stm32n6xx_hal_dma.c
   4:../Drivers/STM32N6xx_HAL_Driver/Src/stm32n6xx_hal_dma.c ****   * @author  MCD Application Team
   5:../Drivers/STM32N6xx_HAL_Driver/Src/stm32n6xx_hal_dma.c ****   * @brief   This file provides firmware functions to manage the following functionalities of the D
   6:../Drivers/STM32N6xx_HAL_Driver/Src/stm32n6xx_hal_dma.c ****   *          (DMA) peripheral:
   7:../Drivers/STM32N6xx_HAL_Driver/Src/stm32n6xx_hal_dma.c ****   *            + Initialization/De-Initialization Functions
   8:../Drivers/STM32N6xx_HAL_Driver/Src/stm32n6xx_hal_dma.c ****   *            + I/O Operation Functions
   9:../Drivers/STM32N6xx_HAL_Driver/Src/stm32n6xx_hal_dma.c ****   *            + State and Errors Functions
  10:../Drivers/STM32N6xx_HAL_Driver/Src/stm32n6xx_hal_dma.c ****   *            + DMA Attributes Functions
  11:../Drivers/STM32N6xx_HAL_Driver/Src/stm32n6xx_hal_dma.c ****   *
  12:../Drivers/STM32N6xx_HAL_Driver/Src/stm32n6xx_hal_dma.c ****   *************************************************************************************************
  13:../Drivers/STM32N6xx_HAL_Driver/Src/stm32n6xx_hal_dma.c ****   * @attention
  14:../Drivers/STM32N6xx_HAL_Driver/Src/stm32n6xx_hal_dma.c ****   *
  15:../Drivers/STM32N6xx_HAL_Driver/Src/stm32n6xx_hal_dma.c ****   * Copyright (c) 2023 STMicroelectronics.
  16:../Drivers/STM32N6xx_HAL_Driver/Src/stm32n6xx_hal_dma.c ****   * All rights reserved.
  17:../Drivers/STM32N6xx_HAL_Driver/Src/stm32n6xx_hal_dma.c ****   *
  18:../Drivers/STM32N6xx_HAL_Driver/Src/stm32n6xx_hal_dma.c ****   * This software is licensed under terms that can be found in the LICENSE file
  19:../Drivers/STM32N6xx_HAL_Driver/Src/stm32n6xx_hal_dma.c ****   * in the root directory of this software component.
  20:../Drivers/STM32N6xx_HAL_Driver/Src/stm32n6xx_hal_dma.c ****   * If no LICENSE file comes with this software, it is provided AS-IS.
  21:../Drivers/STM32N6xx_HAL_Driver/Src/stm32n6xx_hal_dma.c ****   *
  22:../Drivers/STM32N6xx_HAL_Driver/Src/stm32n6xx_hal_dma.c ****   *************************************************************************************************
  23:../Drivers/STM32N6xx_HAL_Driver/Src/stm32n6xx_hal_dma.c ****   @verbatim
  24:../Drivers/STM32N6xx_HAL_Driver/Src/stm32n6xx_hal_dma.c ****   =================================================================================================
  25:../Drivers/STM32N6xx_HAL_Driver/Src/stm32n6xx_hal_dma.c ****                        ##### How to use this driver #####
ARM GAS  /tmp/ccRTxeLm.s 			page 2


  26:../Drivers/STM32N6xx_HAL_Driver/Src/stm32n6xx_hal_dma.c ****   =================================================================================================
  27:../Drivers/STM32N6xx_HAL_Driver/Src/stm32n6xx_hal_dma.c ****   [..]
  28:../Drivers/STM32N6xx_HAL_Driver/Src/stm32n6xx_hal_dma.c ****    (#) GPDMA and HPDMA are made available on this series.
  29:../Drivers/STM32N6xx_HAL_Driver/Src/stm32n6xx_hal_dma.c ****        Transfer could be done thanks to AXI or AHB ports.
  30:../Drivers/STM32N6xx_HAL_Driver/Src/stm32n6xx_hal_dma.c **** 
  31:../Drivers/STM32N6xx_HAL_Driver/Src/stm32n6xx_hal_dma.c ****        HPDMA support transmission through:
  32:../Drivers/STM32N6xx_HAL_Driver/Src/stm32n6xx_hal_dma.c ****          AXI port 0.
  33:../Drivers/STM32N6xx_HAL_Driver/Src/stm32n6xx_hal_dma.c ****          AHB port 1.
  34:../Drivers/STM32N6xx_HAL_Driver/Src/stm32n6xx_hal_dma.c ****        GPDMA allows transmission through:
  35:../Drivers/STM32N6xx_HAL_Driver/Src/stm32n6xx_hal_dma.c ****          GPDMA_P = port-0.
  36:../Drivers/STM32N6xx_HAL_Driver/Src/stm32n6xx_hal_dma.c ****          GPDMA_M = port-1
  37:../Drivers/STM32N6xx_HAL_Driver/Src/stm32n6xx_hal_dma.c **** 
  38:../Drivers/STM32N6xx_HAL_Driver/Src/stm32n6xx_hal_dma.c ****        The supported configurations for GPDMA and HPDMA can be found
  39:../Drivers/STM32N6xx_HAL_Driver/Src/stm32n6xx_hal_dma.c ****        in the Connectivity matrix table of the reference manual.
  40:../Drivers/STM32N6xx_HAL_Driver/Src/stm32n6xx_hal_dma.c ****        Mind that DTCM and ITCM can be only be accessed thanks to HPDMA
  41:../Drivers/STM32N6xx_HAL_Driver/Src/stm32n6xx_hal_dma.c ****        AXI port 0.
  42:../Drivers/STM32N6xx_HAL_Driver/Src/stm32n6xx_hal_dma.c ****     [..]
  43:../Drivers/STM32N6xx_HAL_Driver/Src/stm32n6xx_hal_dma.c ****       DMA transfer modes are divided to 2 major categories :
  44:../Drivers/STM32N6xx_HAL_Driver/Src/stm32n6xx_hal_dma.c ****           (+) Normal transfers (legacy)
  45:../Drivers/STM32N6xx_HAL_Driver/Src/stm32n6xx_hal_dma.c ****           (+) Linked-list transfers
  46:../Drivers/STM32N6xx_HAL_Driver/Src/stm32n6xx_hal_dma.c **** 
  47:../Drivers/STM32N6xx_HAL_Driver/Src/stm32n6xx_hal_dma.c ****     [..]
  48:../Drivers/STM32N6xx_HAL_Driver/Src/stm32n6xx_hal_dma.c ****       Normal transfers mode is initialized via the standard module and linked-list mode is configur
  49:../Drivers/STM32N6xx_HAL_Driver/Src/stm32n6xx_hal_dma.c ****       module.
  50:../Drivers/STM32N6xx_HAL_Driver/Src/stm32n6xx_hal_dma.c **** 
  51:../Drivers/STM32N6xx_HAL_Driver/Src/stm32n6xx_hal_dma.c ****     [..]
  52:../Drivers/STM32N6xx_HAL_Driver/Src/stm32n6xx_hal_dma.c ****       Additionally to linked-list capability, all advanced DMA features are managed and configured 
  53:../Drivers/STM32N6xx_HAL_Driver/Src/stm32n6xx_hal_dma.c ****       module as extensions to normal mode.
  54:../Drivers/STM32N6xx_HAL_Driver/Src/stm32n6xx_hal_dma.c ****       Advanced features are :
  55:../Drivers/STM32N6xx_HAL_Driver/Src/stm32n6xx_hal_dma.c ****           (+) Repeated block feature.
  56:../Drivers/STM32N6xx_HAL_Driver/Src/stm32n6xx_hal_dma.c ****           (+) Trigger feature.
  57:../Drivers/STM32N6xx_HAL_Driver/Src/stm32n6xx_hal_dma.c ****           (+) Data handling feature.
  58:../Drivers/STM32N6xx_HAL_Driver/Src/stm32n6xx_hal_dma.c **** 
  59:../Drivers/STM32N6xx_HAL_Driver/Src/stm32n6xx_hal_dma.c ****     [..]
  60:../Drivers/STM32N6xx_HAL_Driver/Src/stm32n6xx_hal_dma.c ****       DMA Legacy circular transfer, is replaced by circular linked-list configuration.
  61:../Drivers/STM32N6xx_HAL_Driver/Src/stm32n6xx_hal_dma.c **** 
  62:../Drivers/STM32N6xx_HAL_Driver/Src/stm32n6xx_hal_dma.c **** 
  63:../Drivers/STM32N6xx_HAL_Driver/Src/stm32n6xx_hal_dma.c ****     *** Initialization and De-Initialization ***
  64:../Drivers/STM32N6xx_HAL_Driver/Src/stm32n6xx_hal_dma.c ****     ============================================
  65:../Drivers/STM32N6xx_HAL_Driver/Src/stm32n6xx_hal_dma.c ****     [..]
  66:../Drivers/STM32N6xx_HAL_Driver/Src/stm32n6xx_hal_dma.c ****       For a given channel, enable and configure the peripheral to be connected to the DMA Channel (
  67:../Drivers/STM32N6xx_HAL_Driver/Src/stm32n6xx_hal_dma.c ****       SRAM/FLASH memories: no initialization is necessary) please refer to Reference manual for con
  68:../Drivers/STM32N6xx_HAL_Driver/Src/stm32n6xx_hal_dma.c ****       peripherals and DMA requests.
  69:../Drivers/STM32N6xx_HAL_Driver/Src/stm32n6xx_hal_dma.c **** 
  70:../Drivers/STM32N6xx_HAL_Driver/Src/stm32n6xx_hal_dma.c ****     [..]
  71:../Drivers/STM32N6xx_HAL_Driver/Src/stm32n6xx_hal_dma.c ****       For a given channel, use HAL_DMA_Init function to program the required configuration for norm
  72:../Drivers/STM32N6xx_HAL_Driver/Src/stm32n6xx_hal_dma.c ****       the following parameters:
  73:../Drivers/STM32N6xx_HAL_Driver/Src/stm32n6xx_hal_dma.c **** 
  74:../Drivers/STM32N6xx_HAL_Driver/Src/stm32n6xx_hal_dma.c ****           (+) Request               : Specifies the DMA channel request
  75:../Drivers/STM32N6xx_HAL_Driver/Src/stm32n6xx_hal_dma.c ****               Request parameters    :
  76:../Drivers/STM32N6xx_HAL_Driver/Src/stm32n6xx_hal_dma.c ****               (++) can be a value of DMA_Request_Selection
  77:../Drivers/STM32N6xx_HAL_Driver/Src/stm32n6xx_hal_dma.c **** 
  78:../Drivers/STM32N6xx_HAL_Driver/Src/stm32n6xx_hal_dma.c ****           (+) BlkHWRequest          : Specifies the Block hardware request mode for DMA channel
  79:../Drivers/STM32N6xx_HAL_Driver/Src/stm32n6xx_hal_dma.c ****               (++) can be a value of DMA_Block_Request
  80:../Drivers/STM32N6xx_HAL_Driver/Src/stm32n6xx_hal_dma.c **** 
  81:../Drivers/STM32N6xx_HAL_Driver/Src/stm32n6xx_hal_dma.c ****           (+) Direction             : Specifies the transfer direction for DMA channel
  82:../Drivers/STM32N6xx_HAL_Driver/Src/stm32n6xx_hal_dma.c ****               (++) can be a value of DMA_Transfer_Direction
ARM GAS  /tmp/ccRTxeLm.s 			page 3


  83:../Drivers/STM32N6xx_HAL_Driver/Src/stm32n6xx_hal_dma.c **** 
  84:../Drivers/STM32N6xx_HAL_Driver/Src/stm32n6xx_hal_dma.c ****           (+) SrcInc                : Specifies the source increment mode for the DMA channel
  85:../Drivers/STM32N6xx_HAL_Driver/Src/stm32n6xx_hal_dma.c ****               (++) can be a value of DMA_Source_Increment_Mode
  86:../Drivers/STM32N6xx_HAL_Driver/Src/stm32n6xx_hal_dma.c **** 
  87:../Drivers/STM32N6xx_HAL_Driver/Src/stm32n6xx_hal_dma.c ****           (+) DestInc               : Specifies the destination increment mode for the DMA channel
  88:../Drivers/STM32N6xx_HAL_Driver/Src/stm32n6xx_hal_dma.c ****               (++) can be a value of DMA_Destination_Increment_Mode
  89:../Drivers/STM32N6xx_HAL_Driver/Src/stm32n6xx_hal_dma.c **** 
  90:../Drivers/STM32N6xx_HAL_Driver/Src/stm32n6xx_hal_dma.c ****           (+) SrcDataWidth          : Specifies the source data width for the DMA channel
  91:../Drivers/STM32N6xx_HAL_Driver/Src/stm32n6xx_hal_dma.c ****               (++) can be a value of DMA_Source_Data_Width
  92:../Drivers/STM32N6xx_HAL_Driver/Src/stm32n6xx_hal_dma.c **** 
  93:../Drivers/STM32N6xx_HAL_Driver/Src/stm32n6xx_hal_dma.c ****           (+) DestDataWidth         : Specifies the destination data width for the DMA channel
  94:../Drivers/STM32N6xx_HAL_Driver/Src/stm32n6xx_hal_dma.c ****               (++) can be a value of DMA_Destination_Data_Width
  95:../Drivers/STM32N6xx_HAL_Driver/Src/stm32n6xx_hal_dma.c **** 
  96:../Drivers/STM32N6xx_HAL_Driver/Src/stm32n6xx_hal_dma.c ****           (+) Priority              : Specifies the priority for the DMA channel
  97:../Drivers/STM32N6xx_HAL_Driver/Src/stm32n6xx_hal_dma.c ****               (++) can be a value of DMA_Priority_Level
  98:../Drivers/STM32N6xx_HAL_Driver/Src/stm32n6xx_hal_dma.c **** 
  99:../Drivers/STM32N6xx_HAL_Driver/Src/stm32n6xx_hal_dma.c ****           (+) SrcBurstLength        : Specifies the source burst length (number of beats) for the D
 100:../Drivers/STM32N6xx_HAL_Driver/Src/stm32n6xx_hal_dma.c ****               (++) can be a value of between 1 and 64
 101:../Drivers/STM32N6xx_HAL_Driver/Src/stm32n6xx_hal_dma.c **** 
 102:../Drivers/STM32N6xx_HAL_Driver/Src/stm32n6xx_hal_dma.c ****           (+) DestBurstLength       : Specifies the destination burst length (number of beats) for 
 103:../Drivers/STM32N6xx_HAL_Driver/Src/stm32n6xx_hal_dma.c ****               (++) can be a value of between 1 and 64
 104:../Drivers/STM32N6xx_HAL_Driver/Src/stm32n6xx_hal_dma.c **** 
 105:../Drivers/STM32N6xx_HAL_Driver/Src/stm32n6xx_hal_dma.c ****           (+) TransferAllocatedPort : Specifies the source and destination allocated ports
 106:../Drivers/STM32N6xx_HAL_Driver/Src/stm32n6xx_hal_dma.c ****               (++) can be a value of DMA_Transfer_Allocated_Port
 107:../Drivers/STM32N6xx_HAL_Driver/Src/stm32n6xx_hal_dma.c **** 
 108:../Drivers/STM32N6xx_HAL_Driver/Src/stm32n6xx_hal_dma.c ****           (+) TransferEventMode     : Specifies the transfer event mode for the DMA channel
 109:../Drivers/STM32N6xx_HAL_Driver/Src/stm32n6xx_hal_dma.c ****               (++) can be a value of DMA_Transfer_Event_Mode
 110:../Drivers/STM32N6xx_HAL_Driver/Src/stm32n6xx_hal_dma.c **** 
 111:../Drivers/STM32N6xx_HAL_Driver/Src/stm32n6xx_hal_dma.c ****           (+) Mode                  : Specifies the transfer mode for the DMA channel
 112:../Drivers/STM32N6xx_HAL_Driver/Src/stm32n6xx_hal_dma.c ****               (++) can be one of the following modes :
 113:../Drivers/STM32N6xx_HAL_Driver/Src/stm32n6xx_hal_dma.c ****                   (+++) DMA_NORMAL : Normal Mode
 114:../Drivers/STM32N6xx_HAL_Driver/Src/stm32n6xx_hal_dma.c ****                   (+++) DMA_PFCTRL : Peripheral Flow Control (peripheral early termination) Mode
 115:../Drivers/STM32N6xx_HAL_Driver/Src/stm32n6xx_hal_dma.c **** 
 116:../Drivers/STM32N6xx_HAL_Driver/Src/stm32n6xx_hal_dma.c ****     *** Polling mode IO operation ***
 117:../Drivers/STM32N6xx_HAL_Driver/Src/stm32n6xx_hal_dma.c ****     =================================
 118:../Drivers/STM32N6xx_HAL_Driver/Src/stm32n6xx_hal_dma.c ****     [..]
 119:../Drivers/STM32N6xx_HAL_Driver/Src/stm32n6xx_hal_dma.c ****           (+) Use HAL_DMA_Start() to start a DMA normal transfer after the configuration of source 
 120:../Drivers/STM32N6xx_HAL_Driver/Src/stm32n6xx_hal_dma.c ****               address and the size of data to be transferred.
 121:../Drivers/STM32N6xx_HAL_Driver/Src/stm32n6xx_hal_dma.c **** 
 122:../Drivers/STM32N6xx_HAL_Driver/Src/stm32n6xx_hal_dma.c ****           (+) Use HAL_DMA_PollForTransfer() to poll for selected transfer level. In this case a fix
 123:../Drivers/STM32N6xx_HAL_Driver/Src/stm32n6xx_hal_dma.c ****               configured by User depending on his application.
 124:../Drivers/STM32N6xx_HAL_Driver/Src/stm32n6xx_hal_dma.c ****               Transfer level can be :
 125:../Drivers/STM32N6xx_HAL_Driver/Src/stm32n6xx_hal_dma.c ****               (++) HAL_DMA_HALF_TRANSFER
 126:../Drivers/STM32N6xx_HAL_Driver/Src/stm32n6xx_hal_dma.c ****               (++) HAL_DMA_FULL_TRANSFER
 127:../Drivers/STM32N6xx_HAL_Driver/Src/stm32n6xx_hal_dma.c ****               For circular transfer, this API returns an HAL_ERROR with HAL_DMA_ERROR_NOT_SUPPORTED
 128:../Drivers/STM32N6xx_HAL_Driver/Src/stm32n6xx_hal_dma.c **** 
 129:../Drivers/STM32N6xx_HAL_Driver/Src/stm32n6xx_hal_dma.c ****           (+) Use HAL_DMA_Abort() function to abort any ongoing DMA transfer in blocking mode.
 130:../Drivers/STM32N6xx_HAL_Driver/Src/stm32n6xx_hal_dma.c ****               This API returns HAL_ERROR when there is no ongoing transfer or timeout is reached wh
 131:../Drivers/STM32N6xx_HAL_Driver/Src/stm32n6xx_hal_dma.c ****               channel. (This API should not be called from an interrupt service routine)
 132:../Drivers/STM32N6xx_HAL_Driver/Src/stm32n6xx_hal_dma.c **** 
 133:../Drivers/STM32N6xx_HAL_Driver/Src/stm32n6xx_hal_dma.c **** 
 134:../Drivers/STM32N6xx_HAL_Driver/Src/stm32n6xx_hal_dma.c ****     *** Interrupt mode IO operation ***
 135:../Drivers/STM32N6xx_HAL_Driver/Src/stm32n6xx_hal_dma.c ****     ===================================
 136:../Drivers/STM32N6xx_HAL_Driver/Src/stm32n6xx_hal_dma.c ****     [..]
 137:../Drivers/STM32N6xx_HAL_Driver/Src/stm32n6xx_hal_dma.c ****           (+) Configure the DMA interrupt priority using HAL_NVIC_SetPriority()
 138:../Drivers/STM32N6xx_HAL_Driver/Src/stm32n6xx_hal_dma.c **** 
 139:../Drivers/STM32N6xx_HAL_Driver/Src/stm32n6xx_hal_dma.c ****           (+) Enable the DMA IRQ handler using HAL_NVIC_EnableIRQ()
ARM GAS  /tmp/ccRTxeLm.s 			page 4


 140:../Drivers/STM32N6xx_HAL_Driver/Src/stm32n6xx_hal_dma.c **** 
 141:../Drivers/STM32N6xx_HAL_Driver/Src/stm32n6xx_hal_dma.c ****           (+) Use HAL_DMA_RegisterCallback() function to register user callbacks from the following
 142:../Drivers/STM32N6xx_HAL_Driver/Src/stm32n6xx_hal_dma.c ****               (++) XferCpltCallback     : transfer complete callback.
 143:../Drivers/STM32N6xx_HAL_Driver/Src/stm32n6xx_hal_dma.c ****               (++) XferHalfCpltCallback : half transfer complete callback.
 144:../Drivers/STM32N6xx_HAL_Driver/Src/stm32n6xx_hal_dma.c ****               (++) XferErrorCallback    : transfer error callback.
 145:../Drivers/STM32N6xx_HAL_Driver/Src/stm32n6xx_hal_dma.c ****               (++) XferAbortCallback    : transfer abort complete callback.
 146:../Drivers/STM32N6xx_HAL_Driver/Src/stm32n6xx_hal_dma.c ****               (++) XferSuspendCallback  : transfer suspend complete callback.
 147:../Drivers/STM32N6xx_HAL_Driver/Src/stm32n6xx_hal_dma.c **** 
 148:../Drivers/STM32N6xx_HAL_Driver/Src/stm32n6xx_hal_dma.c ****           (+) Use HAL_DMA_Start_IT() to start the DMA transfer after the enable of DMA interrupts a
 149:../Drivers/STM32N6xx_HAL_Driver/Src/stm32n6xx_hal_dma.c ****               of source address,destination address and the size of data to be transferred.
 150:../Drivers/STM32N6xx_HAL_Driver/Src/stm32n6xx_hal_dma.c **** 
 151:../Drivers/STM32N6xx_HAL_Driver/Src/stm32n6xx_hal_dma.c ****           (+) Use HAL_DMA_IRQHandler() called under DMA_IRQHandler() interrupt subroutine to handle
 152:../Drivers/STM32N6xx_HAL_Driver/Src/stm32n6xx_hal_dma.c **** 
 153:../Drivers/STM32N6xx_HAL_Driver/Src/stm32n6xx_hal_dma.c ****           (+) Use HAL_DMA_Abort_IT() function to abort any on-going DMA transfer in non-blocking mo
 154:../Drivers/STM32N6xx_HAL_Driver/Src/stm32n6xx_hal_dma.c ****               This API will suspend immediately the DMA channel execution. When the transfer is eff
 155:../Drivers/STM32N6xx_HAL_Driver/Src/stm32n6xx_hal_dma.c ****               an interrupt is generated and HAL_DMA_IRQHandler() will reset the channel and execute
 156:../Drivers/STM32N6xx_HAL_Driver/Src/stm32n6xx_hal_dma.c ****               XferAbortCallback. (This API could be called from an interrupt service routine)
 157:../Drivers/STM32N6xx_HAL_Driver/Src/stm32n6xx_hal_dma.c **** 
 158:../Drivers/STM32N6xx_HAL_Driver/Src/stm32n6xx_hal_dma.c **** 
 159:../Drivers/STM32N6xx_HAL_Driver/Src/stm32n6xx_hal_dma.c ****     *** State and errors ***
 160:../Drivers/STM32N6xx_HAL_Driver/Src/stm32n6xx_hal_dma.c ****     ========================
 161:../Drivers/STM32N6xx_HAL_Driver/Src/stm32n6xx_hal_dma.c ****     [..]
 162:../Drivers/STM32N6xx_HAL_Driver/Src/stm32n6xx_hal_dma.c ****           (+) Use HAL_DMA_GetState() function to get the DMA state.
 163:../Drivers/STM32N6xx_HAL_Driver/Src/stm32n6xx_hal_dma.c ****           (+) Use HAL_DMA_GetError() function to get the DMA error code.
 164:../Drivers/STM32N6xx_HAL_Driver/Src/stm32n6xx_hal_dma.c **** 
 165:../Drivers/STM32N6xx_HAL_Driver/Src/stm32n6xx_hal_dma.c **** 
 166:../Drivers/STM32N6xx_HAL_Driver/Src/stm32n6xx_hal_dma.c ****     *** Security and privilege attributes ***
 167:../Drivers/STM32N6xx_HAL_Driver/Src/stm32n6xx_hal_dma.c ****     =========================================
 168:../Drivers/STM32N6xx_HAL_Driver/Src/stm32n6xx_hal_dma.c ****     [..]
 169:../Drivers/STM32N6xx_HAL_Driver/Src/stm32n6xx_hal_dma.c ****           (+) Use HAL_DMA_ConfigChannelAttributes() function to configure DMA channel security and 
 170:../Drivers/STM32N6xx_HAL_Driver/Src/stm32n6xx_hal_dma.c ****               (++) Security  : at channel level, at source level and at destination level.
 171:../Drivers/STM32N6xx_HAL_Driver/Src/stm32n6xx_hal_dma.c ****               (++) Privilege : at channel level.
 172:../Drivers/STM32N6xx_HAL_Driver/Src/stm32n6xx_hal_dma.c ****           (+) Use HAL_DMA_GetConfigChannelAttributes() function to get the DMA channel attributes.
 173:../Drivers/STM32N6xx_HAL_Driver/Src/stm32n6xx_hal_dma.c ****           (+) Use HAL_DMA_LockChannelAttributes() function to lock the DMA channel security and pri
 174:../Drivers/STM32N6xx_HAL_Driver/Src/stm32n6xx_hal_dma.c ****               configuration. This API can be called once after each system boot.
 175:../Drivers/STM32N6xx_HAL_Driver/Src/stm32n6xx_hal_dma.c ****               If called again, HAL_DMA_ConfigChannelAttributes() API has no effect.
 176:../Drivers/STM32N6xx_HAL_Driver/Src/stm32n6xx_hal_dma.c ****               Unlock is done either by a system boot or a by an RCC reset.
 177:../Drivers/STM32N6xx_HAL_Driver/Src/stm32n6xx_hal_dma.c ****           (+) Use HAL_DMA_GetLockChannelAttributes() function to get the attributes lock status.
 178:../Drivers/STM32N6xx_HAL_Driver/Src/stm32n6xx_hal_dma.c ****           (+) Use HAL_DMA_SetIsolationAttributes() function to configure the HPDMA channel isolatio
 179:../Drivers/STM32N6xx_HAL_Driver/Src/stm32n6xx_hal_dma.c ****           (+) Use HAL_DMA_GetIsolationAttributes() function to get the HPDMA channel isolation attr
 180:../Drivers/STM32N6xx_HAL_Driver/Src/stm32n6xx_hal_dma.c **** 
 181:../Drivers/STM32N6xx_HAL_Driver/Src/stm32n6xx_hal_dma.c ****     *** Isolation attributes ***
 182:../Drivers/STM32N6xx_HAL_Driver/Src/stm32n6xx_hal_dma.c ****     ==================================
 183:../Drivers/STM32N6xx_HAL_Driver/Src/stm32n6xx_hal_dma.c ****     It is recommended to always enable the isolation feature of the DMA (CFEN = 1) of the HPDMA cha
 184:../Drivers/STM32N6xx_HAL_Driver/Src/stm32n6xx_hal_dma.c ****     The default isolation shall be 1. i.e. the Cortex CID.
 185:../Drivers/STM32N6xx_HAL_Driver/Src/stm32n6xx_hal_dma.c ****     Indeed, should the isolation bit CFEN be equal to 0, a default isolation CID is still carried o
 186:../Drivers/STM32N6xx_HAL_Driver/Src/stm32n6xx_hal_dma.c ****     the CID generated by a channel access is zero-ed when CFEN=0, even if SCID is different from 00
 187:../Drivers/STM32N6xx_HAL_Driver/Src/stm32n6xx_hal_dma.c **** 
 188:../Drivers/STM32N6xx_HAL_Driver/Src/stm32n6xx_hal_dma.c ****     Similarly, it is recommended that all RIMU related IP (SDMMC, OTG, ETH, GPU, DMA2D, ...) to alw
 189:../Drivers/STM32N6xx_HAL_Driver/Src/stm32n6xx_hal_dma.c ****     generate (CID = 1).
 190:../Drivers/STM32N6xx_HAL_Driver/Src/stm32n6xx_hal_dma.c **** 
 191:../Drivers/STM32N6xx_HAL_Driver/Src/stm32n6xx_hal_dma.c ****     *** DMA HAL driver macros list ***
 192:../Drivers/STM32N6xx_HAL_Driver/Src/stm32n6xx_hal_dma.c ****     ==================================
 193:../Drivers/STM32N6xx_HAL_Driver/Src/stm32n6xx_hal_dma.c ****     [..]
 194:../Drivers/STM32N6xx_HAL_Driver/Src/stm32n6xx_hal_dma.c ****       Below the list of most used macros in DMA HAL driver.
 195:../Drivers/STM32N6xx_HAL_Driver/Src/stm32n6xx_hal_dma.c **** 
 196:../Drivers/STM32N6xx_HAL_Driver/Src/stm32n6xx_hal_dma.c ****           (+) __HAL_DMA_ENABLE        : Enable the specified DMA Channel.
ARM GAS  /tmp/ccRTxeLm.s 			page 5


 197:../Drivers/STM32N6xx_HAL_Driver/Src/stm32n6xx_hal_dma.c ****           (+) __HAL_DMA_DISABLE       : Disable the specified DMA Channel.
 198:../Drivers/STM32N6xx_HAL_Driver/Src/stm32n6xx_hal_dma.c ****           (+) __HAL_DMA_GET_FLAG      : Get the DMA Channel pending flags.
 199:../Drivers/STM32N6xx_HAL_Driver/Src/stm32n6xx_hal_dma.c ****           (+) __HAL_DMA_CLEAR_FLAG    : Clear the DMA Channel pending flags.
 200:../Drivers/STM32N6xx_HAL_Driver/Src/stm32n6xx_hal_dma.c ****           (+) __HAL_DMA_ENABLE_IT     : Enable the specified DMA Channel interrupts.
 201:../Drivers/STM32N6xx_HAL_Driver/Src/stm32n6xx_hal_dma.c ****           (+) __HAL_DMA_DISABLE_IT    : Disable the specified DMA Channel interrupts.
 202:../Drivers/STM32N6xx_HAL_Driver/Src/stm32n6xx_hal_dma.c ****           (+) __HAL_DMA_GET_IT_SOURCE : Check whether the specified DMA Channel interrupt has occur
 203:../Drivers/STM32N6xx_HAL_Driver/Src/stm32n6xx_hal_dma.c **** 
 204:../Drivers/STM32N6xx_HAL_Driver/Src/stm32n6xx_hal_dma.c ****     *** Valid burst length ***
 205:../Drivers/STM32N6xx_HAL_Driver/Src/stm32n6xx_hal_dma.c ****     ==================================
 206:../Drivers/STM32N6xx_HAL_Driver/Src/stm32n6xx_hal_dma.c ****     [..]
 207:../Drivers/STM32N6xx_HAL_Driver/Src/stm32n6xx_hal_dma.c ****       HPDMA allowed AXI maximum burst length
 208:../Drivers/STM32N6xx_HAL_Driver/Src/stm32n6xx_hal_dma.c ****     (+) The maximum allowed AXI burst length shall not exceed 16.
 209:../Drivers/STM32N6xx_HAL_Driver/Src/stm32n6xx_hal_dma.c ****             (++) If either selected source or destination length is above 16, HAL_DMA_Init will ret
 210:../Drivers/STM32N6xx_HAL_Driver/Src/stm32n6xx_hal_dma.c **** 
 211:../Drivers/STM32N6xx_HAL_Driver/Src/stm32n6xx_hal_dma.c ****     [..]
 212:../Drivers/STM32N6xx_HAL_Driver/Src/stm32n6xx_hal_dma.c ****      (@) You can refer to the header file of the DMA HAL driver for more useful macros.
 213:../Drivers/STM32N6xx_HAL_Driver/Src/stm32n6xx_hal_dma.c **** 
 214:../Drivers/STM32N6xx_HAL_Driver/Src/stm32n6xx_hal_dma.c ****     @endverbatim
 215:../Drivers/STM32N6xx_HAL_Driver/Src/stm32n6xx_hal_dma.c ****   *************************************************************************************************
 216:../Drivers/STM32N6xx_HAL_Driver/Src/stm32n6xx_hal_dma.c ****   */
 217:../Drivers/STM32N6xx_HAL_Driver/Src/stm32n6xx_hal_dma.c **** 
 218:../Drivers/STM32N6xx_HAL_Driver/Src/stm32n6xx_hal_dma.c **** /* Includes ---------------------------------------------------------------------------------------
 219:../Drivers/STM32N6xx_HAL_Driver/Src/stm32n6xx_hal_dma.c **** #include "stm32n6xx_hal.h"
 220:../Drivers/STM32N6xx_HAL_Driver/Src/stm32n6xx_hal_dma.c **** 
 221:../Drivers/STM32N6xx_HAL_Driver/Src/stm32n6xx_hal_dma.c **** /** @addtogroup STM32N6xx_HAL_Driver
 222:../Drivers/STM32N6xx_HAL_Driver/Src/stm32n6xx_hal_dma.c ****   * @{
 223:../Drivers/STM32N6xx_HAL_Driver/Src/stm32n6xx_hal_dma.c ****   */
 224:../Drivers/STM32N6xx_HAL_Driver/Src/stm32n6xx_hal_dma.c **** 
 225:../Drivers/STM32N6xx_HAL_Driver/Src/stm32n6xx_hal_dma.c **** /** @defgroup DMA DMA
 226:../Drivers/STM32N6xx_HAL_Driver/Src/stm32n6xx_hal_dma.c ****   * @brief DMA HAL module driver
 227:../Drivers/STM32N6xx_HAL_Driver/Src/stm32n6xx_hal_dma.c ****   * @{
 228:../Drivers/STM32N6xx_HAL_Driver/Src/stm32n6xx_hal_dma.c ****   */
 229:../Drivers/STM32N6xx_HAL_Driver/Src/stm32n6xx_hal_dma.c **** 
 230:../Drivers/STM32N6xx_HAL_Driver/Src/stm32n6xx_hal_dma.c **** #ifdef HAL_DMA_MODULE_ENABLED
 231:../Drivers/STM32N6xx_HAL_Driver/Src/stm32n6xx_hal_dma.c **** 
 232:../Drivers/STM32N6xx_HAL_Driver/Src/stm32n6xx_hal_dma.c **** /* Private typedef --------------------------------------------------------------------------------
 233:../Drivers/STM32N6xx_HAL_Driver/Src/stm32n6xx_hal_dma.c **** /* Private constants ------------------------------------------------------------------------------
 234:../Drivers/STM32N6xx_HAL_Driver/Src/stm32n6xx_hal_dma.c **** /* Private macro ----------------------------------------------------------------------------------
 235:../Drivers/STM32N6xx_HAL_Driver/Src/stm32n6xx_hal_dma.c **** /* Private variables ------------------------------------------------------------------------------
 236:../Drivers/STM32N6xx_HAL_Driver/Src/stm32n6xx_hal_dma.c **** /* Private function prototypes --------------------------------------------------------------------
 237:../Drivers/STM32N6xx_HAL_Driver/Src/stm32n6xx_hal_dma.c **** static void DMA_SetConfig(DMA_HandleTypeDef const *const hdma,
 238:../Drivers/STM32N6xx_HAL_Driver/Src/stm32n6xx_hal_dma.c ****                           uint32_t SrcAddress,
 239:../Drivers/STM32N6xx_HAL_Driver/Src/stm32n6xx_hal_dma.c ****                           uint32_t DstAddress,
 240:../Drivers/STM32N6xx_HAL_Driver/Src/stm32n6xx_hal_dma.c ****                           uint32_t SrcDataSize);
 241:../Drivers/STM32N6xx_HAL_Driver/Src/stm32n6xx_hal_dma.c **** static void DMA_Init(DMA_HandleTypeDef const *const hdma);
 242:../Drivers/STM32N6xx_HAL_Driver/Src/stm32n6xx_hal_dma.c **** 
 243:../Drivers/STM32N6xx_HAL_Driver/Src/stm32n6xx_hal_dma.c **** /* Exported functions -----------------------------------------------------------------------------
 244:../Drivers/STM32N6xx_HAL_Driver/Src/stm32n6xx_hal_dma.c **** 
 245:../Drivers/STM32N6xx_HAL_Driver/Src/stm32n6xx_hal_dma.c **** /** @addtogroup DMA_Exported_Functions DMA Exported Functions
 246:../Drivers/STM32N6xx_HAL_Driver/Src/stm32n6xx_hal_dma.c ****   * @{
 247:../Drivers/STM32N6xx_HAL_Driver/Src/stm32n6xx_hal_dma.c ****   */
 248:../Drivers/STM32N6xx_HAL_Driver/Src/stm32n6xx_hal_dma.c **** 
 249:../Drivers/STM32N6xx_HAL_Driver/Src/stm32n6xx_hal_dma.c **** /** @addtogroup DMA_Exported_Functions_Group1
 250:../Drivers/STM32N6xx_HAL_Driver/Src/stm32n6xx_hal_dma.c ****   *
 251:../Drivers/STM32N6xx_HAL_Driver/Src/stm32n6xx_hal_dma.c **** @verbatim
 252:../Drivers/STM32N6xx_HAL_Driver/Src/stm32n6xx_hal_dma.c ****   =================================================================================================
 253:../Drivers/STM32N6xx_HAL_Driver/Src/stm32n6xx_hal_dma.c ****                        ##### Initialization and de-initialization functions #####
ARM GAS  /tmp/ccRTxeLm.s 			page 6


 254:../Drivers/STM32N6xx_HAL_Driver/Src/stm32n6xx_hal_dma.c ****   =================================================================================================
 255:../Drivers/STM32N6xx_HAL_Driver/Src/stm32n6xx_hal_dma.c ****     [..]
 256:../Drivers/STM32N6xx_HAL_Driver/Src/stm32n6xx_hal_dma.c ****       This section provides functions allowing to initialize and de-initialize the DMA channel in n
 257:../Drivers/STM32N6xx_HAL_Driver/Src/stm32n6xx_hal_dma.c **** 
 258:../Drivers/STM32N6xx_HAL_Driver/Src/stm32n6xx_hal_dma.c ****     [..]
 259:../Drivers/STM32N6xx_HAL_Driver/Src/stm32n6xx_hal_dma.c ****       (+) The HAL_DMA_Init() function follows the DMA channel configuration procedures as described
 260:../Drivers/STM32N6xx_HAL_Driver/Src/stm32n6xx_hal_dma.c ****       (+) The HAL_DMA_DeInit() function allows to de-initialize the DMA channel.
 261:../Drivers/STM32N6xx_HAL_Driver/Src/stm32n6xx_hal_dma.c **** 
 262:../Drivers/STM32N6xx_HAL_Driver/Src/stm32n6xx_hal_dma.c **** @endverbatim
 263:../Drivers/STM32N6xx_HAL_Driver/Src/stm32n6xx_hal_dma.c ****   * @{
 264:../Drivers/STM32N6xx_HAL_Driver/Src/stm32n6xx_hal_dma.c ****   */
 265:../Drivers/STM32N6xx_HAL_Driver/Src/stm32n6xx_hal_dma.c **** 
 266:../Drivers/STM32N6xx_HAL_Driver/Src/stm32n6xx_hal_dma.c **** /**
 267:../Drivers/STM32N6xx_HAL_Driver/Src/stm32n6xx_hal_dma.c ****   * @brief  Initialize the DMA channel in normal mode according to the specified parameters in the 
 268:../Drivers/STM32N6xx_HAL_Driver/Src/stm32n6xx_hal_dma.c ****   *         create the associated handle.
 269:../Drivers/STM32N6xx_HAL_Driver/Src/stm32n6xx_hal_dma.c ****   * @note   Warning: the maximum allowed AXI burst length shall not exceed 16.
 270:../Drivers/STM32N6xx_HAL_Driver/Src/stm32n6xx_hal_dma.c ****   *         Otherwise, an error will be returned and no initialization performed.
 271:../Drivers/STM32N6xx_HAL_Driver/Src/stm32n6xx_hal_dma.c ****   * @param  hdma : Pointer to a DMA_HandleTypeDef structure that contains the configuration informa
 272:../Drivers/STM32N6xx_HAL_Driver/Src/stm32n6xx_hal_dma.c ****   *                specified DMA Channel.
 273:../Drivers/STM32N6xx_HAL_Driver/Src/stm32n6xx_hal_dma.c ****   * @retval HAL status.
 274:../Drivers/STM32N6xx_HAL_Driver/Src/stm32n6xx_hal_dma.c ****   */
 275:../Drivers/STM32N6xx_HAL_Driver/Src/stm32n6xx_hal_dma.c **** HAL_StatusTypeDef HAL_DMA_Init(DMA_HandleTypeDef *const hdma)
 276:../Drivers/STM32N6xx_HAL_Driver/Src/stm32n6xx_hal_dma.c **** {
 277:../Drivers/STM32N6xx_HAL_Driver/Src/stm32n6xx_hal_dma.c ****   /* Get tick number */
 278:../Drivers/STM32N6xx_HAL_Driver/Src/stm32n6xx_hal_dma.c ****   uint32_t tickstart = HAL_GetTick();
 279:../Drivers/STM32N6xx_HAL_Driver/Src/stm32n6xx_hal_dma.c **** 
 280:../Drivers/STM32N6xx_HAL_Driver/Src/stm32n6xx_hal_dma.c ****   /* Check the DMA peripheral handle parameter */
 281:../Drivers/STM32N6xx_HAL_Driver/Src/stm32n6xx_hal_dma.c ****   if (hdma == NULL)
 282:../Drivers/STM32N6xx_HAL_Driver/Src/stm32n6xx_hal_dma.c ****   {
 283:../Drivers/STM32N6xx_HAL_Driver/Src/stm32n6xx_hal_dma.c ****     return HAL_ERROR;
 284:../Drivers/STM32N6xx_HAL_Driver/Src/stm32n6xx_hal_dma.c ****   }
 285:../Drivers/STM32N6xx_HAL_Driver/Src/stm32n6xx_hal_dma.c **** 
 286:../Drivers/STM32N6xx_HAL_Driver/Src/stm32n6xx_hal_dma.c ****   /* Check the parameters */
 287:../Drivers/STM32N6xx_HAL_Driver/Src/stm32n6xx_hal_dma.c ****   assert_param(IS_DMA_ALL_INSTANCE(hdma->Instance));
 288:../Drivers/STM32N6xx_HAL_Driver/Src/stm32n6xx_hal_dma.c ****   assert_param(IS_DMA_DIRECTION(hdma->Init.Direction));
 289:../Drivers/STM32N6xx_HAL_Driver/Src/stm32n6xx_hal_dma.c ****   if (hdma->Init.Direction != DMA_MEMORY_TO_MEMORY)
 290:../Drivers/STM32N6xx_HAL_Driver/Src/stm32n6xx_hal_dma.c ****   {
 291:../Drivers/STM32N6xx_HAL_Driver/Src/stm32n6xx_hal_dma.c ****     assert_param(IS_DMA_REQUEST(hdma->Init.Request));
 292:../Drivers/STM32N6xx_HAL_Driver/Src/stm32n6xx_hal_dma.c ****   }
 293:../Drivers/STM32N6xx_HAL_Driver/Src/stm32n6xx_hal_dma.c ****   assert_param(IS_DMA_BLOCK_HW_REQUEST(hdma->Init.BlkHWRequest));
 294:../Drivers/STM32N6xx_HAL_Driver/Src/stm32n6xx_hal_dma.c ****   assert_param(IS_DMA_SOURCE_INC(hdma->Init.SrcInc));
 295:../Drivers/STM32N6xx_HAL_Driver/Src/stm32n6xx_hal_dma.c ****   assert_param(IS_DMA_DESTINATION_INC(hdma->Init.DestInc));
 296:../Drivers/STM32N6xx_HAL_Driver/Src/stm32n6xx_hal_dma.c ****   assert_param(IS_DMA_SOURCE_DATA_WIDTH(hdma->Init.SrcDataWidth));
 297:../Drivers/STM32N6xx_HAL_Driver/Src/stm32n6xx_hal_dma.c ****   assert_param(IS_DMA_DESTINATION_DATA_WIDTH(hdma->Init.DestDataWidth));
 298:../Drivers/STM32N6xx_HAL_Driver/Src/stm32n6xx_hal_dma.c ****   assert_param(IS_DMA_PRIORITY(hdma->Init.Priority));
 299:../Drivers/STM32N6xx_HAL_Driver/Src/stm32n6xx_hal_dma.c ****   assert_param(IS_DMA_TCEM_EVENT_MODE(hdma->Init.TransferEventMode));
 300:../Drivers/STM32N6xx_HAL_Driver/Src/stm32n6xx_hal_dma.c ****   assert_param(IS_DMA_MODE(hdma->Init.Mode));
 301:../Drivers/STM32N6xx_HAL_Driver/Src/stm32n6xx_hal_dma.c ****   if (hdma->Init.Mode == DMA_PFCTRL)
 302:../Drivers/STM32N6xx_HAL_Driver/Src/stm32n6xx_hal_dma.c ****   {
 303:../Drivers/STM32N6xx_HAL_Driver/Src/stm32n6xx_hal_dma.c ****     assert_param(IS_DMA_PFREQ_INSTANCE(hdma->Instance));
 304:../Drivers/STM32N6xx_HAL_Driver/Src/stm32n6xx_hal_dma.c ****   }
 305:../Drivers/STM32N6xx_HAL_Driver/Src/stm32n6xx_hal_dma.c ****   /* Check DMA channel instance */
 306:../Drivers/STM32N6xx_HAL_Driver/Src/stm32n6xx_hal_dma.c ****   if ((IS_HPDMA_INSTANCE(hdma->Instance) != 0U) || (IS_GPDMA_INSTANCE(hdma->Instance) != 0U))
 307:../Drivers/STM32N6xx_HAL_Driver/Src/stm32n6xx_hal_dma.c ****   {
 308:../Drivers/STM32N6xx_HAL_Driver/Src/stm32n6xx_hal_dma.c ****     assert_param(IS_DMA_BURST_LENGTH(hdma->Init.SrcBurstLength));
 309:../Drivers/STM32N6xx_HAL_Driver/Src/stm32n6xx_hal_dma.c ****     assert_param(IS_DMA_BURST_LENGTH(hdma->Init.DestBurstLength));
 310:../Drivers/STM32N6xx_HAL_Driver/Src/stm32n6xx_hal_dma.c ****     assert_param(IS_DMA_TRANSFER_ALLOCATED_PORT(hdma->Init.TransferAllocatedPort));
ARM GAS  /tmp/ccRTxeLm.s 			page 7


 311:../Drivers/STM32N6xx_HAL_Driver/Src/stm32n6xx_hal_dma.c ****   }
 312:../Drivers/STM32N6xx_HAL_Driver/Src/stm32n6xx_hal_dma.c **** 
 313:../Drivers/STM32N6xx_HAL_Driver/Src/stm32n6xx_hal_dma.c ****   /* Check if the burst length may face DMA AXI limitation */
 314:../Drivers/STM32N6xx_HAL_Driver/Src/stm32n6xx_hal_dma.c ****   if (IS_HPDMA_INSTANCE(hdma->Instance) != 0U)
 315:../Drivers/STM32N6xx_HAL_Driver/Src/stm32n6xx_hal_dma.c ****   {
 316:../Drivers/STM32N6xx_HAL_Driver/Src/stm32n6xx_hal_dma.c ****     if (((hdma->Init.TransferAllocatedPort & DMA_CTR1_SAP) == DMA_SRC_ALLOCATED_PORT0) &&
 317:../Drivers/STM32N6xx_HAL_Driver/Src/stm32n6xx_hal_dma.c ****         (hdma->Init.SrcBurstLength > 16U))
 318:../Drivers/STM32N6xx_HAL_Driver/Src/stm32n6xx_hal_dma.c ****     {
 319:../Drivers/STM32N6xx_HAL_Driver/Src/stm32n6xx_hal_dma.c ****       return HAL_ERROR;
 320:../Drivers/STM32N6xx_HAL_Driver/Src/stm32n6xx_hal_dma.c ****     }
 321:../Drivers/STM32N6xx_HAL_Driver/Src/stm32n6xx_hal_dma.c ****     if (((hdma->Init.TransferAllocatedPort & DMA_CTR1_DAP) == DMA_DEST_ALLOCATED_PORT0) &&
 322:../Drivers/STM32N6xx_HAL_Driver/Src/stm32n6xx_hal_dma.c ****         (hdma->Init.DestBurstLength > 16U))
 323:../Drivers/STM32N6xx_HAL_Driver/Src/stm32n6xx_hal_dma.c ****     {
 324:../Drivers/STM32N6xx_HAL_Driver/Src/stm32n6xx_hal_dma.c ****       return HAL_ERROR;
 325:../Drivers/STM32N6xx_HAL_Driver/Src/stm32n6xx_hal_dma.c ****     }
 326:../Drivers/STM32N6xx_HAL_Driver/Src/stm32n6xx_hal_dma.c ****   }
 327:../Drivers/STM32N6xx_HAL_Driver/Src/stm32n6xx_hal_dma.c **** 
 328:../Drivers/STM32N6xx_HAL_Driver/Src/stm32n6xx_hal_dma.c ****   /* Allocate lock resource */
 329:../Drivers/STM32N6xx_HAL_Driver/Src/stm32n6xx_hal_dma.c ****   __HAL_UNLOCK(hdma);
 330:../Drivers/STM32N6xx_HAL_Driver/Src/stm32n6xx_hal_dma.c **** 
 331:../Drivers/STM32N6xx_HAL_Driver/Src/stm32n6xx_hal_dma.c ****   /* Initialize the callbacks */
 332:../Drivers/STM32N6xx_HAL_Driver/Src/stm32n6xx_hal_dma.c ****   if (hdma->State == HAL_DMA_STATE_RESET)
 333:../Drivers/STM32N6xx_HAL_Driver/Src/stm32n6xx_hal_dma.c ****   {
 334:../Drivers/STM32N6xx_HAL_Driver/Src/stm32n6xx_hal_dma.c ****     /* Clean all callbacks */
 335:../Drivers/STM32N6xx_HAL_Driver/Src/stm32n6xx_hal_dma.c ****     hdma->XferCpltCallback     = NULL;
 336:../Drivers/STM32N6xx_HAL_Driver/Src/stm32n6xx_hal_dma.c ****     hdma->XferHalfCpltCallback = NULL;
 337:../Drivers/STM32N6xx_HAL_Driver/Src/stm32n6xx_hal_dma.c ****     hdma->XferErrorCallback    = NULL;
 338:../Drivers/STM32N6xx_HAL_Driver/Src/stm32n6xx_hal_dma.c ****     hdma->XferAbortCallback    = NULL;
 339:../Drivers/STM32N6xx_HAL_Driver/Src/stm32n6xx_hal_dma.c ****     hdma->XferSuspendCallback  = NULL;
 340:../Drivers/STM32N6xx_HAL_Driver/Src/stm32n6xx_hal_dma.c ****   }
 341:../Drivers/STM32N6xx_HAL_Driver/Src/stm32n6xx_hal_dma.c **** 
 342:../Drivers/STM32N6xx_HAL_Driver/Src/stm32n6xx_hal_dma.c ****   /* Update the DMA channel state */
 343:../Drivers/STM32N6xx_HAL_Driver/Src/stm32n6xx_hal_dma.c ****   hdma->State = HAL_DMA_STATE_BUSY;
 344:../Drivers/STM32N6xx_HAL_Driver/Src/stm32n6xx_hal_dma.c **** 
 345:../Drivers/STM32N6xx_HAL_Driver/Src/stm32n6xx_hal_dma.c ****   /* Disable the DMA channel */
 346:../Drivers/STM32N6xx_HAL_Driver/Src/stm32n6xx_hal_dma.c ****   __HAL_DMA_DISABLE(hdma);
 347:../Drivers/STM32N6xx_HAL_Driver/Src/stm32n6xx_hal_dma.c **** 
 348:../Drivers/STM32N6xx_HAL_Driver/Src/stm32n6xx_hal_dma.c ****   /* Check if the DMA channel is effectively disabled */
 349:../Drivers/STM32N6xx_HAL_Driver/Src/stm32n6xx_hal_dma.c ****   while ((hdma->Instance->CCR & DMA_CCR_EN) != 0U)
 350:../Drivers/STM32N6xx_HAL_Driver/Src/stm32n6xx_hal_dma.c ****   {
 351:../Drivers/STM32N6xx_HAL_Driver/Src/stm32n6xx_hal_dma.c ****     /* Check for the Timeout */
 352:../Drivers/STM32N6xx_HAL_Driver/Src/stm32n6xx_hal_dma.c ****     if ((HAL_GetTick() - tickstart) > HAL_TIMEOUT_DMA_ABORT)
 353:../Drivers/STM32N6xx_HAL_Driver/Src/stm32n6xx_hal_dma.c ****     {
 354:../Drivers/STM32N6xx_HAL_Driver/Src/stm32n6xx_hal_dma.c ****       /* Update the DMA channel error code */
 355:../Drivers/STM32N6xx_HAL_Driver/Src/stm32n6xx_hal_dma.c ****       hdma->ErrorCode = HAL_DMA_ERROR_TIMEOUT;
 356:../Drivers/STM32N6xx_HAL_Driver/Src/stm32n6xx_hal_dma.c **** 
 357:../Drivers/STM32N6xx_HAL_Driver/Src/stm32n6xx_hal_dma.c ****       /* Update the DMA channel state */
 358:../Drivers/STM32N6xx_HAL_Driver/Src/stm32n6xx_hal_dma.c ****       hdma->State = HAL_DMA_STATE_ERROR;
 359:../Drivers/STM32N6xx_HAL_Driver/Src/stm32n6xx_hal_dma.c **** 
 360:../Drivers/STM32N6xx_HAL_Driver/Src/stm32n6xx_hal_dma.c ****       return HAL_ERROR;
 361:../Drivers/STM32N6xx_HAL_Driver/Src/stm32n6xx_hal_dma.c ****     }
 362:../Drivers/STM32N6xx_HAL_Driver/Src/stm32n6xx_hal_dma.c ****   }
 363:../Drivers/STM32N6xx_HAL_Driver/Src/stm32n6xx_hal_dma.c **** 
 364:../Drivers/STM32N6xx_HAL_Driver/Src/stm32n6xx_hal_dma.c ****   /* Initialize the DMA channel registers */
 365:../Drivers/STM32N6xx_HAL_Driver/Src/stm32n6xx_hal_dma.c ****   DMA_Init(hdma);
 366:../Drivers/STM32N6xx_HAL_Driver/Src/stm32n6xx_hal_dma.c **** 
 367:../Drivers/STM32N6xx_HAL_Driver/Src/stm32n6xx_hal_dma.c ****   /* Update DMA channel operation mode */
ARM GAS  /tmp/ccRTxeLm.s 			page 8


 368:../Drivers/STM32N6xx_HAL_Driver/Src/stm32n6xx_hal_dma.c ****   hdma->Mode = hdma->Init.Mode;
 369:../Drivers/STM32N6xx_HAL_Driver/Src/stm32n6xx_hal_dma.c **** 
 370:../Drivers/STM32N6xx_HAL_Driver/Src/stm32n6xx_hal_dma.c ****   /* Update the DMA channel error code */
 371:../Drivers/STM32N6xx_HAL_Driver/Src/stm32n6xx_hal_dma.c ****   hdma->ErrorCode = HAL_DMA_ERROR_NONE;
 372:../Drivers/STM32N6xx_HAL_Driver/Src/stm32n6xx_hal_dma.c **** 
 373:../Drivers/STM32N6xx_HAL_Driver/Src/stm32n6xx_hal_dma.c ****   /* Update the DMA channel state */
 374:../Drivers/STM32N6xx_HAL_Driver/Src/stm32n6xx_hal_dma.c ****   hdma->State = HAL_DMA_STATE_READY;
 375:../Drivers/STM32N6xx_HAL_Driver/Src/stm32n6xx_hal_dma.c **** 
 376:../Drivers/STM32N6xx_HAL_Driver/Src/stm32n6xx_hal_dma.c ****   return HAL_OK;
 377:../Drivers/STM32N6xx_HAL_Driver/Src/stm32n6xx_hal_dma.c **** }
 378:../Drivers/STM32N6xx_HAL_Driver/Src/stm32n6xx_hal_dma.c **** 
 379:../Drivers/STM32N6xx_HAL_Driver/Src/stm32n6xx_hal_dma.c **** /**
 380:../Drivers/STM32N6xx_HAL_Driver/Src/stm32n6xx_hal_dma.c ****   * @brief  DeInitialize the DMA channel when it is configured in normal mode.
 381:../Drivers/STM32N6xx_HAL_Driver/Src/stm32n6xx_hal_dma.c ****   * @param  hdma : Pointer to a DMA_HandleTypeDef structure that contains the configuration informa
 382:../Drivers/STM32N6xx_HAL_Driver/Src/stm32n6xx_hal_dma.c ****   *                specified DMA Channel.
 383:../Drivers/STM32N6xx_HAL_Driver/Src/stm32n6xx_hal_dma.c ****   * @retval HAL status.
 384:../Drivers/STM32N6xx_HAL_Driver/Src/stm32n6xx_hal_dma.c ****   */
 385:../Drivers/STM32N6xx_HAL_Driver/Src/stm32n6xx_hal_dma.c **** HAL_StatusTypeDef HAL_DMA_DeInit(DMA_HandleTypeDef *const hdma)
 386:../Drivers/STM32N6xx_HAL_Driver/Src/stm32n6xx_hal_dma.c **** {
 387:../Drivers/STM32N6xx_HAL_Driver/Src/stm32n6xx_hal_dma.c ****   uint32_t tickstart = HAL_GetTick();
 388:../Drivers/STM32N6xx_HAL_Driver/Src/stm32n6xx_hal_dma.c **** 
 389:../Drivers/STM32N6xx_HAL_Driver/Src/stm32n6xx_hal_dma.c ****   /* Check the DMA peripheral handle parameter */
 390:../Drivers/STM32N6xx_HAL_Driver/Src/stm32n6xx_hal_dma.c ****   if (hdma == NULL)
 391:../Drivers/STM32N6xx_HAL_Driver/Src/stm32n6xx_hal_dma.c ****   {
 392:../Drivers/STM32N6xx_HAL_Driver/Src/stm32n6xx_hal_dma.c ****     return HAL_ERROR;
 393:../Drivers/STM32N6xx_HAL_Driver/Src/stm32n6xx_hal_dma.c ****   }
 394:../Drivers/STM32N6xx_HAL_Driver/Src/stm32n6xx_hal_dma.c **** 
 395:../Drivers/STM32N6xx_HAL_Driver/Src/stm32n6xx_hal_dma.c ****   /* Check the parameters */
 396:../Drivers/STM32N6xx_HAL_Driver/Src/stm32n6xx_hal_dma.c ****   assert_param(IS_DMA_ALL_INSTANCE(hdma->Instance));
 397:../Drivers/STM32N6xx_HAL_Driver/Src/stm32n6xx_hal_dma.c ****   /* Disable the selected DMA Channel */
 398:../Drivers/STM32N6xx_HAL_Driver/Src/stm32n6xx_hal_dma.c ****   __HAL_DMA_DISABLE(hdma);
 399:../Drivers/STM32N6xx_HAL_Driver/Src/stm32n6xx_hal_dma.c **** 
 400:../Drivers/STM32N6xx_HAL_Driver/Src/stm32n6xx_hal_dma.c ****   /* Check if the DMA channel is effectively disabled */
 401:../Drivers/STM32N6xx_HAL_Driver/Src/stm32n6xx_hal_dma.c ****   while ((hdma->Instance->CCR & DMA_CCR_EN) != 0U)
 402:../Drivers/STM32N6xx_HAL_Driver/Src/stm32n6xx_hal_dma.c ****   {
 403:../Drivers/STM32N6xx_HAL_Driver/Src/stm32n6xx_hal_dma.c ****     /* Check for the Timeout */
 404:../Drivers/STM32N6xx_HAL_Driver/Src/stm32n6xx_hal_dma.c ****     if ((HAL_GetTick() - tickstart) > HAL_TIMEOUT_DMA_ABORT)
 405:../Drivers/STM32N6xx_HAL_Driver/Src/stm32n6xx_hal_dma.c ****     {
 406:../Drivers/STM32N6xx_HAL_Driver/Src/stm32n6xx_hal_dma.c ****       /* Update the DMA channel error code */
 407:../Drivers/STM32N6xx_HAL_Driver/Src/stm32n6xx_hal_dma.c ****       hdma->ErrorCode = HAL_DMA_ERROR_TIMEOUT;
 408:../Drivers/STM32N6xx_HAL_Driver/Src/stm32n6xx_hal_dma.c **** 
 409:../Drivers/STM32N6xx_HAL_Driver/Src/stm32n6xx_hal_dma.c ****       /* Update the DMA channel state */
 410:../Drivers/STM32N6xx_HAL_Driver/Src/stm32n6xx_hal_dma.c ****       hdma->State = HAL_DMA_STATE_ERROR;
 411:../Drivers/STM32N6xx_HAL_Driver/Src/stm32n6xx_hal_dma.c **** 
 412:../Drivers/STM32N6xx_HAL_Driver/Src/stm32n6xx_hal_dma.c ****       return HAL_ERROR;
 413:../Drivers/STM32N6xx_HAL_Driver/Src/stm32n6xx_hal_dma.c ****     }
 414:../Drivers/STM32N6xx_HAL_Driver/Src/stm32n6xx_hal_dma.c ****   }
 415:../Drivers/STM32N6xx_HAL_Driver/Src/stm32n6xx_hal_dma.c **** 
 416:../Drivers/STM32N6xx_HAL_Driver/Src/stm32n6xx_hal_dma.c ****   /* Reset DMA Channel registers */
 417:../Drivers/STM32N6xx_HAL_Driver/Src/stm32n6xx_hal_dma.c ****   hdma->Instance->CLBAR = 0U;
 418:../Drivers/STM32N6xx_HAL_Driver/Src/stm32n6xx_hal_dma.c ****   hdma->Instance->CCR   = 0U;
 419:../Drivers/STM32N6xx_HAL_Driver/Src/stm32n6xx_hal_dma.c ****   /* As secure, privilege and CID configuration, bit field DSEC and SSEC are managed in   */
 420:../Drivers/STM32N6xx_HAL_Driver/Src/stm32n6xx_hal_dma.c ****   /* HAL_DMA_ConfigChannelAttributes function, so it mustn't be cleaned in HAL_DMA_DeInit */
 421:../Drivers/STM32N6xx_HAL_Driver/Src/stm32n6xx_hal_dma.c ****   hdma->Instance->CTR1  = hdma->Instance->CTR1 & (0U | DMA_CTR1_DSEC | DMA_CTR1_SSEC);
 422:../Drivers/STM32N6xx_HAL_Driver/Src/stm32n6xx_hal_dma.c ****   hdma->Instance->CTR2  = 0U;
 423:../Drivers/STM32N6xx_HAL_Driver/Src/stm32n6xx_hal_dma.c ****   hdma->Instance->CBR1  = 0U;
 424:../Drivers/STM32N6xx_HAL_Driver/Src/stm32n6xx_hal_dma.c ****   hdma->Instance->CSAR  = 0U;
ARM GAS  /tmp/ccRTxeLm.s 			page 9


 425:../Drivers/STM32N6xx_HAL_Driver/Src/stm32n6xx_hal_dma.c ****   hdma->Instance->CDAR  = 0U;
 426:../Drivers/STM32N6xx_HAL_Driver/Src/stm32n6xx_hal_dma.c ****   hdma->Instance->CLLR  = 0U;
 427:../Drivers/STM32N6xx_HAL_Driver/Src/stm32n6xx_hal_dma.c **** 
 428:../Drivers/STM32N6xx_HAL_Driver/Src/stm32n6xx_hal_dma.c ****   /* Reset 2D Addressing registers */
 429:../Drivers/STM32N6xx_HAL_Driver/Src/stm32n6xx_hal_dma.c ****   if (IS_DMA_2D_ADDRESSING_INSTANCE(hdma->Instance) != 0U)
 430:../Drivers/STM32N6xx_HAL_Driver/Src/stm32n6xx_hal_dma.c ****   {
 431:../Drivers/STM32N6xx_HAL_Driver/Src/stm32n6xx_hal_dma.c ****     hdma->Instance->CTR3 = 0U;
 432:../Drivers/STM32N6xx_HAL_Driver/Src/stm32n6xx_hal_dma.c ****     hdma->Instance->CBR2 = 0U;
 433:../Drivers/STM32N6xx_HAL_Driver/Src/stm32n6xx_hal_dma.c ****   }
 434:../Drivers/STM32N6xx_HAL_Driver/Src/stm32n6xx_hal_dma.c **** 
 435:../Drivers/STM32N6xx_HAL_Driver/Src/stm32n6xx_hal_dma.c ****   /* Clear all flags */
 436:../Drivers/STM32N6xx_HAL_Driver/Src/stm32n6xx_hal_dma.c ****   __HAL_DMA_CLEAR_FLAG(hdma, (DMA_FLAG_TC | DMA_FLAG_HT | DMA_FLAG_DTE | DMA_FLAG_ULE | DMA_FLAG_US
 437:../Drivers/STM32N6xx_HAL_Driver/Src/stm32n6xx_hal_dma.c ****                               DMA_FLAG_TO));
 438:../Drivers/STM32N6xx_HAL_Driver/Src/stm32n6xx_hal_dma.c **** 
 439:../Drivers/STM32N6xx_HAL_Driver/Src/stm32n6xx_hal_dma.c ****   /* Clean all callbacks */
 440:../Drivers/STM32N6xx_HAL_Driver/Src/stm32n6xx_hal_dma.c ****   hdma->XferCpltCallback     = NULL;
 441:../Drivers/STM32N6xx_HAL_Driver/Src/stm32n6xx_hal_dma.c ****   hdma->XferHalfCpltCallback = NULL;
 442:../Drivers/STM32N6xx_HAL_Driver/Src/stm32n6xx_hal_dma.c ****   hdma->XferErrorCallback    = NULL;
 443:../Drivers/STM32N6xx_HAL_Driver/Src/stm32n6xx_hal_dma.c ****   hdma->XferAbortCallback    = NULL;
 444:../Drivers/STM32N6xx_HAL_Driver/Src/stm32n6xx_hal_dma.c ****   hdma->XferSuspendCallback  = NULL;
 445:../Drivers/STM32N6xx_HAL_Driver/Src/stm32n6xx_hal_dma.c **** 
 446:../Drivers/STM32N6xx_HAL_Driver/Src/stm32n6xx_hal_dma.c ****   /* Clean DMA queue */
 447:../Drivers/STM32N6xx_HAL_Driver/Src/stm32n6xx_hal_dma.c ****   hdma->LinkedListQueue = NULL;
 448:../Drivers/STM32N6xx_HAL_Driver/Src/stm32n6xx_hal_dma.c **** 
 449:../Drivers/STM32N6xx_HAL_Driver/Src/stm32n6xx_hal_dma.c ****   /* Clean DMA parent */
 450:../Drivers/STM32N6xx_HAL_Driver/Src/stm32n6xx_hal_dma.c ****   if (hdma->Parent != NULL)
 451:../Drivers/STM32N6xx_HAL_Driver/Src/stm32n6xx_hal_dma.c ****   {
 452:../Drivers/STM32N6xx_HAL_Driver/Src/stm32n6xx_hal_dma.c ****     hdma->Parent = NULL;
 453:../Drivers/STM32N6xx_HAL_Driver/Src/stm32n6xx_hal_dma.c ****   }
 454:../Drivers/STM32N6xx_HAL_Driver/Src/stm32n6xx_hal_dma.c **** 
 455:../Drivers/STM32N6xx_HAL_Driver/Src/stm32n6xx_hal_dma.c ****   /* Update DMA channel operation mode */
 456:../Drivers/STM32N6xx_HAL_Driver/Src/stm32n6xx_hal_dma.c ****   hdma->Mode = DMA_NORMAL;
 457:../Drivers/STM32N6xx_HAL_Driver/Src/stm32n6xx_hal_dma.c **** 
 458:../Drivers/STM32N6xx_HAL_Driver/Src/stm32n6xx_hal_dma.c ****   /* Update the DMA channel error code */
 459:../Drivers/STM32N6xx_HAL_Driver/Src/stm32n6xx_hal_dma.c ****   hdma->ErrorCode = HAL_DMA_ERROR_NONE;
 460:../Drivers/STM32N6xx_HAL_Driver/Src/stm32n6xx_hal_dma.c **** 
 461:../Drivers/STM32N6xx_HAL_Driver/Src/stm32n6xx_hal_dma.c ****   /* Update the DMA channel state */
 462:../Drivers/STM32N6xx_HAL_Driver/Src/stm32n6xx_hal_dma.c ****   hdma->State = HAL_DMA_STATE_RESET;
 463:../Drivers/STM32N6xx_HAL_Driver/Src/stm32n6xx_hal_dma.c **** 
 464:../Drivers/STM32N6xx_HAL_Driver/Src/stm32n6xx_hal_dma.c ****   /* Release Lock */
 465:../Drivers/STM32N6xx_HAL_Driver/Src/stm32n6xx_hal_dma.c ****   __HAL_UNLOCK(hdma);
 466:../Drivers/STM32N6xx_HAL_Driver/Src/stm32n6xx_hal_dma.c **** 
 467:../Drivers/STM32N6xx_HAL_Driver/Src/stm32n6xx_hal_dma.c ****   return HAL_OK;
 468:../Drivers/STM32N6xx_HAL_Driver/Src/stm32n6xx_hal_dma.c **** }
 469:../Drivers/STM32N6xx_HAL_Driver/Src/stm32n6xx_hal_dma.c **** /**
 470:../Drivers/STM32N6xx_HAL_Driver/Src/stm32n6xx_hal_dma.c ****   * @}
 471:../Drivers/STM32N6xx_HAL_Driver/Src/stm32n6xx_hal_dma.c ****   */
 472:../Drivers/STM32N6xx_HAL_Driver/Src/stm32n6xx_hal_dma.c **** 
 473:../Drivers/STM32N6xx_HAL_Driver/Src/stm32n6xx_hal_dma.c **** /** @addtogroup DMA_Exported_Functions_Group2
 474:../Drivers/STM32N6xx_HAL_Driver/Src/stm32n6xx_hal_dma.c ****   *
 475:../Drivers/STM32N6xx_HAL_Driver/Src/stm32n6xx_hal_dma.c **** @verbatim
 476:../Drivers/STM32N6xx_HAL_Driver/Src/stm32n6xx_hal_dma.c ****   =================================================================================================
 477:../Drivers/STM32N6xx_HAL_Driver/Src/stm32n6xx_hal_dma.c ****                                 ##### IO operation functions #####
 478:../Drivers/STM32N6xx_HAL_Driver/Src/stm32n6xx_hal_dma.c ****   =================================================================================================
 479:../Drivers/STM32N6xx_HAL_Driver/Src/stm32n6xx_hal_dma.c ****     [..]
 480:../Drivers/STM32N6xx_HAL_Driver/Src/stm32n6xx_hal_dma.c ****       This section provides functions allowing to :
 481:../Drivers/STM32N6xx_HAL_Driver/Src/stm32n6xx_hal_dma.c ****       (+) Configure the source, destination address and data size and Start DMA transfer in normal 
ARM GAS  /tmp/ccRTxeLm.s 			page 10


 482:../Drivers/STM32N6xx_HAL_Driver/Src/stm32n6xx_hal_dma.c ****       (+) Abort DMA transfer
 483:../Drivers/STM32N6xx_HAL_Driver/Src/stm32n6xx_hal_dma.c ****       (+) Poll for transfer complete
 484:../Drivers/STM32N6xx_HAL_Driver/Src/stm32n6xx_hal_dma.c ****       (+) Handle DMA interrupt request
 485:../Drivers/STM32N6xx_HAL_Driver/Src/stm32n6xx_hal_dma.c ****       (+) Register and Unregister DMA callbacks
 486:../Drivers/STM32N6xx_HAL_Driver/Src/stm32n6xx_hal_dma.c **** 
 487:../Drivers/STM32N6xx_HAL_Driver/Src/stm32n6xx_hal_dma.c ****     [..]
 488:../Drivers/STM32N6xx_HAL_Driver/Src/stm32n6xx_hal_dma.c ****       (+) The HAL_DMA_Start() function allows to start the DMA channel transfer in normal mode (Blo
 489:../Drivers/STM32N6xx_HAL_Driver/Src/stm32n6xx_hal_dma.c ****       (+) The HAL_DMA_Start_IT() function allows to start the DMA channel transfer in normal mode (
 490:../Drivers/STM32N6xx_HAL_Driver/Src/stm32n6xx_hal_dma.c ****       (+) The HAL_DMA_Abort() function allows to abort any on-going transfer (Blocking mode).
 491:../Drivers/STM32N6xx_HAL_Driver/Src/stm32n6xx_hal_dma.c ****       (+) The HAL_DMA_Abort_IT() function allows to abort any on-going transfer (Non-blocking mode)
 492:../Drivers/STM32N6xx_HAL_Driver/Src/stm32n6xx_hal_dma.c ****       (+) The HAL_DMA_PollForTransfer() function allows to poll on half transfer and transfer compl
 493:../Drivers/STM32N6xx_HAL_Driver/Src/stm32n6xx_hal_dma.c ****           This API cannot be used for circular transfers.
 494:../Drivers/STM32N6xx_HAL_Driver/Src/stm32n6xx_hal_dma.c ****       (+) The HAL_DMA_IRQHandler() function allows to handle any DMA channel interrupt (Non-blockin
 495:../Drivers/STM32N6xx_HAL_Driver/Src/stm32n6xx_hal_dma.c ****       (+) The HAL_DMA_RegisterCallback() and HAL_DMA_UnRegisterCallback() functions allow respectiv
 496:../Drivers/STM32N6xx_HAL_Driver/Src/stm32n6xx_hal_dma.c ****           unregister user customized callbacks.
 497:../Drivers/STM32N6xx_HAL_Driver/Src/stm32n6xx_hal_dma.c ****           User callbacks are called under HAL_DMA_IRQHandler().
 498:../Drivers/STM32N6xx_HAL_Driver/Src/stm32n6xx_hal_dma.c **** 
 499:../Drivers/STM32N6xx_HAL_Driver/Src/stm32n6xx_hal_dma.c **** @endverbatim
 500:../Drivers/STM32N6xx_HAL_Driver/Src/stm32n6xx_hal_dma.c ****   * @{
 501:../Drivers/STM32N6xx_HAL_Driver/Src/stm32n6xx_hal_dma.c ****   */
 502:../Drivers/STM32N6xx_HAL_Driver/Src/stm32n6xx_hal_dma.c **** 
 503:../Drivers/STM32N6xx_HAL_Driver/Src/stm32n6xx_hal_dma.c **** /**
 504:../Drivers/STM32N6xx_HAL_Driver/Src/stm32n6xx_hal_dma.c ****   * @brief  Start the DMA channel transfer in normal mode (Blocking mode).
 505:../Drivers/STM32N6xx_HAL_Driver/Src/stm32n6xx_hal_dma.c ****   * @param  hdma        : Pointer to a DMA_HandleTypeDef structure that contains the configuration 
 506:../Drivers/STM32N6xx_HAL_Driver/Src/stm32n6xx_hal_dma.c ****   *                       the specified DMA Channel.
 507:../Drivers/STM32N6xx_HAL_Driver/Src/stm32n6xx_hal_dma.c ****   * @param  SrcAddress  : The source data address.
 508:../Drivers/STM32N6xx_HAL_Driver/Src/stm32n6xx_hal_dma.c ****   * @param  DstAddress  : The destination data address.
 509:../Drivers/STM32N6xx_HAL_Driver/Src/stm32n6xx_hal_dma.c ****   * @param  SrcDataSize : The length of data to be transferred from source to destination in bytes.
 510:../Drivers/STM32N6xx_HAL_Driver/Src/stm32n6xx_hal_dma.c ****   * @retval HAL status.
 511:../Drivers/STM32N6xx_HAL_Driver/Src/stm32n6xx_hal_dma.c ****   */
 512:../Drivers/STM32N6xx_HAL_Driver/Src/stm32n6xx_hal_dma.c **** HAL_StatusTypeDef HAL_DMA_Start(DMA_HandleTypeDef *const hdma,
 513:../Drivers/STM32N6xx_HAL_Driver/Src/stm32n6xx_hal_dma.c ****                                 uint32_t SrcAddress,
 514:../Drivers/STM32N6xx_HAL_Driver/Src/stm32n6xx_hal_dma.c ****                                 uint32_t DstAddress,
 515:../Drivers/STM32N6xx_HAL_Driver/Src/stm32n6xx_hal_dma.c ****                                 uint32_t SrcDataSize)
 516:../Drivers/STM32N6xx_HAL_Driver/Src/stm32n6xx_hal_dma.c **** {
 517:../Drivers/STM32N6xx_HAL_Driver/Src/stm32n6xx_hal_dma.c ****   /* Check the DMA peripheral handle parameter */
 518:../Drivers/STM32N6xx_HAL_Driver/Src/stm32n6xx_hal_dma.c ****   if (hdma == NULL)
 519:../Drivers/STM32N6xx_HAL_Driver/Src/stm32n6xx_hal_dma.c ****   {
 520:../Drivers/STM32N6xx_HAL_Driver/Src/stm32n6xx_hal_dma.c ****     return HAL_ERROR;
 521:../Drivers/STM32N6xx_HAL_Driver/Src/stm32n6xx_hal_dma.c ****   }
 522:../Drivers/STM32N6xx_HAL_Driver/Src/stm32n6xx_hal_dma.c **** 
 523:../Drivers/STM32N6xx_HAL_Driver/Src/stm32n6xx_hal_dma.c ****   /* Check the parameters */
 524:../Drivers/STM32N6xx_HAL_Driver/Src/stm32n6xx_hal_dma.c ****   assert_param(IS_DMA_BLOCK_SIZE(SrcDataSize));
 525:../Drivers/STM32N6xx_HAL_Driver/Src/stm32n6xx_hal_dma.c **** 
 526:../Drivers/STM32N6xx_HAL_Driver/Src/stm32n6xx_hal_dma.c ****   /* Process locked */
 527:../Drivers/STM32N6xx_HAL_Driver/Src/stm32n6xx_hal_dma.c ****   __HAL_LOCK(hdma);
 528:../Drivers/STM32N6xx_HAL_Driver/Src/stm32n6xx_hal_dma.c **** 
 529:../Drivers/STM32N6xx_HAL_Driver/Src/stm32n6xx_hal_dma.c ****   /* Check DMA channel state */
 530:../Drivers/STM32N6xx_HAL_Driver/Src/stm32n6xx_hal_dma.c ****   if (hdma->State == HAL_DMA_STATE_READY)
 531:../Drivers/STM32N6xx_HAL_Driver/Src/stm32n6xx_hal_dma.c ****   {
 532:../Drivers/STM32N6xx_HAL_Driver/Src/stm32n6xx_hal_dma.c ****     /* Update the DMA channel state */
 533:../Drivers/STM32N6xx_HAL_Driver/Src/stm32n6xx_hal_dma.c ****     hdma->State = HAL_DMA_STATE_BUSY;
 534:../Drivers/STM32N6xx_HAL_Driver/Src/stm32n6xx_hal_dma.c **** 
 535:../Drivers/STM32N6xx_HAL_Driver/Src/stm32n6xx_hal_dma.c ****     /* Update the DMA channel error code */
 536:../Drivers/STM32N6xx_HAL_Driver/Src/stm32n6xx_hal_dma.c ****     hdma->ErrorCode = HAL_DMA_ERROR_NONE;
 537:../Drivers/STM32N6xx_HAL_Driver/Src/stm32n6xx_hal_dma.c **** 
 538:../Drivers/STM32N6xx_HAL_Driver/Src/stm32n6xx_hal_dma.c ****     /* Configure the source address, destination address, the data size and clear flags */
ARM GAS  /tmp/ccRTxeLm.s 			page 11


 539:../Drivers/STM32N6xx_HAL_Driver/Src/stm32n6xx_hal_dma.c ****     DMA_SetConfig(hdma, SrcAddress, DstAddress, SrcDataSize);
 540:../Drivers/STM32N6xx_HAL_Driver/Src/stm32n6xx_hal_dma.c **** 
 541:../Drivers/STM32N6xx_HAL_Driver/Src/stm32n6xx_hal_dma.c ****     /* Enable DMA channel */
 542:../Drivers/STM32N6xx_HAL_Driver/Src/stm32n6xx_hal_dma.c ****     __HAL_DMA_ENABLE(hdma);
 543:../Drivers/STM32N6xx_HAL_Driver/Src/stm32n6xx_hal_dma.c ****   }
 544:../Drivers/STM32N6xx_HAL_Driver/Src/stm32n6xx_hal_dma.c ****   else
 545:../Drivers/STM32N6xx_HAL_Driver/Src/stm32n6xx_hal_dma.c ****   {
 546:../Drivers/STM32N6xx_HAL_Driver/Src/stm32n6xx_hal_dma.c ****     /* Update the DMA channel error code */
 547:../Drivers/STM32N6xx_HAL_Driver/Src/stm32n6xx_hal_dma.c ****     hdma->ErrorCode = HAL_DMA_ERROR_BUSY;
 548:../Drivers/STM32N6xx_HAL_Driver/Src/stm32n6xx_hal_dma.c **** 
 549:../Drivers/STM32N6xx_HAL_Driver/Src/stm32n6xx_hal_dma.c ****     /* Process unlocked */
 550:../Drivers/STM32N6xx_HAL_Driver/Src/stm32n6xx_hal_dma.c ****     __HAL_UNLOCK(hdma);
 551:../Drivers/STM32N6xx_HAL_Driver/Src/stm32n6xx_hal_dma.c **** 
 552:../Drivers/STM32N6xx_HAL_Driver/Src/stm32n6xx_hal_dma.c ****     return HAL_ERROR;
 553:../Drivers/STM32N6xx_HAL_Driver/Src/stm32n6xx_hal_dma.c ****   }
 554:../Drivers/STM32N6xx_HAL_Driver/Src/stm32n6xx_hal_dma.c **** 
 555:../Drivers/STM32N6xx_HAL_Driver/Src/stm32n6xx_hal_dma.c ****   return HAL_OK;
 556:../Drivers/STM32N6xx_HAL_Driver/Src/stm32n6xx_hal_dma.c **** }
 557:../Drivers/STM32N6xx_HAL_Driver/Src/stm32n6xx_hal_dma.c **** 
 558:../Drivers/STM32N6xx_HAL_Driver/Src/stm32n6xx_hal_dma.c **** /**
 559:../Drivers/STM32N6xx_HAL_Driver/Src/stm32n6xx_hal_dma.c ****   * @brief  Starts the DMA channel transfer in normal mode with interrupts enabled (Non-blocking mo
 560:../Drivers/STM32N6xx_HAL_Driver/Src/stm32n6xx_hal_dma.c ****   * @param  hdma         : Pointer to a DMA_HandleTypeDef structure that contains the configuration
 561:../Drivers/STM32N6xx_HAL_Driver/Src/stm32n6xx_hal_dma.c ****   *                        specified DMA Channel.
 562:../Drivers/STM32N6xx_HAL_Driver/Src/stm32n6xx_hal_dma.c ****   * @param  SrcAddress   : The source data address.
 563:../Drivers/STM32N6xx_HAL_Driver/Src/stm32n6xx_hal_dma.c ****   * @param  DstAddress   : The destination data address.
 564:../Drivers/STM32N6xx_HAL_Driver/Src/stm32n6xx_hal_dma.c ****   * @param  SrcDataSize  : The length of data to be transferred from source to destination in bytes
 565:../Drivers/STM32N6xx_HAL_Driver/Src/stm32n6xx_hal_dma.c ****   * @retval HAL status.
 566:../Drivers/STM32N6xx_HAL_Driver/Src/stm32n6xx_hal_dma.c ****   */
 567:../Drivers/STM32N6xx_HAL_Driver/Src/stm32n6xx_hal_dma.c **** HAL_StatusTypeDef HAL_DMA_Start_IT(DMA_HandleTypeDef *const hdma,
 568:../Drivers/STM32N6xx_HAL_Driver/Src/stm32n6xx_hal_dma.c ****                                    uint32_t SrcAddress,
 569:../Drivers/STM32N6xx_HAL_Driver/Src/stm32n6xx_hal_dma.c ****                                    uint32_t DstAddress,
 570:../Drivers/STM32N6xx_HAL_Driver/Src/stm32n6xx_hal_dma.c ****                                    uint32_t SrcDataSize)
 571:../Drivers/STM32N6xx_HAL_Driver/Src/stm32n6xx_hal_dma.c **** {
 572:../Drivers/STM32N6xx_HAL_Driver/Src/stm32n6xx_hal_dma.c ****   /* Check the DMA peripheral handle parameter */
 573:../Drivers/STM32N6xx_HAL_Driver/Src/stm32n6xx_hal_dma.c ****   if (hdma == NULL)
 574:../Drivers/STM32N6xx_HAL_Driver/Src/stm32n6xx_hal_dma.c ****   {
 575:../Drivers/STM32N6xx_HAL_Driver/Src/stm32n6xx_hal_dma.c ****     return HAL_ERROR;
 576:../Drivers/STM32N6xx_HAL_Driver/Src/stm32n6xx_hal_dma.c ****   }
 577:../Drivers/STM32N6xx_HAL_Driver/Src/stm32n6xx_hal_dma.c **** 
 578:../Drivers/STM32N6xx_HAL_Driver/Src/stm32n6xx_hal_dma.c ****   /* Check the parameters */
 579:../Drivers/STM32N6xx_HAL_Driver/Src/stm32n6xx_hal_dma.c ****   assert_param(IS_DMA_BLOCK_SIZE(SrcDataSize));
 580:../Drivers/STM32N6xx_HAL_Driver/Src/stm32n6xx_hal_dma.c **** 
 581:../Drivers/STM32N6xx_HAL_Driver/Src/stm32n6xx_hal_dma.c ****   /* Process locked */
 582:../Drivers/STM32N6xx_HAL_Driver/Src/stm32n6xx_hal_dma.c ****   __HAL_LOCK(hdma);
 583:../Drivers/STM32N6xx_HAL_Driver/Src/stm32n6xx_hal_dma.c **** 
 584:../Drivers/STM32N6xx_HAL_Driver/Src/stm32n6xx_hal_dma.c ****   /* Check DMA channel state */
 585:../Drivers/STM32N6xx_HAL_Driver/Src/stm32n6xx_hal_dma.c ****   if (hdma->State == HAL_DMA_STATE_READY)
 586:../Drivers/STM32N6xx_HAL_Driver/Src/stm32n6xx_hal_dma.c ****   {
 587:../Drivers/STM32N6xx_HAL_Driver/Src/stm32n6xx_hal_dma.c ****     /* Update the DMA channel state */
 588:../Drivers/STM32N6xx_HAL_Driver/Src/stm32n6xx_hal_dma.c ****     hdma->State = HAL_DMA_STATE_BUSY;
 589:../Drivers/STM32N6xx_HAL_Driver/Src/stm32n6xx_hal_dma.c **** 
 590:../Drivers/STM32N6xx_HAL_Driver/Src/stm32n6xx_hal_dma.c ****     /* Update the DMA channel error code */
 591:../Drivers/STM32N6xx_HAL_Driver/Src/stm32n6xx_hal_dma.c ****     hdma->ErrorCode = HAL_DMA_ERROR_NONE;
 592:../Drivers/STM32N6xx_HAL_Driver/Src/stm32n6xx_hal_dma.c **** 
 593:../Drivers/STM32N6xx_HAL_Driver/Src/stm32n6xx_hal_dma.c ****     /* Configure the source address, destination address, the data size and clear flags */
 594:../Drivers/STM32N6xx_HAL_Driver/Src/stm32n6xx_hal_dma.c ****     DMA_SetConfig(hdma, SrcAddress, DstAddress, SrcDataSize);
 595:../Drivers/STM32N6xx_HAL_Driver/Src/stm32n6xx_hal_dma.c **** 
ARM GAS  /tmp/ccRTxeLm.s 			page 12


 596:../Drivers/STM32N6xx_HAL_Driver/Src/stm32n6xx_hal_dma.c ****     /* Enable common interrupts: Transfer Complete and Transfer Errors ITs */
 597:../Drivers/STM32N6xx_HAL_Driver/Src/stm32n6xx_hal_dma.c ****     __HAL_DMA_ENABLE_IT(hdma, (DMA_IT_TC | DMA_IT_DTE | DMA_IT_ULE | DMA_IT_USE | DMA_IT_TO));
 598:../Drivers/STM32N6xx_HAL_Driver/Src/stm32n6xx_hal_dma.c **** 
 599:../Drivers/STM32N6xx_HAL_Driver/Src/stm32n6xx_hal_dma.c ****     /* Check half transfer complete callback */
 600:../Drivers/STM32N6xx_HAL_Driver/Src/stm32n6xx_hal_dma.c ****     if (hdma->XferHalfCpltCallback != NULL)
 601:../Drivers/STM32N6xx_HAL_Driver/Src/stm32n6xx_hal_dma.c ****     {
 602:../Drivers/STM32N6xx_HAL_Driver/Src/stm32n6xx_hal_dma.c ****       /* If Half Transfer complete callback is set, enable the corresponding IT */
 603:../Drivers/STM32N6xx_HAL_Driver/Src/stm32n6xx_hal_dma.c ****       __HAL_DMA_ENABLE_IT(hdma, DMA_IT_HT);
 604:../Drivers/STM32N6xx_HAL_Driver/Src/stm32n6xx_hal_dma.c ****     }
 605:../Drivers/STM32N6xx_HAL_Driver/Src/stm32n6xx_hal_dma.c **** 
 606:../Drivers/STM32N6xx_HAL_Driver/Src/stm32n6xx_hal_dma.c ****     /* Check Half suspend callback */
 607:../Drivers/STM32N6xx_HAL_Driver/Src/stm32n6xx_hal_dma.c ****     if (hdma->XferSuspendCallback != NULL)
 608:../Drivers/STM32N6xx_HAL_Driver/Src/stm32n6xx_hal_dma.c ****     {
 609:../Drivers/STM32N6xx_HAL_Driver/Src/stm32n6xx_hal_dma.c ****       /* If Transfer suspend callback is set, enable the corresponding IT */
 610:../Drivers/STM32N6xx_HAL_Driver/Src/stm32n6xx_hal_dma.c ****       __HAL_DMA_ENABLE_IT(hdma, DMA_IT_SUSP);
 611:../Drivers/STM32N6xx_HAL_Driver/Src/stm32n6xx_hal_dma.c ****     }
 612:../Drivers/STM32N6xx_HAL_Driver/Src/stm32n6xx_hal_dma.c **** 
 613:../Drivers/STM32N6xx_HAL_Driver/Src/stm32n6xx_hal_dma.c ****     /* Enable DMA channel */
 614:../Drivers/STM32N6xx_HAL_Driver/Src/stm32n6xx_hal_dma.c ****     __HAL_DMA_ENABLE(hdma);
 615:../Drivers/STM32N6xx_HAL_Driver/Src/stm32n6xx_hal_dma.c ****   }
 616:../Drivers/STM32N6xx_HAL_Driver/Src/stm32n6xx_hal_dma.c ****   else
 617:../Drivers/STM32N6xx_HAL_Driver/Src/stm32n6xx_hal_dma.c ****   {
 618:../Drivers/STM32N6xx_HAL_Driver/Src/stm32n6xx_hal_dma.c ****     /* Update the DMA channel error code */
 619:../Drivers/STM32N6xx_HAL_Driver/Src/stm32n6xx_hal_dma.c ****     hdma->ErrorCode = HAL_DMA_ERROR_BUSY;
 620:../Drivers/STM32N6xx_HAL_Driver/Src/stm32n6xx_hal_dma.c **** 
 621:../Drivers/STM32N6xx_HAL_Driver/Src/stm32n6xx_hal_dma.c ****     /* Process unlocked */
 622:../Drivers/STM32N6xx_HAL_Driver/Src/stm32n6xx_hal_dma.c ****     __HAL_UNLOCK(hdma);
 623:../Drivers/STM32N6xx_HAL_Driver/Src/stm32n6xx_hal_dma.c **** 
 624:../Drivers/STM32N6xx_HAL_Driver/Src/stm32n6xx_hal_dma.c ****     return HAL_ERROR;
 625:../Drivers/STM32N6xx_HAL_Driver/Src/stm32n6xx_hal_dma.c ****   }
 626:../Drivers/STM32N6xx_HAL_Driver/Src/stm32n6xx_hal_dma.c **** 
 627:../Drivers/STM32N6xx_HAL_Driver/Src/stm32n6xx_hal_dma.c ****   return HAL_OK;
 628:../Drivers/STM32N6xx_HAL_Driver/Src/stm32n6xx_hal_dma.c **** }
 629:../Drivers/STM32N6xx_HAL_Driver/Src/stm32n6xx_hal_dma.c **** 
 630:../Drivers/STM32N6xx_HAL_Driver/Src/stm32n6xx_hal_dma.c **** /**
 631:../Drivers/STM32N6xx_HAL_Driver/Src/stm32n6xx_hal_dma.c ****   * @brief  Abort any on-going DMA channel transfer (Blocking mode).
 632:../Drivers/STM32N6xx_HAL_Driver/Src/stm32n6xx_hal_dma.c ****   * @param  hdma : Pointer to a DMA_HandleTypeDef structure that contains the configuration informa
 633:../Drivers/STM32N6xx_HAL_Driver/Src/stm32n6xx_hal_dma.c ****   *                specified DMA Channel.
 634:../Drivers/STM32N6xx_HAL_Driver/Src/stm32n6xx_hal_dma.c ****   * @note   After suspending a DMA channel, a wait until the DMA channel is effectively stopped is 
 635:../Drivers/STM32N6xx_HAL_Driver/Src/stm32n6xx_hal_dma.c ****   *         is suspended while a data transfer is on-going, the current data will be transferred an
 636:../Drivers/STM32N6xx_HAL_Driver/Src/stm32n6xx_hal_dma.c ****   *         effectively suspended only after the transfer of any on-going data is finished.
 637:../Drivers/STM32N6xx_HAL_Driver/Src/stm32n6xx_hal_dma.c ****   * @retval HAL status.
 638:../Drivers/STM32N6xx_HAL_Driver/Src/stm32n6xx_hal_dma.c ****   */
 639:../Drivers/STM32N6xx_HAL_Driver/Src/stm32n6xx_hal_dma.c **** HAL_StatusTypeDef HAL_DMA_Abort(DMA_HandleTypeDef *const hdma)
 640:../Drivers/STM32N6xx_HAL_Driver/Src/stm32n6xx_hal_dma.c **** {
 641:../Drivers/STM32N6xx_HAL_Driver/Src/stm32n6xx_hal_dma.c ****   /* Get tick number */
 642:../Drivers/STM32N6xx_HAL_Driver/Src/stm32n6xx_hal_dma.c ****   uint32_t tickstart =  HAL_GetTick();
 643:../Drivers/STM32N6xx_HAL_Driver/Src/stm32n6xx_hal_dma.c **** 
 644:../Drivers/STM32N6xx_HAL_Driver/Src/stm32n6xx_hal_dma.c ****   /* Check the DMA peripheral handle parameter */
 645:../Drivers/STM32N6xx_HAL_Driver/Src/stm32n6xx_hal_dma.c ****   if (hdma == NULL)
 646:../Drivers/STM32N6xx_HAL_Driver/Src/stm32n6xx_hal_dma.c ****   {
 647:../Drivers/STM32N6xx_HAL_Driver/Src/stm32n6xx_hal_dma.c ****     return HAL_ERROR;
 648:../Drivers/STM32N6xx_HAL_Driver/Src/stm32n6xx_hal_dma.c ****   }
 649:../Drivers/STM32N6xx_HAL_Driver/Src/stm32n6xx_hal_dma.c **** 
 650:../Drivers/STM32N6xx_HAL_Driver/Src/stm32n6xx_hal_dma.c ****   /* Check DMA channel state */
 651:../Drivers/STM32N6xx_HAL_Driver/Src/stm32n6xx_hal_dma.c ****   if (hdma->State != HAL_DMA_STATE_BUSY)
 652:../Drivers/STM32N6xx_HAL_Driver/Src/stm32n6xx_hal_dma.c ****   {
ARM GAS  /tmp/ccRTxeLm.s 			page 13


 653:../Drivers/STM32N6xx_HAL_Driver/Src/stm32n6xx_hal_dma.c ****     /* Update the DMA channel error code */
 654:../Drivers/STM32N6xx_HAL_Driver/Src/stm32n6xx_hal_dma.c ****     hdma->ErrorCode = HAL_DMA_ERROR_NO_XFER;
 655:../Drivers/STM32N6xx_HAL_Driver/Src/stm32n6xx_hal_dma.c **** 
 656:../Drivers/STM32N6xx_HAL_Driver/Src/stm32n6xx_hal_dma.c ****     /* Process Unlocked */
 657:../Drivers/STM32N6xx_HAL_Driver/Src/stm32n6xx_hal_dma.c ****     __HAL_UNLOCK(hdma);
 658:../Drivers/STM32N6xx_HAL_Driver/Src/stm32n6xx_hal_dma.c **** 
 659:../Drivers/STM32N6xx_HAL_Driver/Src/stm32n6xx_hal_dma.c ****     return HAL_ERROR;
 660:../Drivers/STM32N6xx_HAL_Driver/Src/stm32n6xx_hal_dma.c ****   }
 661:../Drivers/STM32N6xx_HAL_Driver/Src/stm32n6xx_hal_dma.c ****   else
 662:../Drivers/STM32N6xx_HAL_Driver/Src/stm32n6xx_hal_dma.c ****   {
 663:../Drivers/STM32N6xx_HAL_Driver/Src/stm32n6xx_hal_dma.c ****     /* Suspend the channel */
 664:../Drivers/STM32N6xx_HAL_Driver/Src/stm32n6xx_hal_dma.c ****     hdma->Instance->CCR |= DMA_CCR_SUSP;
 665:../Drivers/STM32N6xx_HAL_Driver/Src/stm32n6xx_hal_dma.c **** 
 666:../Drivers/STM32N6xx_HAL_Driver/Src/stm32n6xx_hal_dma.c ****     /* Update the DMA channel state */
 667:../Drivers/STM32N6xx_HAL_Driver/Src/stm32n6xx_hal_dma.c ****     hdma->State = HAL_DMA_STATE_SUSPEND;
 668:../Drivers/STM32N6xx_HAL_Driver/Src/stm32n6xx_hal_dma.c **** 
 669:../Drivers/STM32N6xx_HAL_Driver/Src/stm32n6xx_hal_dma.c ****     /* Check if the DMA Channel is suspended */
 670:../Drivers/STM32N6xx_HAL_Driver/Src/stm32n6xx_hal_dma.c ****     while ((hdma->Instance->CSR & DMA_CSR_SUSPF) == 0U)
 671:../Drivers/STM32N6xx_HAL_Driver/Src/stm32n6xx_hal_dma.c ****     {
 672:../Drivers/STM32N6xx_HAL_Driver/Src/stm32n6xx_hal_dma.c ****       /* Check for the Timeout */
 673:../Drivers/STM32N6xx_HAL_Driver/Src/stm32n6xx_hal_dma.c ****       if ((HAL_GetTick() - tickstart) > HAL_TIMEOUT_DMA_ABORT)
 674:../Drivers/STM32N6xx_HAL_Driver/Src/stm32n6xx_hal_dma.c ****       {
 675:../Drivers/STM32N6xx_HAL_Driver/Src/stm32n6xx_hal_dma.c ****         /* Update the DMA channel error code */
 676:../Drivers/STM32N6xx_HAL_Driver/Src/stm32n6xx_hal_dma.c ****         hdma->ErrorCode |= HAL_DMA_ERROR_TIMEOUT;
 677:../Drivers/STM32N6xx_HAL_Driver/Src/stm32n6xx_hal_dma.c **** 
 678:../Drivers/STM32N6xx_HAL_Driver/Src/stm32n6xx_hal_dma.c ****         /* Update the DMA channel state */
 679:../Drivers/STM32N6xx_HAL_Driver/Src/stm32n6xx_hal_dma.c ****         hdma->State = HAL_DMA_STATE_ERROR;
 680:../Drivers/STM32N6xx_HAL_Driver/Src/stm32n6xx_hal_dma.c **** 
 681:../Drivers/STM32N6xx_HAL_Driver/Src/stm32n6xx_hal_dma.c ****         /* Check DMA channel transfer mode */
 682:../Drivers/STM32N6xx_HAL_Driver/Src/stm32n6xx_hal_dma.c ****         if ((hdma->Mode & DMA_LINKEDLIST) == DMA_LINKEDLIST)
 683:../Drivers/STM32N6xx_HAL_Driver/Src/stm32n6xx_hal_dma.c ****         {
 684:../Drivers/STM32N6xx_HAL_Driver/Src/stm32n6xx_hal_dma.c ****           /* Update the linked-list queue state */
 685:../Drivers/STM32N6xx_HAL_Driver/Src/stm32n6xx_hal_dma.c ****           hdma->LinkedListQueue->State = HAL_DMA_QUEUE_STATE_READY;
 686:../Drivers/STM32N6xx_HAL_Driver/Src/stm32n6xx_hal_dma.c ****         }
 687:../Drivers/STM32N6xx_HAL_Driver/Src/stm32n6xx_hal_dma.c **** 
 688:../Drivers/STM32N6xx_HAL_Driver/Src/stm32n6xx_hal_dma.c ****         /* Process Unlocked */
 689:../Drivers/STM32N6xx_HAL_Driver/Src/stm32n6xx_hal_dma.c ****         __HAL_UNLOCK(hdma);
 690:../Drivers/STM32N6xx_HAL_Driver/Src/stm32n6xx_hal_dma.c **** 
 691:../Drivers/STM32N6xx_HAL_Driver/Src/stm32n6xx_hal_dma.c ****         return HAL_ERROR;
 692:../Drivers/STM32N6xx_HAL_Driver/Src/stm32n6xx_hal_dma.c ****       }
 693:../Drivers/STM32N6xx_HAL_Driver/Src/stm32n6xx_hal_dma.c ****     }
 694:../Drivers/STM32N6xx_HAL_Driver/Src/stm32n6xx_hal_dma.c **** 
 695:../Drivers/STM32N6xx_HAL_Driver/Src/stm32n6xx_hal_dma.c ****     /* Reset the channel */
 696:../Drivers/STM32N6xx_HAL_Driver/Src/stm32n6xx_hal_dma.c ****     hdma->Instance->CCR |= DMA_CCR_RESET;
 697:../Drivers/STM32N6xx_HAL_Driver/Src/stm32n6xx_hal_dma.c **** 
 698:../Drivers/STM32N6xx_HAL_Driver/Src/stm32n6xx_hal_dma.c ****     /* Update the DMA channel state */
 699:../Drivers/STM32N6xx_HAL_Driver/Src/stm32n6xx_hal_dma.c ****     hdma->State = HAL_DMA_STATE_ABORT;
 700:../Drivers/STM32N6xx_HAL_Driver/Src/stm32n6xx_hal_dma.c **** 
 701:../Drivers/STM32N6xx_HAL_Driver/Src/stm32n6xx_hal_dma.c ****     /* Clear all status flags */
 702:../Drivers/STM32N6xx_HAL_Driver/Src/stm32n6xx_hal_dma.c ****     __HAL_DMA_CLEAR_FLAG(hdma, (DMA_FLAG_TC | DMA_FLAG_HT | DMA_FLAG_DTE | DMA_FLAG_ULE | DMA_FLAG_
 703:../Drivers/STM32N6xx_HAL_Driver/Src/stm32n6xx_hal_dma.c ****                                 DMA_FLAG_TO));
 704:../Drivers/STM32N6xx_HAL_Driver/Src/stm32n6xx_hal_dma.c **** 
 705:../Drivers/STM32N6xx_HAL_Driver/Src/stm32n6xx_hal_dma.c ****     /* Update the DMA channel state */
 706:../Drivers/STM32N6xx_HAL_Driver/Src/stm32n6xx_hal_dma.c ****     hdma->State = HAL_DMA_STATE_READY;
 707:../Drivers/STM32N6xx_HAL_Driver/Src/stm32n6xx_hal_dma.c **** 
 708:../Drivers/STM32N6xx_HAL_Driver/Src/stm32n6xx_hal_dma.c ****     /* Check DMA channel transfer mode */
 709:../Drivers/STM32N6xx_HAL_Driver/Src/stm32n6xx_hal_dma.c ****     if ((hdma->Mode & DMA_LINKEDLIST) == DMA_LINKEDLIST)
ARM GAS  /tmp/ccRTxeLm.s 			page 14


 710:../Drivers/STM32N6xx_HAL_Driver/Src/stm32n6xx_hal_dma.c ****     {
 711:../Drivers/STM32N6xx_HAL_Driver/Src/stm32n6xx_hal_dma.c ****       /* Update the linked-list queue state */
 712:../Drivers/STM32N6xx_HAL_Driver/Src/stm32n6xx_hal_dma.c ****       hdma->LinkedListQueue->State = HAL_DMA_QUEUE_STATE_READY;
 713:../Drivers/STM32N6xx_HAL_Driver/Src/stm32n6xx_hal_dma.c **** 
 714:../Drivers/STM32N6xx_HAL_Driver/Src/stm32n6xx_hal_dma.c ****       /* Clear remaining data size to ensure loading linked-list from memory next start */
 715:../Drivers/STM32N6xx_HAL_Driver/Src/stm32n6xx_hal_dma.c ****       hdma->Instance->CBR1 = 0U;
 716:../Drivers/STM32N6xx_HAL_Driver/Src/stm32n6xx_hal_dma.c ****     }
 717:../Drivers/STM32N6xx_HAL_Driver/Src/stm32n6xx_hal_dma.c **** 
 718:../Drivers/STM32N6xx_HAL_Driver/Src/stm32n6xx_hal_dma.c ****     /* Process Unlocked */
 719:../Drivers/STM32N6xx_HAL_Driver/Src/stm32n6xx_hal_dma.c ****     __HAL_UNLOCK(hdma);
 720:../Drivers/STM32N6xx_HAL_Driver/Src/stm32n6xx_hal_dma.c ****   }
 721:../Drivers/STM32N6xx_HAL_Driver/Src/stm32n6xx_hal_dma.c **** 
 722:../Drivers/STM32N6xx_HAL_Driver/Src/stm32n6xx_hal_dma.c ****   return HAL_OK;
 723:../Drivers/STM32N6xx_HAL_Driver/Src/stm32n6xx_hal_dma.c **** }
 724:../Drivers/STM32N6xx_HAL_Driver/Src/stm32n6xx_hal_dma.c **** 
 725:../Drivers/STM32N6xx_HAL_Driver/Src/stm32n6xx_hal_dma.c **** /**
 726:../Drivers/STM32N6xx_HAL_Driver/Src/stm32n6xx_hal_dma.c ****   * @brief  Abort any on-going DMA channel transfer in interrupt mode (Non-blocking mode).
 727:../Drivers/STM32N6xx_HAL_Driver/Src/stm32n6xx_hal_dma.c ****   * @param  hdma : Pointer to a DMA_HandleTypeDef structure that contains the configuration informa
 728:../Drivers/STM32N6xx_HAL_Driver/Src/stm32n6xx_hal_dma.c ****   *                specified DMA Channel.
 729:../Drivers/STM32N6xx_HAL_Driver/Src/stm32n6xx_hal_dma.c ****   * @retval HAL status.
 730:../Drivers/STM32N6xx_HAL_Driver/Src/stm32n6xx_hal_dma.c ****   */
 731:../Drivers/STM32N6xx_HAL_Driver/Src/stm32n6xx_hal_dma.c **** HAL_StatusTypeDef HAL_DMA_Abort_IT(DMA_HandleTypeDef *const hdma)
 732:../Drivers/STM32N6xx_HAL_Driver/Src/stm32n6xx_hal_dma.c **** {
 733:../Drivers/STM32N6xx_HAL_Driver/Src/stm32n6xx_hal_dma.c ****   /* Check the DMA peripheral handle parameter */
 734:../Drivers/STM32N6xx_HAL_Driver/Src/stm32n6xx_hal_dma.c ****   if (hdma == NULL)
 735:../Drivers/STM32N6xx_HAL_Driver/Src/stm32n6xx_hal_dma.c ****   {
 736:../Drivers/STM32N6xx_HAL_Driver/Src/stm32n6xx_hal_dma.c ****     return HAL_ERROR;
 737:../Drivers/STM32N6xx_HAL_Driver/Src/stm32n6xx_hal_dma.c ****   }
 738:../Drivers/STM32N6xx_HAL_Driver/Src/stm32n6xx_hal_dma.c **** 
 739:../Drivers/STM32N6xx_HAL_Driver/Src/stm32n6xx_hal_dma.c ****   /* Check DMA channel state */
 740:../Drivers/STM32N6xx_HAL_Driver/Src/stm32n6xx_hal_dma.c ****   if (hdma->State != HAL_DMA_STATE_BUSY)
 741:../Drivers/STM32N6xx_HAL_Driver/Src/stm32n6xx_hal_dma.c ****   {
 742:../Drivers/STM32N6xx_HAL_Driver/Src/stm32n6xx_hal_dma.c ****     /* Update the DMA channel error code */
 743:../Drivers/STM32N6xx_HAL_Driver/Src/stm32n6xx_hal_dma.c ****     hdma->ErrorCode = HAL_DMA_ERROR_NO_XFER;
 744:../Drivers/STM32N6xx_HAL_Driver/Src/stm32n6xx_hal_dma.c **** 
 745:../Drivers/STM32N6xx_HAL_Driver/Src/stm32n6xx_hal_dma.c ****     return HAL_ERROR;
 746:../Drivers/STM32N6xx_HAL_Driver/Src/stm32n6xx_hal_dma.c ****   }
 747:../Drivers/STM32N6xx_HAL_Driver/Src/stm32n6xx_hal_dma.c ****   else
 748:../Drivers/STM32N6xx_HAL_Driver/Src/stm32n6xx_hal_dma.c ****   {
 749:../Drivers/STM32N6xx_HAL_Driver/Src/stm32n6xx_hal_dma.c ****     /* Update the DMA channel state */
 750:../Drivers/STM32N6xx_HAL_Driver/Src/stm32n6xx_hal_dma.c ****     hdma->State = HAL_DMA_STATE_ABORT;
 751:../Drivers/STM32N6xx_HAL_Driver/Src/stm32n6xx_hal_dma.c **** 
 752:../Drivers/STM32N6xx_HAL_Driver/Src/stm32n6xx_hal_dma.c ****     /* Suspend the channel and activate suspend interrupt */
 753:../Drivers/STM32N6xx_HAL_Driver/Src/stm32n6xx_hal_dma.c ****     hdma->Instance->CCR |= (DMA_CCR_SUSP | DMA_CCR_SUSPIE);
 754:../Drivers/STM32N6xx_HAL_Driver/Src/stm32n6xx_hal_dma.c ****   }
 755:../Drivers/STM32N6xx_HAL_Driver/Src/stm32n6xx_hal_dma.c **** 
 756:../Drivers/STM32N6xx_HAL_Driver/Src/stm32n6xx_hal_dma.c ****   return HAL_OK;
 757:../Drivers/STM32N6xx_HAL_Driver/Src/stm32n6xx_hal_dma.c **** }
 758:../Drivers/STM32N6xx_HAL_Driver/Src/stm32n6xx_hal_dma.c **** 
 759:../Drivers/STM32N6xx_HAL_Driver/Src/stm32n6xx_hal_dma.c **** /**
 760:../Drivers/STM32N6xx_HAL_Driver/Src/stm32n6xx_hal_dma.c ****   * @brief  Polling for transfer status (Blocking mode).
 761:../Drivers/STM32N6xx_HAL_Driver/Src/stm32n6xx_hal_dma.c ****   * @param  hdma          : Pointer to a DMA_HandleTypeDef structure that contains the configuratio
 762:../Drivers/STM32N6xx_HAL_Driver/Src/stm32n6xx_hal_dma.c ****   *                         specified DMA Channel.
 763:../Drivers/STM32N6xx_HAL_Driver/Src/stm32n6xx_hal_dma.c ****   * @param  CompleteLevel : Specifies the DMA level complete.
 764:../Drivers/STM32N6xx_HAL_Driver/Src/stm32n6xx_hal_dma.c ****   * @param  Timeout       : Timeout duration.
 765:../Drivers/STM32N6xx_HAL_Driver/Src/stm32n6xx_hal_dma.c ****   * @retval HAL status
 766:../Drivers/STM32N6xx_HAL_Driver/Src/stm32n6xx_hal_dma.c ****   */
ARM GAS  /tmp/ccRTxeLm.s 			page 15


 767:../Drivers/STM32N6xx_HAL_Driver/Src/stm32n6xx_hal_dma.c **** HAL_StatusTypeDef HAL_DMA_PollForTransfer(DMA_HandleTypeDef *const hdma,
 768:../Drivers/STM32N6xx_HAL_Driver/Src/stm32n6xx_hal_dma.c ****                                           HAL_DMA_LevelCompleteTypeDef CompleteLevel,
 769:../Drivers/STM32N6xx_HAL_Driver/Src/stm32n6xx_hal_dma.c ****                                           uint32_t Timeout)
 770:../Drivers/STM32N6xx_HAL_Driver/Src/stm32n6xx_hal_dma.c **** {
 771:../Drivers/STM32N6xx_HAL_Driver/Src/stm32n6xx_hal_dma.c ****   /* Get tick number */
 772:../Drivers/STM32N6xx_HAL_Driver/Src/stm32n6xx_hal_dma.c ****   uint32_t tickstart = HAL_GetTick();
 773:../Drivers/STM32N6xx_HAL_Driver/Src/stm32n6xx_hal_dma.c ****   uint32_t level_flag;
 774:../Drivers/STM32N6xx_HAL_Driver/Src/stm32n6xx_hal_dma.c ****   uint32_t tmp_csr;
 775:../Drivers/STM32N6xx_HAL_Driver/Src/stm32n6xx_hal_dma.c **** 
 776:../Drivers/STM32N6xx_HAL_Driver/Src/stm32n6xx_hal_dma.c ****   /* Check the DMA peripheral handle parameter */
 777:../Drivers/STM32N6xx_HAL_Driver/Src/stm32n6xx_hal_dma.c ****   if (hdma == NULL)
 778:../Drivers/STM32N6xx_HAL_Driver/Src/stm32n6xx_hal_dma.c ****   {
 779:../Drivers/STM32N6xx_HAL_Driver/Src/stm32n6xx_hal_dma.c ****     return HAL_ERROR;
 780:../Drivers/STM32N6xx_HAL_Driver/Src/stm32n6xx_hal_dma.c ****   }
 781:../Drivers/STM32N6xx_HAL_Driver/Src/stm32n6xx_hal_dma.c **** 
 782:../Drivers/STM32N6xx_HAL_Driver/Src/stm32n6xx_hal_dma.c ****   /* Check the parameters */
 783:../Drivers/STM32N6xx_HAL_Driver/Src/stm32n6xx_hal_dma.c ****   assert_param(IS_DMA_LEVEL_COMPLETE(CompleteLevel));
 784:../Drivers/STM32N6xx_HAL_Driver/Src/stm32n6xx_hal_dma.c **** 
 785:../Drivers/STM32N6xx_HAL_Driver/Src/stm32n6xx_hal_dma.c ****   /* Check DMA channel state */
 786:../Drivers/STM32N6xx_HAL_Driver/Src/stm32n6xx_hal_dma.c ****   if (hdma->State != HAL_DMA_STATE_BUSY)
 787:../Drivers/STM32N6xx_HAL_Driver/Src/stm32n6xx_hal_dma.c ****   {
 788:../Drivers/STM32N6xx_HAL_Driver/Src/stm32n6xx_hal_dma.c ****     /* Update the DMA channel error code */
 789:../Drivers/STM32N6xx_HAL_Driver/Src/stm32n6xx_hal_dma.c ****     hdma->ErrorCode = HAL_DMA_ERROR_NO_XFER;
 790:../Drivers/STM32N6xx_HAL_Driver/Src/stm32n6xx_hal_dma.c **** 
 791:../Drivers/STM32N6xx_HAL_Driver/Src/stm32n6xx_hal_dma.c ****     /* Process Unlocked */
 792:../Drivers/STM32N6xx_HAL_Driver/Src/stm32n6xx_hal_dma.c ****     __HAL_UNLOCK(hdma);
 793:../Drivers/STM32N6xx_HAL_Driver/Src/stm32n6xx_hal_dma.c **** 
 794:../Drivers/STM32N6xx_HAL_Driver/Src/stm32n6xx_hal_dma.c ****     return HAL_ERROR;
 795:../Drivers/STM32N6xx_HAL_Driver/Src/stm32n6xx_hal_dma.c ****   }
 796:../Drivers/STM32N6xx_HAL_Driver/Src/stm32n6xx_hal_dma.c **** 
 797:../Drivers/STM32N6xx_HAL_Driver/Src/stm32n6xx_hal_dma.c ****   /* Polling mode is not supported in circular mode */
 798:../Drivers/STM32N6xx_HAL_Driver/Src/stm32n6xx_hal_dma.c ****   if ((hdma->Mode & DMA_LINKEDLIST_CIRCULAR) == DMA_LINKEDLIST_CIRCULAR)
 799:../Drivers/STM32N6xx_HAL_Driver/Src/stm32n6xx_hal_dma.c ****   {
 800:../Drivers/STM32N6xx_HAL_Driver/Src/stm32n6xx_hal_dma.c ****     /* Update the DMA channel error code */
 801:../Drivers/STM32N6xx_HAL_Driver/Src/stm32n6xx_hal_dma.c ****     hdma->ErrorCode = HAL_DMA_ERROR_NOT_SUPPORTED;
 802:../Drivers/STM32N6xx_HAL_Driver/Src/stm32n6xx_hal_dma.c **** 
 803:../Drivers/STM32N6xx_HAL_Driver/Src/stm32n6xx_hal_dma.c ****     return HAL_ERROR;
 804:../Drivers/STM32N6xx_HAL_Driver/Src/stm32n6xx_hal_dma.c ****   }
 805:../Drivers/STM32N6xx_HAL_Driver/Src/stm32n6xx_hal_dma.c **** 
 806:../Drivers/STM32N6xx_HAL_Driver/Src/stm32n6xx_hal_dma.c ****   /* Get the level transfer complete flag */
 807:../Drivers/STM32N6xx_HAL_Driver/Src/stm32n6xx_hal_dma.c ****   level_flag = ((CompleteLevel == HAL_DMA_FULL_TRANSFER) ? DMA_FLAG_IDLE : DMA_FLAG_HT);
 808:../Drivers/STM32N6xx_HAL_Driver/Src/stm32n6xx_hal_dma.c **** 
 809:../Drivers/STM32N6xx_HAL_Driver/Src/stm32n6xx_hal_dma.c ****   /* Get DMA channel status */
 810:../Drivers/STM32N6xx_HAL_Driver/Src/stm32n6xx_hal_dma.c ****   tmp_csr = hdma->Instance->CSR;
 811:../Drivers/STM32N6xx_HAL_Driver/Src/stm32n6xx_hal_dma.c **** 
 812:../Drivers/STM32N6xx_HAL_Driver/Src/stm32n6xx_hal_dma.c ****   while ((tmp_csr & level_flag) == 0U)
 813:../Drivers/STM32N6xx_HAL_Driver/Src/stm32n6xx_hal_dma.c ****   {
 814:../Drivers/STM32N6xx_HAL_Driver/Src/stm32n6xx_hal_dma.c ****     /* Check for the timeout */
 815:../Drivers/STM32N6xx_HAL_Driver/Src/stm32n6xx_hal_dma.c ****     if (Timeout != HAL_MAX_DELAY)
 816:../Drivers/STM32N6xx_HAL_Driver/Src/stm32n6xx_hal_dma.c ****     {
 817:../Drivers/STM32N6xx_HAL_Driver/Src/stm32n6xx_hal_dma.c ****       if (((HAL_GetTick() - tickstart) > Timeout) || (Timeout == 0U))
 818:../Drivers/STM32N6xx_HAL_Driver/Src/stm32n6xx_hal_dma.c ****       {
 819:../Drivers/STM32N6xx_HAL_Driver/Src/stm32n6xx_hal_dma.c ****         /* Update the DMA channel error code */
 820:../Drivers/STM32N6xx_HAL_Driver/Src/stm32n6xx_hal_dma.c ****         hdma->ErrorCode |= HAL_DMA_ERROR_TIMEOUT;
 821:../Drivers/STM32N6xx_HAL_Driver/Src/stm32n6xx_hal_dma.c **** 
 822:../Drivers/STM32N6xx_HAL_Driver/Src/stm32n6xx_hal_dma.c ****         /*
 823:../Drivers/STM32N6xx_HAL_Driver/Src/stm32n6xx_hal_dma.c ****           If timeout, abort the current transfer.
ARM GAS  /tmp/ccRTxeLm.s 			page 16


 824:../Drivers/STM32N6xx_HAL_Driver/Src/stm32n6xx_hal_dma.c ****           Note that the Abort function will
 825:../Drivers/STM32N6xx_HAL_Driver/Src/stm32n6xx_hal_dma.c ****           - Clear all transfer flags.
 826:../Drivers/STM32N6xx_HAL_Driver/Src/stm32n6xx_hal_dma.c ****           - Unlock.
 827:../Drivers/STM32N6xx_HAL_Driver/Src/stm32n6xx_hal_dma.c ****           - Set the State.
 828:../Drivers/STM32N6xx_HAL_Driver/Src/stm32n6xx_hal_dma.c ****         */
 829:../Drivers/STM32N6xx_HAL_Driver/Src/stm32n6xx_hal_dma.c ****         (void)HAL_DMA_Abort(hdma);
 830:../Drivers/STM32N6xx_HAL_Driver/Src/stm32n6xx_hal_dma.c **** 
 831:../Drivers/STM32N6xx_HAL_Driver/Src/stm32n6xx_hal_dma.c ****         return HAL_ERROR;
 832:../Drivers/STM32N6xx_HAL_Driver/Src/stm32n6xx_hal_dma.c ****       }
 833:../Drivers/STM32N6xx_HAL_Driver/Src/stm32n6xx_hal_dma.c ****     }
 834:../Drivers/STM32N6xx_HAL_Driver/Src/stm32n6xx_hal_dma.c **** 
 835:../Drivers/STM32N6xx_HAL_Driver/Src/stm32n6xx_hal_dma.c ****     /* Get a newer CSR register value */
 836:../Drivers/STM32N6xx_HAL_Driver/Src/stm32n6xx_hal_dma.c ****     tmp_csr = hdma->Instance->CSR;
 837:../Drivers/STM32N6xx_HAL_Driver/Src/stm32n6xx_hal_dma.c ****   }
 838:../Drivers/STM32N6xx_HAL_Driver/Src/stm32n6xx_hal_dma.c **** 
 839:../Drivers/STM32N6xx_HAL_Driver/Src/stm32n6xx_hal_dma.c ****   /* Check trigger overrun flag */
 840:../Drivers/STM32N6xx_HAL_Driver/Src/stm32n6xx_hal_dma.c ****   if ((tmp_csr & DMA_FLAG_TO) != 0U)
 841:../Drivers/STM32N6xx_HAL_Driver/Src/stm32n6xx_hal_dma.c ****   {
 842:../Drivers/STM32N6xx_HAL_Driver/Src/stm32n6xx_hal_dma.c ****     /* Update the DMA channel error code */
 843:../Drivers/STM32N6xx_HAL_Driver/Src/stm32n6xx_hal_dma.c ****     hdma->ErrorCode |= HAL_DMA_ERROR_TO;
 844:../Drivers/STM32N6xx_HAL_Driver/Src/stm32n6xx_hal_dma.c **** 
 845:../Drivers/STM32N6xx_HAL_Driver/Src/stm32n6xx_hal_dma.c ****     /* Clear the error flag */
 846:../Drivers/STM32N6xx_HAL_Driver/Src/stm32n6xx_hal_dma.c ****     __HAL_DMA_CLEAR_FLAG(hdma, DMA_FLAG_TO);
 847:../Drivers/STM32N6xx_HAL_Driver/Src/stm32n6xx_hal_dma.c ****   }
 848:../Drivers/STM32N6xx_HAL_Driver/Src/stm32n6xx_hal_dma.c **** 
 849:../Drivers/STM32N6xx_HAL_Driver/Src/stm32n6xx_hal_dma.c ****   /* Check error flags */
 850:../Drivers/STM32N6xx_HAL_Driver/Src/stm32n6xx_hal_dma.c ****   if ((tmp_csr & (DMA_FLAG_DTE | DMA_FLAG_ULE | DMA_FLAG_USE)) != 0U)
 851:../Drivers/STM32N6xx_HAL_Driver/Src/stm32n6xx_hal_dma.c ****   {
 852:../Drivers/STM32N6xx_HAL_Driver/Src/stm32n6xx_hal_dma.c ****     /* Check the data transfer error flag */
 853:../Drivers/STM32N6xx_HAL_Driver/Src/stm32n6xx_hal_dma.c ****     if ((tmp_csr & DMA_FLAG_DTE) != 0U)
 854:../Drivers/STM32N6xx_HAL_Driver/Src/stm32n6xx_hal_dma.c ****     {
 855:../Drivers/STM32N6xx_HAL_Driver/Src/stm32n6xx_hal_dma.c ****       /* Update the DMA channel error code */
 856:../Drivers/STM32N6xx_HAL_Driver/Src/stm32n6xx_hal_dma.c ****       hdma->ErrorCode |= HAL_DMA_ERROR_DTE;
 857:../Drivers/STM32N6xx_HAL_Driver/Src/stm32n6xx_hal_dma.c **** 
 858:../Drivers/STM32N6xx_HAL_Driver/Src/stm32n6xx_hal_dma.c ****       /* Clear the error flag */
 859:../Drivers/STM32N6xx_HAL_Driver/Src/stm32n6xx_hal_dma.c ****       __HAL_DMA_CLEAR_FLAG(hdma, DMA_FLAG_DTE);
 860:../Drivers/STM32N6xx_HAL_Driver/Src/stm32n6xx_hal_dma.c ****     }
 861:../Drivers/STM32N6xx_HAL_Driver/Src/stm32n6xx_hal_dma.c **** 
 862:../Drivers/STM32N6xx_HAL_Driver/Src/stm32n6xx_hal_dma.c ****     /* Check the update link error flag */
 863:../Drivers/STM32N6xx_HAL_Driver/Src/stm32n6xx_hal_dma.c ****     if ((tmp_csr & DMA_FLAG_ULE) != 0U)
 864:../Drivers/STM32N6xx_HAL_Driver/Src/stm32n6xx_hal_dma.c ****     {
 865:../Drivers/STM32N6xx_HAL_Driver/Src/stm32n6xx_hal_dma.c ****       /* Update the DMA channel error code */
 866:../Drivers/STM32N6xx_HAL_Driver/Src/stm32n6xx_hal_dma.c ****       hdma->ErrorCode |= HAL_DMA_ERROR_ULE;
 867:../Drivers/STM32N6xx_HAL_Driver/Src/stm32n6xx_hal_dma.c **** 
 868:../Drivers/STM32N6xx_HAL_Driver/Src/stm32n6xx_hal_dma.c ****       /* Clear the error flag */
 869:../Drivers/STM32N6xx_HAL_Driver/Src/stm32n6xx_hal_dma.c ****       __HAL_DMA_CLEAR_FLAG(hdma, DMA_FLAG_ULE);
 870:../Drivers/STM32N6xx_HAL_Driver/Src/stm32n6xx_hal_dma.c ****     }
 871:../Drivers/STM32N6xx_HAL_Driver/Src/stm32n6xx_hal_dma.c **** 
 872:../Drivers/STM32N6xx_HAL_Driver/Src/stm32n6xx_hal_dma.c ****     /* Check the user setting error flag */
 873:../Drivers/STM32N6xx_HAL_Driver/Src/stm32n6xx_hal_dma.c ****     if ((tmp_csr & DMA_FLAG_USE) != 0U)
 874:../Drivers/STM32N6xx_HAL_Driver/Src/stm32n6xx_hal_dma.c ****     {
 875:../Drivers/STM32N6xx_HAL_Driver/Src/stm32n6xx_hal_dma.c ****       /* Update the DMA channel error code */
 876:../Drivers/STM32N6xx_HAL_Driver/Src/stm32n6xx_hal_dma.c ****       hdma->ErrorCode |= HAL_DMA_ERROR_USE;
 877:../Drivers/STM32N6xx_HAL_Driver/Src/stm32n6xx_hal_dma.c **** 
 878:../Drivers/STM32N6xx_HAL_Driver/Src/stm32n6xx_hal_dma.c ****       /* Clear the error flag */
 879:../Drivers/STM32N6xx_HAL_Driver/Src/stm32n6xx_hal_dma.c ****       __HAL_DMA_CLEAR_FLAG(hdma, DMA_FLAG_USE);
 880:../Drivers/STM32N6xx_HAL_Driver/Src/stm32n6xx_hal_dma.c ****     }
ARM GAS  /tmp/ccRTxeLm.s 			page 17


 881:../Drivers/STM32N6xx_HAL_Driver/Src/stm32n6xx_hal_dma.c **** 
 882:../Drivers/STM32N6xx_HAL_Driver/Src/stm32n6xx_hal_dma.c ****     /* Reset the channel */
 883:../Drivers/STM32N6xx_HAL_Driver/Src/stm32n6xx_hal_dma.c ****     hdma->Instance->CCR |= DMA_CCR_RESET;
 884:../Drivers/STM32N6xx_HAL_Driver/Src/stm32n6xx_hal_dma.c **** 
 885:../Drivers/STM32N6xx_HAL_Driver/Src/stm32n6xx_hal_dma.c ****     /* Update the DMA channel state */
 886:../Drivers/STM32N6xx_HAL_Driver/Src/stm32n6xx_hal_dma.c ****     hdma->State = HAL_DMA_STATE_READY;
 887:../Drivers/STM32N6xx_HAL_Driver/Src/stm32n6xx_hal_dma.c **** 
 888:../Drivers/STM32N6xx_HAL_Driver/Src/stm32n6xx_hal_dma.c ****     /* Check DMA channel transfer mode */
 889:../Drivers/STM32N6xx_HAL_Driver/Src/stm32n6xx_hal_dma.c ****     if ((hdma->Mode & DMA_LINKEDLIST) == DMA_LINKEDLIST)
 890:../Drivers/STM32N6xx_HAL_Driver/Src/stm32n6xx_hal_dma.c ****     {
 891:../Drivers/STM32N6xx_HAL_Driver/Src/stm32n6xx_hal_dma.c ****       /* Update the linked-list queue state */
 892:../Drivers/STM32N6xx_HAL_Driver/Src/stm32n6xx_hal_dma.c ****       hdma->LinkedListQueue->State = HAL_DMA_QUEUE_STATE_READY;
 893:../Drivers/STM32N6xx_HAL_Driver/Src/stm32n6xx_hal_dma.c ****     }
 894:../Drivers/STM32N6xx_HAL_Driver/Src/stm32n6xx_hal_dma.c **** 
 895:../Drivers/STM32N6xx_HAL_Driver/Src/stm32n6xx_hal_dma.c ****     /* Process Unlocked */
 896:../Drivers/STM32N6xx_HAL_Driver/Src/stm32n6xx_hal_dma.c ****     __HAL_UNLOCK(hdma);
 897:../Drivers/STM32N6xx_HAL_Driver/Src/stm32n6xx_hal_dma.c **** 
 898:../Drivers/STM32N6xx_HAL_Driver/Src/stm32n6xx_hal_dma.c ****     return HAL_ERROR;
 899:../Drivers/STM32N6xx_HAL_Driver/Src/stm32n6xx_hal_dma.c ****   }
 900:../Drivers/STM32N6xx_HAL_Driver/Src/stm32n6xx_hal_dma.c **** 
 901:../Drivers/STM32N6xx_HAL_Driver/Src/stm32n6xx_hal_dma.c ****   /* Clear the transfer level flag */
 902:../Drivers/STM32N6xx_HAL_Driver/Src/stm32n6xx_hal_dma.c ****   if (CompleteLevel == HAL_DMA_HALF_TRANSFER)
 903:../Drivers/STM32N6xx_HAL_Driver/Src/stm32n6xx_hal_dma.c ****   {
 904:../Drivers/STM32N6xx_HAL_Driver/Src/stm32n6xx_hal_dma.c ****     /* Clear the Half Transfer flag */
 905:../Drivers/STM32N6xx_HAL_Driver/Src/stm32n6xx_hal_dma.c ****     __HAL_DMA_CLEAR_FLAG(hdma, DMA_FLAG_HT);
 906:../Drivers/STM32N6xx_HAL_Driver/Src/stm32n6xx_hal_dma.c ****   }
 907:../Drivers/STM32N6xx_HAL_Driver/Src/stm32n6xx_hal_dma.c ****   else if (CompleteLevel == HAL_DMA_FULL_TRANSFER)
 908:../Drivers/STM32N6xx_HAL_Driver/Src/stm32n6xx_hal_dma.c ****   {
 909:../Drivers/STM32N6xx_HAL_Driver/Src/stm32n6xx_hal_dma.c ****     /* Clear the transfer flags */
 910:../Drivers/STM32N6xx_HAL_Driver/Src/stm32n6xx_hal_dma.c ****     __HAL_DMA_CLEAR_FLAG(hdma, (DMA_FLAG_TC | DMA_FLAG_HT));
 911:../Drivers/STM32N6xx_HAL_Driver/Src/stm32n6xx_hal_dma.c **** 
 912:../Drivers/STM32N6xx_HAL_Driver/Src/stm32n6xx_hal_dma.c ****     /* Update the DMA channel state */
 913:../Drivers/STM32N6xx_HAL_Driver/Src/stm32n6xx_hal_dma.c ****     hdma->State = HAL_DMA_STATE_READY;
 914:../Drivers/STM32N6xx_HAL_Driver/Src/stm32n6xx_hal_dma.c **** 
 915:../Drivers/STM32N6xx_HAL_Driver/Src/stm32n6xx_hal_dma.c ****     /* Check DMA channel transfer mode */
 916:../Drivers/STM32N6xx_HAL_Driver/Src/stm32n6xx_hal_dma.c ****     if ((hdma->Mode & DMA_LINKEDLIST) == DMA_LINKEDLIST)
 917:../Drivers/STM32N6xx_HAL_Driver/Src/stm32n6xx_hal_dma.c ****     {
 918:../Drivers/STM32N6xx_HAL_Driver/Src/stm32n6xx_hal_dma.c ****       /* Update the linked-list queue state */
 919:../Drivers/STM32N6xx_HAL_Driver/Src/stm32n6xx_hal_dma.c ****       hdma->LinkedListQueue->State = HAL_DMA_QUEUE_STATE_READY;
 920:../Drivers/STM32N6xx_HAL_Driver/Src/stm32n6xx_hal_dma.c ****     }
 921:../Drivers/STM32N6xx_HAL_Driver/Src/stm32n6xx_hal_dma.c **** 
 922:../Drivers/STM32N6xx_HAL_Driver/Src/stm32n6xx_hal_dma.c ****     /* Process unlocked */
 923:../Drivers/STM32N6xx_HAL_Driver/Src/stm32n6xx_hal_dma.c ****     __HAL_UNLOCK(hdma);
 924:../Drivers/STM32N6xx_HAL_Driver/Src/stm32n6xx_hal_dma.c ****   }
 925:../Drivers/STM32N6xx_HAL_Driver/Src/stm32n6xx_hal_dma.c ****   else
 926:../Drivers/STM32N6xx_HAL_Driver/Src/stm32n6xx_hal_dma.c ****   {
 927:../Drivers/STM32N6xx_HAL_Driver/Src/stm32n6xx_hal_dma.c ****     return HAL_ERROR;
 928:../Drivers/STM32N6xx_HAL_Driver/Src/stm32n6xx_hal_dma.c ****   }
 929:../Drivers/STM32N6xx_HAL_Driver/Src/stm32n6xx_hal_dma.c **** 
 930:../Drivers/STM32N6xx_HAL_Driver/Src/stm32n6xx_hal_dma.c ****   return HAL_OK;
 931:../Drivers/STM32N6xx_HAL_Driver/Src/stm32n6xx_hal_dma.c **** }
 932:../Drivers/STM32N6xx_HAL_Driver/Src/stm32n6xx_hal_dma.c **** 
 933:../Drivers/STM32N6xx_HAL_Driver/Src/stm32n6xx_hal_dma.c **** /**
 934:../Drivers/STM32N6xx_HAL_Driver/Src/stm32n6xx_hal_dma.c ****   * @brief  Handle DMA interrupt request (Non-blocking mode).
 935:../Drivers/STM32N6xx_HAL_Driver/Src/stm32n6xx_hal_dma.c ****   * @param  hdma : Pointer to a DMA_HandleTypeDef structure that contains the configuration informa
 936:../Drivers/STM32N6xx_HAL_Driver/Src/stm32n6xx_hal_dma.c ****   *                specified DMA Channel.
 937:../Drivers/STM32N6xx_HAL_Driver/Src/stm32n6xx_hal_dma.c ****   * @retval None.
ARM GAS  /tmp/ccRTxeLm.s 			page 18


 938:../Drivers/STM32N6xx_HAL_Driver/Src/stm32n6xx_hal_dma.c ****   */
 939:../Drivers/STM32N6xx_HAL_Driver/Src/stm32n6xx_hal_dma.c **** void HAL_DMA_IRQHandler(DMA_HandleTypeDef *const hdma)
 940:../Drivers/STM32N6xx_HAL_Driver/Src/stm32n6xx_hal_dma.c **** {
 941:../Drivers/STM32N6xx_HAL_Driver/Src/stm32n6xx_hal_dma.c ****   const DMA_TypeDef *p_dma_instance = GET_DMA_INSTANCE(hdma);
 942:../Drivers/STM32N6xx_HAL_Driver/Src/stm32n6xx_hal_dma.c ****   uint32_t global_it_flag =  1UL << (GET_DMA_CHANNEL(hdma) & 0x1FU);
 943:../Drivers/STM32N6xx_HAL_Driver/Src/stm32n6xx_hal_dma.c ****   uint32_t global_active_flag_ns = IS_DMA_GLOBAL_ACTIVE_FLAG_NS(p_dma_instance, global_it_flag);
 944:../Drivers/STM32N6xx_HAL_Driver/Src/stm32n6xx_hal_dma.c **** #if defined (CPU_IN_SECURE_STATE)
 945:../Drivers/STM32N6xx_HAL_Driver/Src/stm32n6xx_hal_dma.c ****   uint32_t global_active_flag_s = IS_DMA_GLOBAL_ACTIVE_FLAG_S(p_dma_instance, global_it_flag);
 946:../Drivers/STM32N6xx_HAL_Driver/Src/stm32n6xx_hal_dma.c **** #endif /* CPU_IN_SECURE_STATE */
 947:../Drivers/STM32N6xx_HAL_Driver/Src/stm32n6xx_hal_dma.c **** 
 948:../Drivers/STM32N6xx_HAL_Driver/Src/stm32n6xx_hal_dma.c ****   /* Global Interrupt Flag management *************************************************************
 949:../Drivers/STM32N6xx_HAL_Driver/Src/stm32n6xx_hal_dma.c **** #if defined (CPU_IN_SECURE_STATE)
 950:../Drivers/STM32N6xx_HAL_Driver/Src/stm32n6xx_hal_dma.c ****   if ((global_active_flag_s == 0U) && (global_active_flag_ns == 0U))
 951:../Drivers/STM32N6xx_HAL_Driver/Src/stm32n6xx_hal_dma.c **** #else
 952:../Drivers/STM32N6xx_HAL_Driver/Src/stm32n6xx_hal_dma.c ****   if (global_active_flag_ns == 0U)
 953:../Drivers/STM32N6xx_HAL_Driver/Src/stm32n6xx_hal_dma.c **** #endif /* CPU_IN_SECURE_STATE */
 954:../Drivers/STM32N6xx_HAL_Driver/Src/stm32n6xx_hal_dma.c ****   {
 955:../Drivers/STM32N6xx_HAL_Driver/Src/stm32n6xx_hal_dma.c ****     return; /* the global interrupt flag for the current channel is down , nothing to do */
 956:../Drivers/STM32N6xx_HAL_Driver/Src/stm32n6xx_hal_dma.c ****   }
 957:../Drivers/STM32N6xx_HAL_Driver/Src/stm32n6xx_hal_dma.c **** 
 958:../Drivers/STM32N6xx_HAL_Driver/Src/stm32n6xx_hal_dma.c ****   /* Data Transfer Error Interrupt management *****************************************************
 959:../Drivers/STM32N6xx_HAL_Driver/Src/stm32n6xx_hal_dma.c ****   if (__HAL_DMA_GET_FLAG(hdma, DMA_FLAG_DTE) != 0U)
 960:../Drivers/STM32N6xx_HAL_Driver/Src/stm32n6xx_hal_dma.c ****   {
 961:../Drivers/STM32N6xx_HAL_Driver/Src/stm32n6xx_hal_dma.c ****     /* Check if interrupt source is enabled */
 962:../Drivers/STM32N6xx_HAL_Driver/Src/stm32n6xx_hal_dma.c ****     if (__HAL_DMA_GET_IT_SOURCE(hdma, DMA_IT_DTE) != 0U)
 963:../Drivers/STM32N6xx_HAL_Driver/Src/stm32n6xx_hal_dma.c ****     {
 964:../Drivers/STM32N6xx_HAL_Driver/Src/stm32n6xx_hal_dma.c ****       /* Clear the transfer error flag */
 965:../Drivers/STM32N6xx_HAL_Driver/Src/stm32n6xx_hal_dma.c ****       __HAL_DMA_CLEAR_FLAG(hdma, DMA_FLAG_DTE);
 966:../Drivers/STM32N6xx_HAL_Driver/Src/stm32n6xx_hal_dma.c **** 
 967:../Drivers/STM32N6xx_HAL_Driver/Src/stm32n6xx_hal_dma.c ****       /* Update the DMA channel error code */
 968:../Drivers/STM32N6xx_HAL_Driver/Src/stm32n6xx_hal_dma.c ****       hdma->ErrorCode |= HAL_DMA_ERROR_DTE;
 969:../Drivers/STM32N6xx_HAL_Driver/Src/stm32n6xx_hal_dma.c ****     }
 970:../Drivers/STM32N6xx_HAL_Driver/Src/stm32n6xx_hal_dma.c ****   }
 971:../Drivers/STM32N6xx_HAL_Driver/Src/stm32n6xx_hal_dma.c **** 
 972:../Drivers/STM32N6xx_HAL_Driver/Src/stm32n6xx_hal_dma.c ****   /* Update Linked-list Error Interrupt management ************************************************
 973:../Drivers/STM32N6xx_HAL_Driver/Src/stm32n6xx_hal_dma.c ****   if (__HAL_DMA_GET_FLAG(hdma, DMA_FLAG_ULE) != 0U)
 974:../Drivers/STM32N6xx_HAL_Driver/Src/stm32n6xx_hal_dma.c ****   {
 975:../Drivers/STM32N6xx_HAL_Driver/Src/stm32n6xx_hal_dma.c ****     /* Check if interrupt source is enabled */
 976:../Drivers/STM32N6xx_HAL_Driver/Src/stm32n6xx_hal_dma.c ****     if (__HAL_DMA_GET_IT_SOURCE(hdma, DMA_IT_ULE) != 0U)
 977:../Drivers/STM32N6xx_HAL_Driver/Src/stm32n6xx_hal_dma.c ****     {
 978:../Drivers/STM32N6xx_HAL_Driver/Src/stm32n6xx_hal_dma.c ****       /* Clear the update linked-list error flag */
 979:../Drivers/STM32N6xx_HAL_Driver/Src/stm32n6xx_hal_dma.c ****       __HAL_DMA_CLEAR_FLAG(hdma, DMA_FLAG_ULE);
 980:../Drivers/STM32N6xx_HAL_Driver/Src/stm32n6xx_hal_dma.c **** 
 981:../Drivers/STM32N6xx_HAL_Driver/Src/stm32n6xx_hal_dma.c ****       /* Update the DMA channel error code */
 982:../Drivers/STM32N6xx_HAL_Driver/Src/stm32n6xx_hal_dma.c ****       hdma->ErrorCode |= HAL_DMA_ERROR_ULE;
 983:../Drivers/STM32N6xx_HAL_Driver/Src/stm32n6xx_hal_dma.c ****     }
 984:../Drivers/STM32N6xx_HAL_Driver/Src/stm32n6xx_hal_dma.c ****   }
 985:../Drivers/STM32N6xx_HAL_Driver/Src/stm32n6xx_hal_dma.c **** 
 986:../Drivers/STM32N6xx_HAL_Driver/Src/stm32n6xx_hal_dma.c ****   /* User Setting Error Interrupt management ******************************************************
 987:../Drivers/STM32N6xx_HAL_Driver/Src/stm32n6xx_hal_dma.c ****   if (__HAL_DMA_GET_FLAG(hdma, DMA_FLAG_USE) != 0U)
 988:../Drivers/STM32N6xx_HAL_Driver/Src/stm32n6xx_hal_dma.c ****   {
 989:../Drivers/STM32N6xx_HAL_Driver/Src/stm32n6xx_hal_dma.c ****     /* Check if interrupt source is enabled */
 990:../Drivers/STM32N6xx_HAL_Driver/Src/stm32n6xx_hal_dma.c ****     if (__HAL_DMA_GET_IT_SOURCE(hdma, DMA_IT_USE) != 0U)
 991:../Drivers/STM32N6xx_HAL_Driver/Src/stm32n6xx_hal_dma.c ****     {
 992:../Drivers/STM32N6xx_HAL_Driver/Src/stm32n6xx_hal_dma.c ****       /* Clear the user setting error flag */
 993:../Drivers/STM32N6xx_HAL_Driver/Src/stm32n6xx_hal_dma.c ****       __HAL_DMA_CLEAR_FLAG(hdma, DMA_FLAG_USE);
 994:../Drivers/STM32N6xx_HAL_Driver/Src/stm32n6xx_hal_dma.c **** 
ARM GAS  /tmp/ccRTxeLm.s 			page 19


 995:../Drivers/STM32N6xx_HAL_Driver/Src/stm32n6xx_hal_dma.c ****       /* Update the DMA channel error code */
 996:../Drivers/STM32N6xx_HAL_Driver/Src/stm32n6xx_hal_dma.c ****       hdma->ErrorCode |= HAL_DMA_ERROR_USE;
 997:../Drivers/STM32N6xx_HAL_Driver/Src/stm32n6xx_hal_dma.c ****     }
 998:../Drivers/STM32N6xx_HAL_Driver/Src/stm32n6xx_hal_dma.c ****   }
 999:../Drivers/STM32N6xx_HAL_Driver/Src/stm32n6xx_hal_dma.c **** 
1000:../Drivers/STM32N6xx_HAL_Driver/Src/stm32n6xx_hal_dma.c ****   /* Trigger Overrun Interrupt management *********************************************************
1001:../Drivers/STM32N6xx_HAL_Driver/Src/stm32n6xx_hal_dma.c ****   if (__HAL_DMA_GET_FLAG(hdma, DMA_FLAG_TO) != 0U)
1002:../Drivers/STM32N6xx_HAL_Driver/Src/stm32n6xx_hal_dma.c ****   {
1003:../Drivers/STM32N6xx_HAL_Driver/Src/stm32n6xx_hal_dma.c ****     /* Check if interrupt source is enabled */
1004:../Drivers/STM32N6xx_HAL_Driver/Src/stm32n6xx_hal_dma.c ****     if (__HAL_DMA_GET_IT_SOURCE(hdma, DMA_IT_TO) != 0U)
1005:../Drivers/STM32N6xx_HAL_Driver/Src/stm32n6xx_hal_dma.c ****     {
1006:../Drivers/STM32N6xx_HAL_Driver/Src/stm32n6xx_hal_dma.c ****       /* Clear the trigger overrun flag */
1007:../Drivers/STM32N6xx_HAL_Driver/Src/stm32n6xx_hal_dma.c ****       __HAL_DMA_CLEAR_FLAG(hdma, DMA_FLAG_TO);
1008:../Drivers/STM32N6xx_HAL_Driver/Src/stm32n6xx_hal_dma.c **** 
1009:../Drivers/STM32N6xx_HAL_Driver/Src/stm32n6xx_hal_dma.c ****       /* Update the DMA channel error code */
1010:../Drivers/STM32N6xx_HAL_Driver/Src/stm32n6xx_hal_dma.c ****       hdma->ErrorCode |= HAL_DMA_ERROR_TO;
1011:../Drivers/STM32N6xx_HAL_Driver/Src/stm32n6xx_hal_dma.c ****     }
1012:../Drivers/STM32N6xx_HAL_Driver/Src/stm32n6xx_hal_dma.c ****   }
1013:../Drivers/STM32N6xx_HAL_Driver/Src/stm32n6xx_hal_dma.c **** 
1014:../Drivers/STM32N6xx_HAL_Driver/Src/stm32n6xx_hal_dma.c ****   /* Half Transfer Complete Interrupt management **************************************************
1015:../Drivers/STM32N6xx_HAL_Driver/Src/stm32n6xx_hal_dma.c ****   if (__HAL_DMA_GET_FLAG(hdma, DMA_FLAG_HT) != 0U)
1016:../Drivers/STM32N6xx_HAL_Driver/Src/stm32n6xx_hal_dma.c ****   {
1017:../Drivers/STM32N6xx_HAL_Driver/Src/stm32n6xx_hal_dma.c ****     /* Check if interrupt source is enabled */
1018:../Drivers/STM32N6xx_HAL_Driver/Src/stm32n6xx_hal_dma.c ****     if (__HAL_DMA_GET_IT_SOURCE(hdma, DMA_IT_HT) != 0U)
1019:../Drivers/STM32N6xx_HAL_Driver/Src/stm32n6xx_hal_dma.c ****     {
1020:../Drivers/STM32N6xx_HAL_Driver/Src/stm32n6xx_hal_dma.c ****       /* Clear the half transfer flag */
1021:../Drivers/STM32N6xx_HAL_Driver/Src/stm32n6xx_hal_dma.c ****       __HAL_DMA_CLEAR_FLAG(hdma, DMA_FLAG_HT);
1022:../Drivers/STM32N6xx_HAL_Driver/Src/stm32n6xx_hal_dma.c **** 
1023:../Drivers/STM32N6xx_HAL_Driver/Src/stm32n6xx_hal_dma.c ****       /* Check half transfer complete callback */
1024:../Drivers/STM32N6xx_HAL_Driver/Src/stm32n6xx_hal_dma.c ****       if (hdma->XferHalfCpltCallback != NULL)
1025:../Drivers/STM32N6xx_HAL_Driver/Src/stm32n6xx_hal_dma.c ****       {
1026:../Drivers/STM32N6xx_HAL_Driver/Src/stm32n6xx_hal_dma.c ****         /* Half transfer callback */
1027:../Drivers/STM32N6xx_HAL_Driver/Src/stm32n6xx_hal_dma.c ****         hdma->XferHalfCpltCallback(hdma);
1028:../Drivers/STM32N6xx_HAL_Driver/Src/stm32n6xx_hal_dma.c ****       }
1029:../Drivers/STM32N6xx_HAL_Driver/Src/stm32n6xx_hal_dma.c ****     }
1030:../Drivers/STM32N6xx_HAL_Driver/Src/stm32n6xx_hal_dma.c ****   }
1031:../Drivers/STM32N6xx_HAL_Driver/Src/stm32n6xx_hal_dma.c **** 
1032:../Drivers/STM32N6xx_HAL_Driver/Src/stm32n6xx_hal_dma.c ****   /* Suspend Transfer Interrupt management ********************************************************
1033:../Drivers/STM32N6xx_HAL_Driver/Src/stm32n6xx_hal_dma.c ****   if (__HAL_DMA_GET_FLAG(hdma, DMA_FLAG_SUSP) != 0U)
1034:../Drivers/STM32N6xx_HAL_Driver/Src/stm32n6xx_hal_dma.c ****   {
1035:../Drivers/STM32N6xx_HAL_Driver/Src/stm32n6xx_hal_dma.c ****     /* Check if interrupt source is enabled */
1036:../Drivers/STM32N6xx_HAL_Driver/Src/stm32n6xx_hal_dma.c ****     if (__HAL_DMA_GET_IT_SOURCE(hdma, DMA_IT_SUSP) != 0U)
1037:../Drivers/STM32N6xx_HAL_Driver/Src/stm32n6xx_hal_dma.c ****     {
1038:../Drivers/STM32N6xx_HAL_Driver/Src/stm32n6xx_hal_dma.c ****       /* Clear the block transfer complete flag */
1039:../Drivers/STM32N6xx_HAL_Driver/Src/stm32n6xx_hal_dma.c ****       __HAL_DMA_CLEAR_FLAG(hdma, DMA_FLAG_SUSP);
1040:../Drivers/STM32N6xx_HAL_Driver/Src/stm32n6xx_hal_dma.c **** 
1041:../Drivers/STM32N6xx_HAL_Driver/Src/stm32n6xx_hal_dma.c ****       /* Check DMA channel state */
1042:../Drivers/STM32N6xx_HAL_Driver/Src/stm32n6xx_hal_dma.c ****       if (hdma->State == HAL_DMA_STATE_ABORT)
1043:../Drivers/STM32N6xx_HAL_Driver/Src/stm32n6xx_hal_dma.c ****       {
1044:../Drivers/STM32N6xx_HAL_Driver/Src/stm32n6xx_hal_dma.c ****         /* Disable the suspend transfer interrupt */
1045:../Drivers/STM32N6xx_HAL_Driver/Src/stm32n6xx_hal_dma.c ****         __HAL_DMA_DISABLE_IT(hdma, DMA_IT_SUSP);
1046:../Drivers/STM32N6xx_HAL_Driver/Src/stm32n6xx_hal_dma.c **** 
1047:../Drivers/STM32N6xx_HAL_Driver/Src/stm32n6xx_hal_dma.c ****         /* Reset the channel internal state and reset the FIFO */
1048:../Drivers/STM32N6xx_HAL_Driver/Src/stm32n6xx_hal_dma.c ****         hdma->Instance->CCR |= DMA_CCR_RESET;
1049:../Drivers/STM32N6xx_HAL_Driver/Src/stm32n6xx_hal_dma.c **** 
1050:../Drivers/STM32N6xx_HAL_Driver/Src/stm32n6xx_hal_dma.c ****         /* Update the DMA channel state */
1051:../Drivers/STM32N6xx_HAL_Driver/Src/stm32n6xx_hal_dma.c ****         hdma->State = HAL_DMA_STATE_READY;
ARM GAS  /tmp/ccRTxeLm.s 			page 20


1052:../Drivers/STM32N6xx_HAL_Driver/Src/stm32n6xx_hal_dma.c **** 
1053:../Drivers/STM32N6xx_HAL_Driver/Src/stm32n6xx_hal_dma.c ****         /* Check DMA channel transfer mode */
1054:../Drivers/STM32N6xx_HAL_Driver/Src/stm32n6xx_hal_dma.c ****         if ((hdma->Mode & DMA_LINKEDLIST) == DMA_LINKEDLIST)
1055:../Drivers/STM32N6xx_HAL_Driver/Src/stm32n6xx_hal_dma.c ****         {
1056:../Drivers/STM32N6xx_HAL_Driver/Src/stm32n6xx_hal_dma.c ****           /* Update the linked-list queue state */
1057:../Drivers/STM32N6xx_HAL_Driver/Src/stm32n6xx_hal_dma.c ****           hdma->LinkedListQueue->State = HAL_DMA_QUEUE_STATE_READY;
1058:../Drivers/STM32N6xx_HAL_Driver/Src/stm32n6xx_hal_dma.c **** 
1059:../Drivers/STM32N6xx_HAL_Driver/Src/stm32n6xx_hal_dma.c ****           /* Clear remaining data size to ensure loading linked-list from memory next start */
1060:../Drivers/STM32N6xx_HAL_Driver/Src/stm32n6xx_hal_dma.c ****           hdma->Instance->CBR1 = 0U;
1061:../Drivers/STM32N6xx_HAL_Driver/Src/stm32n6xx_hal_dma.c ****         }
1062:../Drivers/STM32N6xx_HAL_Driver/Src/stm32n6xx_hal_dma.c **** 
1063:../Drivers/STM32N6xx_HAL_Driver/Src/stm32n6xx_hal_dma.c ****         /* Process Unlocked */
1064:../Drivers/STM32N6xx_HAL_Driver/Src/stm32n6xx_hal_dma.c ****         __HAL_UNLOCK(hdma);
1065:../Drivers/STM32N6xx_HAL_Driver/Src/stm32n6xx_hal_dma.c **** 
1066:../Drivers/STM32N6xx_HAL_Driver/Src/stm32n6xx_hal_dma.c ****         /* Check transfer abort callback */
1067:../Drivers/STM32N6xx_HAL_Driver/Src/stm32n6xx_hal_dma.c ****         if (hdma->XferAbortCallback != NULL)
1068:../Drivers/STM32N6xx_HAL_Driver/Src/stm32n6xx_hal_dma.c ****         {
1069:../Drivers/STM32N6xx_HAL_Driver/Src/stm32n6xx_hal_dma.c ****           /* Transfer abort callback */
1070:../Drivers/STM32N6xx_HAL_Driver/Src/stm32n6xx_hal_dma.c ****           hdma->XferAbortCallback(hdma);
1071:../Drivers/STM32N6xx_HAL_Driver/Src/stm32n6xx_hal_dma.c ****         }
1072:../Drivers/STM32N6xx_HAL_Driver/Src/stm32n6xx_hal_dma.c **** 
1073:../Drivers/STM32N6xx_HAL_Driver/Src/stm32n6xx_hal_dma.c ****         return;
1074:../Drivers/STM32N6xx_HAL_Driver/Src/stm32n6xx_hal_dma.c ****       }
1075:../Drivers/STM32N6xx_HAL_Driver/Src/stm32n6xx_hal_dma.c ****       else
1076:../Drivers/STM32N6xx_HAL_Driver/Src/stm32n6xx_hal_dma.c ****       {
1077:../Drivers/STM32N6xx_HAL_Driver/Src/stm32n6xx_hal_dma.c ****         /* Update the DMA channel state */
1078:../Drivers/STM32N6xx_HAL_Driver/Src/stm32n6xx_hal_dma.c ****         hdma->State = HAL_DMA_STATE_SUSPEND;
1079:../Drivers/STM32N6xx_HAL_Driver/Src/stm32n6xx_hal_dma.c **** 
1080:../Drivers/STM32N6xx_HAL_Driver/Src/stm32n6xx_hal_dma.c ****         /* Check transfer suspend callback */
1081:../Drivers/STM32N6xx_HAL_Driver/Src/stm32n6xx_hal_dma.c ****         if (hdma->XferSuspendCallback != NULL)
1082:../Drivers/STM32N6xx_HAL_Driver/Src/stm32n6xx_hal_dma.c ****         {
1083:../Drivers/STM32N6xx_HAL_Driver/Src/stm32n6xx_hal_dma.c ****           /* Transfer suspend callback */
1084:../Drivers/STM32N6xx_HAL_Driver/Src/stm32n6xx_hal_dma.c ****           hdma->XferSuspendCallback(hdma);
1085:../Drivers/STM32N6xx_HAL_Driver/Src/stm32n6xx_hal_dma.c ****         }
1086:../Drivers/STM32N6xx_HAL_Driver/Src/stm32n6xx_hal_dma.c ****       }
1087:../Drivers/STM32N6xx_HAL_Driver/Src/stm32n6xx_hal_dma.c ****     }
1088:../Drivers/STM32N6xx_HAL_Driver/Src/stm32n6xx_hal_dma.c ****   }
1089:../Drivers/STM32N6xx_HAL_Driver/Src/stm32n6xx_hal_dma.c **** 
1090:../Drivers/STM32N6xx_HAL_Driver/Src/stm32n6xx_hal_dma.c ****   /* Transfer Complete Interrupt management *******************************************************
1091:../Drivers/STM32N6xx_HAL_Driver/Src/stm32n6xx_hal_dma.c ****   if (__HAL_DMA_GET_FLAG(hdma, DMA_FLAG_TC) != 0U)
1092:../Drivers/STM32N6xx_HAL_Driver/Src/stm32n6xx_hal_dma.c ****   {
1093:../Drivers/STM32N6xx_HAL_Driver/Src/stm32n6xx_hal_dma.c ****     /* Check if interrupt source is enabled */
1094:../Drivers/STM32N6xx_HAL_Driver/Src/stm32n6xx_hal_dma.c ****     if (__HAL_DMA_GET_IT_SOURCE(hdma, DMA_IT_TC) != 0U)
1095:../Drivers/STM32N6xx_HAL_Driver/Src/stm32n6xx_hal_dma.c ****     {
1096:../Drivers/STM32N6xx_HAL_Driver/Src/stm32n6xx_hal_dma.c ****       /* Check DMA channel transfer mode */
1097:../Drivers/STM32N6xx_HAL_Driver/Src/stm32n6xx_hal_dma.c ****       if ((hdma->Mode & DMA_LINKEDLIST) == DMA_LINKEDLIST)
1098:../Drivers/STM32N6xx_HAL_Driver/Src/stm32n6xx_hal_dma.c ****       {
1099:../Drivers/STM32N6xx_HAL_Driver/Src/stm32n6xx_hal_dma.c ****         /* If linked-list transfer */
1100:../Drivers/STM32N6xx_HAL_Driver/Src/stm32n6xx_hal_dma.c ****         if (hdma->Instance->CLLR == 0U)
1101:../Drivers/STM32N6xx_HAL_Driver/Src/stm32n6xx_hal_dma.c ****         {
1102:../Drivers/STM32N6xx_HAL_Driver/Src/stm32n6xx_hal_dma.c ****           if (hdma->Instance->CBR1 == 0U)
1103:../Drivers/STM32N6xx_HAL_Driver/Src/stm32n6xx_hal_dma.c ****           {
1104:../Drivers/STM32N6xx_HAL_Driver/Src/stm32n6xx_hal_dma.c ****             /* Update the DMA channel state */
1105:../Drivers/STM32N6xx_HAL_Driver/Src/stm32n6xx_hal_dma.c ****             hdma->State = HAL_DMA_STATE_READY;
1106:../Drivers/STM32N6xx_HAL_Driver/Src/stm32n6xx_hal_dma.c **** 
1107:../Drivers/STM32N6xx_HAL_Driver/Src/stm32n6xx_hal_dma.c ****             /* Update the linked-list queue state */
1108:../Drivers/STM32N6xx_HAL_Driver/Src/stm32n6xx_hal_dma.c ****             hdma->LinkedListQueue->State = HAL_DMA_QUEUE_STATE_READY;
ARM GAS  /tmp/ccRTxeLm.s 			page 21


1109:../Drivers/STM32N6xx_HAL_Driver/Src/stm32n6xx_hal_dma.c ****           }
1110:../Drivers/STM32N6xx_HAL_Driver/Src/stm32n6xx_hal_dma.c ****         }
1111:../Drivers/STM32N6xx_HAL_Driver/Src/stm32n6xx_hal_dma.c ****       }
1112:../Drivers/STM32N6xx_HAL_Driver/Src/stm32n6xx_hal_dma.c ****       else
1113:../Drivers/STM32N6xx_HAL_Driver/Src/stm32n6xx_hal_dma.c ****       {
1114:../Drivers/STM32N6xx_HAL_Driver/Src/stm32n6xx_hal_dma.c ****         /* If normal transfer */
1115:../Drivers/STM32N6xx_HAL_Driver/Src/stm32n6xx_hal_dma.c ****         if (hdma->Instance->CBR1 == 0U)
1116:../Drivers/STM32N6xx_HAL_Driver/Src/stm32n6xx_hal_dma.c ****         {
1117:../Drivers/STM32N6xx_HAL_Driver/Src/stm32n6xx_hal_dma.c ****           /* Update the DMA channel state */
1118:../Drivers/STM32N6xx_HAL_Driver/Src/stm32n6xx_hal_dma.c ****           hdma->State = HAL_DMA_STATE_READY;
1119:../Drivers/STM32N6xx_HAL_Driver/Src/stm32n6xx_hal_dma.c ****         }
1120:../Drivers/STM32N6xx_HAL_Driver/Src/stm32n6xx_hal_dma.c ****       }
1121:../Drivers/STM32N6xx_HAL_Driver/Src/stm32n6xx_hal_dma.c **** 
1122:../Drivers/STM32N6xx_HAL_Driver/Src/stm32n6xx_hal_dma.c ****       /* Clear TC and HT transfer flags */
1123:../Drivers/STM32N6xx_HAL_Driver/Src/stm32n6xx_hal_dma.c ****       __HAL_DMA_CLEAR_FLAG(hdma, (DMA_FLAG_TC | DMA_FLAG_HT));
1124:../Drivers/STM32N6xx_HAL_Driver/Src/stm32n6xx_hal_dma.c **** 
1125:../Drivers/STM32N6xx_HAL_Driver/Src/stm32n6xx_hal_dma.c ****       /* Process Unlocked */
1126:../Drivers/STM32N6xx_HAL_Driver/Src/stm32n6xx_hal_dma.c ****       __HAL_UNLOCK(hdma);
1127:../Drivers/STM32N6xx_HAL_Driver/Src/stm32n6xx_hal_dma.c **** 
1128:../Drivers/STM32N6xx_HAL_Driver/Src/stm32n6xx_hal_dma.c ****       /* Check transfer complete callback */
1129:../Drivers/STM32N6xx_HAL_Driver/Src/stm32n6xx_hal_dma.c ****       if (hdma->XferCpltCallback != NULL)
1130:../Drivers/STM32N6xx_HAL_Driver/Src/stm32n6xx_hal_dma.c ****       {
1131:../Drivers/STM32N6xx_HAL_Driver/Src/stm32n6xx_hal_dma.c ****         /* Channel Transfer Complete callback */
1132:../Drivers/STM32N6xx_HAL_Driver/Src/stm32n6xx_hal_dma.c ****         hdma->XferCpltCallback(hdma);
1133:../Drivers/STM32N6xx_HAL_Driver/Src/stm32n6xx_hal_dma.c ****       }
1134:../Drivers/STM32N6xx_HAL_Driver/Src/stm32n6xx_hal_dma.c ****     }
1135:../Drivers/STM32N6xx_HAL_Driver/Src/stm32n6xx_hal_dma.c ****   }
1136:../Drivers/STM32N6xx_HAL_Driver/Src/stm32n6xx_hal_dma.c **** 
1137:../Drivers/STM32N6xx_HAL_Driver/Src/stm32n6xx_hal_dma.c ****   /* Manage error case ****************************************************************************
1138:../Drivers/STM32N6xx_HAL_Driver/Src/stm32n6xx_hal_dma.c ****   if (hdma->ErrorCode != HAL_DMA_ERROR_NONE)
1139:../Drivers/STM32N6xx_HAL_Driver/Src/stm32n6xx_hal_dma.c ****   {
1140:../Drivers/STM32N6xx_HAL_Driver/Src/stm32n6xx_hal_dma.c ****     /* Reset the channel internal state and reset the FIFO */
1141:../Drivers/STM32N6xx_HAL_Driver/Src/stm32n6xx_hal_dma.c ****     hdma->Instance->CCR |= DMA_CCR_RESET;
1142:../Drivers/STM32N6xx_HAL_Driver/Src/stm32n6xx_hal_dma.c **** 
1143:../Drivers/STM32N6xx_HAL_Driver/Src/stm32n6xx_hal_dma.c ****     /* Update the DMA channel state */
1144:../Drivers/STM32N6xx_HAL_Driver/Src/stm32n6xx_hal_dma.c ****     hdma->State = HAL_DMA_STATE_READY;
1145:../Drivers/STM32N6xx_HAL_Driver/Src/stm32n6xx_hal_dma.c **** 
1146:../Drivers/STM32N6xx_HAL_Driver/Src/stm32n6xx_hal_dma.c ****     /* Check DMA channel transfer mode */
1147:../Drivers/STM32N6xx_HAL_Driver/Src/stm32n6xx_hal_dma.c ****     if ((hdma->Mode & DMA_LINKEDLIST) == DMA_LINKEDLIST)
1148:../Drivers/STM32N6xx_HAL_Driver/Src/stm32n6xx_hal_dma.c ****     {
1149:../Drivers/STM32N6xx_HAL_Driver/Src/stm32n6xx_hal_dma.c ****       /* Update the linked-list queue state */
1150:../Drivers/STM32N6xx_HAL_Driver/Src/stm32n6xx_hal_dma.c ****       hdma->LinkedListQueue->State = HAL_DMA_QUEUE_STATE_READY;
1151:../Drivers/STM32N6xx_HAL_Driver/Src/stm32n6xx_hal_dma.c ****     }
1152:../Drivers/STM32N6xx_HAL_Driver/Src/stm32n6xx_hal_dma.c **** 
1153:../Drivers/STM32N6xx_HAL_Driver/Src/stm32n6xx_hal_dma.c ****     /* Process Unlocked */
1154:../Drivers/STM32N6xx_HAL_Driver/Src/stm32n6xx_hal_dma.c ****     __HAL_UNLOCK(hdma);
1155:../Drivers/STM32N6xx_HAL_Driver/Src/stm32n6xx_hal_dma.c **** 
1156:../Drivers/STM32N6xx_HAL_Driver/Src/stm32n6xx_hal_dma.c ****     /* Check transfer error callback */
1157:../Drivers/STM32N6xx_HAL_Driver/Src/stm32n6xx_hal_dma.c ****     if (hdma->XferErrorCallback != NULL)
1158:../Drivers/STM32N6xx_HAL_Driver/Src/stm32n6xx_hal_dma.c ****     {
1159:../Drivers/STM32N6xx_HAL_Driver/Src/stm32n6xx_hal_dma.c ****       /* Transfer error callback */
1160:../Drivers/STM32N6xx_HAL_Driver/Src/stm32n6xx_hal_dma.c ****       hdma->XferErrorCallback(hdma);
1161:../Drivers/STM32N6xx_HAL_Driver/Src/stm32n6xx_hal_dma.c ****     }
1162:../Drivers/STM32N6xx_HAL_Driver/Src/stm32n6xx_hal_dma.c ****   }
1163:../Drivers/STM32N6xx_HAL_Driver/Src/stm32n6xx_hal_dma.c **** }
1164:../Drivers/STM32N6xx_HAL_Driver/Src/stm32n6xx_hal_dma.c **** 
1165:../Drivers/STM32N6xx_HAL_Driver/Src/stm32n6xx_hal_dma.c **** /**
ARM GAS  /tmp/ccRTxeLm.s 			page 22


1166:../Drivers/STM32N6xx_HAL_Driver/Src/stm32n6xx_hal_dma.c ****   * @brief  Register callback according to specified ID.
1167:../Drivers/STM32N6xx_HAL_Driver/Src/stm32n6xx_hal_dma.c ****   * @note   The HAL_DMA_RegisterCallback() may be called before HAL_DMA_Init() in HAL_DMA_STATE_RES
1168:../Drivers/STM32N6xx_HAL_Driver/Src/stm32n6xx_hal_dma.c ****   *         to register callbacks for HAL_DMA_MSPINIT_CB_ID and HAL_DMA_MSPDEINIT_CB_ID.
1169:../Drivers/STM32N6xx_HAL_Driver/Src/stm32n6xx_hal_dma.c ****   * @param  hdma       : Pointer to a DMA_HandleTypeDef structure that contains the configuration i
1170:../Drivers/STM32N6xx_HAL_Driver/Src/stm32n6xx_hal_dma.c ****   *                      specified DMA Channel.
1171:../Drivers/STM32N6xx_HAL_Driver/Src/stm32n6xx_hal_dma.c ****   * @param  CallbackID : User Callback identifier which could be a value of HAL_DMA_CallbackIDTypeD
1172:../Drivers/STM32N6xx_HAL_Driver/Src/stm32n6xx_hal_dma.c ****   * @param  pCallback  : Pointer to private callback function.
1173:../Drivers/STM32N6xx_HAL_Driver/Src/stm32n6xx_hal_dma.c ****   * @retval HAL status.
1174:../Drivers/STM32N6xx_HAL_Driver/Src/stm32n6xx_hal_dma.c ****   */
1175:../Drivers/STM32N6xx_HAL_Driver/Src/stm32n6xx_hal_dma.c **** HAL_StatusTypeDef HAL_DMA_RegisterCallback(DMA_HandleTypeDef *const hdma,
1176:../Drivers/STM32N6xx_HAL_Driver/Src/stm32n6xx_hal_dma.c ****                                            HAL_DMA_CallbackIDTypeDef CallbackID,
1177:../Drivers/STM32N6xx_HAL_Driver/Src/stm32n6xx_hal_dma.c ****                                            void (*const pCallback)(DMA_HandleTypeDef *const _hdma))
1178:../Drivers/STM32N6xx_HAL_Driver/Src/stm32n6xx_hal_dma.c **** {
1179:../Drivers/STM32N6xx_HAL_Driver/Src/stm32n6xx_hal_dma.c ****   HAL_StatusTypeDef status = HAL_OK;
1180:../Drivers/STM32N6xx_HAL_Driver/Src/stm32n6xx_hal_dma.c **** 
1181:../Drivers/STM32N6xx_HAL_Driver/Src/stm32n6xx_hal_dma.c ****   /* Check the DMA peripheral handle parameter */
1182:../Drivers/STM32N6xx_HAL_Driver/Src/stm32n6xx_hal_dma.c ****   if (hdma == NULL)
1183:../Drivers/STM32N6xx_HAL_Driver/Src/stm32n6xx_hal_dma.c ****   {
1184:../Drivers/STM32N6xx_HAL_Driver/Src/stm32n6xx_hal_dma.c ****     return HAL_ERROR;
1185:../Drivers/STM32N6xx_HAL_Driver/Src/stm32n6xx_hal_dma.c ****   }
1186:../Drivers/STM32N6xx_HAL_Driver/Src/stm32n6xx_hal_dma.c **** 
1187:../Drivers/STM32N6xx_HAL_Driver/Src/stm32n6xx_hal_dma.c ****   /* Check DMA channel state */
1188:../Drivers/STM32N6xx_HAL_Driver/Src/stm32n6xx_hal_dma.c ****   if (hdma->State == HAL_DMA_STATE_READY)
1189:../Drivers/STM32N6xx_HAL_Driver/Src/stm32n6xx_hal_dma.c ****   {
1190:../Drivers/STM32N6xx_HAL_Driver/Src/stm32n6xx_hal_dma.c ****     /* Check callback ID */
1191:../Drivers/STM32N6xx_HAL_Driver/Src/stm32n6xx_hal_dma.c ****     switch (CallbackID)
1192:../Drivers/STM32N6xx_HAL_Driver/Src/stm32n6xx_hal_dma.c ****     {
1193:../Drivers/STM32N6xx_HAL_Driver/Src/stm32n6xx_hal_dma.c ****       case HAL_DMA_XFER_CPLT_CB_ID:
1194:../Drivers/STM32N6xx_HAL_Driver/Src/stm32n6xx_hal_dma.c ****       {
1195:../Drivers/STM32N6xx_HAL_Driver/Src/stm32n6xx_hal_dma.c ****         /* Register transfer complete callback */
1196:../Drivers/STM32N6xx_HAL_Driver/Src/stm32n6xx_hal_dma.c ****         hdma->XferCpltCallback = pCallback;
1197:../Drivers/STM32N6xx_HAL_Driver/Src/stm32n6xx_hal_dma.c ****         break;
1198:../Drivers/STM32N6xx_HAL_Driver/Src/stm32n6xx_hal_dma.c ****       }
1199:../Drivers/STM32N6xx_HAL_Driver/Src/stm32n6xx_hal_dma.c **** 
1200:../Drivers/STM32N6xx_HAL_Driver/Src/stm32n6xx_hal_dma.c ****       case HAL_DMA_XFER_HALFCPLT_CB_ID:
1201:../Drivers/STM32N6xx_HAL_Driver/Src/stm32n6xx_hal_dma.c ****       {
1202:../Drivers/STM32N6xx_HAL_Driver/Src/stm32n6xx_hal_dma.c ****         /* Register half transfer callback */
1203:../Drivers/STM32N6xx_HAL_Driver/Src/stm32n6xx_hal_dma.c ****         hdma->XferHalfCpltCallback = pCallback;
1204:../Drivers/STM32N6xx_HAL_Driver/Src/stm32n6xx_hal_dma.c ****         break;
1205:../Drivers/STM32N6xx_HAL_Driver/Src/stm32n6xx_hal_dma.c ****       }
1206:../Drivers/STM32N6xx_HAL_Driver/Src/stm32n6xx_hal_dma.c **** 
1207:../Drivers/STM32N6xx_HAL_Driver/Src/stm32n6xx_hal_dma.c ****       case HAL_DMA_XFER_ERROR_CB_ID:
1208:../Drivers/STM32N6xx_HAL_Driver/Src/stm32n6xx_hal_dma.c ****       {
1209:../Drivers/STM32N6xx_HAL_Driver/Src/stm32n6xx_hal_dma.c ****         /* Register transfer error callback */
1210:../Drivers/STM32N6xx_HAL_Driver/Src/stm32n6xx_hal_dma.c ****         hdma->XferErrorCallback = pCallback;
1211:../Drivers/STM32N6xx_HAL_Driver/Src/stm32n6xx_hal_dma.c ****         break;
1212:../Drivers/STM32N6xx_HAL_Driver/Src/stm32n6xx_hal_dma.c ****       }
1213:../Drivers/STM32N6xx_HAL_Driver/Src/stm32n6xx_hal_dma.c **** 
1214:../Drivers/STM32N6xx_HAL_Driver/Src/stm32n6xx_hal_dma.c ****       case HAL_DMA_XFER_ABORT_CB_ID:
1215:../Drivers/STM32N6xx_HAL_Driver/Src/stm32n6xx_hal_dma.c ****       {
1216:../Drivers/STM32N6xx_HAL_Driver/Src/stm32n6xx_hal_dma.c ****         /* Register abort callback */
1217:../Drivers/STM32N6xx_HAL_Driver/Src/stm32n6xx_hal_dma.c ****         hdma->XferAbortCallback = pCallback;
1218:../Drivers/STM32N6xx_HAL_Driver/Src/stm32n6xx_hal_dma.c ****         break;
1219:../Drivers/STM32N6xx_HAL_Driver/Src/stm32n6xx_hal_dma.c ****       }
1220:../Drivers/STM32N6xx_HAL_Driver/Src/stm32n6xx_hal_dma.c **** 
1221:../Drivers/STM32N6xx_HAL_Driver/Src/stm32n6xx_hal_dma.c ****       case HAL_DMA_XFER_SUSPEND_CB_ID:
1222:../Drivers/STM32N6xx_HAL_Driver/Src/stm32n6xx_hal_dma.c ****       {
ARM GAS  /tmp/ccRTxeLm.s 			page 23


1223:../Drivers/STM32N6xx_HAL_Driver/Src/stm32n6xx_hal_dma.c ****         /* Register suspend callback */
1224:../Drivers/STM32N6xx_HAL_Driver/Src/stm32n6xx_hal_dma.c ****         hdma->XferSuspendCallback = pCallback;
1225:../Drivers/STM32N6xx_HAL_Driver/Src/stm32n6xx_hal_dma.c ****         break;
1226:../Drivers/STM32N6xx_HAL_Driver/Src/stm32n6xx_hal_dma.c ****       }
1227:../Drivers/STM32N6xx_HAL_Driver/Src/stm32n6xx_hal_dma.c **** 
1228:../Drivers/STM32N6xx_HAL_Driver/Src/stm32n6xx_hal_dma.c ****       default:
1229:../Drivers/STM32N6xx_HAL_Driver/Src/stm32n6xx_hal_dma.c ****       {
1230:../Drivers/STM32N6xx_HAL_Driver/Src/stm32n6xx_hal_dma.c ****         /* Update error status */
1231:../Drivers/STM32N6xx_HAL_Driver/Src/stm32n6xx_hal_dma.c ****         status = HAL_ERROR;
1232:../Drivers/STM32N6xx_HAL_Driver/Src/stm32n6xx_hal_dma.c ****         break;
1233:../Drivers/STM32N6xx_HAL_Driver/Src/stm32n6xx_hal_dma.c ****       }
1234:../Drivers/STM32N6xx_HAL_Driver/Src/stm32n6xx_hal_dma.c ****     }
1235:../Drivers/STM32N6xx_HAL_Driver/Src/stm32n6xx_hal_dma.c ****   }
1236:../Drivers/STM32N6xx_HAL_Driver/Src/stm32n6xx_hal_dma.c ****   else
1237:../Drivers/STM32N6xx_HAL_Driver/Src/stm32n6xx_hal_dma.c ****   {
1238:../Drivers/STM32N6xx_HAL_Driver/Src/stm32n6xx_hal_dma.c ****     /* Update error status */
1239:../Drivers/STM32N6xx_HAL_Driver/Src/stm32n6xx_hal_dma.c ****     status =  HAL_ERROR;
1240:../Drivers/STM32N6xx_HAL_Driver/Src/stm32n6xx_hal_dma.c ****   }
1241:../Drivers/STM32N6xx_HAL_Driver/Src/stm32n6xx_hal_dma.c **** 
1242:../Drivers/STM32N6xx_HAL_Driver/Src/stm32n6xx_hal_dma.c ****   return status;
1243:../Drivers/STM32N6xx_HAL_Driver/Src/stm32n6xx_hal_dma.c **** }
1244:../Drivers/STM32N6xx_HAL_Driver/Src/stm32n6xx_hal_dma.c **** 
1245:../Drivers/STM32N6xx_HAL_Driver/Src/stm32n6xx_hal_dma.c **** /**
1246:../Drivers/STM32N6xx_HAL_Driver/Src/stm32n6xx_hal_dma.c ****   * @brief  Unregister callback according to specified ID.
1247:../Drivers/STM32N6xx_HAL_Driver/Src/stm32n6xx_hal_dma.c ****   * @note   The HAL_DMA_UnRegisterCallback() may be called before HAL_DMA_Init() in HAL_DMA_STATE_R
1248:../Drivers/STM32N6xx_HAL_Driver/Src/stm32n6xx_hal_dma.c ****   *         to un-register callbacks for HAL_DMA_MSPINIT_CB_ID and HAL_DMA_MSPDEINIT_CB_ID.
1249:../Drivers/STM32N6xx_HAL_Driver/Src/stm32n6xx_hal_dma.c ****   * @param  hdma       : Pointer to a DMA_HandleTypeDef structure that contains the configuration i
1250:../Drivers/STM32N6xx_HAL_Driver/Src/stm32n6xx_hal_dma.c ****   *                      specified DMA Channel.
1251:../Drivers/STM32N6xx_HAL_Driver/Src/stm32n6xx_hal_dma.c ****   * @param  CallbackID : User Callback identifier which could be a value of HAL_DMA_CallbackIDTypeD
1252:../Drivers/STM32N6xx_HAL_Driver/Src/stm32n6xx_hal_dma.c ****   * @retval HAL status.
1253:../Drivers/STM32N6xx_HAL_Driver/Src/stm32n6xx_hal_dma.c ****   */
1254:../Drivers/STM32N6xx_HAL_Driver/Src/stm32n6xx_hal_dma.c **** HAL_StatusTypeDef HAL_DMA_UnRegisterCallback(DMA_HandleTypeDef *const hdma,
1255:../Drivers/STM32N6xx_HAL_Driver/Src/stm32n6xx_hal_dma.c ****                                              HAL_DMA_CallbackIDTypeDef CallbackID)
1256:../Drivers/STM32N6xx_HAL_Driver/Src/stm32n6xx_hal_dma.c **** {
1257:../Drivers/STM32N6xx_HAL_Driver/Src/stm32n6xx_hal_dma.c ****   HAL_StatusTypeDef status = HAL_OK;
1258:../Drivers/STM32N6xx_HAL_Driver/Src/stm32n6xx_hal_dma.c **** 
1259:../Drivers/STM32N6xx_HAL_Driver/Src/stm32n6xx_hal_dma.c ****   /* Check the DMA peripheral handle parameter */
1260:../Drivers/STM32N6xx_HAL_Driver/Src/stm32n6xx_hal_dma.c ****   if (hdma == NULL)
1261:../Drivers/STM32N6xx_HAL_Driver/Src/stm32n6xx_hal_dma.c ****   {
1262:../Drivers/STM32N6xx_HAL_Driver/Src/stm32n6xx_hal_dma.c ****     return HAL_ERROR;
1263:../Drivers/STM32N6xx_HAL_Driver/Src/stm32n6xx_hal_dma.c ****   }
1264:../Drivers/STM32N6xx_HAL_Driver/Src/stm32n6xx_hal_dma.c **** 
1265:../Drivers/STM32N6xx_HAL_Driver/Src/stm32n6xx_hal_dma.c ****   /* Check DMA channel state */
1266:../Drivers/STM32N6xx_HAL_Driver/Src/stm32n6xx_hal_dma.c ****   if (hdma->State == HAL_DMA_STATE_READY)
1267:../Drivers/STM32N6xx_HAL_Driver/Src/stm32n6xx_hal_dma.c ****   {
1268:../Drivers/STM32N6xx_HAL_Driver/Src/stm32n6xx_hal_dma.c ****     /* Check callback ID */
1269:../Drivers/STM32N6xx_HAL_Driver/Src/stm32n6xx_hal_dma.c ****     switch (CallbackID)
1270:../Drivers/STM32N6xx_HAL_Driver/Src/stm32n6xx_hal_dma.c ****     {
1271:../Drivers/STM32N6xx_HAL_Driver/Src/stm32n6xx_hal_dma.c ****       case HAL_DMA_XFER_CPLT_CB_ID:
1272:../Drivers/STM32N6xx_HAL_Driver/Src/stm32n6xx_hal_dma.c ****       {
1273:../Drivers/STM32N6xx_HAL_Driver/Src/stm32n6xx_hal_dma.c ****         /* UnRegister transfer complete callback */
1274:../Drivers/STM32N6xx_HAL_Driver/Src/stm32n6xx_hal_dma.c ****         hdma->XferCpltCallback = NULL;
1275:../Drivers/STM32N6xx_HAL_Driver/Src/stm32n6xx_hal_dma.c ****         break;
1276:../Drivers/STM32N6xx_HAL_Driver/Src/stm32n6xx_hal_dma.c ****       }
1277:../Drivers/STM32N6xx_HAL_Driver/Src/stm32n6xx_hal_dma.c **** 
1278:../Drivers/STM32N6xx_HAL_Driver/Src/stm32n6xx_hal_dma.c ****       case HAL_DMA_XFER_HALFCPLT_CB_ID:
1279:../Drivers/STM32N6xx_HAL_Driver/Src/stm32n6xx_hal_dma.c ****       {
ARM GAS  /tmp/ccRTxeLm.s 			page 24


1280:../Drivers/STM32N6xx_HAL_Driver/Src/stm32n6xx_hal_dma.c ****         /* UnRegister half transfer callback */
1281:../Drivers/STM32N6xx_HAL_Driver/Src/stm32n6xx_hal_dma.c ****         hdma->XferHalfCpltCallback = NULL;
1282:../Drivers/STM32N6xx_HAL_Driver/Src/stm32n6xx_hal_dma.c ****         break;
1283:../Drivers/STM32N6xx_HAL_Driver/Src/stm32n6xx_hal_dma.c ****       }
1284:../Drivers/STM32N6xx_HAL_Driver/Src/stm32n6xx_hal_dma.c **** 
1285:../Drivers/STM32N6xx_HAL_Driver/Src/stm32n6xx_hal_dma.c ****       case HAL_DMA_XFER_ERROR_CB_ID:
1286:../Drivers/STM32N6xx_HAL_Driver/Src/stm32n6xx_hal_dma.c ****       {
1287:../Drivers/STM32N6xx_HAL_Driver/Src/stm32n6xx_hal_dma.c ****         /* UnRegister transfer error callback */
1288:../Drivers/STM32N6xx_HAL_Driver/Src/stm32n6xx_hal_dma.c ****         hdma->XferErrorCallback = NULL;
1289:../Drivers/STM32N6xx_HAL_Driver/Src/stm32n6xx_hal_dma.c ****         break;
1290:../Drivers/STM32N6xx_HAL_Driver/Src/stm32n6xx_hal_dma.c ****       }
1291:../Drivers/STM32N6xx_HAL_Driver/Src/stm32n6xx_hal_dma.c **** 
1292:../Drivers/STM32N6xx_HAL_Driver/Src/stm32n6xx_hal_dma.c ****       case HAL_DMA_XFER_ABORT_CB_ID:
1293:../Drivers/STM32N6xx_HAL_Driver/Src/stm32n6xx_hal_dma.c ****       {
1294:../Drivers/STM32N6xx_HAL_Driver/Src/stm32n6xx_hal_dma.c ****         /* UnRegister abort callback */
1295:../Drivers/STM32N6xx_HAL_Driver/Src/stm32n6xx_hal_dma.c ****         hdma->XferAbortCallback = NULL;
1296:../Drivers/STM32N6xx_HAL_Driver/Src/stm32n6xx_hal_dma.c ****         break;
1297:../Drivers/STM32N6xx_HAL_Driver/Src/stm32n6xx_hal_dma.c ****       }
1298:../Drivers/STM32N6xx_HAL_Driver/Src/stm32n6xx_hal_dma.c **** 
1299:../Drivers/STM32N6xx_HAL_Driver/Src/stm32n6xx_hal_dma.c ****       case HAL_DMA_XFER_SUSPEND_CB_ID:
1300:../Drivers/STM32N6xx_HAL_Driver/Src/stm32n6xx_hal_dma.c ****       {
1301:../Drivers/STM32N6xx_HAL_Driver/Src/stm32n6xx_hal_dma.c ****         /* UnRegister suspend callback */
1302:../Drivers/STM32N6xx_HAL_Driver/Src/stm32n6xx_hal_dma.c ****         hdma->XferSuspendCallback = NULL;
1303:../Drivers/STM32N6xx_HAL_Driver/Src/stm32n6xx_hal_dma.c ****         break;
1304:../Drivers/STM32N6xx_HAL_Driver/Src/stm32n6xx_hal_dma.c ****       }
1305:../Drivers/STM32N6xx_HAL_Driver/Src/stm32n6xx_hal_dma.c **** 
1306:../Drivers/STM32N6xx_HAL_Driver/Src/stm32n6xx_hal_dma.c ****       case HAL_DMA_XFER_ALL_CB_ID:
1307:../Drivers/STM32N6xx_HAL_Driver/Src/stm32n6xx_hal_dma.c ****       {
1308:../Drivers/STM32N6xx_HAL_Driver/Src/stm32n6xx_hal_dma.c ****         /* UnRegister all available callbacks */
1309:../Drivers/STM32N6xx_HAL_Driver/Src/stm32n6xx_hal_dma.c ****         hdma->XferCpltCallback     = NULL;
1310:../Drivers/STM32N6xx_HAL_Driver/Src/stm32n6xx_hal_dma.c ****         hdma->XferHalfCpltCallback = NULL;
1311:../Drivers/STM32N6xx_HAL_Driver/Src/stm32n6xx_hal_dma.c ****         hdma->XferErrorCallback    = NULL;
1312:../Drivers/STM32N6xx_HAL_Driver/Src/stm32n6xx_hal_dma.c ****         hdma->XferAbortCallback    = NULL;
1313:../Drivers/STM32N6xx_HAL_Driver/Src/stm32n6xx_hal_dma.c ****         hdma->XferSuspendCallback  = NULL;
1314:../Drivers/STM32N6xx_HAL_Driver/Src/stm32n6xx_hal_dma.c ****         break;
1315:../Drivers/STM32N6xx_HAL_Driver/Src/stm32n6xx_hal_dma.c ****       }
1316:../Drivers/STM32N6xx_HAL_Driver/Src/stm32n6xx_hal_dma.c **** 
1317:../Drivers/STM32N6xx_HAL_Driver/Src/stm32n6xx_hal_dma.c ****       default:
1318:../Drivers/STM32N6xx_HAL_Driver/Src/stm32n6xx_hal_dma.c ****       {
1319:../Drivers/STM32N6xx_HAL_Driver/Src/stm32n6xx_hal_dma.c ****         /* Update error status */
1320:../Drivers/STM32N6xx_HAL_Driver/Src/stm32n6xx_hal_dma.c ****         status = HAL_ERROR;
1321:../Drivers/STM32N6xx_HAL_Driver/Src/stm32n6xx_hal_dma.c ****         break;
1322:../Drivers/STM32N6xx_HAL_Driver/Src/stm32n6xx_hal_dma.c ****       }
1323:../Drivers/STM32N6xx_HAL_Driver/Src/stm32n6xx_hal_dma.c ****     }
1324:../Drivers/STM32N6xx_HAL_Driver/Src/stm32n6xx_hal_dma.c ****   }
1325:../Drivers/STM32N6xx_HAL_Driver/Src/stm32n6xx_hal_dma.c ****   else
1326:../Drivers/STM32N6xx_HAL_Driver/Src/stm32n6xx_hal_dma.c ****   {
1327:../Drivers/STM32N6xx_HAL_Driver/Src/stm32n6xx_hal_dma.c ****     /* Update error status */
1328:../Drivers/STM32N6xx_HAL_Driver/Src/stm32n6xx_hal_dma.c ****     status = HAL_ERROR;
1329:../Drivers/STM32N6xx_HAL_Driver/Src/stm32n6xx_hal_dma.c ****   }
1330:../Drivers/STM32N6xx_HAL_Driver/Src/stm32n6xx_hal_dma.c **** 
1331:../Drivers/STM32N6xx_HAL_Driver/Src/stm32n6xx_hal_dma.c ****   return status;
1332:../Drivers/STM32N6xx_HAL_Driver/Src/stm32n6xx_hal_dma.c **** }
1333:../Drivers/STM32N6xx_HAL_Driver/Src/stm32n6xx_hal_dma.c **** /**
1334:../Drivers/STM32N6xx_HAL_Driver/Src/stm32n6xx_hal_dma.c ****   * @}
1335:../Drivers/STM32N6xx_HAL_Driver/Src/stm32n6xx_hal_dma.c ****   */
1336:../Drivers/STM32N6xx_HAL_Driver/Src/stm32n6xx_hal_dma.c **** 
ARM GAS  /tmp/ccRTxeLm.s 			page 25


1337:../Drivers/STM32N6xx_HAL_Driver/Src/stm32n6xx_hal_dma.c **** /** @addtogroup DMA_Exported_Functions_Group3
1338:../Drivers/STM32N6xx_HAL_Driver/Src/stm32n6xx_hal_dma.c ****   *
1339:../Drivers/STM32N6xx_HAL_Driver/Src/stm32n6xx_hal_dma.c **** @verbatim
1340:../Drivers/STM32N6xx_HAL_Driver/Src/stm32n6xx_hal_dma.c ****   =================================================================================================
1341:../Drivers/STM32N6xx_HAL_Driver/Src/stm32n6xx_hal_dma.c ****                               ##### State and Errors functions #####
1342:../Drivers/STM32N6xx_HAL_Driver/Src/stm32n6xx_hal_dma.c ****   =================================================================================================
1343:../Drivers/STM32N6xx_HAL_Driver/Src/stm32n6xx_hal_dma.c ****     [..]
1344:../Drivers/STM32N6xx_HAL_Driver/Src/stm32n6xx_hal_dma.c ****       This section provides functions allowing to :
1345:../Drivers/STM32N6xx_HAL_Driver/Src/stm32n6xx_hal_dma.c ****       (+) Check the DMA state
1346:../Drivers/STM32N6xx_HAL_Driver/Src/stm32n6xx_hal_dma.c ****       (+) Get error code
1347:../Drivers/STM32N6xx_HAL_Driver/Src/stm32n6xx_hal_dma.c **** 
1348:../Drivers/STM32N6xx_HAL_Driver/Src/stm32n6xx_hal_dma.c ****     [..]
1349:../Drivers/STM32N6xx_HAL_Driver/Src/stm32n6xx_hal_dma.c ****       (+) The HAL_DMA_GetState() function allows to get the DMA channel state.
1350:../Drivers/STM32N6xx_HAL_Driver/Src/stm32n6xx_hal_dma.c ****       (+) The HAL_DMA_DeInit() function allows to get the DMA channel error code.
1351:../Drivers/STM32N6xx_HAL_Driver/Src/stm32n6xx_hal_dma.c **** 
1352:../Drivers/STM32N6xx_HAL_Driver/Src/stm32n6xx_hal_dma.c **** @endverbatim
1353:../Drivers/STM32N6xx_HAL_Driver/Src/stm32n6xx_hal_dma.c ****   * @{
1354:../Drivers/STM32N6xx_HAL_Driver/Src/stm32n6xx_hal_dma.c ****   */
1355:../Drivers/STM32N6xx_HAL_Driver/Src/stm32n6xx_hal_dma.c **** 
1356:../Drivers/STM32N6xx_HAL_Driver/Src/stm32n6xx_hal_dma.c **** /**
1357:../Drivers/STM32N6xx_HAL_Driver/Src/stm32n6xx_hal_dma.c ****   * @brief  Returns the DMA channel state.
1358:../Drivers/STM32N6xx_HAL_Driver/Src/stm32n6xx_hal_dma.c ****   * @param  hdma : Pointer to a DMA_HandleTypeDef structure that contains the configuration informa
1359:../Drivers/STM32N6xx_HAL_Driver/Src/stm32n6xx_hal_dma.c ****   *                specified DMA Channel.
1360:../Drivers/STM32N6xx_HAL_Driver/Src/stm32n6xx_hal_dma.c ****   * @retval DMA state.
1361:../Drivers/STM32N6xx_HAL_Driver/Src/stm32n6xx_hal_dma.c ****   */
1362:../Drivers/STM32N6xx_HAL_Driver/Src/stm32n6xx_hal_dma.c **** HAL_DMA_StateTypeDef HAL_DMA_GetState(DMA_HandleTypeDef const *const hdma)
1363:../Drivers/STM32N6xx_HAL_Driver/Src/stm32n6xx_hal_dma.c **** {
1364:../Drivers/STM32N6xx_HAL_Driver/Src/stm32n6xx_hal_dma.c ****   /* Return the DMA channel state */
1365:../Drivers/STM32N6xx_HAL_Driver/Src/stm32n6xx_hal_dma.c ****   return hdma->State;
1366:../Drivers/STM32N6xx_HAL_Driver/Src/stm32n6xx_hal_dma.c **** }
1367:../Drivers/STM32N6xx_HAL_Driver/Src/stm32n6xx_hal_dma.c **** 
1368:../Drivers/STM32N6xx_HAL_Driver/Src/stm32n6xx_hal_dma.c **** /**
1369:../Drivers/STM32N6xx_HAL_Driver/Src/stm32n6xx_hal_dma.c ****   * @brief  Return the DMA channel error code.
1370:../Drivers/STM32N6xx_HAL_Driver/Src/stm32n6xx_hal_dma.c ****   * @param  hdma : Pointer to a DMA_HandleTypeDef structure that contains the configuration informa
1371:../Drivers/STM32N6xx_HAL_Driver/Src/stm32n6xx_hal_dma.c ****   *                specified DMA Channel.
1372:../Drivers/STM32N6xx_HAL_Driver/Src/stm32n6xx_hal_dma.c ****   * @retval DMA Error Code.
1373:../Drivers/STM32N6xx_HAL_Driver/Src/stm32n6xx_hal_dma.c ****   */
1374:../Drivers/STM32N6xx_HAL_Driver/Src/stm32n6xx_hal_dma.c **** uint32_t HAL_DMA_GetError(DMA_HandleTypeDef const *const hdma)
1375:../Drivers/STM32N6xx_HAL_Driver/Src/stm32n6xx_hal_dma.c **** {
1376:../Drivers/STM32N6xx_HAL_Driver/Src/stm32n6xx_hal_dma.c ****   /* Return the DMA channel error code */
1377:../Drivers/STM32N6xx_HAL_Driver/Src/stm32n6xx_hal_dma.c ****   return hdma->ErrorCode;
1378:../Drivers/STM32N6xx_HAL_Driver/Src/stm32n6xx_hal_dma.c **** }
1379:../Drivers/STM32N6xx_HAL_Driver/Src/stm32n6xx_hal_dma.c **** /**
1380:../Drivers/STM32N6xx_HAL_Driver/Src/stm32n6xx_hal_dma.c ****   * @}
1381:../Drivers/STM32N6xx_HAL_Driver/Src/stm32n6xx_hal_dma.c ****   */
1382:../Drivers/STM32N6xx_HAL_Driver/Src/stm32n6xx_hal_dma.c **** 
1383:../Drivers/STM32N6xx_HAL_Driver/Src/stm32n6xx_hal_dma.c **** /** @addtogroup DMA_Exported_Functions_Group4
1384:../Drivers/STM32N6xx_HAL_Driver/Src/stm32n6xx_hal_dma.c ****   *
1385:../Drivers/STM32N6xx_HAL_Driver/Src/stm32n6xx_hal_dma.c **** @verbatim
1386:../Drivers/STM32N6xx_HAL_Driver/Src/stm32n6xx_hal_dma.c ****   =================================================================================================
1387:../Drivers/STM32N6xx_HAL_Driver/Src/stm32n6xx_hal_dma.c ****                            ##### DMA Attributes functions #####
1388:../Drivers/STM32N6xx_HAL_Driver/Src/stm32n6xx_hal_dma.c ****   =================================================================================================
1389:../Drivers/STM32N6xx_HAL_Driver/Src/stm32n6xx_hal_dma.c ****     [..]
1390:../Drivers/STM32N6xx_HAL_Driver/Src/stm32n6xx_hal_dma.c ****       This section provides functions allowing to :
1391:../Drivers/STM32N6xx_HAL_Driver/Src/stm32n6xx_hal_dma.c ****       (+) Configure DMA channel secure and privilege attributes.
1392:../Drivers/STM32N6xx_HAL_Driver/Src/stm32n6xx_hal_dma.c ****       (+) Get DMA channel secure and privilege attributes.
1393:../Drivers/STM32N6xx_HAL_Driver/Src/stm32n6xx_hal_dma.c ****       (+) Lock DMA channel secure and privilege attributes configuration.
ARM GAS  /tmp/ccRTxeLm.s 			page 26


1394:../Drivers/STM32N6xx_HAL_Driver/Src/stm32n6xx_hal_dma.c ****       (+) Check whether DMA channel secure and privilege attributes configuration is locked or not.
1395:../Drivers/STM32N6xx_HAL_Driver/Src/stm32n6xx_hal_dma.c **** 
1396:../Drivers/STM32N6xx_HAL_Driver/Src/stm32n6xx_hal_dma.c ****     [..]
1397:../Drivers/STM32N6xx_HAL_Driver/Src/stm32n6xx_hal_dma.c ****       (+) The HAL_DMA_ConfigChannelAttributes() function allows to configure DMA channel security a
1398:../Drivers/STM32N6xx_HAL_Driver/Src/stm32n6xx_hal_dma.c ****           attributes.
1399:../Drivers/STM32N6xx_HAL_Driver/Src/stm32n6xx_hal_dma.c ****       (+) The HAL_DMA_GetConfigChannelAttributes() function allows to get DMA channel security and 
1400:../Drivers/STM32N6xx_HAL_Driver/Src/stm32n6xx_hal_dma.c ****           configuration.
1401:../Drivers/STM32N6xx_HAL_Driver/Src/stm32n6xx_hal_dma.c ****       (+) The HAL_DMA_LockChannelAttributes() function allows to lock the DMA channel security and 
1402:../Drivers/STM32N6xx_HAL_Driver/Src/stm32n6xx_hal_dma.c ****       (+) The HAL_DMA_GetLockChannelAttributes() function allows to get the DMA channel security an
1403:../Drivers/STM32N6xx_HAL_Driver/Src/stm32n6xx_hal_dma.c ****           attributes lock status.
1404:../Drivers/STM32N6xx_HAL_Driver/Src/stm32n6xx_hal_dma.c **** 
1405:../Drivers/STM32N6xx_HAL_Driver/Src/stm32n6xx_hal_dma.c **** @endverbatim
1406:../Drivers/STM32N6xx_HAL_Driver/Src/stm32n6xx_hal_dma.c ****   * @{
1407:../Drivers/STM32N6xx_HAL_Driver/Src/stm32n6xx_hal_dma.c ****   */
1408:../Drivers/STM32N6xx_HAL_Driver/Src/stm32n6xx_hal_dma.c **** 
1409:../Drivers/STM32N6xx_HAL_Driver/Src/stm32n6xx_hal_dma.c **** /**
1410:../Drivers/STM32N6xx_HAL_Driver/Src/stm32n6xx_hal_dma.c ****   * @brief  Configure the DMA channel security and privilege attribute(s).
1411:../Drivers/STM32N6xx_HAL_Driver/Src/stm32n6xx_hal_dma.c ****   * @note   These attributes cannot be modified when the corresponding lock state is enabled.
1412:../Drivers/STM32N6xx_HAL_Driver/Src/stm32n6xx_hal_dma.c ****   * @param  hdma              : Pointer to a DMA_HandleTypeDef structure that contains the configur
1413:../Drivers/STM32N6xx_HAL_Driver/Src/stm32n6xx_hal_dma.c ****   *                             the specified DMA Channel.
1414:../Drivers/STM32N6xx_HAL_Driver/Src/stm32n6xx_hal_dma.c ****   * @param  ChannelAttributes : Specifies the DMA channel secure/privilege attributes.
1415:../Drivers/STM32N6xx_HAL_Driver/Src/stm32n6xx_hal_dma.c ****   *                             This parameter can be a one or a combination of @ref DMA_Channel_At
1416:../Drivers/STM32N6xx_HAL_Driver/Src/stm32n6xx_hal_dma.c ****   * @retval HAL Status.
1417:../Drivers/STM32N6xx_HAL_Driver/Src/stm32n6xx_hal_dma.c ****   */
1418:../Drivers/STM32N6xx_HAL_Driver/Src/stm32n6xx_hal_dma.c **** HAL_StatusTypeDef HAL_DMA_ConfigChannelAttributes(DMA_HandleTypeDef *const hdma, uint32_t ChannelAt
1419:../Drivers/STM32N6xx_HAL_Driver/Src/stm32n6xx_hal_dma.c **** {
1420:../Drivers/STM32N6xx_HAL_Driver/Src/stm32n6xx_hal_dma.c ****   DMA_TypeDef *p_dma_instance;
1421:../Drivers/STM32N6xx_HAL_Driver/Src/stm32n6xx_hal_dma.c ****   uint32_t channel_idx;
1422:../Drivers/STM32N6xx_HAL_Driver/Src/stm32n6xx_hal_dma.c **** 
1423:../Drivers/STM32N6xx_HAL_Driver/Src/stm32n6xx_hal_dma.c ****   /* Check the DMA peripheral handle parameter */
1424:../Drivers/STM32N6xx_HAL_Driver/Src/stm32n6xx_hal_dma.c ****   if (hdma == NULL)
1425:../Drivers/STM32N6xx_HAL_Driver/Src/stm32n6xx_hal_dma.c ****   {
1426:../Drivers/STM32N6xx_HAL_Driver/Src/stm32n6xx_hal_dma.c ****     return HAL_ERROR;
1427:../Drivers/STM32N6xx_HAL_Driver/Src/stm32n6xx_hal_dma.c ****   }
1428:../Drivers/STM32N6xx_HAL_Driver/Src/stm32n6xx_hal_dma.c **** 
1429:../Drivers/STM32N6xx_HAL_Driver/Src/stm32n6xx_hal_dma.c ****   /* Check the parameters */
1430:../Drivers/STM32N6xx_HAL_Driver/Src/stm32n6xx_hal_dma.c ****   assert_param(IS_DMA_ATTRIBUTES(ChannelAttributes));
1431:../Drivers/STM32N6xx_HAL_Driver/Src/stm32n6xx_hal_dma.c **** 
1432:../Drivers/STM32N6xx_HAL_Driver/Src/stm32n6xx_hal_dma.c ****   /* Get DMA instance */
1433:../Drivers/STM32N6xx_HAL_Driver/Src/stm32n6xx_hal_dma.c ****   p_dma_instance = GET_DMA_INSTANCE(hdma);
1434:../Drivers/STM32N6xx_HAL_Driver/Src/stm32n6xx_hal_dma.c **** 
1435:../Drivers/STM32N6xx_HAL_Driver/Src/stm32n6xx_hal_dma.c ****   /* Get channel index */
1436:../Drivers/STM32N6xx_HAL_Driver/Src/stm32n6xx_hal_dma.c ****   channel_idx = 1UL << (GET_DMA_CHANNEL(hdma) & 0x1FU);
1437:../Drivers/STM32N6xx_HAL_Driver/Src/stm32n6xx_hal_dma.c **** 
1438:../Drivers/STM32N6xx_HAL_Driver/Src/stm32n6xx_hal_dma.c ****   /* Check DMA channel privilege attribute management */
1439:../Drivers/STM32N6xx_HAL_Driver/Src/stm32n6xx_hal_dma.c ****   if ((ChannelAttributes & DMA_CHANNEL_ATTR_PRIV_MASK) == DMA_CHANNEL_ATTR_PRIV_MASK)
1440:../Drivers/STM32N6xx_HAL_Driver/Src/stm32n6xx_hal_dma.c ****   {
1441:../Drivers/STM32N6xx_HAL_Driver/Src/stm32n6xx_hal_dma.c ****     /* Configure DMA channel privilege attribute */
1442:../Drivers/STM32N6xx_HAL_Driver/Src/stm32n6xx_hal_dma.c ****     if ((ChannelAttributes & DMA_CHANNEL_PRIV) == DMA_CHANNEL_PRIV)
1443:../Drivers/STM32N6xx_HAL_Driver/Src/stm32n6xx_hal_dma.c ****     {
1444:../Drivers/STM32N6xx_HAL_Driver/Src/stm32n6xx_hal_dma.c ****       p_dma_instance->PRIVCFGR |= channel_idx;
1445:../Drivers/STM32N6xx_HAL_Driver/Src/stm32n6xx_hal_dma.c ****     }
1446:../Drivers/STM32N6xx_HAL_Driver/Src/stm32n6xx_hal_dma.c ****     else
1447:../Drivers/STM32N6xx_HAL_Driver/Src/stm32n6xx_hal_dma.c ****     {
1448:../Drivers/STM32N6xx_HAL_Driver/Src/stm32n6xx_hal_dma.c ****       p_dma_instance->PRIVCFGR &= (~channel_idx);
1449:../Drivers/STM32N6xx_HAL_Driver/Src/stm32n6xx_hal_dma.c ****     }
1450:../Drivers/STM32N6xx_HAL_Driver/Src/stm32n6xx_hal_dma.c ****   }
ARM GAS  /tmp/ccRTxeLm.s 			page 27


1451:../Drivers/STM32N6xx_HAL_Driver/Src/stm32n6xx_hal_dma.c **** 
1452:../Drivers/STM32N6xx_HAL_Driver/Src/stm32n6xx_hal_dma.c **** #if defined (CPU_IN_SECURE_STATE)
1453:../Drivers/STM32N6xx_HAL_Driver/Src/stm32n6xx_hal_dma.c ****   /* Check DMA channel security attribute management */
1454:../Drivers/STM32N6xx_HAL_Driver/Src/stm32n6xx_hal_dma.c ****   if ((ChannelAttributes & DMA_CHANNEL_ATTR_SEC_MASK) == DMA_CHANNEL_ATTR_SEC_MASK)
1455:../Drivers/STM32N6xx_HAL_Driver/Src/stm32n6xx_hal_dma.c ****   {
1456:../Drivers/STM32N6xx_HAL_Driver/Src/stm32n6xx_hal_dma.c ****     /* Configure DMA channel security attribute */
1457:../Drivers/STM32N6xx_HAL_Driver/Src/stm32n6xx_hal_dma.c ****     if ((ChannelAttributes & DMA_CHANNEL_SEC) == DMA_CHANNEL_SEC)
1458:../Drivers/STM32N6xx_HAL_Driver/Src/stm32n6xx_hal_dma.c ****     {
1459:../Drivers/STM32N6xx_HAL_Driver/Src/stm32n6xx_hal_dma.c ****       p_dma_instance->SECCFGR |= channel_idx;
1460:../Drivers/STM32N6xx_HAL_Driver/Src/stm32n6xx_hal_dma.c ****     }
1461:../Drivers/STM32N6xx_HAL_Driver/Src/stm32n6xx_hal_dma.c ****     else
1462:../Drivers/STM32N6xx_HAL_Driver/Src/stm32n6xx_hal_dma.c ****     {
1463:../Drivers/STM32N6xx_HAL_Driver/Src/stm32n6xx_hal_dma.c ****       p_dma_instance->SECCFGR &= (~channel_idx);
1464:../Drivers/STM32N6xx_HAL_Driver/Src/stm32n6xx_hal_dma.c ****     }
1465:../Drivers/STM32N6xx_HAL_Driver/Src/stm32n6xx_hal_dma.c ****   }
1466:../Drivers/STM32N6xx_HAL_Driver/Src/stm32n6xx_hal_dma.c **** 
1467:../Drivers/STM32N6xx_HAL_Driver/Src/stm32n6xx_hal_dma.c ****   /* Channel source security attribute management */
1468:../Drivers/STM32N6xx_HAL_Driver/Src/stm32n6xx_hal_dma.c ****   if ((ChannelAttributes & DMA_CHANNEL_ATTR_SEC_SRC_MASK) == DMA_CHANNEL_ATTR_SEC_SRC_MASK)
1469:../Drivers/STM32N6xx_HAL_Driver/Src/stm32n6xx_hal_dma.c ****   {
1470:../Drivers/STM32N6xx_HAL_Driver/Src/stm32n6xx_hal_dma.c ****     /* Configure DMA channel source security attribute */
1471:../Drivers/STM32N6xx_HAL_Driver/Src/stm32n6xx_hal_dma.c ****     if ((ChannelAttributes & DMA_CHANNEL_SRC_SEC) == DMA_CHANNEL_SRC_SEC)
1472:../Drivers/STM32N6xx_HAL_Driver/Src/stm32n6xx_hal_dma.c ****     {
1473:../Drivers/STM32N6xx_HAL_Driver/Src/stm32n6xx_hal_dma.c ****       hdma->Instance->CTR1 |= DMA_CTR1_SSEC;
1474:../Drivers/STM32N6xx_HAL_Driver/Src/stm32n6xx_hal_dma.c ****     }
1475:../Drivers/STM32N6xx_HAL_Driver/Src/stm32n6xx_hal_dma.c ****     else
1476:../Drivers/STM32N6xx_HAL_Driver/Src/stm32n6xx_hal_dma.c ****     {
1477:../Drivers/STM32N6xx_HAL_Driver/Src/stm32n6xx_hal_dma.c ****       hdma->Instance->CTR1 &= (~DMA_CTR1_SSEC);
1478:../Drivers/STM32N6xx_HAL_Driver/Src/stm32n6xx_hal_dma.c ****     }
1479:../Drivers/STM32N6xx_HAL_Driver/Src/stm32n6xx_hal_dma.c ****   }
1480:../Drivers/STM32N6xx_HAL_Driver/Src/stm32n6xx_hal_dma.c **** 
1481:../Drivers/STM32N6xx_HAL_Driver/Src/stm32n6xx_hal_dma.c ****   /* Channel destination security attribute management */
1482:../Drivers/STM32N6xx_HAL_Driver/Src/stm32n6xx_hal_dma.c ****   if ((ChannelAttributes & DMA_CHANNEL_ATTR_SEC_DEST_MASK) == DMA_CHANNEL_ATTR_SEC_DEST_MASK)
1483:../Drivers/STM32N6xx_HAL_Driver/Src/stm32n6xx_hal_dma.c ****   {
1484:../Drivers/STM32N6xx_HAL_Driver/Src/stm32n6xx_hal_dma.c ****     /* Configure DMA channel destination security attribute */
1485:../Drivers/STM32N6xx_HAL_Driver/Src/stm32n6xx_hal_dma.c ****     if ((ChannelAttributes & DMA_CHANNEL_DEST_SEC) == DMA_CHANNEL_DEST_SEC)
1486:../Drivers/STM32N6xx_HAL_Driver/Src/stm32n6xx_hal_dma.c ****     {
1487:../Drivers/STM32N6xx_HAL_Driver/Src/stm32n6xx_hal_dma.c ****       hdma->Instance->CTR1 |= DMA_CTR1_DSEC;
1488:../Drivers/STM32N6xx_HAL_Driver/Src/stm32n6xx_hal_dma.c ****     }
1489:../Drivers/STM32N6xx_HAL_Driver/Src/stm32n6xx_hal_dma.c ****     else
1490:../Drivers/STM32N6xx_HAL_Driver/Src/stm32n6xx_hal_dma.c ****     {
1491:../Drivers/STM32N6xx_HAL_Driver/Src/stm32n6xx_hal_dma.c ****       hdma->Instance->CTR1 &= (~DMA_CTR1_DSEC);
1492:../Drivers/STM32N6xx_HAL_Driver/Src/stm32n6xx_hal_dma.c ****     }
1493:../Drivers/STM32N6xx_HAL_Driver/Src/stm32n6xx_hal_dma.c ****   }
1494:../Drivers/STM32N6xx_HAL_Driver/Src/stm32n6xx_hal_dma.c **** #endif /* CPU_IN_SECURE_STATE */
1495:../Drivers/STM32N6xx_HAL_Driver/Src/stm32n6xx_hal_dma.c **** 
1496:../Drivers/STM32N6xx_HAL_Driver/Src/stm32n6xx_hal_dma.c ****   return HAL_OK;
1497:../Drivers/STM32N6xx_HAL_Driver/Src/stm32n6xx_hal_dma.c **** }
1498:../Drivers/STM32N6xx_HAL_Driver/Src/stm32n6xx_hal_dma.c **** 
1499:../Drivers/STM32N6xx_HAL_Driver/Src/stm32n6xx_hal_dma.c **** /**
1500:../Drivers/STM32N6xx_HAL_Driver/Src/stm32n6xx_hal_dma.c ****   * @brief  Get the DMA channel security and privilege attributes.
1501:../Drivers/STM32N6xx_HAL_Driver/Src/stm32n6xx_hal_dma.c ****   * @param  hdma               : Pointer to a DMA_HandleTypeDef structure that contains the configu
1502:../Drivers/STM32N6xx_HAL_Driver/Src/stm32n6xx_hal_dma.c ****   *                              for the specified DMA Channel.
1503:../Drivers/STM32N6xx_HAL_Driver/Src/stm32n6xx_hal_dma.c ****   * @param  pChannelAttributes : Pointer to the returned attributes.
1504:../Drivers/STM32N6xx_HAL_Driver/Src/stm32n6xx_hal_dma.c ****   * @retval HAL Status.
1505:../Drivers/STM32N6xx_HAL_Driver/Src/stm32n6xx_hal_dma.c ****   */
1506:../Drivers/STM32N6xx_HAL_Driver/Src/stm32n6xx_hal_dma.c **** HAL_StatusTypeDef HAL_DMA_GetConfigChannelAttributes(DMA_HandleTypeDef const *const hdma,
1507:../Drivers/STM32N6xx_HAL_Driver/Src/stm32n6xx_hal_dma.c ****                                                      uint32_t *const pChannelAttributes)
ARM GAS  /tmp/ccRTxeLm.s 			page 28


1508:../Drivers/STM32N6xx_HAL_Driver/Src/stm32n6xx_hal_dma.c **** {
1509:../Drivers/STM32N6xx_HAL_Driver/Src/stm32n6xx_hal_dma.c ****   const DMA_TypeDef *p_dma_instance;
1510:../Drivers/STM32N6xx_HAL_Driver/Src/stm32n6xx_hal_dma.c ****   uint32_t attributes;
1511:../Drivers/STM32N6xx_HAL_Driver/Src/stm32n6xx_hal_dma.c ****   uint32_t channel_idx;
1512:../Drivers/STM32N6xx_HAL_Driver/Src/stm32n6xx_hal_dma.c **** 
1513:../Drivers/STM32N6xx_HAL_Driver/Src/stm32n6xx_hal_dma.c ****   /* Check the DMA peripheral handle and channel attributes parameters */
1514:../Drivers/STM32N6xx_HAL_Driver/Src/stm32n6xx_hal_dma.c ****   if ((hdma == NULL) || (pChannelAttributes == NULL))
1515:../Drivers/STM32N6xx_HAL_Driver/Src/stm32n6xx_hal_dma.c ****   {
1516:../Drivers/STM32N6xx_HAL_Driver/Src/stm32n6xx_hal_dma.c ****     return HAL_ERROR;
1517:../Drivers/STM32N6xx_HAL_Driver/Src/stm32n6xx_hal_dma.c ****   }
1518:../Drivers/STM32N6xx_HAL_Driver/Src/stm32n6xx_hal_dma.c **** 
1519:../Drivers/STM32N6xx_HAL_Driver/Src/stm32n6xx_hal_dma.c ****   /* Get DMA instance */
1520:../Drivers/STM32N6xx_HAL_Driver/Src/stm32n6xx_hal_dma.c ****   p_dma_instance = GET_DMA_INSTANCE(hdma);
1521:../Drivers/STM32N6xx_HAL_Driver/Src/stm32n6xx_hal_dma.c **** 
1522:../Drivers/STM32N6xx_HAL_Driver/Src/stm32n6xx_hal_dma.c ****   /* Get channel index */
1523:../Drivers/STM32N6xx_HAL_Driver/Src/stm32n6xx_hal_dma.c ****   channel_idx = 1UL << (GET_DMA_CHANNEL(hdma) & 0x1FU);
1524:../Drivers/STM32N6xx_HAL_Driver/Src/stm32n6xx_hal_dma.c **** 
1525:../Drivers/STM32N6xx_HAL_Driver/Src/stm32n6xx_hal_dma.c ****   /* Get DMA channel privilege attribute */
1526:../Drivers/STM32N6xx_HAL_Driver/Src/stm32n6xx_hal_dma.c ****   attributes = ((p_dma_instance->PRIVCFGR & channel_idx) == 0U) ? DMA_CHANNEL_NPRIV : DMA_CHANNEL_P
1527:../Drivers/STM32N6xx_HAL_Driver/Src/stm32n6xx_hal_dma.c **** 
1528:../Drivers/STM32N6xx_HAL_Driver/Src/stm32n6xx_hal_dma.c ****   /* Get DMA channel security attribute */
1529:../Drivers/STM32N6xx_HAL_Driver/Src/stm32n6xx_hal_dma.c ****   attributes |= ((p_dma_instance->SECCFGR & channel_idx) == 0U) ? DMA_CHANNEL_NSEC : DMA_CHANNEL_SE
1530:../Drivers/STM32N6xx_HAL_Driver/Src/stm32n6xx_hal_dma.c **** 
1531:../Drivers/STM32N6xx_HAL_Driver/Src/stm32n6xx_hal_dma.c ****   /* Get DMA channel source security attribute */
1532:../Drivers/STM32N6xx_HAL_Driver/Src/stm32n6xx_hal_dma.c ****   attributes |= ((hdma->Instance->CTR1 & DMA_CTR1_SSEC) == 0U) ? DMA_CHANNEL_SRC_NSEC : DMA_CHANNEL
1533:../Drivers/STM32N6xx_HAL_Driver/Src/stm32n6xx_hal_dma.c **** 
1534:../Drivers/STM32N6xx_HAL_Driver/Src/stm32n6xx_hal_dma.c ****   /* Get DMA channel destination security attribute */
1535:../Drivers/STM32N6xx_HAL_Driver/Src/stm32n6xx_hal_dma.c ****   attributes |= ((hdma->Instance->CTR1 & DMA_CTR1_DSEC) == 0U) ? DMA_CHANNEL_DEST_NSEC : DMA_CHANNE
1536:../Drivers/STM32N6xx_HAL_Driver/Src/stm32n6xx_hal_dma.c **** 
1537:../Drivers/STM32N6xx_HAL_Driver/Src/stm32n6xx_hal_dma.c ****   /* return value */
1538:../Drivers/STM32N6xx_HAL_Driver/Src/stm32n6xx_hal_dma.c ****   *pChannelAttributes = attributes;
1539:../Drivers/STM32N6xx_HAL_Driver/Src/stm32n6xx_hal_dma.c **** 
1540:../Drivers/STM32N6xx_HAL_Driver/Src/stm32n6xx_hal_dma.c ****   return HAL_OK;
1541:../Drivers/STM32N6xx_HAL_Driver/Src/stm32n6xx_hal_dma.c **** }
1542:../Drivers/STM32N6xx_HAL_Driver/Src/stm32n6xx_hal_dma.c **** 
1543:../Drivers/STM32N6xx_HAL_Driver/Src/stm32n6xx_hal_dma.c **** #if defined (CPU_IN_SECURE_STATE)
1544:../Drivers/STM32N6xx_HAL_Driver/Src/stm32n6xx_hal_dma.c **** /**
1545:../Drivers/STM32N6xx_HAL_Driver/Src/stm32n6xx_hal_dma.c ****   * @brief  Set the DMA channel filtering CID (Isolation configuration). It can be
1546:../Drivers/STM32N6xx_HAL_Driver/Src/stm32n6xx_hal_dma.c ****   *             - static: the CID passed as parameter is programmed;
1547:../Drivers/STM32N6xx_HAL_Driver/Src/stm32n6xx_hal_dma.c ****   *             - disabled: the whole register is cleared.
1548:../Drivers/STM32N6xx_HAL_Driver/Src/stm32n6xx_hal_dma.c ****   * @param  hdma    : Pointer to a DMA_HandleTypeDef structure that contains the configuration info
1549:../Drivers/STM32N6xx_HAL_Driver/Src/stm32n6xx_hal_dma.c ****   *                of the HPDMA channel.
1550:../Drivers/STM32N6xx_HAL_Driver/Src/stm32n6xx_hal_dma.c ****   * @param  pConfig : Pointer on the DMA Isolation structure
1551:../Drivers/STM32N6xx_HAL_Driver/Src/stm32n6xx_hal_dma.c ****   * @retval None
1552:../Drivers/STM32N6xx_HAL_Driver/Src/stm32n6xx_hal_dma.c ****   */
1553:../Drivers/STM32N6xx_HAL_Driver/Src/stm32n6xx_hal_dma.c **** HAL_StatusTypeDef HAL_DMA_SetIsolationAttributes(DMA_HandleTypeDef *const hdma,
1554:../Drivers/STM32N6xx_HAL_Driver/Src/stm32n6xx_hal_dma.c ****                                                  DMA_IsolationConfigTypeDef const *const pConfig)
1555:../Drivers/STM32N6xx_HAL_Driver/Src/stm32n6xx_hal_dma.c **** {
1556:../Drivers/STM32N6xx_HAL_Driver/Src/stm32n6xx_hal_dma.c ****   /* Check the DMA peripheral handle parameter */
1557:../Drivers/STM32N6xx_HAL_Driver/Src/stm32n6xx_hal_dma.c ****   if ((hdma == NULL) || (pConfig == NULL))
1558:../Drivers/STM32N6xx_HAL_Driver/Src/stm32n6xx_hal_dma.c ****   {
1559:../Drivers/STM32N6xx_HAL_Driver/Src/stm32n6xx_hal_dma.c ****     return HAL_ERROR;
1560:../Drivers/STM32N6xx_HAL_Driver/Src/stm32n6xx_hal_dma.c ****   }
1561:../Drivers/STM32N6xx_HAL_Driver/Src/stm32n6xx_hal_dma.c **** 
1562:../Drivers/STM32N6xx_HAL_Driver/Src/stm32n6xx_hal_dma.c ****   /* Check the parameters */
1563:../Drivers/STM32N6xx_HAL_Driver/Src/stm32n6xx_hal_dma.c ****   assert_param(IS_HPDMA_INSTANCE(hdma->Instance));
1564:../Drivers/STM32N6xx_HAL_Driver/Src/stm32n6xx_hal_dma.c ****   assert_param(IS_DMA_ISOLATION_MODE(pConfig->CidFiltering));
ARM GAS  /tmp/ccRTxeLm.s 			page 29


1565:../Drivers/STM32N6xx_HAL_Driver/Src/stm32n6xx_hal_dma.c ****   assert_param(IS_DMA_ISOLATION_STATIC_CID(pConfig->StaticCid));
1566:../Drivers/STM32N6xx_HAL_Driver/Src/stm32n6xx_hal_dma.c **** 
1567:../Drivers/STM32N6xx_HAL_Driver/Src/stm32n6xx_hal_dma.c ****   /* static CID field value used when filtering is enable */
1568:../Drivers/STM32N6xx_HAL_Driver/Src/stm32n6xx_hal_dma.c ****   if ((pConfig->CidFiltering) == DMA_ISOLATION_ON)
1569:../Drivers/STM32N6xx_HAL_Driver/Src/stm32n6xx_hal_dma.c ****   {
1570:../Drivers/STM32N6xx_HAL_Driver/Src/stm32n6xx_hal_dma.c ****     /* Write static CID configuration */
1571:../Drivers/STM32N6xx_HAL_Driver/Src/stm32n6xx_hal_dma.c ****     hdma->Instance->CCIDCFGR = ((pConfig->StaticCid & DMA_CCIDCFGR_SCID_Msk) | DMA_CCIDCFGR_CFEN);
1572:../Drivers/STM32N6xx_HAL_Driver/Src/stm32n6xx_hal_dma.c ****   }
1573:../Drivers/STM32N6xx_HAL_Driver/Src/stm32n6xx_hal_dma.c ****   else
1574:../Drivers/STM32N6xx_HAL_Driver/Src/stm32n6xx_hal_dma.c ****   {
1575:../Drivers/STM32N6xx_HAL_Driver/Src/stm32n6xx_hal_dma.c ****     /* CID configuration is off */
1576:../Drivers/STM32N6xx_HAL_Driver/Src/stm32n6xx_hal_dma.c ****     hdma->Instance->CCIDCFGR = 0U;
1577:../Drivers/STM32N6xx_HAL_Driver/Src/stm32n6xx_hal_dma.c ****   }
1578:../Drivers/STM32N6xx_HAL_Driver/Src/stm32n6xx_hal_dma.c **** 
1579:../Drivers/STM32N6xx_HAL_Driver/Src/stm32n6xx_hal_dma.c ****   return HAL_OK;
1580:../Drivers/STM32N6xx_HAL_Driver/Src/stm32n6xx_hal_dma.c **** }
1581:../Drivers/STM32N6xx_HAL_Driver/Src/stm32n6xx_hal_dma.c **** #endif /* CPU_IN_SECURE_STATE */
1582:../Drivers/STM32N6xx_HAL_Driver/Src/stm32n6xx_hal_dma.c **** /**
1583:../Drivers/STM32N6xx_HAL_Driver/Src/stm32n6xx_hal_dma.c ****   * @brief  Read the DMA channel filtering CID (Isolation configuration). It can be
1584:../Drivers/STM32N6xx_HAL_Driver/Src/stm32n6xx_hal_dma.c ****   *             - static: the CID passed as parameter is programmed;
1585:../Drivers/STM32N6xx_HAL_Driver/Src/stm32n6xx_hal_dma.c ****   *             - disabled: the whole register is cleared.
1586:../Drivers/STM32N6xx_HAL_Driver/Src/stm32n6xx_hal_dma.c ****   * @param  hdma    : Pointer to a DMA_HandleTypeDef structure that contains the configuration info
1587:../Drivers/STM32N6xx_HAL_Driver/Src/stm32n6xx_hal_dma.c ****   *                of the HPDMA channel.
1588:../Drivers/STM32N6xx_HAL_Driver/Src/stm32n6xx_hal_dma.c ****   * @param  pConfig : Pointer on the DMA Isolation structure
1589:../Drivers/STM32N6xx_HAL_Driver/Src/stm32n6xx_hal_dma.c ****   * @retval None
1590:../Drivers/STM32N6xx_HAL_Driver/Src/stm32n6xx_hal_dma.c ****   */
1591:../Drivers/STM32N6xx_HAL_Driver/Src/stm32n6xx_hal_dma.c **** HAL_StatusTypeDef HAL_DMA_GetIsolationAttributes(DMA_HandleTypeDef const *const hdma,
1592:../Drivers/STM32N6xx_HAL_Driver/Src/stm32n6xx_hal_dma.c ****                                                  DMA_IsolationConfigTypeDef *const pConfig)
1593:../Drivers/STM32N6xx_HAL_Driver/Src/stm32n6xx_hal_dma.c **** {
1594:../Drivers/STM32N6xx_HAL_Driver/Src/stm32n6xx_hal_dma.c ****   uint32_t ccidcfgr;
1595:../Drivers/STM32N6xx_HAL_Driver/Src/stm32n6xx_hal_dma.c **** 
1596:../Drivers/STM32N6xx_HAL_Driver/Src/stm32n6xx_hal_dma.c ****   /* Check the DMA peripheral handle parameter */
1597:../Drivers/STM32N6xx_HAL_Driver/Src/stm32n6xx_hal_dma.c ****   if ((hdma == NULL) || (pConfig == NULL))
1598:../Drivers/STM32N6xx_HAL_Driver/Src/stm32n6xx_hal_dma.c ****   {
1599:../Drivers/STM32N6xx_HAL_Driver/Src/stm32n6xx_hal_dma.c ****     return HAL_ERROR;
1600:../Drivers/STM32N6xx_HAL_Driver/Src/stm32n6xx_hal_dma.c ****   }
1601:../Drivers/STM32N6xx_HAL_Driver/Src/stm32n6xx_hal_dma.c **** 
1602:../Drivers/STM32N6xx_HAL_Driver/Src/stm32n6xx_hal_dma.c ****   ccidcfgr = hdma->Instance->CCIDCFGR;
1603:../Drivers/STM32N6xx_HAL_Driver/Src/stm32n6xx_hal_dma.c **** 
1604:../Drivers/STM32N6xx_HAL_Driver/Src/stm32n6xx_hal_dma.c ****   /* Check the parameters */
1605:../Drivers/STM32N6xx_HAL_Driver/Src/stm32n6xx_hal_dma.c ****   assert_param(IS_HPDMA_INSTANCE(hdma->Instance));
1606:../Drivers/STM32N6xx_HAL_Driver/Src/stm32n6xx_hal_dma.c **** 
1607:../Drivers/STM32N6xx_HAL_Driver/Src/stm32n6xx_hal_dma.c ****   if ((ccidcfgr & DMA_CCIDCFGR_CFEN) == DMA_CCIDCFGR_CFEN)
1608:../Drivers/STM32N6xx_HAL_Driver/Src/stm32n6xx_hal_dma.c ****   {
1609:../Drivers/STM32N6xx_HAL_Driver/Src/stm32n6xx_hal_dma.c ****     pConfig->CidFiltering = DMA_ISOLATION_ON;
1610:../Drivers/STM32N6xx_HAL_Driver/Src/stm32n6xx_hal_dma.c ****   }
1611:../Drivers/STM32N6xx_HAL_Driver/Src/stm32n6xx_hal_dma.c ****   else
1612:../Drivers/STM32N6xx_HAL_Driver/Src/stm32n6xx_hal_dma.c ****   {
1613:../Drivers/STM32N6xx_HAL_Driver/Src/stm32n6xx_hal_dma.c ****     pConfig->CidFiltering = DMA_ISOLATION_OFF;
1614:../Drivers/STM32N6xx_HAL_Driver/Src/stm32n6xx_hal_dma.c ****   }
1615:../Drivers/STM32N6xx_HAL_Driver/Src/stm32n6xx_hal_dma.c ****   pConfig->StaticCid = (ccidcfgr & DMA_CCIDCFGR_SCID_Msk);
1616:../Drivers/STM32N6xx_HAL_Driver/Src/stm32n6xx_hal_dma.c **** 
1617:../Drivers/STM32N6xx_HAL_Driver/Src/stm32n6xx_hal_dma.c ****   return HAL_OK;
1618:../Drivers/STM32N6xx_HAL_Driver/Src/stm32n6xx_hal_dma.c **** }
1619:../Drivers/STM32N6xx_HAL_Driver/Src/stm32n6xx_hal_dma.c **** 
1620:../Drivers/STM32N6xx_HAL_Driver/Src/stm32n6xx_hal_dma.c **** #if defined (CPU_IN_SECURE_STATE)
1621:../Drivers/STM32N6xx_HAL_Driver/Src/stm32n6xx_hal_dma.c **** /**
ARM GAS  /tmp/ccRTxeLm.s 			page 30


1622:../Drivers/STM32N6xx_HAL_Driver/Src/stm32n6xx_hal_dma.c ****   * @brief  Lock the DMA channel security and privilege attribute(s).
1623:../Drivers/STM32N6xx_HAL_Driver/Src/stm32n6xx_hal_dma.c ****   * @param  hdma : Pointer to a DMA_HandleTypeDef structure that contains the configuration informa
1624:../Drivers/STM32N6xx_HAL_Driver/Src/stm32n6xx_hal_dma.c ****   *                specified DMA Channel.
1625:../Drivers/STM32N6xx_HAL_Driver/Src/stm32n6xx_hal_dma.c ****   * @retval HAL Status.
1626:../Drivers/STM32N6xx_HAL_Driver/Src/stm32n6xx_hal_dma.c ****   */
1627:../Drivers/STM32N6xx_HAL_Driver/Src/stm32n6xx_hal_dma.c **** HAL_StatusTypeDef HAL_DMA_LockChannelAttributes(DMA_HandleTypeDef const *const hdma)
1628:../Drivers/STM32N6xx_HAL_Driver/Src/stm32n6xx_hal_dma.c **** {
1629:../Drivers/STM32N6xx_HAL_Driver/Src/stm32n6xx_hal_dma.c ****   DMA_TypeDef *p_dma_instance;
1630:../Drivers/STM32N6xx_HAL_Driver/Src/stm32n6xx_hal_dma.c ****   uint32_t channel_idx;
1631:../Drivers/STM32N6xx_HAL_Driver/Src/stm32n6xx_hal_dma.c **** 
1632:../Drivers/STM32N6xx_HAL_Driver/Src/stm32n6xx_hal_dma.c ****   /* Check the DMA peripheral handle parameter */
1633:../Drivers/STM32N6xx_HAL_Driver/Src/stm32n6xx_hal_dma.c ****   if (hdma == NULL)
1634:../Drivers/STM32N6xx_HAL_Driver/Src/stm32n6xx_hal_dma.c ****   {
1635:../Drivers/STM32N6xx_HAL_Driver/Src/stm32n6xx_hal_dma.c ****     return HAL_ERROR;
1636:../Drivers/STM32N6xx_HAL_Driver/Src/stm32n6xx_hal_dma.c ****   }
1637:../Drivers/STM32N6xx_HAL_Driver/Src/stm32n6xx_hal_dma.c **** 
1638:../Drivers/STM32N6xx_HAL_Driver/Src/stm32n6xx_hal_dma.c ****   /* Get DMA instance */
1639:../Drivers/STM32N6xx_HAL_Driver/Src/stm32n6xx_hal_dma.c ****   p_dma_instance = GET_DMA_INSTANCE(hdma);
1640:../Drivers/STM32N6xx_HAL_Driver/Src/stm32n6xx_hal_dma.c **** 
1641:../Drivers/STM32N6xx_HAL_Driver/Src/stm32n6xx_hal_dma.c ****   /* Get channel index */
1642:../Drivers/STM32N6xx_HAL_Driver/Src/stm32n6xx_hal_dma.c ****   channel_idx = 1UL << (GET_DMA_CHANNEL(hdma) & 0x1FU);
1643:../Drivers/STM32N6xx_HAL_Driver/Src/stm32n6xx_hal_dma.c **** 
1644:../Drivers/STM32N6xx_HAL_Driver/Src/stm32n6xx_hal_dma.c ****   /* Lock the DMA channel privilege and security attributes */
1645:../Drivers/STM32N6xx_HAL_Driver/Src/stm32n6xx_hal_dma.c ****   p_dma_instance->RCFGLOCKR |= channel_idx;
1646:../Drivers/STM32N6xx_HAL_Driver/Src/stm32n6xx_hal_dma.c **** 
1647:../Drivers/STM32N6xx_HAL_Driver/Src/stm32n6xx_hal_dma.c ****   return HAL_OK;
1648:../Drivers/STM32N6xx_HAL_Driver/Src/stm32n6xx_hal_dma.c **** }
1649:../Drivers/STM32N6xx_HAL_Driver/Src/stm32n6xx_hal_dma.c **** #endif /* CPU_IN_SECURE_STATE */
1650:../Drivers/STM32N6xx_HAL_Driver/Src/stm32n6xx_hal_dma.c **** 
1651:../Drivers/STM32N6xx_HAL_Driver/Src/stm32n6xx_hal_dma.c **** /**
1652:../Drivers/STM32N6xx_HAL_Driver/Src/stm32n6xx_hal_dma.c ****   * @brief  Get the security and privilege attribute lock state of a DMA channel.
1653:../Drivers/STM32N6xx_HAL_Driver/Src/stm32n6xx_hal_dma.c ****   * @param  hdma       : Pointer to a DMA_HandleTypeDef structure that contains the configuration i
1654:../Drivers/STM32N6xx_HAL_Driver/Src/stm32n6xx_hal_dma.c ****   *                      specified DMA Channel.
1655:../Drivers/STM32N6xx_HAL_Driver/Src/stm32n6xx_hal_dma.c ****   * @param  pLockState : Pointer to lock state (returned value can be DMA_CHANNEL_ATTRIBUTE_UNLOCKE
1656:../Drivers/STM32N6xx_HAL_Driver/Src/stm32n6xx_hal_dma.c ****   *                      DMA_CHANNEL_ATTRIBUTE_LOCKED).
1657:../Drivers/STM32N6xx_HAL_Driver/Src/stm32n6xx_hal_dma.c ****   * @retval HAL status.
1658:../Drivers/STM32N6xx_HAL_Driver/Src/stm32n6xx_hal_dma.c ****   */
1659:../Drivers/STM32N6xx_HAL_Driver/Src/stm32n6xx_hal_dma.c **** HAL_StatusTypeDef HAL_DMA_GetLockChannelAttributes(DMA_HandleTypeDef const *const hdma, uint32_t *c
1660:../Drivers/STM32N6xx_HAL_Driver/Src/stm32n6xx_hal_dma.c **** {
1661:../Drivers/STM32N6xx_HAL_Driver/Src/stm32n6xx_hal_dma.c ****   const DMA_TypeDef *p_dma_instance;
1662:../Drivers/STM32N6xx_HAL_Driver/Src/stm32n6xx_hal_dma.c ****   uint32_t channel_idx;
1663:../Drivers/STM32N6xx_HAL_Driver/Src/stm32n6xx_hal_dma.c **** 
1664:../Drivers/STM32N6xx_HAL_Driver/Src/stm32n6xx_hal_dma.c ****   /* Check the DMA peripheral handle and lock state parameters */
1665:../Drivers/STM32N6xx_HAL_Driver/Src/stm32n6xx_hal_dma.c ****   if ((hdma == NULL) || (pLockState == NULL))
1666:../Drivers/STM32N6xx_HAL_Driver/Src/stm32n6xx_hal_dma.c ****   {
1667:../Drivers/STM32N6xx_HAL_Driver/Src/stm32n6xx_hal_dma.c ****     return HAL_ERROR;
1668:../Drivers/STM32N6xx_HAL_Driver/Src/stm32n6xx_hal_dma.c ****   }
1669:../Drivers/STM32N6xx_HAL_Driver/Src/stm32n6xx_hal_dma.c **** 
1670:../Drivers/STM32N6xx_HAL_Driver/Src/stm32n6xx_hal_dma.c ****   /* Get DMA instance */
1671:../Drivers/STM32N6xx_HAL_Driver/Src/stm32n6xx_hal_dma.c ****   p_dma_instance = GET_DMA_INSTANCE(hdma);
1672:../Drivers/STM32N6xx_HAL_Driver/Src/stm32n6xx_hal_dma.c **** 
1673:../Drivers/STM32N6xx_HAL_Driver/Src/stm32n6xx_hal_dma.c ****   /* Get channel index */
1674:../Drivers/STM32N6xx_HAL_Driver/Src/stm32n6xx_hal_dma.c ****   channel_idx = 1UL << (GET_DMA_CHANNEL(hdma) & 0x1FU);
1675:../Drivers/STM32N6xx_HAL_Driver/Src/stm32n6xx_hal_dma.c **** 
1676:../Drivers/STM32N6xx_HAL_Driver/Src/stm32n6xx_hal_dma.c ****   /* Get channel lock attribute state */
1677:../Drivers/STM32N6xx_HAL_Driver/Src/stm32n6xx_hal_dma.c ****   *pLockState = ((p_dma_instance->RCFGLOCKR & channel_idx) == 0U) ? DMA_CHANNEL_ATTRIBUTE_UNLOCKED 
1678:../Drivers/STM32N6xx_HAL_Driver/Src/stm32n6xx_hal_dma.c ****                 DMA_CHANNEL_ATTRIBUTE_LOCKED;
ARM GAS  /tmp/ccRTxeLm.s 			page 31


1679:../Drivers/STM32N6xx_HAL_Driver/Src/stm32n6xx_hal_dma.c **** 
1680:../Drivers/STM32N6xx_HAL_Driver/Src/stm32n6xx_hal_dma.c ****   return HAL_OK;
1681:../Drivers/STM32N6xx_HAL_Driver/Src/stm32n6xx_hal_dma.c **** }
1682:../Drivers/STM32N6xx_HAL_Driver/Src/stm32n6xx_hal_dma.c **** /**
1683:../Drivers/STM32N6xx_HAL_Driver/Src/stm32n6xx_hal_dma.c ****   * @}
1684:../Drivers/STM32N6xx_HAL_Driver/Src/stm32n6xx_hal_dma.c ****   */
1685:../Drivers/STM32N6xx_HAL_Driver/Src/stm32n6xx_hal_dma.c **** 
1686:../Drivers/STM32N6xx_HAL_Driver/Src/stm32n6xx_hal_dma.c **** /**
1687:../Drivers/STM32N6xx_HAL_Driver/Src/stm32n6xx_hal_dma.c ****   * @}
1688:../Drivers/STM32N6xx_HAL_Driver/Src/stm32n6xx_hal_dma.c ****   */
1689:../Drivers/STM32N6xx_HAL_Driver/Src/stm32n6xx_hal_dma.c **** 
1690:../Drivers/STM32N6xx_HAL_Driver/Src/stm32n6xx_hal_dma.c **** 
1691:../Drivers/STM32N6xx_HAL_Driver/Src/stm32n6xx_hal_dma.c **** /* Private functions ------------------------------------------------------------------------------
1692:../Drivers/STM32N6xx_HAL_Driver/Src/stm32n6xx_hal_dma.c **** /** @defgroup DMA_Private_Functions DMA Private Functions
1693:../Drivers/STM32N6xx_HAL_Driver/Src/stm32n6xx_hal_dma.c ****   * @brief    DMA Private Functions
1694:../Drivers/STM32N6xx_HAL_Driver/Src/stm32n6xx_hal_dma.c ****   * @{
1695:../Drivers/STM32N6xx_HAL_Driver/Src/stm32n6xx_hal_dma.c ****   */
1696:../Drivers/STM32N6xx_HAL_Driver/Src/stm32n6xx_hal_dma.c **** 
1697:../Drivers/STM32N6xx_HAL_Driver/Src/stm32n6xx_hal_dma.c **** /**
1698:../Drivers/STM32N6xx_HAL_Driver/Src/stm32n6xx_hal_dma.c ****   * @brief  Set the DMA channel normal transfer parameters.
1699:../Drivers/STM32N6xx_HAL_Driver/Src/stm32n6xx_hal_dma.c ****   * @param  hdma        : Pointer to a DMA_HandleTypeDef structure that contains the configuration 
1700:../Drivers/STM32N6xx_HAL_Driver/Src/stm32n6xx_hal_dma.c ****   *                       specified DMA Channel.
1701:../Drivers/STM32N6xx_HAL_Driver/Src/stm32n6xx_hal_dma.c ****   * @param  SrcAddress  : The source data address.
1702:../Drivers/STM32N6xx_HAL_Driver/Src/stm32n6xx_hal_dma.c ****   * @param  DstAddress  : The destination data address.
1703:../Drivers/STM32N6xx_HAL_Driver/Src/stm32n6xx_hal_dma.c ****   * @param  SrcDataSize : The length of data to be transferred from source to destination in bytes.
1704:../Drivers/STM32N6xx_HAL_Driver/Src/stm32n6xx_hal_dma.c ****   * @retval None.
1705:../Drivers/STM32N6xx_HAL_Driver/Src/stm32n6xx_hal_dma.c ****   */
1706:../Drivers/STM32N6xx_HAL_Driver/Src/stm32n6xx_hal_dma.c **** static void DMA_SetConfig(DMA_HandleTypeDef const *const hdma,
1707:../Drivers/STM32N6xx_HAL_Driver/Src/stm32n6xx_hal_dma.c ****                           uint32_t SrcAddress,
1708:../Drivers/STM32N6xx_HAL_Driver/Src/stm32n6xx_hal_dma.c ****                           uint32_t DstAddress,
1709:../Drivers/STM32N6xx_HAL_Driver/Src/stm32n6xx_hal_dma.c ****                           uint32_t SrcDataSize)
1710:../Drivers/STM32N6xx_HAL_Driver/Src/stm32n6xx_hal_dma.c **** {
  34              		.loc 1 1710 1 view -0
  35              		.cfi_startproc
  36              		@ args = 0, pretend = 0, frame = 0
  37              		@ frame_needed = 0, uses_anonymous_args = 0
  38              		.loc 1 1710 1 is_stmt 0 view .LVU1
  39 0000 10B5     		push	{r4, lr}
  40              	.LCFI0:
  41              		.cfi_def_cfa_offset 8
  42              		.cfi_offset 4, -8
  43              		.cfi_offset 14, -4
1711:../Drivers/STM32N6xx_HAL_Driver/Src/stm32n6xx_hal_dma.c ****   /* Configure the DMA channel data size */
1712:../Drivers/STM32N6xx_HAL_Driver/Src/stm32n6xx_hal_dma.c ****   MODIFY_REG(hdma->Instance->CBR1, DMA_CBR1_BNDT, (SrcDataSize & DMA_CBR1_BNDT));
  44              		.loc 1 1712 3 is_stmt 1 view .LVU2
  45 0002 D0F800E0 		ldr	lr, [r0]
  46 0006 DEF848C0 		ldr	ip, [lr, #72]
  47 000a 6FF30F0C 		bfc	ip, #0, #16
  48 000e 9BB2     		uxth	r3, r3
  49              	.LVL1:
  50              		.loc 1 1712 3 is_stmt 0 view .LVU3
  51 0010 4CEA0303 		orr	r3, ip, r3
  52 0014 CEF84830 		str	r3, [lr, #72]
1713:../Drivers/STM32N6xx_HAL_Driver/Src/stm32n6xx_hal_dma.c **** 
1714:../Drivers/STM32N6xx_HAL_Driver/Src/stm32n6xx_hal_dma.c ****   /* Clear all interrupt flags */
1715:../Drivers/STM32N6xx_HAL_Driver/Src/stm32n6xx_hal_dma.c ****   __HAL_DMA_CLEAR_FLAG(hdma, DMA_FLAG_TC | DMA_FLAG_HT | DMA_FLAG_DTE | DMA_FLAG_ULE | DMA_FLAG_USE
  53              		.loc 1 1715 3 is_stmt 1 view .LVU4
ARM GAS  /tmp/ccRTxeLm.s 			page 32


  54 0018 4FF4FE43 		mov	r3, #32512
  55 001c 0468     		ldr	r4, [r0]
  56 001e E360     		str	r3, [r4, #12]
1716:../Drivers/STM32N6xx_HAL_Driver/Src/stm32n6xx_hal_dma.c ****                        DMA_FLAG_TO);
1717:../Drivers/STM32N6xx_HAL_Driver/Src/stm32n6xx_hal_dma.c **** 
1718:../Drivers/STM32N6xx_HAL_Driver/Src/stm32n6xx_hal_dma.c ****   /* Configure DMA channel source address */
1719:../Drivers/STM32N6xx_HAL_Driver/Src/stm32n6xx_hal_dma.c ****   hdma->Instance->CSAR = SrcAddress;
  57              		.loc 1 1719 3 view .LVU5
  58              		.loc 1 1719 7 is_stmt 0 view .LVU6
  59 0020 0368     		ldr	r3, [r0]
  60              		.loc 1 1719 24 view .LVU7
  61 0022 D964     		str	r1, [r3, #76]
1720:../Drivers/STM32N6xx_HAL_Driver/Src/stm32n6xx_hal_dma.c **** 
1721:../Drivers/STM32N6xx_HAL_Driver/Src/stm32n6xx_hal_dma.c ****   /* Configure DMA channel destination address */
1722:../Drivers/STM32N6xx_HAL_Driver/Src/stm32n6xx_hal_dma.c ****   hdma->Instance->CDAR = DstAddress;
  62              		.loc 1 1722 3 is_stmt 1 view .LVU8
  63              		.loc 1 1722 7 is_stmt 0 view .LVU9
  64 0024 0368     		ldr	r3, [r0]
  65              		.loc 1 1722 24 view .LVU10
  66 0026 1A65     		str	r2, [r3, #80]
1723:../Drivers/STM32N6xx_HAL_Driver/Src/stm32n6xx_hal_dma.c **** }
  67              		.loc 1 1723 1 view .LVU11
  68 0028 10BD     		pop	{r4, pc}
  69              		.cfi_endproc
  70              	.LFE899:
  72              		.section	.text.DMA_Init,"ax",%progbits
  73              		.align	1
  74              		.syntax unified
  75              		.thumb
  76              		.thumb_func
  78              	DMA_Init:
  79              	.LVL2:
  80              	.LFB900:
1724:../Drivers/STM32N6xx_HAL_Driver/Src/stm32n6xx_hal_dma.c **** 
1725:../Drivers/STM32N6xx_HAL_Driver/Src/stm32n6xx_hal_dma.c **** /**
1726:../Drivers/STM32N6xx_HAL_Driver/Src/stm32n6xx_hal_dma.c ****   * @brief  Initialize the DMA channel in normal mode according to the specified parameters in the 
1727:../Drivers/STM32N6xx_HAL_Driver/Src/stm32n6xx_hal_dma.c ****   * @param  hdma : pointer to a DMA_HandleTypeDef structure that contains the configuration informa
1728:../Drivers/STM32N6xx_HAL_Driver/Src/stm32n6xx_hal_dma.c ****   *                specified DMA Channel.
1729:../Drivers/STM32N6xx_HAL_Driver/Src/stm32n6xx_hal_dma.c ****   * @retval None.
1730:../Drivers/STM32N6xx_HAL_Driver/Src/stm32n6xx_hal_dma.c ****   */
1731:../Drivers/STM32N6xx_HAL_Driver/Src/stm32n6xx_hal_dma.c **** static void DMA_Init(DMA_HandleTypeDef const *const hdma)
1732:../Drivers/STM32N6xx_HAL_Driver/Src/stm32n6xx_hal_dma.c **** {
  81              		.loc 1 1732 1 is_stmt 1 view -0
  82              		.cfi_startproc
  83              		@ args = 0, pretend = 0, frame = 0
  84              		@ frame_needed = 0, uses_anonymous_args = 0
  85              		@ link register save eliminated.
  86              		.loc 1 1732 1 is_stmt 0 view .LVU13
  87 0000 10B4     		push	{r4}
  88              	.LCFI1:
  89              		.cfi_def_cfa_offset 4
  90              		.cfi_offset 4, -4
1733:../Drivers/STM32N6xx_HAL_Driver/Src/stm32n6xx_hal_dma.c ****   uint32_t tmpreg;
  91              		.loc 1 1733 3 is_stmt 1 view .LVU14
1734:../Drivers/STM32N6xx_HAL_Driver/Src/stm32n6xx_hal_dma.c **** 
1735:../Drivers/STM32N6xx_HAL_Driver/Src/stm32n6xx_hal_dma.c ****   /* Prepare DMA Channel Control Register (CCR) value *********************************************
1736:../Drivers/STM32N6xx_HAL_Driver/Src/stm32n6xx_hal_dma.c ****   tmpreg = hdma->Init.Priority;
ARM GAS  /tmp/ccRTxeLm.s 			page 33


  92              		.loc 1 1736 3 view .LVU15
  93              		.loc 1 1736 10 is_stmt 0 view .LVU16
  94 0002 016A     		ldr	r1, [r0, #32]
  95              	.LVL3:
1737:../Drivers/STM32N6xx_HAL_Driver/Src/stm32n6xx_hal_dma.c **** 
1738:../Drivers/STM32N6xx_HAL_Driver/Src/stm32n6xx_hal_dma.c ****   /* Write DMA Channel Control Register (CCR) */
1739:../Drivers/STM32N6xx_HAL_Driver/Src/stm32n6xx_hal_dma.c ****   MODIFY_REG(hdma->Instance->CCR, DMA_CCR_PRIO | DMA_CCR_LAP | DMA_CCR_LSM, tmpreg);
  96              		.loc 1 1739 3 is_stmt 1 view .LVU17
  97 0004 0268     		ldr	r2, [r0]
  98 0006 5369     		ldr	r3, [r2, #20]
  99 0008 23F44303 		bic	r3, r3, #12779520
 100 000c 0B43     		orrs	r3, r3, r1
 101 000e 5361     		str	r3, [r2, #20]
1740:../Drivers/STM32N6xx_HAL_Driver/Src/stm32n6xx_hal_dma.c **** 
1741:../Drivers/STM32N6xx_HAL_Driver/Src/stm32n6xx_hal_dma.c ****   /* Prepare DMA Channel Transfer Register (CTR1) value *******************************************
1742:../Drivers/STM32N6xx_HAL_Driver/Src/stm32n6xx_hal_dma.c ****   tmpreg = hdma->Init.DestInc | hdma->Init.DestDataWidth | hdma->Init.SrcInc | hdma->Init.SrcDataWi
 102              		.loc 1 1742 3 view .LVU18
 103              		.loc 1 1742 22 is_stmt 0 view .LVU19
 104 0010 4369     		ldr	r3, [r0, #20]
 105              		.loc 1 1742 43 view .LVU20
 106 0012 C269     		ldr	r2, [r0, #28]
 107              		.loc 1 1742 31 view .LVU21
 108 0014 1343     		orrs	r3, r3, r2
 109              		.loc 1 1742 70 view .LVU22
 110 0016 0269     		ldr	r2, [r0, #16]
 111              		.loc 1 1742 58 view .LVU23
 112 0018 1343     		orrs	r3, r3, r2
 113              		.loc 1 1742 90 view .LVU24
 114 001a 8269     		ldr	r2, [r0, #24]
 115              		.loc 1 1742 10 view .LVU25
 116 001c 1343     		orrs	r3, r3, r2
 117              	.LVL4:
1743:../Drivers/STM32N6xx_HAL_Driver/Src/stm32n6xx_hal_dma.c **** 
1744:../Drivers/STM32N6xx_HAL_Driver/Src/stm32n6xx_hal_dma.c ****   /* Add parameters specific to HPDMA and GPDMA */
1745:../Drivers/STM32N6xx_HAL_Driver/Src/stm32n6xx_hal_dma.c ****   if ((IS_HPDMA_INSTANCE(hdma->Instance) != 0U) || (IS_GPDMA_INSTANCE(hdma->Instance) != 0U))
 118              		.loc 1 1745 3 is_stmt 1 view .LVU26
 119              		.loc 1 1745 8 is_stmt 0 view .LVU27
 120 001e 0168     		ldr	r1, [r0]
 121 0020 C04A     		ldr	r2, .L16
 122 0022 9142     		cmp	r1, r2
 123 0024 00F03D81 		beq	.L4
 124              		.loc 1 1745 8 discriminator 1 view .LVU28
 125 0028 02F17042 		add	r2, r2, #-268435456
 126 002c 9142     		cmp	r1, r2
 127 002e 00F03881 		beq	.L4
 128              		.loc 1 1745 8 discriminator 2 view .LVU29
 129 0032 02F18052 		add	r2, r2, #268435456
 130 0036 8032     		adds	r2, r2, #128
 131 0038 9142     		cmp	r1, r2
 132 003a 00F03281 		beq	.L4
 133              		.loc 1 1745 8 discriminator 3 view .LVU30
 134 003e 02F17042 		add	r2, r2, #-268435456
 135 0042 9142     		cmp	r1, r2
 136 0044 00F02D81 		beq	.L4
 137              		.loc 1 1745 8 discriminator 4 view .LVU31
 138 0048 02F18052 		add	r2, r2, #268435456
 139 004c 8032     		adds	r2, r2, #128
ARM GAS  /tmp/ccRTxeLm.s 			page 34


 140 004e 9142     		cmp	r1, r2
 141 0050 00F02781 		beq	.L4
 142              		.loc 1 1745 8 discriminator 5 view .LVU32
 143 0054 02F17042 		add	r2, r2, #-268435456
 144 0058 9142     		cmp	r1, r2
 145 005a 00F02281 		beq	.L4
 146              		.loc 1 1745 8 discriminator 6 view .LVU33
 147 005e 02F18052 		add	r2, r2, #268435456
 148 0062 8032     		adds	r2, r2, #128
 149 0064 9142     		cmp	r1, r2
 150 0066 00F01C81 		beq	.L4
 151              		.loc 1 1745 8 discriminator 7 view .LVU34
 152 006a 02F17042 		add	r2, r2, #-268435456
 153 006e 9142     		cmp	r1, r2
 154 0070 00F01781 		beq	.L4
 155              		.loc 1 1745 8 discriminator 8 view .LVU35
 156 0074 02F18052 		add	r2, r2, #268435456
 157 0078 8032     		adds	r2, r2, #128
 158 007a 9142     		cmp	r1, r2
 159 007c 00F01181 		beq	.L4
 160              		.loc 1 1745 8 discriminator 9 view .LVU36
 161 0080 02F17042 		add	r2, r2, #-268435456
 162 0084 9142     		cmp	r1, r2
 163 0086 00F00C81 		beq	.L4
 164              		.loc 1 1745 8 discriminator 10 view .LVU37
 165 008a 02F18052 		add	r2, r2, #268435456
 166 008e 8032     		adds	r2, r2, #128
 167 0090 9142     		cmp	r1, r2
 168 0092 00F00681 		beq	.L4
 169              		.loc 1 1745 8 discriminator 11 view .LVU38
 170 0096 02F17042 		add	r2, r2, #-268435456
 171 009a 9142     		cmp	r1, r2
 172 009c 00F00181 		beq	.L4
 173              		.loc 1 1745 8 discriminator 12 view .LVU39
 174 00a0 02F18052 		add	r2, r2, #268435456
 175 00a4 8032     		adds	r2, r2, #128
 176 00a6 9142     		cmp	r1, r2
 177 00a8 00F0FB80 		beq	.L4
 178              		.loc 1 1745 8 discriminator 13 view .LVU40
 179 00ac 02F17042 		add	r2, r2, #-268435456
 180 00b0 9142     		cmp	r1, r2
 181 00b2 00F0F680 		beq	.L4
 182              		.loc 1 1745 8 discriminator 14 view .LVU41
 183 00b6 02F18052 		add	r2, r2, #268435456
 184 00ba 8032     		adds	r2, r2, #128
 185 00bc 9142     		cmp	r1, r2
 186 00be 00F0F080 		beq	.L4
 187              		.loc 1 1745 8 discriminator 15 view .LVU42
 188 00c2 02F17042 		add	r2, r2, #-268435456
 189 00c6 9142     		cmp	r1, r2
 190 00c8 00F0EB80 		beq	.L4
 191              		.loc 1 1745 8 discriminator 16 view .LVU43
 192 00cc 02F18052 		add	r2, r2, #268435456
 193 00d0 8032     		adds	r2, r2, #128
 194 00d2 9142     		cmp	r1, r2
 195 00d4 00F0E580 		beq	.L4
 196              		.loc 1 1745 8 discriminator 17 view .LVU44
ARM GAS  /tmp/ccRTxeLm.s 			page 35


 197 00d8 02F17042 		add	r2, r2, #-268435456
 198 00dc 9142     		cmp	r1, r2
 199 00de 00F0E080 		beq	.L4
 200              		.loc 1 1745 8 discriminator 18 view .LVU45
 201 00e2 02F18052 		add	r2, r2, #268435456
 202 00e6 8032     		adds	r2, r2, #128
 203 00e8 9142     		cmp	r1, r2
 204 00ea 00F0DA80 		beq	.L4
 205              		.loc 1 1745 8 discriminator 19 view .LVU46
 206 00ee 02F17042 		add	r2, r2, #-268435456
 207 00f2 9142     		cmp	r1, r2
 208 00f4 00F0D580 		beq	.L4
 209              		.loc 1 1745 8 discriminator 20 view .LVU47
 210 00f8 02F18052 		add	r2, r2, #268435456
 211 00fc 8032     		adds	r2, r2, #128
 212 00fe 9142     		cmp	r1, r2
 213 0100 00F0CF80 		beq	.L4
 214              		.loc 1 1745 8 discriminator 21 view .LVU48
 215 0104 02F17042 		add	r2, r2, #-268435456
 216 0108 9142     		cmp	r1, r2
 217 010a 00F0CA80 		beq	.L4
 218              		.loc 1 1745 8 discriminator 22 view .LVU49
 219 010e 02F18052 		add	r2, r2, #268435456
 220 0112 8032     		adds	r2, r2, #128
 221 0114 9142     		cmp	r1, r2
 222 0116 00F0C480 		beq	.L4
 223              		.loc 1 1745 8 discriminator 23 view .LVU50
 224 011a 02F17042 		add	r2, r2, #-268435456
 225 011e 9142     		cmp	r1, r2
 226 0120 00F0BF80 		beq	.L4
 227              		.loc 1 1745 8 discriminator 24 view .LVU51
 228 0124 02F18052 		add	r2, r2, #268435456
 229 0128 8032     		adds	r2, r2, #128
 230 012a 9142     		cmp	r1, r2
 231 012c 00F0B980 		beq	.L4
 232              		.loc 1 1745 8 discriminator 25 view .LVU52
 233 0130 02F17042 		add	r2, r2, #-268435456
 234 0134 9142     		cmp	r1, r2
 235 0136 00F0B480 		beq	.L4
 236              		.loc 1 1745 8 discriminator 26 view .LVU53
 237 013a 02F18052 		add	r2, r2, #268435456
 238 013e 8032     		adds	r2, r2, #128
 239 0140 9142     		cmp	r1, r2
 240 0142 00F0AE80 		beq	.L4
 241              		.loc 1 1745 8 discriminator 27 view .LVU54
 242 0146 02F17042 		add	r2, r2, #-268435456
 243 014a 9142     		cmp	r1, r2
 244 014c 00F0A980 		beq	.L4
 245              		.loc 1 1745 8 discriminator 28 view .LVU55
 246 0150 02F18052 		add	r2, r2, #268435456
 247 0154 8032     		adds	r2, r2, #128
 248 0156 9142     		cmp	r1, r2
 249 0158 00F0A380 		beq	.L4
 250              		.loc 1 1745 8 discriminator 29 view .LVU56
 251 015c 02F17042 		add	r2, r2, #-268435456
 252 0160 9142     		cmp	r1, r2
 253 0162 00F09E80 		beq	.L4
ARM GAS  /tmp/ccRTxeLm.s 			page 36


 254              		.loc 1 1745 8 discriminator 30 view .LVU57
 255 0166 02F18052 		add	r2, r2, #268435456
 256 016a 8032     		adds	r2, r2, #128
 257 016c 9142     		cmp	r1, r2
 258 016e 00F09880 		beq	.L4
 259              		.loc 1 1745 8 discriminator 31 view .LVU58
 260 0172 02F17042 		add	r2, r2, #-268435456
 261 0176 9142     		cmp	r1, r2
 262 0178 00F09380 		beq	.L4
 263              		.loc 1 1745 53 discriminator 35 view .LVU59
 264 017c 02F10822 		add	r2, r2, #134219776
 265 0180 8032     		adds	r2, r2, #128
 266 0182 9142     		cmp	r1, r2
 267 0184 00F08D80 		beq	.L4
 268              		.loc 1 1745 53 discriminator 36 view .LVU60
 269 0188 02F17042 		add	r2, r2, #-268435456
 270 018c 9142     		cmp	r1, r2
 271 018e 00F08880 		beq	.L4
 272              		.loc 1 1745 53 discriminator 37 view .LVU61
 273 0192 02F18052 		add	r2, r2, #268435456
 274 0196 8032     		adds	r2, r2, #128
 275 0198 9142     		cmp	r1, r2
 276 019a 00F08280 		beq	.L4
 277              		.loc 1 1745 53 discriminator 38 view .LVU62
 278 019e 02F17042 		add	r2, r2, #-268435456
 279 01a2 9142     		cmp	r1, r2
 280 01a4 7DD0     		beq	.L4
 281              		.loc 1 1745 53 discriminator 39 view .LVU63
 282 01a6 02F18052 		add	r2, r2, #268435456
 283 01aa 8032     		adds	r2, r2, #128
 284 01ac 9142     		cmp	r1, r2
 285 01ae 78D0     		beq	.L4
 286              		.loc 1 1745 53 discriminator 40 view .LVU64
 287 01b0 02F17042 		add	r2, r2, #-268435456
 288 01b4 9142     		cmp	r1, r2
 289 01b6 74D0     		beq	.L4
 290              		.loc 1 1745 53 discriminator 41 view .LVU65
 291 01b8 02F18052 		add	r2, r2, #268435456
 292 01bc 8032     		adds	r2, r2, #128
 293 01be 9142     		cmp	r1, r2
 294 01c0 6FD0     		beq	.L4
 295              		.loc 1 1745 53 discriminator 42 view .LVU66
 296 01c2 02F17042 		add	r2, r2, #-268435456
 297 01c6 9142     		cmp	r1, r2
 298 01c8 6BD0     		beq	.L4
 299              		.loc 1 1745 53 discriminator 43 view .LVU67
 300 01ca 02F18052 		add	r2, r2, #268435456
 301 01ce 8032     		adds	r2, r2, #128
 302 01d0 9142     		cmp	r1, r2
 303 01d2 66D0     		beq	.L4
 304              		.loc 1 1745 53 discriminator 44 view .LVU68
 305 01d4 02F17042 		add	r2, r2, #-268435456
 306 01d8 9142     		cmp	r1, r2
 307 01da 62D0     		beq	.L4
 308              		.loc 1 1745 53 discriminator 45 view .LVU69
 309 01dc 02F18052 		add	r2, r2, #268435456
 310 01e0 8032     		adds	r2, r2, #128
ARM GAS  /tmp/ccRTxeLm.s 			page 37


 311 01e2 9142     		cmp	r1, r2
 312 01e4 5DD0     		beq	.L4
 313              		.loc 1 1745 53 discriminator 46 view .LVU70
 314 01e6 02F17042 		add	r2, r2, #-268435456
 315 01ea 9142     		cmp	r1, r2
 316 01ec 59D0     		beq	.L4
 317              		.loc 1 1745 53 discriminator 47 view .LVU71
 318 01ee 02F18052 		add	r2, r2, #268435456
 319 01f2 8032     		adds	r2, r2, #128
 320 01f4 9142     		cmp	r1, r2
 321 01f6 54D0     		beq	.L4
 322              		.loc 1 1745 53 discriminator 48 view .LVU72
 323 01f8 02F17042 		add	r2, r2, #-268435456
 324 01fc 9142     		cmp	r1, r2
 325 01fe 50D0     		beq	.L4
 326              		.loc 1 1745 53 discriminator 49 view .LVU73
 327 0200 02F18052 		add	r2, r2, #268435456
 328 0204 8032     		adds	r2, r2, #128
 329 0206 9142     		cmp	r1, r2
 330 0208 4BD0     		beq	.L4
 331              		.loc 1 1745 53 discriminator 50 view .LVU74
 332 020a 02F17042 		add	r2, r2, #-268435456
 333 020e 9142     		cmp	r1, r2
 334 0210 47D0     		beq	.L4
 335              		.loc 1 1745 53 discriminator 51 view .LVU75
 336 0212 02F18052 		add	r2, r2, #268435456
 337 0216 8032     		adds	r2, r2, #128
 338 0218 9142     		cmp	r1, r2
 339 021a 42D0     		beq	.L4
 340              		.loc 1 1745 53 discriminator 52 view .LVU76
 341 021c 02F17042 		add	r2, r2, #-268435456
 342 0220 9142     		cmp	r1, r2
 343 0222 3ED0     		beq	.L4
 344              		.loc 1 1745 53 discriminator 53 view .LVU77
 345 0224 02F18052 		add	r2, r2, #268435456
 346 0228 8032     		adds	r2, r2, #128
 347 022a 9142     		cmp	r1, r2
 348 022c 39D0     		beq	.L4
 349              		.loc 1 1745 53 discriminator 54 view .LVU78
 350 022e 02F17042 		add	r2, r2, #-268435456
 351 0232 9142     		cmp	r1, r2
 352 0234 35D0     		beq	.L4
 353              		.loc 1 1745 53 discriminator 55 view .LVU79
 354 0236 02F18052 		add	r2, r2, #268435456
 355 023a 8032     		adds	r2, r2, #128
 356 023c 9142     		cmp	r1, r2
 357 023e 30D0     		beq	.L4
 358              		.loc 1 1745 53 discriminator 56 view .LVU80
 359 0240 02F17042 		add	r2, r2, #-268435456
 360 0244 9142     		cmp	r1, r2
 361 0246 2CD0     		beq	.L4
 362              		.loc 1 1745 53 discriminator 57 view .LVU81
 363 0248 02F18052 		add	r2, r2, #268435456
 364 024c 8032     		adds	r2, r2, #128
 365 024e 9142     		cmp	r1, r2
 366 0250 27D0     		beq	.L4
 367              		.loc 1 1745 53 discriminator 58 view .LVU82
ARM GAS  /tmp/ccRTxeLm.s 			page 38


 368 0252 02F17042 		add	r2, r2, #-268435456
 369 0256 9142     		cmp	r1, r2
 370 0258 23D0     		beq	.L4
 371              		.loc 1 1745 53 discriminator 59 view .LVU83
 372 025a 02F18052 		add	r2, r2, #268435456
 373 025e 8032     		adds	r2, r2, #128
 374 0260 9142     		cmp	r1, r2
 375 0262 1ED0     		beq	.L4
 376              		.loc 1 1745 53 discriminator 60 view .LVU84
 377 0264 02F17042 		add	r2, r2, #-268435456
 378 0268 9142     		cmp	r1, r2
 379 026a 1AD0     		beq	.L4
 380              		.loc 1 1745 53 discriminator 61 view .LVU85
 381 026c 02F18052 		add	r2, r2, #268435456
 382 0270 8032     		adds	r2, r2, #128
 383 0272 9142     		cmp	r1, r2
 384 0274 15D0     		beq	.L4
 385              		.loc 1 1745 53 discriminator 62 view .LVU86
 386 0276 02F17042 		add	r2, r2, #-268435456
 387 027a 9142     		cmp	r1, r2
 388 027c 11D0     		beq	.L4
 389              		.loc 1 1745 53 discriminator 63 view .LVU87
 390 027e 02F18052 		add	r2, r2, #268435456
 391 0282 8032     		adds	r2, r2, #128
 392 0284 9142     		cmp	r1, r2
 393 0286 0CD0     		beq	.L4
 394              		.loc 1 1745 53 discriminator 64 view .LVU88
 395 0288 02F17042 		add	r2, r2, #-268435456
 396 028c 9142     		cmp	r1, r2
 397 028e 08D0     		beq	.L4
 398              		.loc 1 1745 53 discriminator 65 view .LVU89
 399 0290 02F18052 		add	r2, r2, #268435456
 400 0294 8032     		adds	r2, r2, #128
 401 0296 9142     		cmp	r1, r2
 402 0298 03D0     		beq	.L4
 403              		.loc 1 1745 53 discriminator 66 view .LVU90
 404 029a 02F17042 		add	r2, r2, #-268435456
 405 029e 9142     		cmp	r1, r2
 406 02a0 0FD1     		bne	.L5
 407              	.L4:
1746:../Drivers/STM32N6xx_HAL_Driver/Src/stm32n6xx_hal_dma.c ****   {
1747:../Drivers/STM32N6xx_HAL_Driver/Src/stm32n6xx_hal_dma.c ****     tmpreg |= (hdma->Init.TransferAllocatedPort                                             |
 408              		.loc 1 1747 5 is_stmt 1 view .LVU91
1748:../Drivers/STM32N6xx_HAL_Driver/Src/stm32n6xx_hal_dma.c ****                (((hdma->Init.DestBurstLength - 1U) << DMA_CTR1_DBL_1_Pos) & DMA_CTR1_DBL_1) |
 409              		.loc 1 1748 29 is_stmt 0 view .LVU92
 410 02a2 826A     		ldr	r2, [r0, #40]
 411              		.loc 1 1748 46 view .LVU93
 412 02a4 013A     		subs	r2, r2, #1
 413              		.loc 1 1748 52 view .LVU94
 414 02a6 1205     		lsls	r2, r2, #20
 415              		.loc 1 1748 75 view .LVU95
 416 02a8 02F07C72 		and	r2, r2, #66060288
1747:../Drivers/STM32N6xx_HAL_Driver/Src/stm32n6xx_hal_dma.c ****                (((hdma->Init.DestBurstLength - 1U) << DMA_CTR1_DBL_1_Pos) & DMA_CTR1_DBL_1) |
 417              		.loc 1 1747 93 view .LVU96
 418 02ac C46A     		ldr	r4, [r0, #44]
 419 02ae 44EA020C 		orr	ip, r4, r2
1749:../Drivers/STM32N6xx_HAL_Driver/Src/stm32n6xx_hal_dma.c ****                (((hdma->Init.SrcBurstLength - 1U) << DMA_CTR1_SBL_1_Pos) & DMA_CTR1_SBL_1));
ARM GAS  /tmp/ccRTxeLm.s 			page 39


 420              		.loc 1 1749 29 view .LVU97
 421 02b2 426A     		ldr	r2, [r0, #36]
 422              		.loc 1 1749 45 view .LVU98
 423 02b4 013A     		subs	r2, r2, #1
 424              		.loc 1 1749 51 view .LVU99
 425 02b6 1201     		lsls	r2, r2, #4
 426              		.loc 1 1749 74 view .LVU100
 427 02b8 02F47C72 		and	r2, r2, #1008
1748:../Drivers/STM32N6xx_HAL_Driver/Src/stm32n6xx_hal_dma.c ****                (((hdma->Init.DestBurstLength - 1U) << DMA_CTR1_DBL_1_Pos) & DMA_CTR1_DBL_1) |
 428              		.loc 1 1748 93 view .LVU101
 429 02bc 4CEA0202 		orr	r2, ip, r2
1747:../Drivers/STM32N6xx_HAL_Driver/Src/stm32n6xx_hal_dma.c ****                (((hdma->Init.DestBurstLength - 1U) << DMA_CTR1_DBL_1_Pos) & DMA_CTR1_DBL_1) |
 430              		.loc 1 1747 12 view .LVU102
 431 02c0 1343     		orrs	r3, r3, r2
 432              	.LVL5:
 433              	.L5:
1750:../Drivers/STM32N6xx_HAL_Driver/Src/stm32n6xx_hal_dma.c ****   }
1751:../Drivers/STM32N6xx_HAL_Driver/Src/stm32n6xx_hal_dma.c **** 
1752:../Drivers/STM32N6xx_HAL_Driver/Src/stm32n6xx_hal_dma.c ****   /* Write DMA Channel Transfer Register 1 (CTR1) */
1753:../Drivers/STM32N6xx_HAL_Driver/Src/stm32n6xx_hal_dma.c ****   MODIFY_REG(hdma->Instance->CTR1, ~(DMA_CTR1_SSEC | DMA_CTR1_DSEC), tmpreg);
 434              		.loc 1 1753 3 is_stmt 1 view .LVU103
 435 02c2 0A6C     		ldr	r2, [r1, #64]
 436 02c4 02F08022 		and	r2, r2, #-2147450880
 437 02c8 1343     		orrs	r3, r3, r2
 438              	.LVL6:
 439              		.loc 1 1753 3 is_stmt 0 view .LVU104
 440 02ca 0B64     		str	r3, [r1, #64]
1754:../Drivers/STM32N6xx_HAL_Driver/Src/stm32n6xx_hal_dma.c **** 
1755:../Drivers/STM32N6xx_HAL_Driver/Src/stm32n6xx_hal_dma.c ****   /* Prepare DMA Channel Transfer Register 2 (CTR2) value *****************************************
1756:../Drivers/STM32N6xx_HAL_Driver/Src/stm32n6xx_hal_dma.c ****   tmpreg = hdma->Init.BlkHWRequest | (hdma->Init.Request & DMA_CTR2_REQSEL) | hdma->Init.TransferEv
 441              		.loc 1 1756 3 is_stmt 1 view .LVU105
 442              		.loc 1 1756 22 is_stmt 0 view .LVU106
 443 02cc 8368     		ldr	r3, [r0, #8]
 444              		.loc 1 1756 58 view .LVU107
 445 02ce 0279     		ldrb	r2, [r0, #4]	@ zero_extendqisi2
 446              		.loc 1 1756 36 view .LVU108
 447 02d0 1343     		orrs	r3, r3, r2
 448              		.loc 1 1756 89 view .LVU109
 449 02d2 026B     		ldr	r2, [r0, #48]
 450              		.loc 1 1756 10 view .LVU110
 451 02d4 1343     		orrs	r3, r3, r2
 452              	.LVL7:
1757:../Drivers/STM32N6xx_HAL_Driver/Src/stm32n6xx_hal_dma.c **** 
1758:../Drivers/STM32N6xx_HAL_Driver/Src/stm32n6xx_hal_dma.c ****   /* Memory to Peripheral Transfer */
1759:../Drivers/STM32N6xx_HAL_Driver/Src/stm32n6xx_hal_dma.c ****   if ((hdma->Init.Direction) == DMA_MEMORY_TO_PERIPH)
 453              		.loc 1 1759 3 is_stmt 1 view .LVU111
 454              		.loc 1 1759 18 is_stmt 0 view .LVU112
 455 02d6 C268     		ldr	r2, [r0, #12]
 456              		.loc 1 1759 6 view .LVU113
 457 02d8 B2F5806F 		cmp	r2, #1024
 458 02dc 6AD0     		beq	.L14
1760:../Drivers/STM32N6xx_HAL_Driver/Src/stm32n6xx_hal_dma.c ****   {
1761:../Drivers/STM32N6xx_HAL_Driver/Src/stm32n6xx_hal_dma.c ****     if ((IS_HPDMA_INSTANCE(hdma->Instance) != 0U) || (IS_GPDMA_INSTANCE(hdma->Instance) != 0U))
1762:../Drivers/STM32N6xx_HAL_Driver/Src/stm32n6xx_hal_dma.c ****     {
1763:../Drivers/STM32N6xx_HAL_Driver/Src/stm32n6xx_hal_dma.c ****       tmpreg |= DMA_CTR2_DREQ;
1764:../Drivers/STM32N6xx_HAL_Driver/Src/stm32n6xx_hal_dma.c ****     }
1765:../Drivers/STM32N6xx_HAL_Driver/Src/stm32n6xx_hal_dma.c ****   }
ARM GAS  /tmp/ccRTxeLm.s 			page 40


1766:../Drivers/STM32N6xx_HAL_Driver/Src/stm32n6xx_hal_dma.c ****   /* Memory to Memory Transfer */
1767:../Drivers/STM32N6xx_HAL_Driver/Src/stm32n6xx_hal_dma.c ****   else if ((hdma->Init.Direction) == DMA_MEMORY_TO_MEMORY)
 459              		.loc 1 1767 8 is_stmt 1 view .LVU114
 460              		.loc 1 1767 11 is_stmt 0 view .LVU115
 461 02de B2F5007F 		cmp	r2, #512
 462 02e2 00F0AD81 		beq	.L15
 463              	.LVL8:
 464              	.L9:
1768:../Drivers/STM32N6xx_HAL_Driver/Src/stm32n6xx_hal_dma.c ****   {
1769:../Drivers/STM32N6xx_HAL_Driver/Src/stm32n6xx_hal_dma.c ****     tmpreg |= DMA_CTR2_SWREQ;
1770:../Drivers/STM32N6xx_HAL_Driver/Src/stm32n6xx_hal_dma.c ****   }
1771:../Drivers/STM32N6xx_HAL_Driver/Src/stm32n6xx_hal_dma.c ****   else
1772:../Drivers/STM32N6xx_HAL_Driver/Src/stm32n6xx_hal_dma.c ****   {
1773:../Drivers/STM32N6xx_HAL_Driver/Src/stm32n6xx_hal_dma.c ****     /* Nothing to do */
1774:../Drivers/STM32N6xx_HAL_Driver/Src/stm32n6xx_hal_dma.c ****   }
 465              		.loc 1 1774 3 is_stmt 1 view .LVU116
1775:../Drivers/STM32N6xx_HAL_Driver/Src/stm32n6xx_hal_dma.c **** 
1776:../Drivers/STM32N6xx_HAL_Driver/Src/stm32n6xx_hal_dma.c ****   /* Set DMA channel operation mode */
1777:../Drivers/STM32N6xx_HAL_Driver/Src/stm32n6xx_hal_dma.c ****   tmpreg |= hdma->Init.Mode;
 466              		.loc 1 1777 3 view .LVU117
 467              		.loc 1 1777 23 is_stmt 0 view .LVU118
 468 02e6 426B     		ldr	r2, [r0, #52]
 469              		.loc 1 1777 10 view .LVU119
 470 02e8 1A43     		orrs	r2, r2, r3
 471              	.LVL9:
1778:../Drivers/STM32N6xx_HAL_Driver/Src/stm32n6xx_hal_dma.c **** 
1779:../Drivers/STM32N6xx_HAL_Driver/Src/stm32n6xx_hal_dma.c ****   /* Write DMA Channel Transfer Register 2 (CTR2) */
1780:../Drivers/STM32N6xx_HAL_Driver/Src/stm32n6xx_hal_dma.c ****   MODIFY_REG(hdma->Instance->CTR2, (DMA_CTR2_TCEM  | DMA_CTR2_TRIGPOL | DMA_CTR2_TRIGSEL | DMA_CTR2
 472              		.loc 1 1780 3 is_stmt 1 view .LVU120
 473 02ea 0168     		ldr	r1, [r0]
 474 02ec 4B6C     		ldr	r3, [r1, #68]
 475 02ee 23F04343 		bic	r3, r3, #-1023410176
 476 02f2 23F4FF03 		bic	r3, r3, #8355840
 477 02f6 23F4BD43 		bic	r3, r3, #24192
 478 02fa 23F07F03 		bic	r3, r3, #127
 479 02fe 1343     		orrs	r3, r3, r2
 480 0300 4B64     		str	r3, [r1, #68]
1781:../Drivers/STM32N6xx_HAL_Driver/Src/stm32n6xx_hal_dma.c ****                                     DMA_CTR2_PFREQ | DMA_CTR2_BREQ  | DMA_CTR2_DREQ    | DMA_CTR2_S
1782:../Drivers/STM32N6xx_HAL_Driver/Src/stm32n6xx_hal_dma.c ****                                     DMA_CTR2_REQSEL), tmpreg);
1783:../Drivers/STM32N6xx_HAL_Driver/Src/stm32n6xx_hal_dma.c **** 
1784:../Drivers/STM32N6xx_HAL_Driver/Src/stm32n6xx_hal_dma.c **** 
1785:../Drivers/STM32N6xx_HAL_Driver/Src/stm32n6xx_hal_dma.c ****   /* Write DMA Channel Block Register 1 (CBR1) ****************************************************
1786:../Drivers/STM32N6xx_HAL_Driver/Src/stm32n6xx_hal_dma.c ****   WRITE_REG(hdma->Instance->CBR1, 0U);
 481              		.loc 1 1786 3 view .LVU121
 482 0302 0368     		ldr	r3, [r0]
 483 0304 0022     		movs	r2, #0
 484              	.LVL10:
 485              		.loc 1 1786 3 is_stmt 0 view .LVU122
 486 0306 9A64     		str	r2, [r3, #72]
1787:../Drivers/STM32N6xx_HAL_Driver/Src/stm32n6xx_hal_dma.c **** 
1788:../Drivers/STM32N6xx_HAL_Driver/Src/stm32n6xx_hal_dma.c ****   /* If 2D Addressing is supported by current channel */
1789:../Drivers/STM32N6xx_HAL_Driver/Src/stm32n6xx_hal_dma.c ****   if (IS_DMA_2D_ADDRESSING_INSTANCE(hdma->Instance) != 0U)
 487              		.loc 1 1789 3 is_stmt 1 view .LVU123
 488              		.loc 1 1789 7 is_stmt 0 view .LVU124
 489 0308 0368     		ldr	r3, [r0]
 490 030a 074A     		ldr	r2, .L16+4
 491 030c 9342     		cmp	r3, r2
ARM GAS  /tmp/ccRTxeLm.s 			page 41


 492 030e 48D0     		beq	.L11
 493              		.loc 1 1789 7 discriminator 1 view .LVU125
 494 0310 02F17042 		add	r2, r2, #-268435456
 495 0314 9342     		cmp	r3, r2
 496 0316 44D0     		beq	.L11
 497              		.loc 1 1789 7 discriminator 2 view .LVU126
 498 0318 02F18052 		add	r2, r2, #268435456
 499 031c 8032     		adds	r2, r2, #128
 500 031e 9342     		cmp	r3, r2
 501 0320 3FD0     		beq	.L11
 502 0322 03E0     		b	.L17
 503              	.L18:
 504              		.align	2
 505              	.L16:
 506 0324 50000258 		.word	1476526160
 507 0328 50160250 		.word	1342314064
 508              	.L17:
 509              		.loc 1 1789 7 discriminator 3 view .LVU127
 510 032c 02F17042 		add	r2, r2, #-268435456
 511 0330 9342     		cmp	r3, r2
 512 0332 36D0     		beq	.L11
 513              		.loc 1 1789 7 discriminator 4 view .LVU128
 514 0334 02F18052 		add	r2, r2, #268435456
 515 0338 8032     		adds	r2, r2, #128
 516 033a 9342     		cmp	r3, r2
 517 033c 31D0     		beq	.L11
 518              		.loc 1 1789 7 discriminator 5 view .LVU129
 519 033e 02F17042 		add	r2, r2, #-268435456
 520 0342 9342     		cmp	r3, r2
 521 0344 2DD0     		beq	.L11
 522              		.loc 1 1789 7 discriminator 6 view .LVU130
 523 0346 02F18052 		add	r2, r2, #268435456
 524 034a 8032     		adds	r2, r2, #128
 525 034c 9342     		cmp	r3, r2
 526 034e 28D0     		beq	.L11
 527              		.loc 1 1789 7 discriminator 7 view .LVU131
 528 0350 02F17042 		add	r2, r2, #-268435456
 529 0354 9342     		cmp	r3, r2
 530 0356 24D0     		beq	.L11
 531              		.loc 1 1789 7 discriminator 8 view .LVU132
 532 0358 02F1C052 		add	r2, r2, #402653184
 533 035c A2F58C52 		sub	r2, r2, #4480
 534 0360 9342     		cmp	r3, r2
 535 0362 1ED0     		beq	.L11
 536              		.loc 1 1789 7 discriminator 9 view .LVU133
 537 0364 02F17042 		add	r2, r2, #-268435456
 538 0368 9342     		cmp	r3, r2
 539 036a 1AD0     		beq	.L11
 540              		.loc 1 1789 7 discriminator 10 view .LVU134
 541 036c 02F18052 		add	r2, r2, #268435456
 542 0370 8032     		adds	r2, r2, #128
 543 0372 9342     		cmp	r3, r2
 544 0374 15D0     		beq	.L11
 545              		.loc 1 1789 7 discriminator 11 view .LVU135
 546 0376 02F17042 		add	r2, r2, #-268435456
 547 037a 9342     		cmp	r3, r2
 548 037c 11D0     		beq	.L11
ARM GAS  /tmp/ccRTxeLm.s 			page 42


 549              		.loc 1 1789 7 discriminator 12 view .LVU136
 550 037e 02F18052 		add	r2, r2, #268435456
 551 0382 8032     		adds	r2, r2, #128
 552 0384 9342     		cmp	r3, r2
 553 0386 0CD0     		beq	.L11
 554              		.loc 1 1789 7 discriminator 13 view .LVU137
 555 0388 02F17042 		add	r2, r2, #-268435456
 556 038c 9342     		cmp	r3, r2
 557 038e 08D0     		beq	.L11
 558              		.loc 1 1789 7 discriminator 14 view .LVU138
 559 0390 02F18052 		add	r2, r2, #268435456
 560 0394 8032     		adds	r2, r2, #128
 561 0396 9342     		cmp	r3, r2
 562 0398 03D0     		beq	.L11
 563              		.loc 1 1789 7 discriminator 15 view .LVU139
 564 039a 02F17042 		add	r2, r2, #-268435456
 565 039e 9342     		cmp	r3, r2
 566 03a0 03D1     		bne	.L12
 567              	.L11:
1790:../Drivers/STM32N6xx_HAL_Driver/Src/stm32n6xx_hal_dma.c ****   {
1791:../Drivers/STM32N6xx_HAL_Driver/Src/stm32n6xx_hal_dma.c ****     /* Write DMA Channel Transfer Register 3 (CTR3) ***********************************************
1792:../Drivers/STM32N6xx_HAL_Driver/Src/stm32n6xx_hal_dma.c ****     WRITE_REG(hdma->Instance->CTR3, 0U);
 568              		.loc 1 1792 5 is_stmt 1 view .LVU140
 569 03a2 0022     		movs	r2, #0
 570 03a4 5A65     		str	r2, [r3, #84]
1793:../Drivers/STM32N6xx_HAL_Driver/Src/stm32n6xx_hal_dma.c **** 
1794:../Drivers/STM32N6xx_HAL_Driver/Src/stm32n6xx_hal_dma.c ****     /* Write DMA Channel Block Register 2 (CBR2) **************************************************
1795:../Drivers/STM32N6xx_HAL_Driver/Src/stm32n6xx_hal_dma.c ****     WRITE_REG(hdma->Instance->CBR2, 0U);
 571              		.loc 1 1795 5 view .LVU141
 572 03a6 0368     		ldr	r3, [r0]
 573 03a8 9A65     		str	r2, [r3, #88]
 574              	.L12:
1796:../Drivers/STM32N6xx_HAL_Driver/Src/stm32n6xx_hal_dma.c ****   }
1797:../Drivers/STM32N6xx_HAL_Driver/Src/stm32n6xx_hal_dma.c **** 
1798:../Drivers/STM32N6xx_HAL_Driver/Src/stm32n6xx_hal_dma.c ****   /* Write DMA Channel linked-list address register (CLLR) ****************************************
1799:../Drivers/STM32N6xx_HAL_Driver/Src/stm32n6xx_hal_dma.c ****   WRITE_REG(hdma->Instance->CLLR, 0U);
 575              		.loc 1 1799 3 view .LVU142
 576 03aa 0368     		ldr	r3, [r0]
 577 03ac 0022     		movs	r2, #0
 578 03ae DA67     		str	r2, [r3, #124]
1800:../Drivers/STM32N6xx_HAL_Driver/Src/stm32n6xx_hal_dma.c **** }
 579              		.loc 1 1800 1 is_stmt 0 view .LVU143
 580 03b0 10BC     		pop	{r4}
 581              	.LCFI2:
 582              		.cfi_remember_state
 583              		.cfi_restore 4
 584              		.cfi_def_cfa_offset 0
 585 03b2 7047     		bx	lr
 586              	.LVL11:
 587              	.L14:
 588              	.LCFI3:
 589              		.cfi_restore_state
1761:../Drivers/STM32N6xx_HAL_Driver/Src/stm32n6xx_hal_dma.c ****     {
 590              		.loc 1 1761 5 is_stmt 1 view .LVU144
1761:../Drivers/STM32N6xx_HAL_Driver/Src/stm32n6xx_hal_dma.c ****     {
 591              		.loc 1 1761 10 is_stmt 0 view .LVU145
 592 03b4 0268     		ldr	r2, [r0]
ARM GAS  /tmp/ccRTxeLm.s 			page 43


 593 03b6 A449     		ldr	r1, .L19
 594 03b8 8A42     		cmp	r2, r1
 595 03ba 00F03E81 		beq	.L7
1761:../Drivers/STM32N6xx_HAL_Driver/Src/stm32n6xx_hal_dma.c ****     {
 596              		.loc 1 1761 10 discriminator 1 view .LVU146
 597 03be 01F17041 		add	r1, r1, #-268435456
 598 03c2 8A42     		cmp	r2, r1
 599 03c4 00F03981 		beq	.L7
1761:../Drivers/STM32N6xx_HAL_Driver/Src/stm32n6xx_hal_dma.c ****     {
 600              		.loc 1 1761 10 discriminator 2 view .LVU147
 601 03c8 01F18051 		add	r1, r1, #268435456
 602 03cc 8031     		adds	r1, r1, #128
 603 03ce 8A42     		cmp	r2, r1
 604 03d0 00F03381 		beq	.L7
1761:../Drivers/STM32N6xx_HAL_Driver/Src/stm32n6xx_hal_dma.c ****     {
 605              		.loc 1 1761 10 discriminator 3 view .LVU148
 606 03d4 01F17041 		add	r1, r1, #-268435456
 607 03d8 8A42     		cmp	r2, r1
 608 03da 00F02E81 		beq	.L7
1761:../Drivers/STM32N6xx_HAL_Driver/Src/stm32n6xx_hal_dma.c ****     {
 609              		.loc 1 1761 10 discriminator 4 view .LVU149
 610 03de 01F18051 		add	r1, r1, #268435456
 611 03e2 8031     		adds	r1, r1, #128
 612 03e4 8A42     		cmp	r2, r1
 613 03e6 00F02881 		beq	.L7
1761:../Drivers/STM32N6xx_HAL_Driver/Src/stm32n6xx_hal_dma.c ****     {
 614              		.loc 1 1761 10 discriminator 5 view .LVU150
 615 03ea 01F17041 		add	r1, r1, #-268435456
 616 03ee 8A42     		cmp	r2, r1
 617 03f0 00F02381 		beq	.L7
1761:../Drivers/STM32N6xx_HAL_Driver/Src/stm32n6xx_hal_dma.c ****     {
 618              		.loc 1 1761 10 discriminator 6 view .LVU151
 619 03f4 01F18051 		add	r1, r1, #268435456
 620 03f8 8031     		adds	r1, r1, #128
 621 03fa 8A42     		cmp	r2, r1
 622 03fc 00F01D81 		beq	.L7
1761:../Drivers/STM32N6xx_HAL_Driver/Src/stm32n6xx_hal_dma.c ****     {
 623              		.loc 1 1761 10 discriminator 7 view .LVU152
 624 0400 01F17041 		add	r1, r1, #-268435456
 625 0404 8A42     		cmp	r2, r1
 626 0406 00F01881 		beq	.L7
1761:../Drivers/STM32N6xx_HAL_Driver/Src/stm32n6xx_hal_dma.c ****     {
 627              		.loc 1 1761 10 discriminator 8 view .LVU153
 628 040a 01F18051 		add	r1, r1, #268435456
 629 040e 8031     		adds	r1, r1, #128
 630 0410 8A42     		cmp	r2, r1
 631 0412 00F01281 		beq	.L7
1761:../Drivers/STM32N6xx_HAL_Driver/Src/stm32n6xx_hal_dma.c ****     {
 632              		.loc 1 1761 10 discriminator 9 view .LVU154
 633 0416 01F17041 		add	r1, r1, #-268435456
 634 041a 8A42     		cmp	r2, r1
 635 041c 00F00D81 		beq	.L7
1761:../Drivers/STM32N6xx_HAL_Driver/Src/stm32n6xx_hal_dma.c ****     {
 636              		.loc 1 1761 10 discriminator 10 view .LVU155
 637 0420 01F18051 		add	r1, r1, #268435456
 638 0424 8031     		adds	r1, r1, #128
 639 0426 8A42     		cmp	r2, r1
ARM GAS  /tmp/ccRTxeLm.s 			page 44


 640 0428 00F00781 		beq	.L7
1761:../Drivers/STM32N6xx_HAL_Driver/Src/stm32n6xx_hal_dma.c ****     {
 641              		.loc 1 1761 10 discriminator 11 view .LVU156
 642 042c 01F17041 		add	r1, r1, #-268435456
 643 0430 8A42     		cmp	r2, r1
 644 0432 00F00281 		beq	.L7
1761:../Drivers/STM32N6xx_HAL_Driver/Src/stm32n6xx_hal_dma.c ****     {
 645              		.loc 1 1761 10 discriminator 12 view .LVU157
 646 0436 01F18051 		add	r1, r1, #268435456
 647 043a 8031     		adds	r1, r1, #128
 648 043c 8A42     		cmp	r2, r1
 649 043e 00F0FC80 		beq	.L7
1761:../Drivers/STM32N6xx_HAL_Driver/Src/stm32n6xx_hal_dma.c ****     {
 650              		.loc 1 1761 10 discriminator 13 view .LVU158
 651 0442 01F17041 		add	r1, r1, #-268435456
 652 0446 8A42     		cmp	r2, r1
 653 0448 00F0F780 		beq	.L7
1761:../Drivers/STM32N6xx_HAL_Driver/Src/stm32n6xx_hal_dma.c ****     {
 654              		.loc 1 1761 10 discriminator 14 view .LVU159
 655 044c 01F18051 		add	r1, r1, #268435456
 656 0450 8031     		adds	r1, r1, #128
 657 0452 8A42     		cmp	r2, r1
 658 0454 00F0F180 		beq	.L7
1761:../Drivers/STM32N6xx_HAL_Driver/Src/stm32n6xx_hal_dma.c ****     {
 659              		.loc 1 1761 10 discriminator 15 view .LVU160
 660 0458 01F17041 		add	r1, r1, #-268435456
 661 045c 8A42     		cmp	r2, r1
 662 045e 00F0EC80 		beq	.L7
1761:../Drivers/STM32N6xx_HAL_Driver/Src/stm32n6xx_hal_dma.c ****     {
 663              		.loc 1 1761 10 discriminator 16 view .LVU161
 664 0462 01F18051 		add	r1, r1, #268435456
 665 0466 8031     		adds	r1, r1, #128
 666 0468 8A42     		cmp	r2, r1
 667 046a 00F0E680 		beq	.L7
1761:../Drivers/STM32N6xx_HAL_Driver/Src/stm32n6xx_hal_dma.c ****     {
 668              		.loc 1 1761 10 discriminator 17 view .LVU162
 669 046e 01F17041 		add	r1, r1, #-268435456
 670 0472 8A42     		cmp	r2, r1
 671 0474 00F0E180 		beq	.L7
1761:../Drivers/STM32N6xx_HAL_Driver/Src/stm32n6xx_hal_dma.c ****     {
 672              		.loc 1 1761 10 discriminator 18 view .LVU163
 673 0478 01F18051 		add	r1, r1, #268435456
 674 047c 8031     		adds	r1, r1, #128
 675 047e 8A42     		cmp	r2, r1
 676 0480 00F0DB80 		beq	.L7
1761:../Drivers/STM32N6xx_HAL_Driver/Src/stm32n6xx_hal_dma.c ****     {
 677              		.loc 1 1761 10 discriminator 19 view .LVU164
 678 0484 01F17041 		add	r1, r1, #-268435456
 679 0488 8A42     		cmp	r2, r1
 680 048a 00F0D680 		beq	.L7
1761:../Drivers/STM32N6xx_HAL_Driver/Src/stm32n6xx_hal_dma.c ****     {
 681              		.loc 1 1761 10 discriminator 20 view .LVU165
 682 048e 01F18051 		add	r1, r1, #268435456
 683 0492 8031     		adds	r1, r1, #128
 684 0494 8A42     		cmp	r2, r1
 685 0496 00F0D080 		beq	.L7
1761:../Drivers/STM32N6xx_HAL_Driver/Src/stm32n6xx_hal_dma.c ****     {
ARM GAS  /tmp/ccRTxeLm.s 			page 45


 686              		.loc 1 1761 10 discriminator 21 view .LVU166
 687 049a 01F17041 		add	r1, r1, #-268435456
 688 049e 8A42     		cmp	r2, r1
 689 04a0 00F0CB80 		beq	.L7
1761:../Drivers/STM32N6xx_HAL_Driver/Src/stm32n6xx_hal_dma.c ****     {
 690              		.loc 1 1761 10 discriminator 22 view .LVU167
 691 04a4 01F18051 		add	r1, r1, #268435456
 692 04a8 8031     		adds	r1, r1, #128
 693 04aa 8A42     		cmp	r2, r1
 694 04ac 00F0C580 		beq	.L7
1761:../Drivers/STM32N6xx_HAL_Driver/Src/stm32n6xx_hal_dma.c ****     {
 695              		.loc 1 1761 10 discriminator 23 view .LVU168
 696 04b0 01F17041 		add	r1, r1, #-268435456
 697 04b4 8A42     		cmp	r2, r1
 698 04b6 00F0C080 		beq	.L7
1761:../Drivers/STM32N6xx_HAL_Driver/Src/stm32n6xx_hal_dma.c ****     {
 699              		.loc 1 1761 10 discriminator 24 view .LVU169
 700 04ba 01F18051 		add	r1, r1, #268435456
 701 04be 8031     		adds	r1, r1, #128
 702 04c0 8A42     		cmp	r2, r1
 703 04c2 00F0BA80 		beq	.L7
1761:../Drivers/STM32N6xx_HAL_Driver/Src/stm32n6xx_hal_dma.c ****     {
 704              		.loc 1 1761 10 discriminator 25 view .LVU170
 705 04c6 01F17041 		add	r1, r1, #-268435456
 706 04ca 8A42     		cmp	r2, r1
 707 04cc 00F0B580 		beq	.L7
1761:../Drivers/STM32N6xx_HAL_Driver/Src/stm32n6xx_hal_dma.c ****     {
 708              		.loc 1 1761 10 discriminator 26 view .LVU171
 709 04d0 01F18051 		add	r1, r1, #268435456
 710 04d4 8031     		adds	r1, r1, #128
 711 04d6 8A42     		cmp	r2, r1
 712 04d8 00F0AF80 		beq	.L7
1761:../Drivers/STM32N6xx_HAL_Driver/Src/stm32n6xx_hal_dma.c ****     {
 713              		.loc 1 1761 10 discriminator 27 view .LVU172
 714 04dc 01F17041 		add	r1, r1, #-268435456
 715 04e0 8A42     		cmp	r2, r1
 716 04e2 00F0AA80 		beq	.L7
1761:../Drivers/STM32N6xx_HAL_Driver/Src/stm32n6xx_hal_dma.c ****     {
 717              		.loc 1 1761 10 discriminator 28 view .LVU173
 718 04e6 01F18051 		add	r1, r1, #268435456
 719 04ea 8031     		adds	r1, r1, #128
 720 04ec 8A42     		cmp	r2, r1
 721 04ee 00F0A480 		beq	.L7
1761:../Drivers/STM32N6xx_HAL_Driver/Src/stm32n6xx_hal_dma.c ****     {
 722              		.loc 1 1761 10 discriminator 29 view .LVU174
 723 04f2 01F17041 		add	r1, r1, #-268435456
 724 04f6 8A42     		cmp	r2, r1
 725 04f8 00F09F80 		beq	.L7
1761:../Drivers/STM32N6xx_HAL_Driver/Src/stm32n6xx_hal_dma.c ****     {
 726              		.loc 1 1761 10 discriminator 30 view .LVU175
 727 04fc 01F18051 		add	r1, r1, #268435456
 728 0500 8031     		adds	r1, r1, #128
 729 0502 8A42     		cmp	r2, r1
 730 0504 00F09980 		beq	.L7
1761:../Drivers/STM32N6xx_HAL_Driver/Src/stm32n6xx_hal_dma.c ****     {
 731              		.loc 1 1761 10 discriminator 31 view .LVU176
 732 0508 01F17041 		add	r1, r1, #-268435456
ARM GAS  /tmp/ccRTxeLm.s 			page 46


 733 050c 8A42     		cmp	r2, r1
 734 050e 00F09480 		beq	.L7
1761:../Drivers/STM32N6xx_HAL_Driver/Src/stm32n6xx_hal_dma.c ****     {
 735              		.loc 1 1761 55 discriminator 35 view .LVU177
 736 0512 01F10821 		add	r1, r1, #134219776
 737 0516 8031     		adds	r1, r1, #128
 738 0518 8A42     		cmp	r2, r1
 739 051a 00F08E80 		beq	.L7
1761:../Drivers/STM32N6xx_HAL_Driver/Src/stm32n6xx_hal_dma.c ****     {
 740              		.loc 1 1761 55 discriminator 36 view .LVU178
 741 051e 01F17041 		add	r1, r1, #-268435456
 742 0522 8A42     		cmp	r2, r1
 743 0524 00F08980 		beq	.L7
1761:../Drivers/STM32N6xx_HAL_Driver/Src/stm32n6xx_hal_dma.c ****     {
 744              		.loc 1 1761 55 discriminator 37 view .LVU179
 745 0528 01F18051 		add	r1, r1, #268435456
 746 052c 8031     		adds	r1, r1, #128
 747 052e 8A42     		cmp	r2, r1
 748 0530 00F08380 		beq	.L7
1761:../Drivers/STM32N6xx_HAL_Driver/Src/stm32n6xx_hal_dma.c ****     {
 749              		.loc 1 1761 55 discriminator 38 view .LVU180
 750 0534 01F17041 		add	r1, r1, #-268435456
 751 0538 8A42     		cmp	r2, r1
 752 053a 7ED0     		beq	.L7
1761:../Drivers/STM32N6xx_HAL_Driver/Src/stm32n6xx_hal_dma.c ****     {
 753              		.loc 1 1761 55 discriminator 39 view .LVU181
 754 053c 01F18051 		add	r1, r1, #268435456
 755 0540 8031     		adds	r1, r1, #128
 756 0542 8A42     		cmp	r2, r1
 757 0544 79D0     		beq	.L7
1761:../Drivers/STM32N6xx_HAL_Driver/Src/stm32n6xx_hal_dma.c ****     {
 758              		.loc 1 1761 55 discriminator 40 view .LVU182
 759 0546 01F17041 		add	r1, r1, #-268435456
 760 054a 8A42     		cmp	r2, r1
 761 054c 75D0     		beq	.L7
1761:../Drivers/STM32N6xx_HAL_Driver/Src/stm32n6xx_hal_dma.c ****     {
 762              		.loc 1 1761 55 discriminator 41 view .LVU183
 763 054e 01F18051 		add	r1, r1, #268435456
 764 0552 8031     		adds	r1, r1, #128
 765 0554 8A42     		cmp	r2, r1
 766 0556 70D0     		beq	.L7
1761:../Drivers/STM32N6xx_HAL_Driver/Src/stm32n6xx_hal_dma.c ****     {
 767              		.loc 1 1761 55 discriminator 42 view .LVU184
 768 0558 01F17041 		add	r1, r1, #-268435456
 769 055c 8A42     		cmp	r2, r1
 770 055e 6CD0     		beq	.L7
1761:../Drivers/STM32N6xx_HAL_Driver/Src/stm32n6xx_hal_dma.c ****     {
 771              		.loc 1 1761 55 discriminator 43 view .LVU185
 772 0560 01F18051 		add	r1, r1, #268435456
 773 0564 8031     		adds	r1, r1, #128
 774 0566 8A42     		cmp	r2, r1
 775 0568 67D0     		beq	.L7
1761:../Drivers/STM32N6xx_HAL_Driver/Src/stm32n6xx_hal_dma.c ****     {
 776              		.loc 1 1761 55 discriminator 44 view .LVU186
 777 056a 01F17041 		add	r1, r1, #-268435456
 778 056e 8A42     		cmp	r2, r1
 779 0570 63D0     		beq	.L7
ARM GAS  /tmp/ccRTxeLm.s 			page 47


1761:../Drivers/STM32N6xx_HAL_Driver/Src/stm32n6xx_hal_dma.c ****     {
 780              		.loc 1 1761 55 discriminator 45 view .LVU187
 781 0572 01F18051 		add	r1, r1, #268435456
 782 0576 8031     		adds	r1, r1, #128
 783 0578 8A42     		cmp	r2, r1
 784 057a 5ED0     		beq	.L7
1761:../Drivers/STM32N6xx_HAL_Driver/Src/stm32n6xx_hal_dma.c ****     {
 785              		.loc 1 1761 55 discriminator 46 view .LVU188
 786 057c 01F17041 		add	r1, r1, #-268435456
 787 0580 8A42     		cmp	r2, r1
 788 0582 5AD0     		beq	.L7
1761:../Drivers/STM32N6xx_HAL_Driver/Src/stm32n6xx_hal_dma.c ****     {
 789              		.loc 1 1761 55 discriminator 47 view .LVU189
 790 0584 01F18051 		add	r1, r1, #268435456
 791 0588 8031     		adds	r1, r1, #128
 792 058a 8A42     		cmp	r2, r1
 793 058c 55D0     		beq	.L7
1761:../Drivers/STM32N6xx_HAL_Driver/Src/stm32n6xx_hal_dma.c ****     {
 794              		.loc 1 1761 55 discriminator 48 view .LVU190
 795 058e 01F17041 		add	r1, r1, #-268435456
 796 0592 8A42     		cmp	r2, r1
 797 0594 51D0     		beq	.L7
1761:../Drivers/STM32N6xx_HAL_Driver/Src/stm32n6xx_hal_dma.c ****     {
 798              		.loc 1 1761 55 discriminator 49 view .LVU191
 799 0596 01F18051 		add	r1, r1, #268435456
 800 059a 8031     		adds	r1, r1, #128
 801 059c 8A42     		cmp	r2, r1
 802 059e 4CD0     		beq	.L7
1761:../Drivers/STM32N6xx_HAL_Driver/Src/stm32n6xx_hal_dma.c ****     {
 803              		.loc 1 1761 55 discriminator 50 view .LVU192
 804 05a0 01F17041 		add	r1, r1, #-268435456
 805 05a4 8A42     		cmp	r2, r1
 806 05a6 48D0     		beq	.L7
1761:../Drivers/STM32N6xx_HAL_Driver/Src/stm32n6xx_hal_dma.c ****     {
 807              		.loc 1 1761 55 discriminator 51 view .LVU193
 808 05a8 01F18051 		add	r1, r1, #268435456
 809 05ac 8031     		adds	r1, r1, #128
 810 05ae 8A42     		cmp	r2, r1
 811 05b0 43D0     		beq	.L7
1761:../Drivers/STM32N6xx_HAL_Driver/Src/stm32n6xx_hal_dma.c ****     {
 812              		.loc 1 1761 55 discriminator 52 view .LVU194
 813 05b2 01F17041 		add	r1, r1, #-268435456
 814 05b6 8A42     		cmp	r2, r1
 815 05b8 3FD0     		beq	.L7
1761:../Drivers/STM32N6xx_HAL_Driver/Src/stm32n6xx_hal_dma.c ****     {
 816              		.loc 1 1761 55 discriminator 53 view .LVU195
 817 05ba 01F18051 		add	r1, r1, #268435456
 818 05be 8031     		adds	r1, r1, #128
 819 05c0 8A42     		cmp	r2, r1
 820 05c2 3AD0     		beq	.L7
1761:../Drivers/STM32N6xx_HAL_Driver/Src/stm32n6xx_hal_dma.c ****     {
 821              		.loc 1 1761 55 discriminator 54 view .LVU196
 822 05c4 01F17041 		add	r1, r1, #-268435456
 823 05c8 8A42     		cmp	r2, r1
 824 05ca 36D0     		beq	.L7
1761:../Drivers/STM32N6xx_HAL_Driver/Src/stm32n6xx_hal_dma.c ****     {
 825              		.loc 1 1761 55 discriminator 55 view .LVU197
ARM GAS  /tmp/ccRTxeLm.s 			page 48


 826 05cc 01F18051 		add	r1, r1, #268435456
 827 05d0 8031     		adds	r1, r1, #128
 828 05d2 8A42     		cmp	r2, r1
 829 05d4 31D0     		beq	.L7
1761:../Drivers/STM32N6xx_HAL_Driver/Src/stm32n6xx_hal_dma.c ****     {
 830              		.loc 1 1761 55 discriminator 56 view .LVU198
 831 05d6 01F17041 		add	r1, r1, #-268435456
 832 05da 8A42     		cmp	r2, r1
 833 05dc 2DD0     		beq	.L7
1761:../Drivers/STM32N6xx_HAL_Driver/Src/stm32n6xx_hal_dma.c ****     {
 834              		.loc 1 1761 55 discriminator 57 view .LVU199
 835 05de 01F18051 		add	r1, r1, #268435456
 836 05e2 8031     		adds	r1, r1, #128
 837 05e4 8A42     		cmp	r2, r1
 838 05e6 28D0     		beq	.L7
1761:../Drivers/STM32N6xx_HAL_Driver/Src/stm32n6xx_hal_dma.c ****     {
 839              		.loc 1 1761 55 discriminator 58 view .LVU200
 840 05e8 01F17041 		add	r1, r1, #-268435456
 841 05ec 8A42     		cmp	r2, r1
 842 05ee 24D0     		beq	.L7
1761:../Drivers/STM32N6xx_HAL_Driver/Src/stm32n6xx_hal_dma.c ****     {
 843              		.loc 1 1761 55 discriminator 59 view .LVU201
 844 05f0 01F18051 		add	r1, r1, #268435456
 845 05f4 8031     		adds	r1, r1, #128
 846 05f6 8A42     		cmp	r2, r1
 847 05f8 1FD0     		beq	.L7
1761:../Drivers/STM32N6xx_HAL_Driver/Src/stm32n6xx_hal_dma.c ****     {
 848              		.loc 1 1761 55 discriminator 60 view .LVU202
 849 05fa 01F17041 		add	r1, r1, #-268435456
 850 05fe 8A42     		cmp	r2, r1
 851 0600 1BD0     		beq	.L7
1761:../Drivers/STM32N6xx_HAL_Driver/Src/stm32n6xx_hal_dma.c ****     {
 852              		.loc 1 1761 55 discriminator 61 view .LVU203
 853 0602 01F18051 		add	r1, r1, #268435456
 854 0606 8031     		adds	r1, r1, #128
 855 0608 8A42     		cmp	r2, r1
 856 060a 16D0     		beq	.L7
1761:../Drivers/STM32N6xx_HAL_Driver/Src/stm32n6xx_hal_dma.c ****     {
 857              		.loc 1 1761 55 discriminator 62 view .LVU204
 858 060c 01F17041 		add	r1, r1, #-268435456
 859 0610 8A42     		cmp	r2, r1
 860 0612 12D0     		beq	.L7
1761:../Drivers/STM32N6xx_HAL_Driver/Src/stm32n6xx_hal_dma.c ****     {
 861              		.loc 1 1761 55 discriminator 63 view .LVU205
 862 0614 01F18051 		add	r1, r1, #268435456
 863 0618 8031     		adds	r1, r1, #128
 864 061a 8A42     		cmp	r2, r1
 865 061c 0DD0     		beq	.L7
1761:../Drivers/STM32N6xx_HAL_Driver/Src/stm32n6xx_hal_dma.c ****     {
 866              		.loc 1 1761 55 discriminator 64 view .LVU206
 867 061e 01F17041 		add	r1, r1, #-268435456
 868 0622 8A42     		cmp	r2, r1
 869 0624 09D0     		beq	.L7
1761:../Drivers/STM32N6xx_HAL_Driver/Src/stm32n6xx_hal_dma.c ****     {
 870              		.loc 1 1761 55 discriminator 65 view .LVU207
 871 0626 01F18051 		add	r1, r1, #268435456
 872 062a 8031     		adds	r1, r1, #128
ARM GAS  /tmp/ccRTxeLm.s 			page 49


 873 062c 8A42     		cmp	r2, r1
 874 062e 04D0     		beq	.L7
1761:../Drivers/STM32N6xx_HAL_Driver/Src/stm32n6xx_hal_dma.c ****     {
 875              		.loc 1 1761 55 discriminator 66 view .LVU208
 876 0630 01F17041 		add	r1, r1, #-268435456
 877 0634 8A42     		cmp	r2, r1
 878 0636 7FF456AE 		bne	.L9
 879              	.L7:
1763:../Drivers/STM32N6xx_HAL_Driver/Src/stm32n6xx_hal_dma.c ****     }
 880              		.loc 1 1763 7 is_stmt 1 view .LVU209
1763:../Drivers/STM32N6xx_HAL_Driver/Src/stm32n6xx_hal_dma.c ****     }
 881              		.loc 1 1763 14 is_stmt 0 view .LVU210
 882 063a 43F48063 		orr	r3, r3, #1024
 883              	.LVL12:
1763:../Drivers/STM32N6xx_HAL_Driver/Src/stm32n6xx_hal_dma.c ****     }
 884              		.loc 1 1763 14 view .LVU211
 885 063e 52E6     		b	.L9
 886              	.L15:
1769:../Drivers/STM32N6xx_HAL_Driver/Src/stm32n6xx_hal_dma.c ****   }
 887              		.loc 1 1769 5 is_stmt 1 view .LVU212
1769:../Drivers/STM32N6xx_HAL_Driver/Src/stm32n6xx_hal_dma.c ****   }
 888              		.loc 1 1769 12 is_stmt 0 view .LVU213
 889 0640 43F40073 		orr	r3, r3, #512
 890              	.LVL13:
1769:../Drivers/STM32N6xx_HAL_Driver/Src/stm32n6xx_hal_dma.c ****   }
 891              		.loc 1 1769 12 view .LVU214
 892 0644 4FE6     		b	.L9
 893              	.L20:
 894 0646 00BF     		.align	2
 895              	.L19:
 896 0648 50000258 		.word	1476526160
 897              		.cfi_endproc
 898              	.LFE900:
 900              		.section	.text.HAL_DMA_Init,"ax",%progbits
 901              		.align	1
 902              		.global	HAL_DMA_Init
 903              		.syntax unified
 904              		.thumb
 905              		.thumb_func
 907              	HAL_DMA_Init:
 908              	.LVL14:
 909              	.LFB881:
 276:../Drivers/STM32N6xx_HAL_Driver/Src/stm32n6xx_hal_dma.c ****   /* Get tick number */
 910              		.loc 1 276 1 is_stmt 1 view -0
 911              		.cfi_startproc
 912              		@ args = 0, pretend = 0, frame = 0
 913              		@ frame_needed = 0, uses_anonymous_args = 0
 276:../Drivers/STM32N6xx_HAL_Driver/Src/stm32n6xx_hal_dma.c ****   /* Get tick number */
 914              		.loc 1 276 1 is_stmt 0 view .LVU216
 915 0000 38B5     		push	{r3, r4, r5, lr}
 916              	.LCFI4:
 917              		.cfi_def_cfa_offset 16
 918              		.cfi_offset 3, -16
 919              		.cfi_offset 4, -12
 920              		.cfi_offset 5, -8
 921              		.cfi_offset 14, -4
 922 0002 0446     		mov	r4, r0
ARM GAS  /tmp/ccRTxeLm.s 			page 50


 278:../Drivers/STM32N6xx_HAL_Driver/Src/stm32n6xx_hal_dma.c **** 
 923              		.loc 1 278 3 is_stmt 1 view .LVU217
 278:../Drivers/STM32N6xx_HAL_Driver/Src/stm32n6xx_hal_dma.c **** 
 924              		.loc 1 278 24 is_stmt 0 view .LVU218
 925 0004 FFF7FEFF 		bl	HAL_GetTick
 926              	.LVL15:
 281:../Drivers/STM32N6xx_HAL_Driver/Src/stm32n6xx_hal_dma.c ****   {
 927              		.loc 1 281 3 is_stmt 1 view .LVU219
 281:../Drivers/STM32N6xx_HAL_Driver/Src/stm32n6xx_hal_dma.c ****   {
 928              		.loc 1 281 6 is_stmt 0 view .LVU220
 929 0008 002C     		cmp	r4, #0
 930 000a 00F0C180 		beq	.L27
 931 000e 0546     		mov	r5, r0
 287:../Drivers/STM32N6xx_HAL_Driver/Src/stm32n6xx_hal_dma.c ****   assert_param(IS_DMA_DIRECTION(hdma->Init.Direction));
 932              		.loc 1 287 3 is_stmt 1 view .LVU221
 288:../Drivers/STM32N6xx_HAL_Driver/Src/stm32n6xx_hal_dma.c ****   if (hdma->Init.Direction != DMA_MEMORY_TO_MEMORY)
 933              		.loc 1 288 3 view .LVU222
 289:../Drivers/STM32N6xx_HAL_Driver/Src/stm32n6xx_hal_dma.c ****   {
 934              		.loc 1 289 3 view .LVU223
 291:../Drivers/STM32N6xx_HAL_Driver/Src/stm32n6xx_hal_dma.c ****   }
 935              		.loc 1 291 5 view .LVU224
 293:../Drivers/STM32N6xx_HAL_Driver/Src/stm32n6xx_hal_dma.c ****   assert_param(IS_DMA_SOURCE_INC(hdma->Init.SrcInc));
 936              		.loc 1 293 3 view .LVU225
 294:../Drivers/STM32N6xx_HAL_Driver/Src/stm32n6xx_hal_dma.c ****   assert_param(IS_DMA_DESTINATION_INC(hdma->Init.DestInc));
 937              		.loc 1 294 3 view .LVU226
 295:../Drivers/STM32N6xx_HAL_Driver/Src/stm32n6xx_hal_dma.c ****   assert_param(IS_DMA_SOURCE_DATA_WIDTH(hdma->Init.SrcDataWidth));
 938              		.loc 1 295 3 view .LVU227
 296:../Drivers/STM32N6xx_HAL_Driver/Src/stm32n6xx_hal_dma.c ****   assert_param(IS_DMA_DESTINATION_DATA_WIDTH(hdma->Init.DestDataWidth));
 939              		.loc 1 296 3 view .LVU228
 297:../Drivers/STM32N6xx_HAL_Driver/Src/stm32n6xx_hal_dma.c ****   assert_param(IS_DMA_PRIORITY(hdma->Init.Priority));
 940              		.loc 1 297 3 view .LVU229
 298:../Drivers/STM32N6xx_HAL_Driver/Src/stm32n6xx_hal_dma.c ****   assert_param(IS_DMA_TCEM_EVENT_MODE(hdma->Init.TransferEventMode));
 941              		.loc 1 298 3 view .LVU230
 299:../Drivers/STM32N6xx_HAL_Driver/Src/stm32n6xx_hal_dma.c ****   assert_param(IS_DMA_MODE(hdma->Init.Mode));
 942              		.loc 1 299 3 view .LVU231
 300:../Drivers/STM32N6xx_HAL_Driver/Src/stm32n6xx_hal_dma.c ****   if (hdma->Init.Mode == DMA_PFCTRL)
 943              		.loc 1 300 3 view .LVU232
 301:../Drivers/STM32N6xx_HAL_Driver/Src/stm32n6xx_hal_dma.c ****   {
 944              		.loc 1 301 3 view .LVU233
 303:../Drivers/STM32N6xx_HAL_Driver/Src/stm32n6xx_hal_dma.c ****   }
 945              		.loc 1 303 5 view .LVU234
 306:../Drivers/STM32N6xx_HAL_Driver/Src/stm32n6xx_hal_dma.c ****   {
 946              		.loc 1 306 3 view .LVU235
 306:../Drivers/STM32N6xx_HAL_Driver/Src/stm32n6xx_hal_dma.c ****   {
 947              		.loc 1 306 8 is_stmt 0 view .LVU236
 948 0010 2368     		ldr	r3, [r4]
 308:../Drivers/STM32N6xx_HAL_Driver/Src/stm32n6xx_hal_dma.c ****     assert_param(IS_DMA_BURST_LENGTH(hdma->Init.DestBurstLength));
 949              		.loc 1 308 5 is_stmt 1 view .LVU237
 309:../Drivers/STM32N6xx_HAL_Driver/Src/stm32n6xx_hal_dma.c ****     assert_param(IS_DMA_TRANSFER_ALLOCATED_PORT(hdma->Init.TransferAllocatedPort));
 950              		.loc 1 309 5 view .LVU238
 310:../Drivers/STM32N6xx_HAL_Driver/Src/stm32n6xx_hal_dma.c ****   }
 951              		.loc 1 310 5 view .LVU239
 314:../Drivers/STM32N6xx_HAL_Driver/Src/stm32n6xx_hal_dma.c ****   {
 952              		.loc 1 314 3 view .LVU240
 314:../Drivers/STM32N6xx_HAL_Driver/Src/stm32n6xx_hal_dma.c ****   {
 953              		.loc 1 314 7 is_stmt 0 view .LVU241
 954 0012 664A     		ldr	r2, .L33
ARM GAS  /tmp/ccRTxeLm.s 			page 51


 955 0014 9342     		cmp	r3, r2
 956 0016 00F08D80 		beq	.L24
 314:../Drivers/STM32N6xx_HAL_Driver/Src/stm32n6xx_hal_dma.c ****   {
 957              		.loc 1 314 7 discriminator 1 view .LVU242
 958 001a 02F17042 		add	r2, r2, #-268435456
 959 001e 9342     		cmp	r3, r2
 960 0020 00F08880 		beq	.L24
 314:../Drivers/STM32N6xx_HAL_Driver/Src/stm32n6xx_hal_dma.c ****   {
 961              		.loc 1 314 7 discriminator 2 view .LVU243
 962 0024 02F18052 		add	r2, r2, #268435456
 963 0028 8032     		adds	r2, r2, #128
 964 002a 9342     		cmp	r3, r2
 965 002c 00F08280 		beq	.L24
 314:../Drivers/STM32N6xx_HAL_Driver/Src/stm32n6xx_hal_dma.c ****   {
 966              		.loc 1 314 7 discriminator 3 view .LVU244
 967 0030 02F17042 		add	r2, r2, #-268435456
 968 0034 9342     		cmp	r3, r2
 969 0036 7DD0     		beq	.L24
 314:../Drivers/STM32N6xx_HAL_Driver/Src/stm32n6xx_hal_dma.c ****   {
 970              		.loc 1 314 7 discriminator 4 view .LVU245
 971 0038 02F18052 		add	r2, r2, #268435456
 972 003c 8032     		adds	r2, r2, #128
 973 003e 9342     		cmp	r3, r2
 974 0040 78D0     		beq	.L24
 314:../Drivers/STM32N6xx_HAL_Driver/Src/stm32n6xx_hal_dma.c ****   {
 975              		.loc 1 314 7 discriminator 5 view .LVU246
 976 0042 02F17042 		add	r2, r2, #-268435456
 977 0046 9342     		cmp	r3, r2
 978 0048 74D0     		beq	.L24
 314:../Drivers/STM32N6xx_HAL_Driver/Src/stm32n6xx_hal_dma.c ****   {
 979              		.loc 1 314 7 discriminator 6 view .LVU247
 980 004a 02F18052 		add	r2, r2, #268435456
 981 004e 8032     		adds	r2, r2, #128
 982 0050 9342     		cmp	r3, r2
 983 0052 6FD0     		beq	.L24
 314:../Drivers/STM32N6xx_HAL_Driver/Src/stm32n6xx_hal_dma.c ****   {
 984              		.loc 1 314 7 discriminator 7 view .LVU248
 985 0054 02F17042 		add	r2, r2, #-268435456
 986 0058 9342     		cmp	r3, r2
 987 005a 6BD0     		beq	.L24
 314:../Drivers/STM32N6xx_HAL_Driver/Src/stm32n6xx_hal_dma.c ****   {
 988              		.loc 1 314 7 discriminator 8 view .LVU249
 989 005c 02F18052 		add	r2, r2, #268435456
 990 0060 8032     		adds	r2, r2, #128
 991 0062 9342     		cmp	r3, r2
 992 0064 66D0     		beq	.L24
 314:../Drivers/STM32N6xx_HAL_Driver/Src/stm32n6xx_hal_dma.c ****   {
 993              		.loc 1 314 7 discriminator 9 view .LVU250
 994 0066 02F17042 		add	r2, r2, #-268435456
 995 006a 9342     		cmp	r3, r2
 996 006c 62D0     		beq	.L24
 314:../Drivers/STM32N6xx_HAL_Driver/Src/stm32n6xx_hal_dma.c ****   {
 997              		.loc 1 314 7 discriminator 10 view .LVU251
 998 006e 02F18052 		add	r2, r2, #268435456
 999 0072 8032     		adds	r2, r2, #128
 1000 0074 9342     		cmp	r3, r2
 1001 0076 5DD0     		beq	.L24
ARM GAS  /tmp/ccRTxeLm.s 			page 52


 314:../Drivers/STM32N6xx_HAL_Driver/Src/stm32n6xx_hal_dma.c ****   {
 1002              		.loc 1 314 7 discriminator 11 view .LVU252
 1003 0078 02F17042 		add	r2, r2, #-268435456
 1004 007c 9342     		cmp	r3, r2
 1005 007e 59D0     		beq	.L24
 314:../Drivers/STM32N6xx_HAL_Driver/Src/stm32n6xx_hal_dma.c ****   {
 1006              		.loc 1 314 7 discriminator 12 view .LVU253
 1007 0080 02F18052 		add	r2, r2, #268435456
 1008 0084 8032     		adds	r2, r2, #128
 1009 0086 9342     		cmp	r3, r2
 1010 0088 54D0     		beq	.L24
 314:../Drivers/STM32N6xx_HAL_Driver/Src/stm32n6xx_hal_dma.c ****   {
 1011              		.loc 1 314 7 discriminator 13 view .LVU254
 1012 008a 02F17042 		add	r2, r2, #-268435456
 1013 008e 9342     		cmp	r3, r2
 1014 0090 50D0     		beq	.L24
 314:../Drivers/STM32N6xx_HAL_Driver/Src/stm32n6xx_hal_dma.c ****   {
 1015              		.loc 1 314 7 discriminator 14 view .LVU255
 1016 0092 02F18052 		add	r2, r2, #268435456
 1017 0096 8032     		adds	r2, r2, #128
 1018 0098 9342     		cmp	r3, r2
 1019 009a 4BD0     		beq	.L24
 314:../Drivers/STM32N6xx_HAL_Driver/Src/stm32n6xx_hal_dma.c ****   {
 1020              		.loc 1 314 7 discriminator 15 view .LVU256
 1021 009c 02F17042 		add	r2, r2, #-268435456
 1022 00a0 9342     		cmp	r3, r2
 1023 00a2 47D0     		beq	.L24
 314:../Drivers/STM32N6xx_HAL_Driver/Src/stm32n6xx_hal_dma.c ****   {
 1024              		.loc 1 314 7 discriminator 16 view .LVU257
 1025 00a4 02F18052 		add	r2, r2, #268435456
 1026 00a8 8032     		adds	r2, r2, #128
 1027 00aa 9342     		cmp	r3, r2
 1028 00ac 42D0     		beq	.L24
 314:../Drivers/STM32N6xx_HAL_Driver/Src/stm32n6xx_hal_dma.c ****   {
 1029              		.loc 1 314 7 discriminator 17 view .LVU258
 1030 00ae 02F17042 		add	r2, r2, #-268435456
 1031 00b2 9342     		cmp	r3, r2
 1032 00b4 3ED0     		beq	.L24
 314:../Drivers/STM32N6xx_HAL_Driver/Src/stm32n6xx_hal_dma.c ****   {
 1033              		.loc 1 314 7 discriminator 18 view .LVU259
 1034 00b6 02F18052 		add	r2, r2, #268435456
 1035 00ba 8032     		adds	r2, r2, #128
 1036 00bc 9342     		cmp	r3, r2
 1037 00be 39D0     		beq	.L24
 314:../Drivers/STM32N6xx_HAL_Driver/Src/stm32n6xx_hal_dma.c ****   {
 1038              		.loc 1 314 7 discriminator 19 view .LVU260
 1039 00c0 02F17042 		add	r2, r2, #-268435456
 1040 00c4 9342     		cmp	r3, r2
 1041 00c6 35D0     		beq	.L24
 314:../Drivers/STM32N6xx_HAL_Driver/Src/stm32n6xx_hal_dma.c ****   {
 1042              		.loc 1 314 7 discriminator 20 view .LVU261
 1043 00c8 02F18052 		add	r2, r2, #268435456
 1044 00cc 8032     		adds	r2, r2, #128
 1045 00ce 9342     		cmp	r3, r2
 1046 00d0 30D0     		beq	.L24
 314:../Drivers/STM32N6xx_HAL_Driver/Src/stm32n6xx_hal_dma.c ****   {
 1047              		.loc 1 314 7 discriminator 21 view .LVU262
ARM GAS  /tmp/ccRTxeLm.s 			page 53


 1048 00d2 02F17042 		add	r2, r2, #-268435456
 1049 00d6 9342     		cmp	r3, r2
 1050 00d8 2CD0     		beq	.L24
 314:../Drivers/STM32N6xx_HAL_Driver/Src/stm32n6xx_hal_dma.c ****   {
 1051              		.loc 1 314 7 discriminator 22 view .LVU263
 1052 00da 02F18052 		add	r2, r2, #268435456
 1053 00de 8032     		adds	r2, r2, #128
 1054 00e0 9342     		cmp	r3, r2
 1055 00e2 27D0     		beq	.L24
 314:../Drivers/STM32N6xx_HAL_Driver/Src/stm32n6xx_hal_dma.c ****   {
 1056              		.loc 1 314 7 discriminator 23 view .LVU264
 1057 00e4 02F17042 		add	r2, r2, #-268435456
 1058 00e8 9342     		cmp	r3, r2
 1059 00ea 23D0     		beq	.L24
 314:../Drivers/STM32N6xx_HAL_Driver/Src/stm32n6xx_hal_dma.c ****   {
 1060              		.loc 1 314 7 discriminator 24 view .LVU265
 1061 00ec 02F18052 		add	r2, r2, #268435456
 1062 00f0 8032     		adds	r2, r2, #128
 1063 00f2 9342     		cmp	r3, r2
 1064 00f4 1ED0     		beq	.L24
 314:../Drivers/STM32N6xx_HAL_Driver/Src/stm32n6xx_hal_dma.c ****   {
 1065              		.loc 1 314 7 discriminator 25 view .LVU266
 1066 00f6 02F17042 		add	r2, r2, #-268435456
 1067 00fa 9342     		cmp	r3, r2
 1068 00fc 1AD0     		beq	.L24
 314:../Drivers/STM32N6xx_HAL_Driver/Src/stm32n6xx_hal_dma.c ****   {
 1069              		.loc 1 314 7 discriminator 26 view .LVU267
 1070 00fe 02F18052 		add	r2, r2, #268435456
 1071 0102 8032     		adds	r2, r2, #128
 1072 0104 9342     		cmp	r3, r2
 1073 0106 15D0     		beq	.L24
 314:../Drivers/STM32N6xx_HAL_Driver/Src/stm32n6xx_hal_dma.c ****   {
 1074              		.loc 1 314 7 discriminator 27 view .LVU268
 1075 0108 02F17042 		add	r2, r2, #-268435456
 1076 010c 9342     		cmp	r3, r2
 1077 010e 11D0     		beq	.L24
 314:../Drivers/STM32N6xx_HAL_Driver/Src/stm32n6xx_hal_dma.c ****   {
 1078              		.loc 1 314 7 discriminator 28 view .LVU269
 1079 0110 02F18052 		add	r2, r2, #268435456
 1080 0114 8032     		adds	r2, r2, #128
 1081 0116 9342     		cmp	r3, r2
 1082 0118 0CD0     		beq	.L24
 314:../Drivers/STM32N6xx_HAL_Driver/Src/stm32n6xx_hal_dma.c ****   {
 1083              		.loc 1 314 7 discriminator 29 view .LVU270
 1084 011a 02F17042 		add	r2, r2, #-268435456
 1085 011e 9342     		cmp	r3, r2
 1086 0120 08D0     		beq	.L24
 314:../Drivers/STM32N6xx_HAL_Driver/Src/stm32n6xx_hal_dma.c ****   {
 1087              		.loc 1 314 7 discriminator 30 view .LVU271
 1088 0122 02F18052 		add	r2, r2, #268435456
 1089 0126 8032     		adds	r2, r2, #128
 1090 0128 9342     		cmp	r3, r2
 1091 012a 03D0     		beq	.L24
 314:../Drivers/STM32N6xx_HAL_Driver/Src/stm32n6xx_hal_dma.c ****   {
 1092              		.loc 1 314 7 discriminator 31 view .LVU272
 1093 012c 02F17042 		add	r2, r2, #-268435456
 1094 0130 9342     		cmp	r3, r2
ARM GAS  /tmp/ccRTxeLm.s 			page 54


 1095 0132 0CD1     		bne	.L25
 1096              	.L24:
 316:../Drivers/STM32N6xx_HAL_Driver/Src/stm32n6xx_hal_dma.c ****         (hdma->Init.SrcBurstLength > 16U))
 1097              		.loc 1 316 5 is_stmt 1 view .LVU273
 316:../Drivers/STM32N6xx_HAL_Driver/Src/stm32n6xx_hal_dma.c ****         (hdma->Init.SrcBurstLength > 16U))
 1098              		.loc 1 316 21 is_stmt 0 view .LVU274
 1099 0134 E26A     		ldr	r2, [r4, #44]
 316:../Drivers/STM32N6xx_HAL_Driver/Src/stm32n6xx_hal_dma.c ****         (hdma->Init.SrcBurstLength > 16U))
 1100              		.loc 1 316 8 view .LVU275
 1101 0136 12F4804F 		tst	r2, #16384
 1102 013a 02D1     		bne	.L26
 317:../Drivers/STM32N6xx_HAL_Driver/Src/stm32n6xx_hal_dma.c ****     {
 1103              		.loc 1 317 20 view .LVU276
 1104 013c 616A     		ldr	r1, [r4, #36]
 316:../Drivers/STM32N6xx_HAL_Driver/Src/stm32n6xx_hal_dma.c ****         (hdma->Init.SrcBurstLength > 16U))
 1105              		.loc 1 316 88 discriminator 1 view .LVU277
 1106 013e 1029     		cmp	r1, #16
 1107 0140 26D8     		bhi	.L27
 1108              	.L26:
 321:../Drivers/STM32N6xx_HAL_Driver/Src/stm32n6xx_hal_dma.c ****         (hdma->Init.DestBurstLength > 16U))
 1109              		.loc 1 321 5 is_stmt 1 view .LVU278
 321:../Drivers/STM32N6xx_HAL_Driver/Src/stm32n6xx_hal_dma.c ****         (hdma->Init.DestBurstLength > 16U))
 1110              		.loc 1 321 8 is_stmt 0 view .LVU279
 1111 0142 12F0804F 		tst	r2, #1073741824
 1112 0146 02D1     		bne	.L25
 322:../Drivers/STM32N6xx_HAL_Driver/Src/stm32n6xx_hal_dma.c ****     {
 1113              		.loc 1 322 20 view .LVU280
 1114 0148 A26A     		ldr	r2, [r4, #40]
 321:../Drivers/STM32N6xx_HAL_Driver/Src/stm32n6xx_hal_dma.c ****         (hdma->Init.DestBurstLength > 16U))
 1115              		.loc 1 321 89 discriminator 1 view .LVU281
 1116 014a 102A     		cmp	r2, #16
 1117 014c 20D8     		bhi	.L27
 1118              	.L25:
 329:../Drivers/STM32N6xx_HAL_Driver/Src/stm32n6xx_hal_dma.c **** 
 1119              		.loc 1 329 3 is_stmt 1 view .LVU282
 329:../Drivers/STM32N6xx_HAL_Driver/Src/stm32n6xx_hal_dma.c **** 
 1120              		.loc 1 329 3 view .LVU283
 1121 014e 0022     		movs	r2, #0
 1122 0150 84F84C20 		strb	r2, [r4, #76]
 329:../Drivers/STM32N6xx_HAL_Driver/Src/stm32n6xx_hal_dma.c **** 
 1123              		.loc 1 329 3 view .LVU284
 332:../Drivers/STM32N6xx_HAL_Driver/Src/stm32n6xx_hal_dma.c ****   {
 1124              		.loc 1 332 3 view .LVU285
 332:../Drivers/STM32N6xx_HAL_Driver/Src/stm32n6xx_hal_dma.c ****   {
 1125              		.loc 1 332 11 is_stmt 0 view .LVU286
 1126 0154 94F85420 		ldrb	r2, [r4, #84]	@ zero_extendqisi2
 332:../Drivers/STM32N6xx_HAL_Driver/Src/stm32n6xx_hal_dma.c ****   {
 1127              		.loc 1 332 6 view .LVU287
 1128 0158 22B9     		cbnz	r2, .L28
 335:../Drivers/STM32N6xx_HAL_Driver/Src/stm32n6xx_hal_dma.c ****     hdma->XferHalfCpltCallback = NULL;
 1129              		.loc 1 335 5 is_stmt 1 view .LVU288
 335:../Drivers/STM32N6xx_HAL_Driver/Src/stm32n6xx_hal_dma.c ****     hdma->XferHalfCpltCallback = NULL;
 1130              		.loc 1 335 32 is_stmt 0 view .LVU289
 1131 015a 2266     		str	r2, [r4, #96]
 336:../Drivers/STM32N6xx_HAL_Driver/Src/stm32n6xx_hal_dma.c ****     hdma->XferErrorCallback    = NULL;
 1132              		.loc 1 336 5 is_stmt 1 view .LVU290
 336:../Drivers/STM32N6xx_HAL_Driver/Src/stm32n6xx_hal_dma.c ****     hdma->XferErrorCallback    = NULL;
ARM GAS  /tmp/ccRTxeLm.s 			page 55


 1133              		.loc 1 336 32 is_stmt 0 view .LVU291
 1134 015c 6266     		str	r2, [r4, #100]
 337:../Drivers/STM32N6xx_HAL_Driver/Src/stm32n6xx_hal_dma.c ****     hdma->XferAbortCallback    = NULL;
 1135              		.loc 1 337 5 is_stmt 1 view .LVU292
 337:../Drivers/STM32N6xx_HAL_Driver/Src/stm32n6xx_hal_dma.c ****     hdma->XferAbortCallback    = NULL;
 1136              		.loc 1 337 32 is_stmt 0 view .LVU293
 1137 015e A266     		str	r2, [r4, #104]
 338:../Drivers/STM32N6xx_HAL_Driver/Src/stm32n6xx_hal_dma.c ****     hdma->XferSuspendCallback  = NULL;
 1138              		.loc 1 338 5 is_stmt 1 view .LVU294
 338:../Drivers/STM32N6xx_HAL_Driver/Src/stm32n6xx_hal_dma.c ****     hdma->XferSuspendCallback  = NULL;
 1139              		.loc 1 338 32 is_stmt 0 view .LVU295
 1140 0160 E266     		str	r2, [r4, #108]
 339:../Drivers/STM32N6xx_HAL_Driver/Src/stm32n6xx_hal_dma.c ****   }
 1141              		.loc 1 339 5 is_stmt 1 view .LVU296
 339:../Drivers/STM32N6xx_HAL_Driver/Src/stm32n6xx_hal_dma.c ****   }
 1142              		.loc 1 339 32 is_stmt 0 view .LVU297
 1143 0162 2267     		str	r2, [r4, #112]
 1144              	.L28:
 343:../Drivers/STM32N6xx_HAL_Driver/Src/stm32n6xx_hal_dma.c **** 
 1145              		.loc 1 343 3 is_stmt 1 view .LVU298
 343:../Drivers/STM32N6xx_HAL_Driver/Src/stm32n6xx_hal_dma.c **** 
 1146              		.loc 1 343 15 is_stmt 0 view .LVU299
 1147 0164 0222     		movs	r2, #2
 1148 0166 84F85420 		strb	r2, [r4, #84]
 346:../Drivers/STM32N6xx_HAL_Driver/Src/stm32n6xx_hal_dma.c **** 
 1149              		.loc 1 346 3 is_stmt 1 view .LVU300
 1150 016a 5A69     		ldr	r2, [r3, #20]
 1151 016c 42F00602 		orr	r2, r2, #6
 1152 0170 5A61     		str	r2, [r3, #20]
 349:../Drivers/STM32N6xx_HAL_Driver/Src/stm32n6xx_hal_dma.c ****   {
 1153              		.loc 1 349 3 view .LVU301
 1154              	.LVL16:
 1155              	.L29:
 349:../Drivers/STM32N6xx_HAL_Driver/Src/stm32n6xx_hal_dma.c ****   {
 1156              		.loc 1 349 45 discriminator 1 view .LVU302
 349:../Drivers/STM32N6xx_HAL_Driver/Src/stm32n6xx_hal_dma.c ****   {
 1157              		.loc 1 349 15 is_stmt 0 discriminator 1 view .LVU303
 1158 0172 2368     		ldr	r3, [r4]
 349:../Drivers/STM32N6xx_HAL_Driver/Src/stm32n6xx_hal_dma.c ****   {
 1159              		.loc 1 349 25 discriminator 1 view .LVU304
 1160 0174 5B69     		ldr	r3, [r3, #20]
 349:../Drivers/STM32N6xx_HAL_Driver/Src/stm32n6xx_hal_dma.c ****   {
 1161              		.loc 1 349 45 discriminator 1 view .LVU305
 1162 0176 13F0010F 		tst	r3, #1
 1163 017a 0BD0     		beq	.L32
 352:../Drivers/STM32N6xx_HAL_Driver/Src/stm32n6xx_hal_dma.c ****     {
 1164              		.loc 1 352 5 is_stmt 1 view .LVU306
 352:../Drivers/STM32N6xx_HAL_Driver/Src/stm32n6xx_hal_dma.c ****     {
 1165              		.loc 1 352 10 is_stmt 0 view .LVU307
 1166 017c FFF7FEFF 		bl	HAL_GetTick
 1167              	.LVL17:
 352:../Drivers/STM32N6xx_HAL_Driver/Src/stm32n6xx_hal_dma.c ****     {
 1168              		.loc 1 352 24 discriminator 1 view .LVU308
 1169 0180 431B     		subs	r3, r0, r5
 352:../Drivers/STM32N6xx_HAL_Driver/Src/stm32n6xx_hal_dma.c ****     {
 1170              		.loc 1 352 8 discriminator 1 view .LVU309
 1171 0182 052B     		cmp	r3, #5
ARM GAS  /tmp/ccRTxeLm.s 			page 56


 1172 0184 F5D9     		bls	.L29
 355:../Drivers/STM32N6xx_HAL_Driver/Src/stm32n6xx_hal_dma.c **** 
 1173              		.loc 1 355 7 is_stmt 1 view .LVU310
 355:../Drivers/STM32N6xx_HAL_Driver/Src/stm32n6xx_hal_dma.c **** 
 1174              		.loc 1 355 23 is_stmt 0 view .LVU311
 1175 0186 1023     		movs	r3, #16
 1176 0188 A365     		str	r3, [r4, #88]
 358:../Drivers/STM32N6xx_HAL_Driver/Src/stm32n6xx_hal_dma.c **** 
 1177              		.loc 1 358 7 is_stmt 1 view .LVU312
 358:../Drivers/STM32N6xx_HAL_Driver/Src/stm32n6xx_hal_dma.c **** 
 1178              		.loc 1 358 19 is_stmt 0 view .LVU313
 1179 018a 0323     		movs	r3, #3
 1180 018c 84F85430 		strb	r3, [r4, #84]
 360:../Drivers/STM32N6xx_HAL_Driver/Src/stm32n6xx_hal_dma.c ****     }
 1181              		.loc 1 360 7 is_stmt 1 view .LVU314
 1182              	.LVL18:
 1183              	.L27:
 283:../Drivers/STM32N6xx_HAL_Driver/Src/stm32n6xx_hal_dma.c ****   }
 1184              		.loc 1 283 12 is_stmt 0 view .LVU315
 1185 0190 0120     		movs	r0, #1
 1186              	.L23:
 377:../Drivers/STM32N6xx_HAL_Driver/Src/stm32n6xx_hal_dma.c **** 
 1187              		.loc 1 377 1 view .LVU316
 1188 0192 38BD     		pop	{r3, r4, r5, pc}
 1189              	.LVL19:
 1190              	.L32:
 365:../Drivers/STM32N6xx_HAL_Driver/Src/stm32n6xx_hal_dma.c **** 
 1191              		.loc 1 365 3 is_stmt 1 view .LVU317
 1192 0194 2046     		mov	r0, r4
 1193 0196 FFF7FEFF 		bl	DMA_Init
 1194              	.LVL20:
 368:../Drivers/STM32N6xx_HAL_Driver/Src/stm32n6xx_hal_dma.c **** 
 1195              		.loc 1 368 3 view .LVU318
 368:../Drivers/STM32N6xx_HAL_Driver/Src/stm32n6xx_hal_dma.c **** 
 1196              		.loc 1 368 26 is_stmt 0 view .LVU319
 1197 019a 636B     		ldr	r3, [r4, #52]
 368:../Drivers/STM32N6xx_HAL_Driver/Src/stm32n6xx_hal_dma.c **** 
 1198              		.loc 1 368 14 view .LVU320
 1199 019c 2365     		str	r3, [r4, #80]
 371:../Drivers/STM32N6xx_HAL_Driver/Src/stm32n6xx_hal_dma.c **** 
 1200              		.loc 1 371 3 is_stmt 1 view .LVU321
 371:../Drivers/STM32N6xx_HAL_Driver/Src/stm32n6xx_hal_dma.c **** 
 1201              		.loc 1 371 19 is_stmt 0 view .LVU322
 1202 019e 0020     		movs	r0, #0
 1203 01a0 A065     		str	r0, [r4, #88]
 374:../Drivers/STM32N6xx_HAL_Driver/Src/stm32n6xx_hal_dma.c **** 
 1204              		.loc 1 374 3 is_stmt 1 view .LVU323
 374:../Drivers/STM32N6xx_HAL_Driver/Src/stm32n6xx_hal_dma.c **** 
 1205              		.loc 1 374 15 is_stmt 0 view .LVU324
 1206 01a2 0123     		movs	r3, #1
 1207 01a4 84F85430 		strb	r3, [r4, #84]
 376:../Drivers/STM32N6xx_HAL_Driver/Src/stm32n6xx_hal_dma.c **** }
 1208              		.loc 1 376 3 is_stmt 1 view .LVU325
 376:../Drivers/STM32N6xx_HAL_Driver/Src/stm32n6xx_hal_dma.c **** }
 1209              		.loc 1 376 10 is_stmt 0 view .LVU326
 1210 01a8 F3E7     		b	.L23
 1211              	.L34:
ARM GAS  /tmp/ccRTxeLm.s 			page 57


 1212 01aa 00BF     		.align	2
 1213              	.L33:
 1214 01ac 50000258 		.word	1476526160
 1215              		.cfi_endproc
 1216              	.LFE881:
 1218              		.section	.text.HAL_DMA_DeInit,"ax",%progbits
 1219              		.align	1
 1220              		.global	HAL_DMA_DeInit
 1221              		.syntax unified
 1222              		.thumb
 1223              		.thumb_func
 1225              	HAL_DMA_DeInit:
 1226              	.LVL21:
 1227              	.LFB882:
 386:../Drivers/STM32N6xx_HAL_Driver/Src/stm32n6xx_hal_dma.c ****   uint32_t tickstart = HAL_GetTick();
 1228              		.loc 1 386 1 is_stmt 1 view -0
 1229              		.cfi_startproc
 1230              		@ args = 0, pretend = 0, frame = 0
 1231              		@ frame_needed = 0, uses_anonymous_args = 0
 386:../Drivers/STM32N6xx_HAL_Driver/Src/stm32n6xx_hal_dma.c ****   uint32_t tickstart = HAL_GetTick();
 1232              		.loc 1 386 1 is_stmt 0 view .LVU328
 1233 0000 38B5     		push	{r3, r4, r5, lr}
 1234              	.LCFI5:
 1235              		.cfi_def_cfa_offset 16
 1236              		.cfi_offset 3, -16
 1237              		.cfi_offset 4, -12
 1238              		.cfi_offset 5, -8
 1239              		.cfi_offset 14, -4
 1240 0002 0446     		mov	r4, r0
 387:../Drivers/STM32N6xx_HAL_Driver/Src/stm32n6xx_hal_dma.c **** 
 1241              		.loc 1 387 3 is_stmt 1 view .LVU329
 387:../Drivers/STM32N6xx_HAL_Driver/Src/stm32n6xx_hal_dma.c **** 
 1242              		.loc 1 387 24 is_stmt 0 view .LVU330
 1243 0004 FFF7FEFF 		bl	HAL_GetTick
 1244              	.LVL22:
 390:../Drivers/STM32N6xx_HAL_Driver/Src/stm32n6xx_hal_dma.c ****   {
 1245              		.loc 1 390 3 is_stmt 1 view .LVU331
 390:../Drivers/STM32N6xx_HAL_Driver/Src/stm32n6xx_hal_dma.c ****   {
 1246              		.loc 1 390 6 is_stmt 0 view .LVU332
 1247 0008 A4B1     		cbz	r4, .L39
 1248 000a 0546     		mov	r5, r0
 396:../Drivers/STM32N6xx_HAL_Driver/Src/stm32n6xx_hal_dma.c ****   /* Disable the selected DMA Channel */
 1249              		.loc 1 396 3 is_stmt 1 view .LVU333
 398:../Drivers/STM32N6xx_HAL_Driver/Src/stm32n6xx_hal_dma.c **** 
 1250              		.loc 1 398 3 view .LVU334
 1251 000c 2268     		ldr	r2, [r4]
 1252 000e 5369     		ldr	r3, [r2, #20]
 1253 0010 43F00603 		orr	r3, r3, #6
 1254 0014 5361     		str	r3, [r2, #20]
 401:../Drivers/STM32N6xx_HAL_Driver/Src/stm32n6xx_hal_dma.c ****   {
 1255              		.loc 1 401 3 view .LVU335
 1256              	.LVL23:
 1257              	.L38:
 401:../Drivers/STM32N6xx_HAL_Driver/Src/stm32n6xx_hal_dma.c ****   {
 1258              		.loc 1 401 45 discriminator 1 view .LVU336
 401:../Drivers/STM32N6xx_HAL_Driver/Src/stm32n6xx_hal_dma.c ****   {
 1259              		.loc 1 401 15 is_stmt 0 discriminator 1 view .LVU337
ARM GAS  /tmp/ccRTxeLm.s 			page 58


 1260 0016 2368     		ldr	r3, [r4]
 401:../Drivers/STM32N6xx_HAL_Driver/Src/stm32n6xx_hal_dma.c ****   {
 1261              		.loc 1 401 25 discriminator 1 view .LVU338
 1262 0018 5A69     		ldr	r2, [r3, #20]
 401:../Drivers/STM32N6xx_HAL_Driver/Src/stm32n6xx_hal_dma.c ****   {
 1263              		.loc 1 401 45 discriminator 1 view .LVU339
 1264 001a 12F0010F 		tst	r2, #1
 1265 001e 0BD0     		beq	.L45
 404:../Drivers/STM32N6xx_HAL_Driver/Src/stm32n6xx_hal_dma.c ****     {
 1266              		.loc 1 404 5 is_stmt 1 view .LVU340
 404:../Drivers/STM32N6xx_HAL_Driver/Src/stm32n6xx_hal_dma.c ****     {
 1267              		.loc 1 404 10 is_stmt 0 view .LVU341
 1268 0020 FFF7FEFF 		bl	HAL_GetTick
 1269              	.LVL24:
 404:../Drivers/STM32N6xx_HAL_Driver/Src/stm32n6xx_hal_dma.c ****     {
 1270              		.loc 1 404 24 discriminator 1 view .LVU342
 1271 0024 431B     		subs	r3, r0, r5
 404:../Drivers/STM32N6xx_HAL_Driver/Src/stm32n6xx_hal_dma.c ****     {
 1272              		.loc 1 404 8 discriminator 1 view .LVU343
 1273 0026 052B     		cmp	r3, #5
 1274 0028 F5D9     		bls	.L38
 407:../Drivers/STM32N6xx_HAL_Driver/Src/stm32n6xx_hal_dma.c **** 
 1275              		.loc 1 407 7 is_stmt 1 view .LVU344
 407:../Drivers/STM32N6xx_HAL_Driver/Src/stm32n6xx_hal_dma.c **** 
 1276              		.loc 1 407 23 is_stmt 0 view .LVU345
 1277 002a 1023     		movs	r3, #16
 1278 002c A365     		str	r3, [r4, #88]
 410:../Drivers/STM32N6xx_HAL_Driver/Src/stm32n6xx_hal_dma.c **** 
 1279              		.loc 1 410 7 is_stmt 1 view .LVU346
 410:../Drivers/STM32N6xx_HAL_Driver/Src/stm32n6xx_hal_dma.c **** 
 1280              		.loc 1 410 19 is_stmt 0 view .LVU347
 1281 002e 0323     		movs	r3, #3
 1282 0030 84F85430 		strb	r3, [r4, #84]
 412:../Drivers/STM32N6xx_HAL_Driver/Src/stm32n6xx_hal_dma.c ****     }
 1283              		.loc 1 412 7 is_stmt 1 view .LVU348
 1284              	.LVL25:
 1285              	.L39:
 392:../Drivers/STM32N6xx_HAL_Driver/Src/stm32n6xx_hal_dma.c ****   }
 1286              		.loc 1 392 12 is_stmt 0 view .LVU349
 1287 0034 0120     		movs	r0, #1
 1288              	.L37:
 468:../Drivers/STM32N6xx_HAL_Driver/Src/stm32n6xx_hal_dma.c **** /**
 1289              		.loc 1 468 1 view .LVU350
 1290 0036 38BD     		pop	{r3, r4, r5, pc}
 1291              	.LVL26:
 1292              	.L45:
 417:../Drivers/STM32N6xx_HAL_Driver/Src/stm32n6xx_hal_dma.c ****   hdma->Instance->CCR   = 0U;
 1293              		.loc 1 417 3 is_stmt 1 view .LVU351
 417:../Drivers/STM32N6xx_HAL_Driver/Src/stm32n6xx_hal_dma.c ****   hdma->Instance->CCR   = 0U;
 1294              		.loc 1 417 25 is_stmt 0 view .LVU352
 1295 0038 0022     		movs	r2, #0
 1296 003a 1A60     		str	r2, [r3]
 418:../Drivers/STM32N6xx_HAL_Driver/Src/stm32n6xx_hal_dma.c ****   /* As secure, privilege and CID configuration, bit field DSEC and SSEC are managed in   */
 1297              		.loc 1 418 3 is_stmt 1 view .LVU353
 418:../Drivers/STM32N6xx_HAL_Driver/Src/stm32n6xx_hal_dma.c ****   /* As secure, privilege and CID configuration, bit field DSEC and SSEC are managed in   */
 1298              		.loc 1 418 7 is_stmt 0 view .LVU354
 1299 003c 2368     		ldr	r3, [r4]
ARM GAS  /tmp/ccRTxeLm.s 			page 59


 418:../Drivers/STM32N6xx_HAL_Driver/Src/stm32n6xx_hal_dma.c ****   /* As secure, privilege and CID configuration, bit field DSEC and SSEC are managed in   */
 1300              		.loc 1 418 25 view .LVU355
 1301 003e 5A61     		str	r2, [r3, #20]
 421:../Drivers/STM32N6xx_HAL_Driver/Src/stm32n6xx_hal_dma.c ****   hdma->Instance->CTR2  = 0U;
 1302              		.loc 1 421 3 is_stmt 1 view .LVU356
 421:../Drivers/STM32N6xx_HAL_Driver/Src/stm32n6xx_hal_dma.c ****   hdma->Instance->CTR2  = 0U;
 1303              		.loc 1 421 31 is_stmt 0 view .LVU357
 1304 0040 2168     		ldr	r1, [r4]
 421:../Drivers/STM32N6xx_HAL_Driver/Src/stm32n6xx_hal_dma.c ****   hdma->Instance->CTR2  = 0U;
 1305              		.loc 1 421 41 view .LVU358
 1306 0042 0B6C     		ldr	r3, [r1, #64]
 421:../Drivers/STM32N6xx_HAL_Driver/Src/stm32n6xx_hal_dma.c ****   hdma->Instance->CTR2  = 0U;
 1307              		.loc 1 421 48 view .LVU359
 1308 0044 03F08023 		and	r3, r3, #-2147450880
 421:../Drivers/STM32N6xx_HAL_Driver/Src/stm32n6xx_hal_dma.c ****   hdma->Instance->CTR2  = 0U;
 1309              		.loc 1 421 25 view .LVU360
 1310 0048 0B64     		str	r3, [r1, #64]
 422:../Drivers/STM32N6xx_HAL_Driver/Src/stm32n6xx_hal_dma.c ****   hdma->Instance->CBR1  = 0U;
 1311              		.loc 1 422 3 is_stmt 1 view .LVU361
 422:../Drivers/STM32N6xx_HAL_Driver/Src/stm32n6xx_hal_dma.c ****   hdma->Instance->CBR1  = 0U;
 1312              		.loc 1 422 7 is_stmt 0 view .LVU362
 1313 004a 2368     		ldr	r3, [r4]
 422:../Drivers/STM32N6xx_HAL_Driver/Src/stm32n6xx_hal_dma.c ****   hdma->Instance->CBR1  = 0U;
 1314              		.loc 1 422 25 view .LVU363
 1315 004c 5A64     		str	r2, [r3, #68]
 423:../Drivers/STM32N6xx_HAL_Driver/Src/stm32n6xx_hal_dma.c ****   hdma->Instance->CSAR  = 0U;
 1316              		.loc 1 423 3 is_stmt 1 view .LVU364
 423:../Drivers/STM32N6xx_HAL_Driver/Src/stm32n6xx_hal_dma.c ****   hdma->Instance->CSAR  = 0U;
 1317              		.loc 1 423 7 is_stmt 0 view .LVU365
 1318 004e 2368     		ldr	r3, [r4]
 423:../Drivers/STM32N6xx_HAL_Driver/Src/stm32n6xx_hal_dma.c ****   hdma->Instance->CSAR  = 0U;
 1319              		.loc 1 423 25 view .LVU366
 1320 0050 9A64     		str	r2, [r3, #72]
 424:../Drivers/STM32N6xx_HAL_Driver/Src/stm32n6xx_hal_dma.c ****   hdma->Instance->CDAR  = 0U;
 1321              		.loc 1 424 3 is_stmt 1 view .LVU367
 424:../Drivers/STM32N6xx_HAL_Driver/Src/stm32n6xx_hal_dma.c ****   hdma->Instance->CDAR  = 0U;
 1322              		.loc 1 424 7 is_stmt 0 view .LVU368
 1323 0052 2368     		ldr	r3, [r4]
 424:../Drivers/STM32N6xx_HAL_Driver/Src/stm32n6xx_hal_dma.c ****   hdma->Instance->CDAR  = 0U;
 1324              		.loc 1 424 25 view .LVU369
 1325 0054 DA64     		str	r2, [r3, #76]
 425:../Drivers/STM32N6xx_HAL_Driver/Src/stm32n6xx_hal_dma.c ****   hdma->Instance->CLLR  = 0U;
 1326              		.loc 1 425 3 is_stmt 1 view .LVU370
 425:../Drivers/STM32N6xx_HAL_Driver/Src/stm32n6xx_hal_dma.c ****   hdma->Instance->CLLR  = 0U;
 1327              		.loc 1 425 7 is_stmt 0 view .LVU371
 1328 0056 2368     		ldr	r3, [r4]
 425:../Drivers/STM32N6xx_HAL_Driver/Src/stm32n6xx_hal_dma.c ****   hdma->Instance->CLLR  = 0U;
 1329              		.loc 1 425 25 view .LVU372
 1330 0058 1A65     		str	r2, [r3, #80]
 426:../Drivers/STM32N6xx_HAL_Driver/Src/stm32n6xx_hal_dma.c **** 
 1331              		.loc 1 426 3 is_stmt 1 view .LVU373
 426:../Drivers/STM32N6xx_HAL_Driver/Src/stm32n6xx_hal_dma.c **** 
 1332              		.loc 1 426 7 is_stmt 0 view .LVU374
 1333 005a 2368     		ldr	r3, [r4]
 426:../Drivers/STM32N6xx_HAL_Driver/Src/stm32n6xx_hal_dma.c **** 
 1334              		.loc 1 426 25 view .LVU375
 1335 005c DA67     		str	r2, [r3, #124]
ARM GAS  /tmp/ccRTxeLm.s 			page 60


 429:../Drivers/STM32N6xx_HAL_Driver/Src/stm32n6xx_hal_dma.c ****   {
 1336              		.loc 1 429 3 is_stmt 1 view .LVU376
 429:../Drivers/STM32N6xx_HAL_Driver/Src/stm32n6xx_hal_dma.c ****   {
 1337              		.loc 1 429 7 is_stmt 0 view .LVU377
 1338 005e 2368     		ldr	r3, [r4]
 1339 0060 304A     		ldr	r2, .L46
 1340 0062 9342     		cmp	r3, r2
 1341 0064 43D0     		beq	.L41
 429:../Drivers/STM32N6xx_HAL_Driver/Src/stm32n6xx_hal_dma.c ****   {
 1342              		.loc 1 429 7 discriminator 1 view .LVU378
 1343 0066 02F17042 		add	r2, r2, #-268435456
 1344 006a 9342     		cmp	r3, r2
 1345 006c 3FD0     		beq	.L41
 429:../Drivers/STM32N6xx_HAL_Driver/Src/stm32n6xx_hal_dma.c ****   {
 1346              		.loc 1 429 7 discriminator 2 view .LVU379
 1347 006e 02F18052 		add	r2, r2, #268435456
 1348 0072 8032     		adds	r2, r2, #128
 1349 0074 9342     		cmp	r3, r2
 1350 0076 3AD0     		beq	.L41
 429:../Drivers/STM32N6xx_HAL_Driver/Src/stm32n6xx_hal_dma.c ****   {
 1351              		.loc 1 429 7 discriminator 3 view .LVU380
 1352 0078 02F17042 		add	r2, r2, #-268435456
 1353 007c 9342     		cmp	r3, r2
 1354 007e 36D0     		beq	.L41
 429:../Drivers/STM32N6xx_HAL_Driver/Src/stm32n6xx_hal_dma.c ****   {
 1355              		.loc 1 429 7 discriminator 4 view .LVU381
 1356 0080 02F18052 		add	r2, r2, #268435456
 1357 0084 8032     		adds	r2, r2, #128
 1358 0086 9342     		cmp	r3, r2
 1359 0088 31D0     		beq	.L41
 429:../Drivers/STM32N6xx_HAL_Driver/Src/stm32n6xx_hal_dma.c ****   {
 1360              		.loc 1 429 7 discriminator 5 view .LVU382
 1361 008a 02F17042 		add	r2, r2, #-268435456
 1362 008e 9342     		cmp	r3, r2
 1363 0090 2DD0     		beq	.L41
 429:../Drivers/STM32N6xx_HAL_Driver/Src/stm32n6xx_hal_dma.c ****   {
 1364              		.loc 1 429 7 discriminator 6 view .LVU383
 1365 0092 02F18052 		add	r2, r2, #268435456
 1366 0096 8032     		adds	r2, r2, #128
 1367 0098 9342     		cmp	r3, r2
 1368 009a 28D0     		beq	.L41
 429:../Drivers/STM32N6xx_HAL_Driver/Src/stm32n6xx_hal_dma.c ****   {
 1369              		.loc 1 429 7 discriminator 7 view .LVU384
 1370 009c 02F17042 		add	r2, r2, #-268435456
 1371 00a0 9342     		cmp	r3, r2
 1372 00a2 24D0     		beq	.L41
 429:../Drivers/STM32N6xx_HAL_Driver/Src/stm32n6xx_hal_dma.c ****   {
 1373              		.loc 1 429 7 discriminator 8 view .LVU385
 1374 00a4 02F1C052 		add	r2, r2, #402653184
 1375 00a8 A2F58C52 		sub	r2, r2, #4480
 1376 00ac 9342     		cmp	r3, r2
 1377 00ae 1ED0     		beq	.L41
 429:../Drivers/STM32N6xx_HAL_Driver/Src/stm32n6xx_hal_dma.c ****   {
 1378              		.loc 1 429 7 discriminator 9 view .LVU386
 1379 00b0 02F17042 		add	r2, r2, #-268435456
 1380 00b4 9342     		cmp	r3, r2
 1381 00b6 1AD0     		beq	.L41
ARM GAS  /tmp/ccRTxeLm.s 			page 61


 429:../Drivers/STM32N6xx_HAL_Driver/Src/stm32n6xx_hal_dma.c ****   {
 1382              		.loc 1 429 7 discriminator 10 view .LVU387
 1383 00b8 02F18052 		add	r2, r2, #268435456
 1384 00bc 8032     		adds	r2, r2, #128
 1385 00be 9342     		cmp	r3, r2
 1386 00c0 15D0     		beq	.L41
 429:../Drivers/STM32N6xx_HAL_Driver/Src/stm32n6xx_hal_dma.c ****   {
 1387              		.loc 1 429 7 discriminator 11 view .LVU388
 1388 00c2 02F17042 		add	r2, r2, #-268435456
 1389 00c6 9342     		cmp	r3, r2
 1390 00c8 11D0     		beq	.L41
 429:../Drivers/STM32N6xx_HAL_Driver/Src/stm32n6xx_hal_dma.c ****   {
 1391              		.loc 1 429 7 discriminator 12 view .LVU389
 1392 00ca 02F18052 		add	r2, r2, #268435456
 1393 00ce 8032     		adds	r2, r2, #128
 1394 00d0 9342     		cmp	r3, r2
 1395 00d2 0CD0     		beq	.L41
 429:../Drivers/STM32N6xx_HAL_Driver/Src/stm32n6xx_hal_dma.c ****   {
 1396              		.loc 1 429 7 discriminator 13 view .LVU390
 1397 00d4 02F17042 		add	r2, r2, #-268435456
 1398 00d8 9342     		cmp	r3, r2
 1399 00da 08D0     		beq	.L41
 429:../Drivers/STM32N6xx_HAL_Driver/Src/stm32n6xx_hal_dma.c ****   {
 1400              		.loc 1 429 7 discriminator 14 view .LVU391
 1401 00dc 02F18052 		add	r2, r2, #268435456
 1402 00e0 8032     		adds	r2, r2, #128
 1403 00e2 9342     		cmp	r3, r2
 1404 00e4 03D0     		beq	.L41
 429:../Drivers/STM32N6xx_HAL_Driver/Src/stm32n6xx_hal_dma.c ****   {
 1405              		.loc 1 429 7 discriminator 15 view .LVU392
 1406 00e6 02F17042 		add	r2, r2, #-268435456
 1407 00ea 9342     		cmp	r3, r2
 1408 00ec 03D1     		bne	.L42
 1409              	.L41:
 431:../Drivers/STM32N6xx_HAL_Driver/Src/stm32n6xx_hal_dma.c ****     hdma->Instance->CBR2 = 0U;
 1410              		.loc 1 431 5 is_stmt 1 view .LVU393
 431:../Drivers/STM32N6xx_HAL_Driver/Src/stm32n6xx_hal_dma.c ****     hdma->Instance->CBR2 = 0U;
 1411              		.loc 1 431 26 is_stmt 0 view .LVU394
 1412 00ee 0022     		movs	r2, #0
 1413 00f0 5A65     		str	r2, [r3, #84]
 432:../Drivers/STM32N6xx_HAL_Driver/Src/stm32n6xx_hal_dma.c ****   }
 1414              		.loc 1 432 5 is_stmt 1 view .LVU395
 432:../Drivers/STM32N6xx_HAL_Driver/Src/stm32n6xx_hal_dma.c ****   }
 1415              		.loc 1 432 9 is_stmt 0 view .LVU396
 1416 00f2 2368     		ldr	r3, [r4]
 432:../Drivers/STM32N6xx_HAL_Driver/Src/stm32n6xx_hal_dma.c ****   }
 1417              		.loc 1 432 26 view .LVU397
 1418 00f4 9A65     		str	r2, [r3, #88]
 1419              	.L42:
 436:../Drivers/STM32N6xx_HAL_Driver/Src/stm32n6xx_hal_dma.c ****                               DMA_FLAG_TO));
 1420              		.loc 1 436 3 is_stmt 1 view .LVU398
 1421 00f6 2368     		ldr	r3, [r4]
 1422 00f8 4FF4FE42 		mov	r2, #32512
 1423 00fc DA60     		str	r2, [r3, #12]
 440:../Drivers/STM32N6xx_HAL_Driver/Src/stm32n6xx_hal_dma.c ****   hdma->XferHalfCpltCallback = NULL;
 1424              		.loc 1 440 3 view .LVU399
 440:../Drivers/STM32N6xx_HAL_Driver/Src/stm32n6xx_hal_dma.c ****   hdma->XferHalfCpltCallback = NULL;
ARM GAS  /tmp/ccRTxeLm.s 			page 62


 1425              		.loc 1 440 30 is_stmt 0 view .LVU400
 1426 00fe 0023     		movs	r3, #0
 1427 0100 2366     		str	r3, [r4, #96]
 441:../Drivers/STM32N6xx_HAL_Driver/Src/stm32n6xx_hal_dma.c ****   hdma->XferErrorCallback    = NULL;
 1428              		.loc 1 441 3 is_stmt 1 view .LVU401
 441:../Drivers/STM32N6xx_HAL_Driver/Src/stm32n6xx_hal_dma.c ****   hdma->XferErrorCallback    = NULL;
 1429              		.loc 1 441 30 is_stmt 0 view .LVU402
 1430 0102 6366     		str	r3, [r4, #100]
 442:../Drivers/STM32N6xx_HAL_Driver/Src/stm32n6xx_hal_dma.c ****   hdma->XferAbortCallback    = NULL;
 1431              		.loc 1 442 3 is_stmt 1 view .LVU403
 442:../Drivers/STM32N6xx_HAL_Driver/Src/stm32n6xx_hal_dma.c ****   hdma->XferAbortCallback    = NULL;
 1432              		.loc 1 442 30 is_stmt 0 view .LVU404
 1433 0104 A366     		str	r3, [r4, #104]
 443:../Drivers/STM32N6xx_HAL_Driver/Src/stm32n6xx_hal_dma.c ****   hdma->XferSuspendCallback  = NULL;
 1434              		.loc 1 443 3 is_stmt 1 view .LVU405
 443:../Drivers/STM32N6xx_HAL_Driver/Src/stm32n6xx_hal_dma.c ****   hdma->XferSuspendCallback  = NULL;
 1435              		.loc 1 443 30 is_stmt 0 view .LVU406
 1436 0106 E366     		str	r3, [r4, #108]
 444:../Drivers/STM32N6xx_HAL_Driver/Src/stm32n6xx_hal_dma.c **** 
 1437              		.loc 1 444 3 is_stmt 1 view .LVU407
 444:../Drivers/STM32N6xx_HAL_Driver/Src/stm32n6xx_hal_dma.c **** 
 1438              		.loc 1 444 30 is_stmt 0 view .LVU408
 1439 0108 2367     		str	r3, [r4, #112]
 447:../Drivers/STM32N6xx_HAL_Driver/Src/stm32n6xx_hal_dma.c **** 
 1440              		.loc 1 447 3 is_stmt 1 view .LVU409
 447:../Drivers/STM32N6xx_HAL_Driver/Src/stm32n6xx_hal_dma.c **** 
 1441              		.loc 1 447 25 is_stmt 0 view .LVU410
 1442 010a 6367     		str	r3, [r4, #116]
 450:../Drivers/STM32N6xx_HAL_Driver/Src/stm32n6xx_hal_dma.c ****   {
 1443              		.loc 1 450 3 is_stmt 1 view .LVU411
 450:../Drivers/STM32N6xx_HAL_Driver/Src/stm32n6xx_hal_dma.c ****   {
 1444              		.loc 1 450 11 is_stmt 0 view .LVU412
 1445 010c E36D     		ldr	r3, [r4, #92]
 450:../Drivers/STM32N6xx_HAL_Driver/Src/stm32n6xx_hal_dma.c ****   {
 1446              		.loc 1 450 6 view .LVU413
 1447 010e 0BB1     		cbz	r3, .L43
 452:../Drivers/STM32N6xx_HAL_Driver/Src/stm32n6xx_hal_dma.c ****   }
 1448              		.loc 1 452 5 is_stmt 1 view .LVU414
 452:../Drivers/STM32N6xx_HAL_Driver/Src/stm32n6xx_hal_dma.c ****   }
 1449              		.loc 1 452 18 is_stmt 0 view .LVU415
 1450 0110 0023     		movs	r3, #0
 1451 0112 E365     		str	r3, [r4, #92]
 1452              	.L43:
 456:../Drivers/STM32N6xx_HAL_Driver/Src/stm32n6xx_hal_dma.c **** 
 1453              		.loc 1 456 3 is_stmt 1 view .LVU416
 456:../Drivers/STM32N6xx_HAL_Driver/Src/stm32n6xx_hal_dma.c **** 
 1454              		.loc 1 456 14 is_stmt 0 view .LVU417
 1455 0114 0020     		movs	r0, #0
 1456 0116 2065     		str	r0, [r4, #80]
 459:../Drivers/STM32N6xx_HAL_Driver/Src/stm32n6xx_hal_dma.c **** 
 1457              		.loc 1 459 3 is_stmt 1 view .LVU418
 459:../Drivers/STM32N6xx_HAL_Driver/Src/stm32n6xx_hal_dma.c **** 
 1458              		.loc 1 459 19 is_stmt 0 view .LVU419
 1459 0118 A065     		str	r0, [r4, #88]
 462:../Drivers/STM32N6xx_HAL_Driver/Src/stm32n6xx_hal_dma.c **** 
 1460              		.loc 1 462 3 is_stmt 1 view .LVU420
 462:../Drivers/STM32N6xx_HAL_Driver/Src/stm32n6xx_hal_dma.c **** 
ARM GAS  /tmp/ccRTxeLm.s 			page 63


 1461              		.loc 1 462 15 is_stmt 0 view .LVU421
 1462 011a 84F85400 		strb	r0, [r4, #84]
 465:../Drivers/STM32N6xx_HAL_Driver/Src/stm32n6xx_hal_dma.c **** 
 1463              		.loc 1 465 3 is_stmt 1 view .LVU422
 465:../Drivers/STM32N6xx_HAL_Driver/Src/stm32n6xx_hal_dma.c **** 
 1464              		.loc 1 465 3 view .LVU423
 1465 011e 84F84C00 		strb	r0, [r4, #76]
 465:../Drivers/STM32N6xx_HAL_Driver/Src/stm32n6xx_hal_dma.c **** 
 1466              		.loc 1 465 3 view .LVU424
 467:../Drivers/STM32N6xx_HAL_Driver/Src/stm32n6xx_hal_dma.c **** }
 1467              		.loc 1 467 3 view .LVU425
 467:../Drivers/STM32N6xx_HAL_Driver/Src/stm32n6xx_hal_dma.c **** }
 1468              		.loc 1 467 10 is_stmt 0 view .LVU426
 1469 0122 88E7     		b	.L37
 1470              	.L47:
 1471              		.align	2
 1472              	.L46:
 1473 0124 50160250 		.word	1342314064
 1474              		.cfi_endproc
 1475              	.LFE882:
 1477              		.section	.text.HAL_DMA_Start,"ax",%progbits
 1478              		.align	1
 1479              		.global	HAL_DMA_Start
 1480              		.syntax unified
 1481              		.thumb
 1482              		.thumb_func
 1484              	HAL_DMA_Start:
 1485              	.LVL27:
 1486              	.LFB883:
 516:../Drivers/STM32N6xx_HAL_Driver/Src/stm32n6xx_hal_dma.c ****   /* Check the DMA peripheral handle parameter */
 1487              		.loc 1 516 1 is_stmt 1 view -0
 1488              		.cfi_startproc
 1489              		@ args = 0, pretend = 0, frame = 0
 1490              		@ frame_needed = 0, uses_anonymous_args = 0
 518:../Drivers/STM32N6xx_HAL_Driver/Src/stm32n6xx_hal_dma.c ****   {
 1491              		.loc 1 518 3 view .LVU428
 518:../Drivers/STM32N6xx_HAL_Driver/Src/stm32n6xx_hal_dma.c ****   {
 1492              		.loc 1 518 6 is_stmt 0 view .LVU429
 1493 0000 20B3     		cbz	r0, .L55
 516:../Drivers/STM32N6xx_HAL_Driver/Src/stm32n6xx_hal_dma.c ****   /* Check the DMA peripheral handle parameter */
 1494              		.loc 1 516 1 view .LVU430
 1495 0002 10B5     		push	{r4, lr}
 1496              	.LCFI6:
 1497              		.cfi_def_cfa_offset 8
 1498              		.cfi_offset 4, -8
 1499              		.cfi_offset 14, -4
 1500 0004 0446     		mov	r4, r0
 524:../Drivers/STM32N6xx_HAL_Driver/Src/stm32n6xx_hal_dma.c **** 
 1501              		.loc 1 524 3 is_stmt 1 view .LVU431
 527:../Drivers/STM32N6xx_HAL_Driver/Src/stm32n6xx_hal_dma.c **** 
 1502              		.loc 1 527 3 view .LVU432
 527:../Drivers/STM32N6xx_HAL_Driver/Src/stm32n6xx_hal_dma.c **** 
 1503              		.loc 1 527 3 view .LVU433
 1504 0006 90F84C00 		ldrb	r0, [r0, #76]	@ zero_extendqisi2
 1505              	.LVL28:
 527:../Drivers/STM32N6xx_HAL_Driver/Src/stm32n6xx_hal_dma.c **** 
 1506              		.loc 1 527 3 is_stmt 0 view .LVU434
ARM GAS  /tmp/ccRTxeLm.s 			page 64


 1507 000a 0128     		cmp	r0, #1
 1508 000c 1CD0     		beq	.L53
 527:../Drivers/STM32N6xx_HAL_Driver/Src/stm32n6xx_hal_dma.c **** 
 1509              		.loc 1 527 3 is_stmt 1 discriminator 2 view .LVU435
 1510 000e 0120     		movs	r0, #1
 1511 0010 84F84C00 		strb	r0, [r4, #76]
 527:../Drivers/STM32N6xx_HAL_Driver/Src/stm32n6xx_hal_dma.c **** 
 1512              		.loc 1 527 3 discriminator 2 view .LVU436
 530:../Drivers/STM32N6xx_HAL_Driver/Src/stm32n6xx_hal_dma.c ****   {
 1513              		.loc 1 530 3 view .LVU437
 530:../Drivers/STM32N6xx_HAL_Driver/Src/stm32n6xx_hal_dma.c ****   {
 1514              		.loc 1 530 11 is_stmt 0 view .LVU438
 1515 0014 94F85400 		ldrb	r0, [r4, #84]	@ zero_extendqisi2
 530:../Drivers/STM32N6xx_HAL_Driver/Src/stm32n6xx_hal_dma.c ****   {
 1516              		.loc 1 530 6 view .LVU439
 1517 0018 0128     		cmp	r0, #1
 1518 001a 06D0     		beq	.L57
 547:../Drivers/STM32N6xx_HAL_Driver/Src/stm32n6xx_hal_dma.c **** 
 1519              		.loc 1 547 5 is_stmt 1 view .LVU440
 547:../Drivers/STM32N6xx_HAL_Driver/Src/stm32n6xx_hal_dma.c **** 
 1520              		.loc 1 547 21 is_stmt 0 view .LVU441
 1521 001c 4023     		movs	r3, #64
 1522              	.LVL29:
 547:../Drivers/STM32N6xx_HAL_Driver/Src/stm32n6xx_hal_dma.c **** 
 1523              		.loc 1 547 21 view .LVU442
 1524 001e A365     		str	r3, [r4, #88]
 550:../Drivers/STM32N6xx_HAL_Driver/Src/stm32n6xx_hal_dma.c **** 
 1525              		.loc 1 550 5 is_stmt 1 view .LVU443
 550:../Drivers/STM32N6xx_HAL_Driver/Src/stm32n6xx_hal_dma.c **** 
 1526              		.loc 1 550 5 view .LVU444
 1527 0020 0023     		movs	r3, #0
 1528 0022 84F84C30 		strb	r3, [r4, #76]
 550:../Drivers/STM32N6xx_HAL_Driver/Src/stm32n6xx_hal_dma.c **** 
 1529              		.loc 1 550 5 view .LVU445
 552:../Drivers/STM32N6xx_HAL_Driver/Src/stm32n6xx_hal_dma.c ****   }
 1530              		.loc 1 552 5 view .LVU446
 520:../Drivers/STM32N6xx_HAL_Driver/Src/stm32n6xx_hal_dma.c ****   }
 1531              		.loc 1 520 12 is_stmt 0 view .LVU447
 1532 0026 0120     		movs	r0, #1
 1533              	.LVL30:
 1534              	.L50:
 556:../Drivers/STM32N6xx_HAL_Driver/Src/stm32n6xx_hal_dma.c **** 
 1535              		.loc 1 556 1 view .LVU448
 1536 0028 10BD     		pop	{r4, pc}
 1537              	.LVL31:
 1538              	.L57:
 533:../Drivers/STM32N6xx_HAL_Driver/Src/stm32n6xx_hal_dma.c **** 
 1539              		.loc 1 533 5 is_stmt 1 view .LVU449
 533:../Drivers/STM32N6xx_HAL_Driver/Src/stm32n6xx_hal_dma.c **** 
 1540              		.loc 1 533 17 is_stmt 0 view .LVU450
 1541 002a 0220     		movs	r0, #2
 1542 002c 84F85400 		strb	r0, [r4, #84]
 536:../Drivers/STM32N6xx_HAL_Driver/Src/stm32n6xx_hal_dma.c **** 
 1543              		.loc 1 536 5 is_stmt 1 view .LVU451
 536:../Drivers/STM32N6xx_HAL_Driver/Src/stm32n6xx_hal_dma.c **** 
 1544              		.loc 1 536 21 is_stmt 0 view .LVU452
 1545 0030 0020     		movs	r0, #0
ARM GAS  /tmp/ccRTxeLm.s 			page 65


 1546 0032 A065     		str	r0, [r4, #88]
 539:../Drivers/STM32N6xx_HAL_Driver/Src/stm32n6xx_hal_dma.c **** 
 1547              		.loc 1 539 5 is_stmt 1 view .LVU453
 1548 0034 2046     		mov	r0, r4
 1549 0036 FFF7FEFF 		bl	DMA_SetConfig
 1550              	.LVL32:
 542:../Drivers/STM32N6xx_HAL_Driver/Src/stm32n6xx_hal_dma.c ****   }
 1551              		.loc 1 542 5 view .LVU454
 1552 003a 2268     		ldr	r2, [r4]
 1553 003c 5369     		ldr	r3, [r2, #20]
 1554 003e 43F00103 		orr	r3, r3, #1
 1555 0042 5361     		str	r3, [r2, #20]
 555:../Drivers/STM32N6xx_HAL_Driver/Src/stm32n6xx_hal_dma.c **** }
 1556              		.loc 1 555 3 view .LVU455
 555:../Drivers/STM32N6xx_HAL_Driver/Src/stm32n6xx_hal_dma.c **** }
 1557              		.loc 1 555 10 is_stmt 0 view .LVU456
 1558 0044 0020     		movs	r0, #0
 1559 0046 EFE7     		b	.L50
 1560              	.LVL33:
 1561              	.L53:
 527:../Drivers/STM32N6xx_HAL_Driver/Src/stm32n6xx_hal_dma.c **** 
 1562              		.loc 1 527 3 discriminator 1 view .LVU457
 1563 0048 0220     		movs	r0, #2
 1564 004a EDE7     		b	.L50
 1565              	.LVL34:
 1566              	.L55:
 1567              	.LCFI7:
 1568              		.cfi_def_cfa_offset 0
 1569              		.cfi_restore 4
 1570              		.cfi_restore 14
 520:../Drivers/STM32N6xx_HAL_Driver/Src/stm32n6xx_hal_dma.c ****   }
 1571              		.loc 1 520 12 view .LVU458
 1572 004c 0120     		movs	r0, #1
 1573              	.LVL35:
 556:../Drivers/STM32N6xx_HAL_Driver/Src/stm32n6xx_hal_dma.c **** 
 1574              		.loc 1 556 1 view .LVU459
 1575 004e 7047     		bx	lr
 1576              		.cfi_endproc
 1577              	.LFE883:
 1579              		.section	.text.HAL_DMA_Start_IT,"ax",%progbits
 1580              		.align	1
 1581              		.global	HAL_DMA_Start_IT
 1582              		.syntax unified
 1583              		.thumb
 1584              		.thumb_func
 1586              	HAL_DMA_Start_IT:
 1587              	.LVL36:
 1588              	.LFB884:
 571:../Drivers/STM32N6xx_HAL_Driver/Src/stm32n6xx_hal_dma.c ****   /* Check the DMA peripheral handle parameter */
 1589              		.loc 1 571 1 is_stmt 1 view -0
 1590              		.cfi_startproc
 1591              		@ args = 0, pretend = 0, frame = 0
 1592              		@ frame_needed = 0, uses_anonymous_args = 0
 573:../Drivers/STM32N6xx_HAL_Driver/Src/stm32n6xx_hal_dma.c ****   {
 1593              		.loc 1 573 3 view .LVU461
 573:../Drivers/STM32N6xx_HAL_Driver/Src/stm32n6xx_hal_dma.c ****   {
 1594              		.loc 1 573 6 is_stmt 0 view .LVU462
ARM GAS  /tmp/ccRTxeLm.s 			page 66


 1595 0000 0028     		cmp	r0, #0
 1596 0002 37D0     		beq	.L67
 571:../Drivers/STM32N6xx_HAL_Driver/Src/stm32n6xx_hal_dma.c ****   /* Check the DMA peripheral handle parameter */
 1597              		.loc 1 571 1 view .LVU463
 1598 0004 10B5     		push	{r4, lr}
 1599              	.LCFI8:
 1600              		.cfi_def_cfa_offset 8
 1601              		.cfi_offset 4, -8
 1602              		.cfi_offset 14, -4
 1603 0006 0446     		mov	r4, r0
 579:../Drivers/STM32N6xx_HAL_Driver/Src/stm32n6xx_hal_dma.c **** 
 1604              		.loc 1 579 3 is_stmt 1 view .LVU464
 582:../Drivers/STM32N6xx_HAL_Driver/Src/stm32n6xx_hal_dma.c **** 
 1605              		.loc 1 582 3 view .LVU465
 582:../Drivers/STM32N6xx_HAL_Driver/Src/stm32n6xx_hal_dma.c **** 
 1606              		.loc 1 582 3 view .LVU466
 1607 0008 90F84C00 		ldrb	r0, [r0, #76]	@ zero_extendqisi2
 1608              	.LVL37:
 582:../Drivers/STM32N6xx_HAL_Driver/Src/stm32n6xx_hal_dma.c **** 
 1609              		.loc 1 582 3 is_stmt 0 view .LVU467
 1610 000c 0128     		cmp	r0, #1
 1611 000e 2FD0     		beq	.L65
 582:../Drivers/STM32N6xx_HAL_Driver/Src/stm32n6xx_hal_dma.c **** 
 1612              		.loc 1 582 3 is_stmt 1 discriminator 2 view .LVU468
 1613 0010 0120     		movs	r0, #1
 1614 0012 84F84C00 		strb	r0, [r4, #76]
 582:../Drivers/STM32N6xx_HAL_Driver/Src/stm32n6xx_hal_dma.c **** 
 1615              		.loc 1 582 3 discriminator 2 view .LVU469
 585:../Drivers/STM32N6xx_HAL_Driver/Src/stm32n6xx_hal_dma.c ****   {
 1616              		.loc 1 585 3 view .LVU470
 585:../Drivers/STM32N6xx_HAL_Driver/Src/stm32n6xx_hal_dma.c ****   {
 1617              		.loc 1 585 11 is_stmt 0 view .LVU471
 1618 0016 94F85400 		ldrb	r0, [r4, #84]	@ zero_extendqisi2
 585:../Drivers/STM32N6xx_HAL_Driver/Src/stm32n6xx_hal_dma.c ****   {
 1619              		.loc 1 585 6 view .LVU472
 1620 001a 0128     		cmp	r0, #1
 1621 001c 06D0     		beq	.L69
 619:../Drivers/STM32N6xx_HAL_Driver/Src/stm32n6xx_hal_dma.c **** 
 1622              		.loc 1 619 5 is_stmt 1 view .LVU473
 619:../Drivers/STM32N6xx_HAL_Driver/Src/stm32n6xx_hal_dma.c **** 
 1623              		.loc 1 619 21 is_stmt 0 view .LVU474
 1624 001e 4023     		movs	r3, #64
 1625              	.LVL38:
 619:../Drivers/STM32N6xx_HAL_Driver/Src/stm32n6xx_hal_dma.c **** 
 1626              		.loc 1 619 21 view .LVU475
 1627 0020 A365     		str	r3, [r4, #88]
 622:../Drivers/STM32N6xx_HAL_Driver/Src/stm32n6xx_hal_dma.c **** 
 1628              		.loc 1 622 5 is_stmt 1 view .LVU476
 622:../Drivers/STM32N6xx_HAL_Driver/Src/stm32n6xx_hal_dma.c **** 
 1629              		.loc 1 622 5 view .LVU477
 1630 0022 0023     		movs	r3, #0
 1631 0024 84F84C30 		strb	r3, [r4, #76]
 622:../Drivers/STM32N6xx_HAL_Driver/Src/stm32n6xx_hal_dma.c **** 
 1632              		.loc 1 622 5 view .LVU478
 624:../Drivers/STM32N6xx_HAL_Driver/Src/stm32n6xx_hal_dma.c ****   }
 1633              		.loc 1 624 5 view .LVU479
 575:../Drivers/STM32N6xx_HAL_Driver/Src/stm32n6xx_hal_dma.c ****   }
ARM GAS  /tmp/ccRTxeLm.s 			page 67


 1634              		.loc 1 575 12 is_stmt 0 view .LVU480
 1635 0028 0120     		movs	r0, #1
 1636              	.LVL39:
 1637              	.L60:
 628:../Drivers/STM32N6xx_HAL_Driver/Src/stm32n6xx_hal_dma.c **** 
 1638              		.loc 1 628 1 view .LVU481
 1639 002a 10BD     		pop	{r4, pc}
 1640              	.LVL40:
 1641              	.L69:
 588:../Drivers/STM32N6xx_HAL_Driver/Src/stm32n6xx_hal_dma.c **** 
 1642              		.loc 1 588 5 is_stmt 1 view .LVU482
 588:../Drivers/STM32N6xx_HAL_Driver/Src/stm32n6xx_hal_dma.c **** 
 1643              		.loc 1 588 17 is_stmt 0 view .LVU483
 1644 002c 0220     		movs	r0, #2
 1645 002e 84F85400 		strb	r0, [r4, #84]
 591:../Drivers/STM32N6xx_HAL_Driver/Src/stm32n6xx_hal_dma.c **** 
 1646              		.loc 1 591 5 is_stmt 1 view .LVU484
 591:../Drivers/STM32N6xx_HAL_Driver/Src/stm32n6xx_hal_dma.c **** 
 1647              		.loc 1 591 21 is_stmt 0 view .LVU485
 1648 0032 0020     		movs	r0, #0
 1649 0034 A065     		str	r0, [r4, #88]
 594:../Drivers/STM32N6xx_HAL_Driver/Src/stm32n6xx_hal_dma.c **** 
 1650              		.loc 1 594 5 is_stmt 1 view .LVU486
 1651 0036 2046     		mov	r0, r4
 1652 0038 FFF7FEFF 		bl	DMA_SetConfig
 1653              	.LVL41:
 597:../Drivers/STM32N6xx_HAL_Driver/Src/stm32n6xx_hal_dma.c **** 
 1654              		.loc 1 597 5 view .LVU487
 1655 003c 2268     		ldr	r2, [r4]
 1656 003e 5369     		ldr	r3, [r2, #20]
 1657 0040 43F4BA43 		orr	r3, r3, #23808
 1658 0044 5361     		str	r3, [r2, #20]
 600:../Drivers/STM32N6xx_HAL_Driver/Src/stm32n6xx_hal_dma.c ****     {
 1659              		.loc 1 600 5 view .LVU488
 600:../Drivers/STM32N6xx_HAL_Driver/Src/stm32n6xx_hal_dma.c ****     {
 1660              		.loc 1 600 13 is_stmt 0 view .LVU489
 1661 0046 636E     		ldr	r3, [r4, #100]
 600:../Drivers/STM32N6xx_HAL_Driver/Src/stm32n6xx_hal_dma.c ****     {
 1662              		.loc 1 600 8 view .LVU490
 1663 0048 23B1     		cbz	r3, .L62
 603:../Drivers/STM32N6xx_HAL_Driver/Src/stm32n6xx_hal_dma.c ****     }
 1664              		.loc 1 603 7 is_stmt 1 view .LVU491
 1665 004a 2268     		ldr	r2, [r4]
 1666 004c 5369     		ldr	r3, [r2, #20]
 1667 004e 43F40073 		orr	r3, r3, #512
 1668 0052 5361     		str	r3, [r2, #20]
 1669              	.L62:
 607:../Drivers/STM32N6xx_HAL_Driver/Src/stm32n6xx_hal_dma.c ****     {
 1670              		.loc 1 607 5 view .LVU492
 607:../Drivers/STM32N6xx_HAL_Driver/Src/stm32n6xx_hal_dma.c ****     {
 1671              		.loc 1 607 13 is_stmt 0 view .LVU493
 1672 0054 236F     		ldr	r3, [r4, #112]
 607:../Drivers/STM32N6xx_HAL_Driver/Src/stm32n6xx_hal_dma.c ****     {
 1673              		.loc 1 607 8 view .LVU494
 1674 0056 23B1     		cbz	r3, .L63
 610:../Drivers/STM32N6xx_HAL_Driver/Src/stm32n6xx_hal_dma.c ****     }
 1675              		.loc 1 610 7 is_stmt 1 view .LVU495
ARM GAS  /tmp/ccRTxeLm.s 			page 68


 1676 0058 2268     		ldr	r2, [r4]
 1677 005a 5369     		ldr	r3, [r2, #20]
 1678 005c 43F40053 		orr	r3, r3, #8192
 1679 0060 5361     		str	r3, [r2, #20]
 1680              	.L63:
 614:../Drivers/STM32N6xx_HAL_Driver/Src/stm32n6xx_hal_dma.c ****   }
 1681              		.loc 1 614 5 view .LVU496
 1682 0062 2268     		ldr	r2, [r4]
 1683 0064 5369     		ldr	r3, [r2, #20]
 1684 0066 43F00103 		orr	r3, r3, #1
 1685 006a 5361     		str	r3, [r2, #20]
 627:../Drivers/STM32N6xx_HAL_Driver/Src/stm32n6xx_hal_dma.c **** }
 1686              		.loc 1 627 3 view .LVU497
 627:../Drivers/STM32N6xx_HAL_Driver/Src/stm32n6xx_hal_dma.c **** }
 1687              		.loc 1 627 10 is_stmt 0 view .LVU498
 1688 006c 0020     		movs	r0, #0
 1689 006e DCE7     		b	.L60
 1690              	.LVL42:
 1691              	.L65:
 582:../Drivers/STM32N6xx_HAL_Driver/Src/stm32n6xx_hal_dma.c **** 
 1692              		.loc 1 582 3 discriminator 1 view .LVU499
 1693 0070 0220     		movs	r0, #2
 1694 0072 DAE7     		b	.L60
 1695              	.LVL43:
 1696              	.L67:
 1697              	.LCFI9:
 1698              		.cfi_def_cfa_offset 0
 1699              		.cfi_restore 4
 1700              		.cfi_restore 14
 575:../Drivers/STM32N6xx_HAL_Driver/Src/stm32n6xx_hal_dma.c ****   }
 1701              		.loc 1 575 12 view .LVU500
 1702 0074 0120     		movs	r0, #1
 1703              	.LVL44:
 628:../Drivers/STM32N6xx_HAL_Driver/Src/stm32n6xx_hal_dma.c **** 
 1704              		.loc 1 628 1 view .LVU501
 1705 0076 7047     		bx	lr
 1706              		.cfi_endproc
 1707              	.LFE884:
 1709              		.section	.text.HAL_DMA_Abort,"ax",%progbits
 1710              		.align	1
 1711              		.global	HAL_DMA_Abort
 1712              		.syntax unified
 1713              		.thumb
 1714              		.thumb_func
 1716              	HAL_DMA_Abort:
 1717              	.LVL45:
 1718              	.LFB885:
 640:../Drivers/STM32N6xx_HAL_Driver/Src/stm32n6xx_hal_dma.c ****   /* Get tick number */
 1719              		.loc 1 640 1 is_stmt 1 view -0
 1720              		.cfi_startproc
 1721              		@ args = 0, pretend = 0, frame = 0
 1722              		@ frame_needed = 0, uses_anonymous_args = 0
 640:../Drivers/STM32N6xx_HAL_Driver/Src/stm32n6xx_hal_dma.c ****   /* Get tick number */
 1723              		.loc 1 640 1 is_stmt 0 view .LVU503
 1724 0000 38B5     		push	{r3, r4, r5, lr}
 1725              	.LCFI10:
 1726              		.cfi_def_cfa_offset 16
ARM GAS  /tmp/ccRTxeLm.s 			page 69


 1727              		.cfi_offset 3, -16
 1728              		.cfi_offset 4, -12
 1729              		.cfi_offset 5, -8
 1730              		.cfi_offset 14, -4
 1731 0002 0446     		mov	r4, r0
 642:../Drivers/STM32N6xx_HAL_Driver/Src/stm32n6xx_hal_dma.c **** 
 1732              		.loc 1 642 3 is_stmt 1 view .LVU504
 642:../Drivers/STM32N6xx_HAL_Driver/Src/stm32n6xx_hal_dma.c **** 
 1733              		.loc 1 642 25 is_stmt 0 view .LVU505
 1734 0004 FFF7FEFF 		bl	HAL_GetTick
 1735              	.LVL46:
 645:../Drivers/STM32N6xx_HAL_Driver/Src/stm32n6xx_hal_dma.c ****   {
 1736              		.loc 1 645 3 is_stmt 1 view .LVU506
 645:../Drivers/STM32N6xx_HAL_Driver/Src/stm32n6xx_hal_dma.c ****   {
 1737              		.loc 1 645 6 is_stmt 0 view .LVU507
 1738 0008 4CB1     		cbz	r4, .L74
 1739 000a 0546     		mov	r5, r0
 651:../Drivers/STM32N6xx_HAL_Driver/Src/stm32n6xx_hal_dma.c ****   {
 1740              		.loc 1 651 3 is_stmt 1 view .LVU508
 651:../Drivers/STM32N6xx_HAL_Driver/Src/stm32n6xx_hal_dma.c ****   {
 1741              		.loc 1 651 11 is_stmt 0 view .LVU509
 1742 000c 94F85430 		ldrb	r3, [r4, #84]	@ zero_extendqisi2
 651:../Drivers/STM32N6xx_HAL_Driver/Src/stm32n6xx_hal_dma.c ****   {
 1743              		.loc 1 651 6 view .LVU510
 1744 0010 022B     		cmp	r3, #2
 1745 0012 06D0     		beq	.L73
 654:../Drivers/STM32N6xx_HAL_Driver/Src/stm32n6xx_hal_dma.c **** 
 1746              		.loc 1 654 5 is_stmt 1 view .LVU511
 654:../Drivers/STM32N6xx_HAL_Driver/Src/stm32n6xx_hal_dma.c **** 
 1747              		.loc 1 654 21 is_stmt 0 view .LVU512
 1748 0014 2023     		movs	r3, #32
 1749 0016 A365     		str	r3, [r4, #88]
 657:../Drivers/STM32N6xx_HAL_Driver/Src/stm32n6xx_hal_dma.c **** 
 1750              		.loc 1 657 5 is_stmt 1 view .LVU513
 657:../Drivers/STM32N6xx_HAL_Driver/Src/stm32n6xx_hal_dma.c **** 
 1751              		.loc 1 657 5 view .LVU514
 1752 0018 0023     		movs	r3, #0
 1753 001a 84F84C30 		strb	r3, [r4, #76]
 657:../Drivers/STM32N6xx_HAL_Driver/Src/stm32n6xx_hal_dma.c **** 
 1754              		.loc 1 657 5 view .LVU515
 659:../Drivers/STM32N6xx_HAL_Driver/Src/stm32n6xx_hal_dma.c ****   }
 1755              		.loc 1 659 5 view .LVU516
 1756              	.LVL47:
 1757              	.L74:
 647:../Drivers/STM32N6xx_HAL_Driver/Src/stm32n6xx_hal_dma.c ****   }
 1758              		.loc 1 647 12 is_stmt 0 view .LVU517
 1759 001e 0120     		movs	r0, #1
 1760              	.L72:
 723:../Drivers/STM32N6xx_HAL_Driver/Src/stm32n6xx_hal_dma.c **** 
 1761              		.loc 1 723 1 view .LVU518
 1762 0020 38BD     		pop	{r3, r4, r5, pc}
 1763              	.LVL48:
 1764              	.L73:
 664:../Drivers/STM32N6xx_HAL_Driver/Src/stm32n6xx_hal_dma.c **** 
 1765              		.loc 1 664 5 is_stmt 1 view .LVU519
 664:../Drivers/STM32N6xx_HAL_Driver/Src/stm32n6xx_hal_dma.c **** 
 1766              		.loc 1 664 9 is_stmt 0 view .LVU520
ARM GAS  /tmp/ccRTxeLm.s 			page 70


 1767 0022 2268     		ldr	r2, [r4]
 664:../Drivers/STM32N6xx_HAL_Driver/Src/stm32n6xx_hal_dma.c **** 
 1768              		.loc 1 664 19 view .LVU521
 1769 0024 5369     		ldr	r3, [r2, #20]
 664:../Drivers/STM32N6xx_HAL_Driver/Src/stm32n6xx_hal_dma.c **** 
 1770              		.loc 1 664 25 view .LVU522
 1771 0026 43F00403 		orr	r3, r3, #4
 1772 002a 5361     		str	r3, [r2, #20]
 667:../Drivers/STM32N6xx_HAL_Driver/Src/stm32n6xx_hal_dma.c **** 
 1773              		.loc 1 667 5 is_stmt 1 view .LVU523
 667:../Drivers/STM32N6xx_HAL_Driver/Src/stm32n6xx_hal_dma.c **** 
 1774              		.loc 1 667 17 is_stmt 0 view .LVU524
 1775 002c 0523     		movs	r3, #5
 1776 002e 84F85430 		strb	r3, [r4, #84]
 670:../Drivers/STM32N6xx_HAL_Driver/Src/stm32n6xx_hal_dma.c ****     {
 1777              		.loc 1 670 5 is_stmt 1 view .LVU525
 1778              	.LVL49:
 1779              	.L75:
 670:../Drivers/STM32N6xx_HAL_Driver/Src/stm32n6xx_hal_dma.c ****     {
 1780              		.loc 1 670 50 discriminator 1 view .LVU526
 670:../Drivers/STM32N6xx_HAL_Driver/Src/stm32n6xx_hal_dma.c ****     {
 1781              		.loc 1 670 17 is_stmt 0 discriminator 1 view .LVU527
 1782 0032 2368     		ldr	r3, [r4]
 670:../Drivers/STM32N6xx_HAL_Driver/Src/stm32n6xx_hal_dma.c ****     {
 1783              		.loc 1 670 27 discriminator 1 view .LVU528
 1784 0034 1A69     		ldr	r2, [r3, #16]
 670:../Drivers/STM32N6xx_HAL_Driver/Src/stm32n6xx_hal_dma.c ****     {
 1785              		.loc 1 670 50 discriminator 1 view .LVU529
 1786 0036 12F4005F 		tst	r2, #8192
 1787 003a 16D1     		bne	.L80
 673:../Drivers/STM32N6xx_HAL_Driver/Src/stm32n6xx_hal_dma.c ****       {
 1788              		.loc 1 673 7 is_stmt 1 view .LVU530
 673:../Drivers/STM32N6xx_HAL_Driver/Src/stm32n6xx_hal_dma.c ****       {
 1789              		.loc 1 673 12 is_stmt 0 view .LVU531
 1790 003c FFF7FEFF 		bl	HAL_GetTick
 1791              	.LVL50:
 673:../Drivers/STM32N6xx_HAL_Driver/Src/stm32n6xx_hal_dma.c ****       {
 1792              		.loc 1 673 26 discriminator 1 view .LVU532
 1793 0040 431B     		subs	r3, r0, r5
 673:../Drivers/STM32N6xx_HAL_Driver/Src/stm32n6xx_hal_dma.c ****       {
 1794              		.loc 1 673 10 discriminator 1 view .LVU533
 1795 0042 052B     		cmp	r3, #5
 1796 0044 F5D9     		bls	.L75
 676:../Drivers/STM32N6xx_HAL_Driver/Src/stm32n6xx_hal_dma.c **** 
 1797              		.loc 1 676 9 is_stmt 1 view .LVU534
 676:../Drivers/STM32N6xx_HAL_Driver/Src/stm32n6xx_hal_dma.c **** 
 1798              		.loc 1 676 13 is_stmt 0 view .LVU535
 1799 0046 A36D     		ldr	r3, [r4, #88]
 676:../Drivers/STM32N6xx_HAL_Driver/Src/stm32n6xx_hal_dma.c **** 
 1800              		.loc 1 676 25 view .LVU536
 1801 0048 43F01003 		orr	r3, r3, #16
 1802 004c A365     		str	r3, [r4, #88]
 679:../Drivers/STM32N6xx_HAL_Driver/Src/stm32n6xx_hal_dma.c **** 
 1803              		.loc 1 679 9 is_stmt 1 view .LVU537
 679:../Drivers/STM32N6xx_HAL_Driver/Src/stm32n6xx_hal_dma.c **** 
 1804              		.loc 1 679 21 is_stmt 0 view .LVU538
 1805 004e 0323     		movs	r3, #3
ARM GAS  /tmp/ccRTxeLm.s 			page 71


 1806 0050 84F85430 		strb	r3, [r4, #84]
 682:../Drivers/STM32N6xx_HAL_Driver/Src/stm32n6xx_hal_dma.c ****         {
 1807              		.loc 1 682 9 is_stmt 1 view .LVU539
 682:../Drivers/STM32N6xx_HAL_Driver/Src/stm32n6xx_hal_dma.c ****         {
 1808              		.loc 1 682 18 is_stmt 0 view .LVU540
 1809 0054 236D     		ldr	r3, [r4, #80]
 682:../Drivers/STM32N6xx_HAL_Driver/Src/stm32n6xx_hal_dma.c ****         {
 1810              		.loc 1 682 12 view .LVU541
 1811 0056 13F0800F 		tst	r3, #128
 1812 005a 02D0     		beq	.L76
 685:../Drivers/STM32N6xx_HAL_Driver/Src/stm32n6xx_hal_dma.c ****         }
 1813              		.loc 1 685 11 is_stmt 1 view .LVU542
 685:../Drivers/STM32N6xx_HAL_Driver/Src/stm32n6xx_hal_dma.c ****         }
 1814              		.loc 1 685 15 is_stmt 0 view .LVU543
 1815 005c 636F     		ldr	r3, [r4, #116]
 685:../Drivers/STM32N6xx_HAL_Driver/Src/stm32n6xx_hal_dma.c ****         }
 1816              		.loc 1 685 40 view .LVU544
 1817 005e 0122     		movs	r2, #1
 1818 0060 1A73     		strb	r2, [r3, #12]
 1819              	.L76:
 689:../Drivers/STM32N6xx_HAL_Driver/Src/stm32n6xx_hal_dma.c **** 
 1820              		.loc 1 689 9 is_stmt 1 view .LVU545
 689:../Drivers/STM32N6xx_HAL_Driver/Src/stm32n6xx_hal_dma.c **** 
 1821              		.loc 1 689 9 view .LVU546
 1822 0062 0023     		movs	r3, #0
 1823 0064 84F84C30 		strb	r3, [r4, #76]
 689:../Drivers/STM32N6xx_HAL_Driver/Src/stm32n6xx_hal_dma.c **** 
 1824              		.loc 1 689 9 view .LVU547
 691:../Drivers/STM32N6xx_HAL_Driver/Src/stm32n6xx_hal_dma.c ****       }
 1825              		.loc 1 691 9 view .LVU548
 691:../Drivers/STM32N6xx_HAL_Driver/Src/stm32n6xx_hal_dma.c ****       }
 1826              		.loc 1 691 16 is_stmt 0 view .LVU549
 1827 0068 D9E7     		b	.L74
 1828              	.L80:
 696:../Drivers/STM32N6xx_HAL_Driver/Src/stm32n6xx_hal_dma.c **** 
 1829              		.loc 1 696 5 is_stmt 1 view .LVU550
 696:../Drivers/STM32N6xx_HAL_Driver/Src/stm32n6xx_hal_dma.c **** 
 1830              		.loc 1 696 19 is_stmt 0 view .LVU551
 1831 006a 5A69     		ldr	r2, [r3, #20]
 696:../Drivers/STM32N6xx_HAL_Driver/Src/stm32n6xx_hal_dma.c **** 
 1832              		.loc 1 696 25 view .LVU552
 1833 006c 42F00202 		orr	r2, r2, #2
 1834 0070 5A61     		str	r2, [r3, #20]
 699:../Drivers/STM32N6xx_HAL_Driver/Src/stm32n6xx_hal_dma.c **** 
 1835              		.loc 1 699 5 is_stmt 1 view .LVU553
 699:../Drivers/STM32N6xx_HAL_Driver/Src/stm32n6xx_hal_dma.c **** 
 1836              		.loc 1 699 17 is_stmt 0 view .LVU554
 1837 0072 0423     		movs	r3, #4
 1838 0074 84F85430 		strb	r3, [r4, #84]
 702:../Drivers/STM32N6xx_HAL_Driver/Src/stm32n6xx_hal_dma.c ****                                 DMA_FLAG_TO));
 1839              		.loc 1 702 5 is_stmt 1 view .LVU555
 1840 0078 2368     		ldr	r3, [r4]
 1841 007a 4FF4FE42 		mov	r2, #32512
 1842 007e DA60     		str	r2, [r3, #12]
 706:../Drivers/STM32N6xx_HAL_Driver/Src/stm32n6xx_hal_dma.c **** 
 1843              		.loc 1 706 5 view .LVU556
 706:../Drivers/STM32N6xx_HAL_Driver/Src/stm32n6xx_hal_dma.c **** 
ARM GAS  /tmp/ccRTxeLm.s 			page 72


 1844              		.loc 1 706 17 is_stmt 0 view .LVU557
 1845 0080 0123     		movs	r3, #1
 1846 0082 84F85430 		strb	r3, [r4, #84]
 709:../Drivers/STM32N6xx_HAL_Driver/Src/stm32n6xx_hal_dma.c ****     {
 1847              		.loc 1 709 5 is_stmt 1 view .LVU558
 709:../Drivers/STM32N6xx_HAL_Driver/Src/stm32n6xx_hal_dma.c ****     {
 1848              		.loc 1 709 14 is_stmt 0 view .LVU559
 1849 0086 236D     		ldr	r3, [r4, #80]
 709:../Drivers/STM32N6xx_HAL_Driver/Src/stm32n6xx_hal_dma.c ****     {
 1850              		.loc 1 709 8 view .LVU560
 1851 0088 13F0800F 		tst	r3, #128
 1852 008c 05D0     		beq	.L78
 712:../Drivers/STM32N6xx_HAL_Driver/Src/stm32n6xx_hal_dma.c **** 
 1853              		.loc 1 712 7 is_stmt 1 view .LVU561
 712:../Drivers/STM32N6xx_HAL_Driver/Src/stm32n6xx_hal_dma.c **** 
 1854              		.loc 1 712 11 is_stmt 0 view .LVU562
 1855 008e 636F     		ldr	r3, [r4, #116]
 712:../Drivers/STM32N6xx_HAL_Driver/Src/stm32n6xx_hal_dma.c **** 
 1856              		.loc 1 712 36 view .LVU563
 1857 0090 0122     		movs	r2, #1
 1858 0092 1A73     		strb	r2, [r3, #12]
 715:../Drivers/STM32N6xx_HAL_Driver/Src/stm32n6xx_hal_dma.c ****     }
 1859              		.loc 1 715 7 is_stmt 1 view .LVU564
 715:../Drivers/STM32N6xx_HAL_Driver/Src/stm32n6xx_hal_dma.c ****     }
 1860              		.loc 1 715 11 is_stmt 0 view .LVU565
 1861 0094 2368     		ldr	r3, [r4]
 715:../Drivers/STM32N6xx_HAL_Driver/Src/stm32n6xx_hal_dma.c ****     }
 1862              		.loc 1 715 28 view .LVU566
 1863 0096 0022     		movs	r2, #0
 1864 0098 9A64     		str	r2, [r3, #72]
 1865              	.L78:
 719:../Drivers/STM32N6xx_HAL_Driver/Src/stm32n6xx_hal_dma.c ****   }
 1866              		.loc 1 719 5 is_stmt 1 view .LVU567
 719:../Drivers/STM32N6xx_HAL_Driver/Src/stm32n6xx_hal_dma.c ****   }
 1867              		.loc 1 719 5 view .LVU568
 1868 009a 0020     		movs	r0, #0
 1869 009c 84F84C00 		strb	r0, [r4, #76]
 719:../Drivers/STM32N6xx_HAL_Driver/Src/stm32n6xx_hal_dma.c ****   }
 1870              		.loc 1 719 5 view .LVU569
 722:../Drivers/STM32N6xx_HAL_Driver/Src/stm32n6xx_hal_dma.c **** }
 1871              		.loc 1 722 3 view .LVU570
 722:../Drivers/STM32N6xx_HAL_Driver/Src/stm32n6xx_hal_dma.c **** }
 1872              		.loc 1 722 10 is_stmt 0 view .LVU571
 1873 00a0 BEE7     		b	.L72
 1874              		.cfi_endproc
 1875              	.LFE885:
 1877              		.section	.text.HAL_DMA_Abort_IT,"ax",%progbits
 1878              		.align	1
 1879              		.global	HAL_DMA_Abort_IT
 1880              		.syntax unified
 1881              		.thumb
 1882              		.thumb_func
 1884              	HAL_DMA_Abort_IT:
 1885              	.LVL51:
 1886              	.LFB886:
 732:../Drivers/STM32N6xx_HAL_Driver/Src/stm32n6xx_hal_dma.c ****   /* Check the DMA peripheral handle parameter */
 1887              		.loc 1 732 1 is_stmt 1 view -0
ARM GAS  /tmp/ccRTxeLm.s 			page 73


 1888              		.cfi_startproc
 1889              		@ args = 0, pretend = 0, frame = 0
 1890              		@ frame_needed = 0, uses_anonymous_args = 0
 1891              		@ link register save eliminated.
 734:../Drivers/STM32N6xx_HAL_Driver/Src/stm32n6xx_hal_dma.c ****   {
 1892              		.loc 1 734 3 view .LVU573
 734:../Drivers/STM32N6xx_HAL_Driver/Src/stm32n6xx_hal_dma.c ****   {
 1893              		.loc 1 734 6 is_stmt 0 view .LVU574
 1894 0000 28B1     		cbz	r0, .L85
 740:../Drivers/STM32N6xx_HAL_Driver/Src/stm32n6xx_hal_dma.c ****   {
 1895              		.loc 1 740 3 is_stmt 1 view .LVU575
 740:../Drivers/STM32N6xx_HAL_Driver/Src/stm32n6xx_hal_dma.c ****   {
 1896              		.loc 1 740 11 is_stmt 0 view .LVU576
 1897 0002 90F85420 		ldrb	r2, [r0, #84]	@ zero_extendqisi2
 740:../Drivers/STM32N6xx_HAL_Driver/Src/stm32n6xx_hal_dma.c ****   {
 1898              		.loc 1 740 6 view .LVU577
 1899 0006 022A     		cmp	r2, #2
 1900 0008 03D0     		beq	.L84
 743:../Drivers/STM32N6xx_HAL_Driver/Src/stm32n6xx_hal_dma.c **** 
 1901              		.loc 1 743 5 is_stmt 1 view .LVU578
 743:../Drivers/STM32N6xx_HAL_Driver/Src/stm32n6xx_hal_dma.c **** 
 1902              		.loc 1 743 21 is_stmt 0 view .LVU579
 1903 000a 2022     		movs	r2, #32
 1904 000c 8265     		str	r2, [r0, #88]
 745:../Drivers/STM32N6xx_HAL_Driver/Src/stm32n6xx_hal_dma.c ****   }
 1905              		.loc 1 745 5 is_stmt 1 view .LVU580
 1906              	.L85:
 736:../Drivers/STM32N6xx_HAL_Driver/Src/stm32n6xx_hal_dma.c ****   }
 1907              		.loc 1 736 12 is_stmt 0 view .LVU581
 1908 000e 0120     		movs	r0, #1
 1909              	.LVL52:
 736:../Drivers/STM32N6xx_HAL_Driver/Src/stm32n6xx_hal_dma.c ****   }
 1910              		.loc 1 736 12 view .LVU582
 1911 0010 7047     		bx	lr
 1912              	.LVL53:
 1913              	.L84:
 750:../Drivers/STM32N6xx_HAL_Driver/Src/stm32n6xx_hal_dma.c **** 
 1914              		.loc 1 750 5 is_stmt 1 view .LVU583
 750:../Drivers/STM32N6xx_HAL_Driver/Src/stm32n6xx_hal_dma.c **** 
 1915              		.loc 1 750 17 is_stmt 0 view .LVU584
 1916 0012 0422     		movs	r2, #4
 1917 0014 80F85420 		strb	r2, [r0, #84]
 753:../Drivers/STM32N6xx_HAL_Driver/Src/stm32n6xx_hal_dma.c ****   }
 1918              		.loc 1 753 5 is_stmt 1 view .LVU585
 753:../Drivers/STM32N6xx_HAL_Driver/Src/stm32n6xx_hal_dma.c ****   }
 1919              		.loc 1 753 9 is_stmt 0 view .LVU586
 1920 0018 0268     		ldr	r2, [r0]
 753:../Drivers/STM32N6xx_HAL_Driver/Src/stm32n6xx_hal_dma.c ****   }
 1921              		.loc 1 753 19 view .LVU587
 1922 001a 5369     		ldr	r3, [r2, #20]
 753:../Drivers/STM32N6xx_HAL_Driver/Src/stm32n6xx_hal_dma.c ****   }
 1923              		.loc 1 753 25 view .LVU588
 1924 001c 43F40053 		orr	r3, r3, #8192
 1925 0020 43F00403 		orr	r3, r3, #4
 1926 0024 5361     		str	r3, [r2, #20]
 756:../Drivers/STM32N6xx_HAL_Driver/Src/stm32n6xx_hal_dma.c **** }
 1927              		.loc 1 756 3 is_stmt 1 view .LVU589
ARM GAS  /tmp/ccRTxeLm.s 			page 74


 756:../Drivers/STM32N6xx_HAL_Driver/Src/stm32n6xx_hal_dma.c **** }
 1928              		.loc 1 756 10 is_stmt 0 view .LVU590
 1929 0026 0020     		movs	r0, #0
 1930              	.LVL54:
 757:../Drivers/STM32N6xx_HAL_Driver/Src/stm32n6xx_hal_dma.c **** 
 1931              		.loc 1 757 1 view .LVU591
 1932 0028 7047     		bx	lr
 1933              		.cfi_endproc
 1934              	.LFE886:
 1936              		.section	.text.HAL_DMA_PollForTransfer,"ax",%progbits
 1937              		.align	1
 1938              		.global	HAL_DMA_PollForTransfer
 1939              		.syntax unified
 1940              		.thumb
 1941              		.thumb_func
 1943              	HAL_DMA_PollForTransfer:
 1944              	.LVL55:
 1945              	.LFB887:
 770:../Drivers/STM32N6xx_HAL_Driver/Src/stm32n6xx_hal_dma.c ****   /* Get tick number */
 1946              		.loc 1 770 1 is_stmt 1 view -0
 1947              		.cfi_startproc
 1948              		@ args = 0, pretend = 0, frame = 0
 1949              		@ frame_needed = 0, uses_anonymous_args = 0
 770:../Drivers/STM32N6xx_HAL_Driver/Src/stm32n6xx_hal_dma.c ****   /* Get tick number */
 1950              		.loc 1 770 1 is_stmt 0 view .LVU593
 1951 0000 2DE9F041 		push	{r4, r5, r6, r7, r8, lr}
 1952              	.LCFI11:
 1953              		.cfi_def_cfa_offset 24
 1954              		.cfi_offset 4, -24
 1955              		.cfi_offset 5, -20
 1956              		.cfi_offset 6, -16
 1957              		.cfi_offset 7, -12
 1958              		.cfi_offset 8, -8
 1959              		.cfi_offset 14, -4
 1960 0004 0446     		mov	r4, r0
 1961 0006 8846     		mov	r8, r1
 1962 0008 1546     		mov	r5, r2
 772:../Drivers/STM32N6xx_HAL_Driver/Src/stm32n6xx_hal_dma.c ****   uint32_t level_flag;
 1963              		.loc 1 772 3 is_stmt 1 view .LVU594
 772:../Drivers/STM32N6xx_HAL_Driver/Src/stm32n6xx_hal_dma.c ****   uint32_t level_flag;
 1964              		.loc 1 772 24 is_stmt 0 view .LVU595
 1965 000a FFF7FEFF 		bl	HAL_GetTick
 1966              	.LVL56:
 773:../Drivers/STM32N6xx_HAL_Driver/Src/stm32n6xx_hal_dma.c ****   uint32_t tmp_csr;
 1967              		.loc 1 773 3 is_stmt 1 view .LVU596
 774:../Drivers/STM32N6xx_HAL_Driver/Src/stm32n6xx_hal_dma.c **** 
 1968              		.loc 1 774 3 view .LVU597
 777:../Drivers/STM32N6xx_HAL_Driver/Src/stm32n6xx_hal_dma.c ****   {
 1969              		.loc 1 777 3 view .LVU598
 777:../Drivers/STM32N6xx_HAL_Driver/Src/stm32n6xx_hal_dma.c ****   {
 1970              		.loc 1 777 6 is_stmt 0 view .LVU599
 1971 000e 4CB1     		cbz	r4, .L90
 1972 0010 0646     		mov	r6, r0
 783:../Drivers/STM32N6xx_HAL_Driver/Src/stm32n6xx_hal_dma.c **** 
 1973              		.loc 1 783 3 is_stmt 1 view .LVU600
 786:../Drivers/STM32N6xx_HAL_Driver/Src/stm32n6xx_hal_dma.c ****   {
 1974              		.loc 1 786 3 view .LVU601
ARM GAS  /tmp/ccRTxeLm.s 			page 75


 786:../Drivers/STM32N6xx_HAL_Driver/Src/stm32n6xx_hal_dma.c ****   {
 1975              		.loc 1 786 11 is_stmt 0 view .LVU602
 1976 0012 94F85430 		ldrb	r3, [r4, #84]	@ zero_extendqisi2
 786:../Drivers/STM32N6xx_HAL_Driver/Src/stm32n6xx_hal_dma.c ****   {
 1977              		.loc 1 786 6 view .LVU603
 1978 0016 022B     		cmp	r3, #2
 1979 0018 07D0     		beq	.L89
 789:../Drivers/STM32N6xx_HAL_Driver/Src/stm32n6xx_hal_dma.c **** 
 1980              		.loc 1 789 5 is_stmt 1 view .LVU604
 789:../Drivers/STM32N6xx_HAL_Driver/Src/stm32n6xx_hal_dma.c **** 
 1981              		.loc 1 789 21 is_stmt 0 view .LVU605
 1982 001a 2023     		movs	r3, #32
 1983 001c A365     		str	r3, [r4, #88]
 792:../Drivers/STM32N6xx_HAL_Driver/Src/stm32n6xx_hal_dma.c **** 
 1984              		.loc 1 792 5 is_stmt 1 view .LVU606
 792:../Drivers/STM32N6xx_HAL_Driver/Src/stm32n6xx_hal_dma.c **** 
 1985              		.loc 1 792 5 view .LVU607
 1986 001e 0023     		movs	r3, #0
 1987 0020 84F84C30 		strb	r3, [r4, #76]
 792:../Drivers/STM32N6xx_HAL_Driver/Src/stm32n6xx_hal_dma.c **** 
 1988              		.loc 1 792 5 view .LVU608
 794:../Drivers/STM32N6xx_HAL_Driver/Src/stm32n6xx_hal_dma.c ****   }
 1989              		.loc 1 794 5 view .LVU609
 1990              	.LVL57:
 1991              	.L90:
 779:../Drivers/STM32N6xx_HAL_Driver/Src/stm32n6xx_hal_dma.c ****   }
 1992              		.loc 1 779 12 is_stmt 0 view .LVU610
 1993 0024 0120     		movs	r0, #1
 1994              	.L88:
 931:../Drivers/STM32N6xx_HAL_Driver/Src/stm32n6xx_hal_dma.c **** 
 1995              		.loc 1 931 1 view .LVU611
 1996 0026 BDE8F081 		pop	{r4, r5, r6, r7, r8, pc}
 1997              	.LVL58:
 1998              	.L89:
 798:../Drivers/STM32N6xx_HAL_Driver/Src/stm32n6xx_hal_dma.c ****   {
 1999              		.loc 1 798 3 is_stmt 1 view .LVU612
 798:../Drivers/STM32N6xx_HAL_Driver/Src/stm32n6xx_hal_dma.c ****   {
 2000              		.loc 1 798 12 is_stmt 0 view .LVU613
 2001 002a 236D     		ldr	r3, [r4, #80]
 798:../Drivers/STM32N6xx_HAL_Driver/Src/stm32n6xx_hal_dma.c ****   {
 2002              		.loc 1 798 19 view .LVU614
 2003 002c 03F08103 		and	r3, r3, #129
 798:../Drivers/STM32N6xx_HAL_Driver/Src/stm32n6xx_hal_dma.c ****   {
 2004              		.loc 1 798 6 view .LVU615
 2005 0030 812B     		cmp	r3, #129
 2006 0032 05D0     		beq	.L107
 807:../Drivers/STM32N6xx_HAL_Driver/Src/stm32n6xx_hal_dma.c **** 
 2007              		.loc 1 807 3 is_stmt 1 view .LVU616
 807:../Drivers/STM32N6xx_HAL_Driver/Src/stm32n6xx_hal_dma.c **** 
 2008              		.loc 1 807 74 is_stmt 0 view .LVU617
 2009 0034 4346     		mov	r3, r8
 2010 0036 3BB9     		cbnz	r3, .L105
 807:../Drivers/STM32N6xx_HAL_Driver/Src/stm32n6xx_hal_dma.c **** 
 2011              		.loc 1 807 14 discriminator 1 view .LVU618
 2012 0038 0127     		movs	r7, #1
 2013              	.L92:
 2014              	.LVL59:
ARM GAS  /tmp/ccRTxeLm.s 			page 76


 810:../Drivers/STM32N6xx_HAL_Driver/Src/stm32n6xx_hal_dma.c **** 
 2015              		.loc 1 810 3 is_stmt 1 view .LVU619
 810:../Drivers/STM32N6xx_HAL_Driver/Src/stm32n6xx_hal_dma.c **** 
 2016              		.loc 1 810 17 is_stmt 0 view .LVU620
 2017 003a 2368     		ldr	r3, [r4]
 810:../Drivers/STM32N6xx_HAL_Driver/Src/stm32n6xx_hal_dma.c **** 
 2018              		.loc 1 810 11 view .LVU621
 2019 003c 1B69     		ldr	r3, [r3, #16]
 2020              	.LVL60:
 812:../Drivers/STM32N6xx_HAL_Driver/Src/stm32n6xx_hal_dma.c ****   {
 2021              		.loc 1 812 3 is_stmt 1 view .LVU622
 812:../Drivers/STM32N6xx_HAL_Driver/Src/stm32n6xx_hal_dma.c ****   {
 2022              		.loc 1 812 9 is_stmt 0 view .LVU623
 2023 003e 08E0     		b	.L93
 2024              	.LVL61:
 2025              	.L107:
 801:../Drivers/STM32N6xx_HAL_Driver/Src/stm32n6xx_hal_dma.c **** 
 2026              		.loc 1 801 5 is_stmt 1 view .LVU624
 801:../Drivers/STM32N6xx_HAL_Driver/Src/stm32n6xx_hal_dma.c **** 
 2027              		.loc 1 801 21 is_stmt 0 view .LVU625
 2028 0040 4FF48073 		mov	r3, #256
 2029 0044 A365     		str	r3, [r4, #88]
 803:../Drivers/STM32N6xx_HAL_Driver/Src/stm32n6xx_hal_dma.c ****   }
 2030              		.loc 1 803 5 is_stmt 1 view .LVU626
 803:../Drivers/STM32N6xx_HAL_Driver/Src/stm32n6xx_hal_dma.c ****   }
 2031              		.loc 1 803 12 is_stmt 0 view .LVU627
 2032 0046 EDE7     		b	.L90
 2033              	.L105:
 807:../Drivers/STM32N6xx_HAL_Driver/Src/stm32n6xx_hal_dma.c **** 
 2034              		.loc 1 807 14 discriminator 2 view .LVU628
 2035 0048 4FF40077 		mov	r7, #512
 2036 004c F5E7     		b	.L92
 2037              	.LVL62:
 2038              	.L94:
 836:../Drivers/STM32N6xx_HAL_Driver/Src/stm32n6xx_hal_dma.c ****   }
 2039              		.loc 1 836 5 is_stmt 1 view .LVU629
 836:../Drivers/STM32N6xx_HAL_Driver/Src/stm32n6xx_hal_dma.c ****   }
 2040              		.loc 1 836 19 is_stmt 0 view .LVU630
 2041 004e 2368     		ldr	r3, [r4]
 836:../Drivers/STM32N6xx_HAL_Driver/Src/stm32n6xx_hal_dma.c ****   }
 2042              		.loc 1 836 13 view .LVU631
 2043 0050 1B69     		ldr	r3, [r3, #16]
 2044              	.LVL63:
 2045              	.L93:
 812:../Drivers/STM32N6xx_HAL_Driver/Src/stm32n6xx_hal_dma.c ****   {
 2046              		.loc 1 812 33 is_stmt 1 discriminator 1 view .LVU632
 2047 0052 1F42     		tst	r7, r3
 2048 0054 11D1     		bne	.L108
 815:../Drivers/STM32N6xx_HAL_Driver/Src/stm32n6xx_hal_dma.c ****     {
 2049              		.loc 1 815 5 view .LVU633
 815:../Drivers/STM32N6xx_HAL_Driver/Src/stm32n6xx_hal_dma.c ****     {
 2050              		.loc 1 815 8 is_stmt 0 view .LVU634
 2051 0056 B5F1FF3F 		cmp	r5, #-1
 2052 005a F8D0     		beq	.L94
 817:../Drivers/STM32N6xx_HAL_Driver/Src/stm32n6xx_hal_dma.c ****       {
 2053              		.loc 1 817 7 is_stmt 1 view .LVU635
 817:../Drivers/STM32N6xx_HAL_Driver/Src/stm32n6xx_hal_dma.c ****       {
ARM GAS  /tmp/ccRTxeLm.s 			page 77


 2054              		.loc 1 817 13 is_stmt 0 view .LVU636
 2055 005c FFF7FEFF 		bl	HAL_GetTick
 2056              	.LVL64:
 817:../Drivers/STM32N6xx_HAL_Driver/Src/stm32n6xx_hal_dma.c ****       {
 2057              		.loc 1 817 27 discriminator 1 view .LVU637
 2058 0060 831B     		subs	r3, r0, r6
 817:../Drivers/STM32N6xx_HAL_Driver/Src/stm32n6xx_hal_dma.c ****       {
 2059              		.loc 1 817 10 discriminator 1 view .LVU638
 2060 0062 AB42     		cmp	r3, r5
 2061 0064 01D8     		bhi	.L95
 817:../Drivers/STM32N6xx_HAL_Driver/Src/stm32n6xx_hal_dma.c ****       {
 2062              		.loc 1 817 51 discriminator 2 view .LVU639
 2063 0066 002D     		cmp	r5, #0
 2064 0068 F1D1     		bne	.L94
 2065              	.L95:
 820:../Drivers/STM32N6xx_HAL_Driver/Src/stm32n6xx_hal_dma.c **** 
 2066              		.loc 1 820 9 is_stmt 1 view .LVU640
 820:../Drivers/STM32N6xx_HAL_Driver/Src/stm32n6xx_hal_dma.c **** 
 2067              		.loc 1 820 13 is_stmt 0 view .LVU641
 2068 006a A36D     		ldr	r3, [r4, #88]
 820:../Drivers/STM32N6xx_HAL_Driver/Src/stm32n6xx_hal_dma.c **** 
 2069              		.loc 1 820 25 view .LVU642
 2070 006c 43F01003 		orr	r3, r3, #16
 2071 0070 A365     		str	r3, [r4, #88]
 829:../Drivers/STM32N6xx_HAL_Driver/Src/stm32n6xx_hal_dma.c **** 
 2072              		.loc 1 829 9 is_stmt 1 view .LVU643
 829:../Drivers/STM32N6xx_HAL_Driver/Src/stm32n6xx_hal_dma.c **** 
 2073              		.loc 1 829 15 is_stmt 0 view .LVU644
 2074 0072 2046     		mov	r0, r4
 2075 0074 FFF7FEFF 		bl	HAL_DMA_Abort
 2076              	.LVL65:
 831:../Drivers/STM32N6xx_HAL_Driver/Src/stm32n6xx_hal_dma.c ****       }
 2077              		.loc 1 831 9 is_stmt 1 view .LVU645
 831:../Drivers/STM32N6xx_HAL_Driver/Src/stm32n6xx_hal_dma.c ****       }
 2078              		.loc 1 831 16 is_stmt 0 view .LVU646
 2079 0078 D4E7     		b	.L90
 2080              	.LVL66:
 2081              	.L108:
 840:../Drivers/STM32N6xx_HAL_Driver/Src/stm32n6xx_hal_dma.c ****   {
 2082              		.loc 1 840 3 is_stmt 1 view .LVU647
 840:../Drivers/STM32N6xx_HAL_Driver/Src/stm32n6xx_hal_dma.c ****   {
 2083              		.loc 1 840 6 is_stmt 0 view .LVU648
 2084 007a 13F4804F 		tst	r3, #16384
 2085 007e 07D0     		beq	.L97
 843:../Drivers/STM32N6xx_HAL_Driver/Src/stm32n6xx_hal_dma.c **** 
 2086              		.loc 1 843 5 is_stmt 1 view .LVU649
 843:../Drivers/STM32N6xx_HAL_Driver/Src/stm32n6xx_hal_dma.c **** 
 2087              		.loc 1 843 9 is_stmt 0 view .LVU650
 2088 0080 A26D     		ldr	r2, [r4, #88]
 843:../Drivers/STM32N6xx_HAL_Driver/Src/stm32n6xx_hal_dma.c **** 
 2089              		.loc 1 843 21 view .LVU651
 2090 0082 42F00802 		orr	r2, r2, #8
 2091 0086 A265     		str	r2, [r4, #88]
 846:../Drivers/STM32N6xx_HAL_Driver/Src/stm32n6xx_hal_dma.c ****   }
 2092              		.loc 1 846 5 is_stmt 1 view .LVU652
 2093 0088 2268     		ldr	r2, [r4]
 2094 008a 4FF48041 		mov	r1, #16384
ARM GAS  /tmp/ccRTxeLm.s 			page 78


 2095 008e D160     		str	r1, [r2, #12]
 2096              	.L97:
 850:../Drivers/STM32N6xx_HAL_Driver/Src/stm32n6xx_hal_dma.c ****   {
 2097              		.loc 1 850 3 view .LVU653
 850:../Drivers/STM32N6xx_HAL_Driver/Src/stm32n6xx_hal_dma.c ****   {
 2098              		.loc 1 850 6 is_stmt 0 view .LVU654
 2099 0090 13F4E05F 		tst	r3, #7168
 2100 0094 17D1     		bne	.L109
 902:../Drivers/STM32N6xx_HAL_Driver/Src/stm32n6xx_hal_dma.c ****   {
 2101              		.loc 1 902 3 is_stmt 1 view .LVU655
 902:../Drivers/STM32N6xx_HAL_Driver/Src/stm32n6xx_hal_dma.c ****   {
 2102              		.loc 1 902 6 is_stmt 0 view .LVU656
 2103 0096 4346     		mov	r3, r8
 2104              	.LVL67:
 902:../Drivers/STM32N6xx_HAL_Driver/Src/stm32n6xx_hal_dma.c ****   {
 2105              		.loc 1 902 6 view .LVU657
 2106 0098 012B     		cmp	r3, #1
 2107 009a 48D0     		beq	.L110
 907:../Drivers/STM32N6xx_HAL_Driver/Src/stm32n6xx_hal_dma.c ****   {
 2108              		.loc 1 907 8 is_stmt 1 view .LVU658
 907:../Drivers/STM32N6xx_HAL_Driver/Src/stm32n6xx_hal_dma.c ****   {
 2109              		.loc 1 907 11 is_stmt 0 view .LVU659
 2110 009c 002B     		cmp	r3, #0
 2111 009e C1D1     		bne	.L90
 910:../Drivers/STM32N6xx_HAL_Driver/Src/stm32n6xx_hal_dma.c **** 
 2112              		.loc 1 910 5 is_stmt 1 view .LVU660
 2113 00a0 2368     		ldr	r3, [r4]
 2114 00a2 4FF44072 		mov	r2, #768
 2115 00a6 DA60     		str	r2, [r3, #12]
 913:../Drivers/STM32N6xx_HAL_Driver/Src/stm32n6xx_hal_dma.c **** 
 2116              		.loc 1 913 5 view .LVU661
 913:../Drivers/STM32N6xx_HAL_Driver/Src/stm32n6xx_hal_dma.c **** 
 2117              		.loc 1 913 17 is_stmt 0 view .LVU662
 2118 00a8 0123     		movs	r3, #1
 2119 00aa 84F85430 		strb	r3, [r4, #84]
 916:../Drivers/STM32N6xx_HAL_Driver/Src/stm32n6xx_hal_dma.c ****     {
 2120              		.loc 1 916 5 is_stmt 1 view .LVU663
 916:../Drivers/STM32N6xx_HAL_Driver/Src/stm32n6xx_hal_dma.c ****     {
 2121              		.loc 1 916 14 is_stmt 0 view .LVU664
 2122 00ae 236D     		ldr	r3, [r4, #80]
 916:../Drivers/STM32N6xx_HAL_Driver/Src/stm32n6xx_hal_dma.c ****     {
 2123              		.loc 1 916 8 view .LVU665
 2124 00b0 13F0800F 		tst	r3, #128
 2125 00b4 02D0     		beq	.L104
 919:../Drivers/STM32N6xx_HAL_Driver/Src/stm32n6xx_hal_dma.c ****     }
 2126              		.loc 1 919 7 is_stmt 1 view .LVU666
 919:../Drivers/STM32N6xx_HAL_Driver/Src/stm32n6xx_hal_dma.c ****     }
 2127              		.loc 1 919 11 is_stmt 0 view .LVU667
 2128 00b6 636F     		ldr	r3, [r4, #116]
 919:../Drivers/STM32N6xx_HAL_Driver/Src/stm32n6xx_hal_dma.c ****     }
 2129              		.loc 1 919 36 view .LVU668
 2130 00b8 0122     		movs	r2, #1
 2131 00ba 1A73     		strb	r2, [r3, #12]
 2132              	.L104:
 923:../Drivers/STM32N6xx_HAL_Driver/Src/stm32n6xx_hal_dma.c ****   }
 2133              		.loc 1 923 5 is_stmt 1 view .LVU669
 923:../Drivers/STM32N6xx_HAL_Driver/Src/stm32n6xx_hal_dma.c ****   }
ARM GAS  /tmp/ccRTxeLm.s 			page 79


 2134              		.loc 1 923 5 view .LVU670
 2135 00bc 0023     		movs	r3, #0
 2136 00be 84F84C30 		strb	r3, [r4, #76]
 923:../Drivers/STM32N6xx_HAL_Driver/Src/stm32n6xx_hal_dma.c ****   }
 2137              		.loc 1 923 5 view .LVU671
 930:../Drivers/STM32N6xx_HAL_Driver/Src/stm32n6xx_hal_dma.c **** }
 2138              		.loc 1 930 10 is_stmt 0 view .LVU672
 2139 00c2 4046     		mov	r0, r8
 2140 00c4 AFE7     		b	.L88
 2141              	.LVL68:
 2142              	.L109:
 853:../Drivers/STM32N6xx_HAL_Driver/Src/stm32n6xx_hal_dma.c ****     {
 2143              		.loc 1 853 5 is_stmt 1 view .LVU673
 853:../Drivers/STM32N6xx_HAL_Driver/Src/stm32n6xx_hal_dma.c ****     {
 2144              		.loc 1 853 8 is_stmt 0 view .LVU674
 2145 00c6 13F4806F 		tst	r3, #1024
 2146 00ca 07D0     		beq	.L99
 856:../Drivers/STM32N6xx_HAL_Driver/Src/stm32n6xx_hal_dma.c **** 
 2147              		.loc 1 856 7 is_stmt 1 view .LVU675
 856:../Drivers/STM32N6xx_HAL_Driver/Src/stm32n6xx_hal_dma.c **** 
 2148              		.loc 1 856 11 is_stmt 0 view .LVU676
 2149 00cc A26D     		ldr	r2, [r4, #88]
 856:../Drivers/STM32N6xx_HAL_Driver/Src/stm32n6xx_hal_dma.c **** 
 2150              		.loc 1 856 23 view .LVU677
 2151 00ce 42F00102 		orr	r2, r2, #1
 2152 00d2 A265     		str	r2, [r4, #88]
 859:../Drivers/STM32N6xx_HAL_Driver/Src/stm32n6xx_hal_dma.c ****     }
 2153              		.loc 1 859 7 is_stmt 1 view .LVU678
 2154 00d4 2268     		ldr	r2, [r4]
 2155 00d6 4FF48061 		mov	r1, #1024
 2156 00da D160     		str	r1, [r2, #12]
 2157              	.L99:
 863:../Drivers/STM32N6xx_HAL_Driver/Src/stm32n6xx_hal_dma.c ****     {
 2158              		.loc 1 863 5 view .LVU679
 863:../Drivers/STM32N6xx_HAL_Driver/Src/stm32n6xx_hal_dma.c ****     {
 2159              		.loc 1 863 8 is_stmt 0 view .LVU680
 2160 00dc 13F4006F 		tst	r3, #2048
 2161 00e0 07D0     		beq	.L100
 866:../Drivers/STM32N6xx_HAL_Driver/Src/stm32n6xx_hal_dma.c **** 
 2162              		.loc 1 866 7 is_stmt 1 view .LVU681
 866:../Drivers/STM32N6xx_HAL_Driver/Src/stm32n6xx_hal_dma.c **** 
 2163              		.loc 1 866 11 is_stmt 0 view .LVU682
 2164 00e2 A26D     		ldr	r2, [r4, #88]
 866:../Drivers/STM32N6xx_HAL_Driver/Src/stm32n6xx_hal_dma.c **** 
 2165              		.loc 1 866 23 view .LVU683
 2166 00e4 42F00202 		orr	r2, r2, #2
 2167 00e8 A265     		str	r2, [r4, #88]
 869:../Drivers/STM32N6xx_HAL_Driver/Src/stm32n6xx_hal_dma.c ****     }
 2168              		.loc 1 869 7 is_stmt 1 view .LVU684
 2169 00ea 2268     		ldr	r2, [r4]
 2170 00ec 4FF40061 		mov	r1, #2048
 2171 00f0 D160     		str	r1, [r2, #12]
 2172              	.L100:
 873:../Drivers/STM32N6xx_HAL_Driver/Src/stm32n6xx_hal_dma.c ****     {
 2173              		.loc 1 873 5 view .LVU685
 873:../Drivers/STM32N6xx_HAL_Driver/Src/stm32n6xx_hal_dma.c ****     {
 2174              		.loc 1 873 8 is_stmt 0 view .LVU686
ARM GAS  /tmp/ccRTxeLm.s 			page 80


 2175 00f2 13F4805F 		tst	r3, #4096
 2176 00f6 07D0     		beq	.L101
 876:../Drivers/STM32N6xx_HAL_Driver/Src/stm32n6xx_hal_dma.c **** 
 2177              		.loc 1 876 7 is_stmt 1 view .LVU687
 876:../Drivers/STM32N6xx_HAL_Driver/Src/stm32n6xx_hal_dma.c **** 
 2178              		.loc 1 876 11 is_stmt 0 view .LVU688
 2179 00f8 A36D     		ldr	r3, [r4, #88]
 2180              	.LVL69:
 876:../Drivers/STM32N6xx_HAL_Driver/Src/stm32n6xx_hal_dma.c **** 
 2181              		.loc 1 876 23 view .LVU689
 2182 00fa 43F00403 		orr	r3, r3, #4
 2183 00fe A365     		str	r3, [r4, #88]
 879:../Drivers/STM32N6xx_HAL_Driver/Src/stm32n6xx_hal_dma.c ****     }
 2184              		.loc 1 879 7 is_stmt 1 view .LVU690
 2185 0100 2368     		ldr	r3, [r4]
 2186 0102 4FF48052 		mov	r2, #4096
 2187 0106 DA60     		str	r2, [r3, #12]
 2188              	.L101:
 883:../Drivers/STM32N6xx_HAL_Driver/Src/stm32n6xx_hal_dma.c **** 
 2189              		.loc 1 883 5 view .LVU691
 883:../Drivers/STM32N6xx_HAL_Driver/Src/stm32n6xx_hal_dma.c **** 
 2190              		.loc 1 883 9 is_stmt 0 view .LVU692
 2191 0108 2268     		ldr	r2, [r4]
 883:../Drivers/STM32N6xx_HAL_Driver/Src/stm32n6xx_hal_dma.c **** 
 2192              		.loc 1 883 19 view .LVU693
 2193 010a 5369     		ldr	r3, [r2, #20]
 883:../Drivers/STM32N6xx_HAL_Driver/Src/stm32n6xx_hal_dma.c **** 
 2194              		.loc 1 883 25 view .LVU694
 2195 010c 43F00203 		orr	r3, r3, #2
 2196 0110 5361     		str	r3, [r2, #20]
 886:../Drivers/STM32N6xx_HAL_Driver/Src/stm32n6xx_hal_dma.c **** 
 2197              		.loc 1 886 5 is_stmt 1 view .LVU695
 886:../Drivers/STM32N6xx_HAL_Driver/Src/stm32n6xx_hal_dma.c **** 
 2198              		.loc 1 886 17 is_stmt 0 view .LVU696
 2199 0112 0123     		movs	r3, #1
 2200 0114 84F85430 		strb	r3, [r4, #84]
 889:../Drivers/STM32N6xx_HAL_Driver/Src/stm32n6xx_hal_dma.c ****     {
 2201              		.loc 1 889 5 is_stmt 1 view .LVU697
 889:../Drivers/STM32N6xx_HAL_Driver/Src/stm32n6xx_hal_dma.c ****     {
 2202              		.loc 1 889 14 is_stmt 0 view .LVU698
 2203 0118 236D     		ldr	r3, [r4, #80]
 889:../Drivers/STM32N6xx_HAL_Driver/Src/stm32n6xx_hal_dma.c ****     {
 2204              		.loc 1 889 8 view .LVU699
 2205 011a 13F0800F 		tst	r3, #128
 2206 011e 02D0     		beq	.L102
 892:../Drivers/STM32N6xx_HAL_Driver/Src/stm32n6xx_hal_dma.c ****     }
 2207              		.loc 1 892 7 is_stmt 1 view .LVU700
 892:../Drivers/STM32N6xx_HAL_Driver/Src/stm32n6xx_hal_dma.c ****     }
 2208              		.loc 1 892 11 is_stmt 0 view .LVU701
 2209 0120 636F     		ldr	r3, [r4, #116]
 892:../Drivers/STM32N6xx_HAL_Driver/Src/stm32n6xx_hal_dma.c ****     }
 2210              		.loc 1 892 36 view .LVU702
 2211 0122 0122     		movs	r2, #1
 2212 0124 1A73     		strb	r2, [r3, #12]
 2213              	.L102:
 896:../Drivers/STM32N6xx_HAL_Driver/Src/stm32n6xx_hal_dma.c **** 
 2214              		.loc 1 896 5 is_stmt 1 view .LVU703
ARM GAS  /tmp/ccRTxeLm.s 			page 81


 896:../Drivers/STM32N6xx_HAL_Driver/Src/stm32n6xx_hal_dma.c **** 
 2215              		.loc 1 896 5 view .LVU704
 2216 0126 0023     		movs	r3, #0
 2217 0128 84F84C30 		strb	r3, [r4, #76]
 896:../Drivers/STM32N6xx_HAL_Driver/Src/stm32n6xx_hal_dma.c **** 
 2218              		.loc 1 896 5 view .LVU705
 898:../Drivers/STM32N6xx_HAL_Driver/Src/stm32n6xx_hal_dma.c ****   }
 2219              		.loc 1 898 5 view .LVU706
 898:../Drivers/STM32N6xx_HAL_Driver/Src/stm32n6xx_hal_dma.c ****   }
 2220              		.loc 1 898 12 is_stmt 0 view .LVU707
 2221 012c 7AE7     		b	.L90
 2222              	.L110:
 905:../Drivers/STM32N6xx_HAL_Driver/Src/stm32n6xx_hal_dma.c ****   }
 2223              		.loc 1 905 5 is_stmt 1 view .LVU708
 2224 012e 2368     		ldr	r3, [r4]
 2225 0130 4FF40072 		mov	r2, #512
 2226 0134 DA60     		str	r2, [r3, #12]
 930:../Drivers/STM32N6xx_HAL_Driver/Src/stm32n6xx_hal_dma.c **** }
 2227              		.loc 1 930 10 is_stmt 0 view .LVU709
 2228 0136 0020     		movs	r0, #0
 2229 0138 75E7     		b	.L88
 2230              		.cfi_endproc
 2231              	.LFE887:
 2233              		.section	.text.HAL_DMA_IRQHandler,"ax",%progbits
 2234              		.align	1
 2235              		.global	HAL_DMA_IRQHandler
 2236              		.syntax unified
 2237              		.thumb
 2238              		.thumb_func
 2240              	HAL_DMA_IRQHandler:
 2241              	.LVL70:
 2242              	.LFB888:
 940:../Drivers/STM32N6xx_HAL_Driver/Src/stm32n6xx_hal_dma.c ****   const DMA_TypeDef *p_dma_instance = GET_DMA_INSTANCE(hdma);
 2243              		.loc 1 940 1 is_stmt 1 view -0
 2244              		.cfi_startproc
 2245              		@ args = 0, pretend = 0, frame = 0
 2246              		@ frame_needed = 0, uses_anonymous_args = 0
 940:../Drivers/STM32N6xx_HAL_Driver/Src/stm32n6xx_hal_dma.c ****   const DMA_TypeDef *p_dma_instance = GET_DMA_INSTANCE(hdma);
 2247              		.loc 1 940 1 is_stmt 0 view .LVU711
 2248 0000 10B5     		push	{r4, lr}
 2249              	.LCFI12:
 2250              		.cfi_def_cfa_offset 8
 2251              		.cfi_offset 4, -8
 2252              		.cfi_offset 14, -4
 2253 0002 0446     		mov	r4, r0
 941:../Drivers/STM32N6xx_HAL_Driver/Src/stm32n6xx_hal_dma.c ****   uint32_t global_it_flag =  1UL << (GET_DMA_CHANNEL(hdma) & 0x1FU);
 2254              		.loc 1 941 3 is_stmt 1 view .LVU712
 941:../Drivers/STM32N6xx_HAL_Driver/Src/stm32n6xx_hal_dma.c ****   uint32_t global_it_flag =  1UL << (GET_DMA_CHANNEL(hdma) & 0x1FU);
 2255              		.loc 1 941 39 is_stmt 0 view .LVU713
 2256 0004 0168     		ldr	r1, [r0]
 2257 0006 21F47F60 		bic	r0, r1, #4080
 2258              	.LVL71:
 941:../Drivers/STM32N6xx_HAL_Driver/Src/stm32n6xx_hal_dma.c ****   uint32_t global_it_flag =  1UL << (GET_DMA_CHANNEL(hdma) & 0x1FU);
 2259              		.loc 1 941 39 view .LVU714
 2260 000a 20F00F00 		bic	r0, r0, #15
 2261              	.LVL72:
 942:../Drivers/STM32N6xx_HAL_Driver/Src/stm32n6xx_hal_dma.c ****   uint32_t global_active_flag_ns = IS_DMA_GLOBAL_ACTIVE_FLAG_NS(p_dma_instance, global_it_flag);
ARM GAS  /tmp/ccRTxeLm.s 			page 82


 2262              		.loc 1 942 3 is_stmt 1 view .LVU715
 942:../Drivers/STM32N6xx_HAL_Driver/Src/stm32n6xx_hal_dma.c ****   uint32_t global_active_flag_ns = IS_DMA_GLOBAL_ACTIVE_FLAG_NS(p_dma_instance, global_it_flag);
 2263              		.loc 1 942 38 is_stmt 0 view .LVU716
 2264 000e C1F30B03 		ubfx	r3, r1, #0, #12
 2265 0012 503B     		subs	r3, r3, #80
 942:../Drivers/STM32N6xx_HAL_Driver/Src/stm32n6xx_hal_dma.c ****   uint32_t global_active_flag_ns = IS_DMA_GLOBAL_ACTIVE_FLAG_NS(p_dma_instance, global_it_flag);
 2266              		.loc 1 942 60 view .LVU717
 2267 0014 C3F3C413 		ubfx	r3, r3, #7, #5
 942:../Drivers/STM32N6xx_HAL_Driver/Src/stm32n6xx_hal_dma.c ****   uint32_t global_active_flag_ns = IS_DMA_GLOBAL_ACTIVE_FLAG_NS(p_dma_instance, global_it_flag);
 2268              		.loc 1 942 12 view .LVU718
 2269 0018 0122     		movs	r2, #1
 2270 001a 02FA03F3 		lsl	r3, r2, r3
 2271              	.LVL73:
 943:../Drivers/STM32N6xx_HAL_Driver/Src/stm32n6xx_hal_dma.c **** #if defined (CPU_IN_SECURE_STATE)
 2272              		.loc 1 943 3 is_stmt 1 view .LVU719
 943:../Drivers/STM32N6xx_HAL_Driver/Src/stm32n6xx_hal_dma.c **** #if defined (CPU_IN_SECURE_STATE)
 2273              		.loc 1 943 36 is_stmt 0 view .LVU720
 2274 001e C268     		ldr	r2, [r0, #12]
 943:../Drivers/STM32N6xx_HAL_Driver/Src/stm32n6xx_hal_dma.c **** #if defined (CPU_IN_SECURE_STATE)
 2275              		.loc 1 943 12 view .LVU721
 2276 0020 1A40     		ands	r2, r2, r3
 2277              	.LVL74:
 945:../Drivers/STM32N6xx_HAL_Driver/Src/stm32n6xx_hal_dma.c **** #endif /* CPU_IN_SECURE_STATE */
 2278              		.loc 1 945 3 is_stmt 1 view .LVU722
 945:../Drivers/STM32N6xx_HAL_Driver/Src/stm32n6xx_hal_dma.c **** #endif /* CPU_IN_SECURE_STATE */
 2279              		.loc 1 945 35 is_stmt 0 view .LVU723
 2280 0022 0069     		ldr	r0, [r0, #16]
 2281              	.LVL75:
 950:../Drivers/STM32N6xx_HAL_Driver/Src/stm32n6xx_hal_dma.c **** #else
 2282              		.loc 1 950 3 is_stmt 1 view .LVU724
 950:../Drivers/STM32N6xx_HAL_Driver/Src/stm32n6xx_hal_dma.c **** #else
 2283              		.loc 1 950 6 is_stmt 0 view .LVU725
 2284 0024 1842     		tst	r0, r3
 2285 0026 02D1     		bne	.L112
 950:../Drivers/STM32N6xx_HAL_Driver/Src/stm32n6xx_hal_dma.c **** #else
 2286              		.loc 1 950 36 discriminator 1 view .LVU726
 2287 0028 002A     		cmp	r2, #0
 2288 002a 00F0C480 		beq	.L111
 2289              	.L112:
 959:../Drivers/STM32N6xx_HAL_Driver/Src/stm32n6xx_hal_dma.c ****   {
 2290              		.loc 1 959 3 is_stmt 1 view .LVU727
 959:../Drivers/STM32N6xx_HAL_Driver/Src/stm32n6xx_hal_dma.c ****   {
 2291              		.loc 1 959 7 is_stmt 0 view .LVU728
 2292 002e 0B69     		ldr	r3, [r1, #16]
 2293              	.LVL76:
 959:../Drivers/STM32N6xx_HAL_Driver/Src/stm32n6xx_hal_dma.c ****   {
 2294              		.loc 1 959 6 view .LVU729
 2295 0030 13F4806F 		tst	r3, #1024
 2296 0034 0AD0     		beq	.L114
 962:../Drivers/STM32N6xx_HAL_Driver/Src/stm32n6xx_hal_dma.c ****     {
 2297              		.loc 1 962 5 is_stmt 1 view .LVU730
 962:../Drivers/STM32N6xx_HAL_Driver/Src/stm32n6xx_hal_dma.c ****     {
 2298              		.loc 1 962 9 is_stmt 0 view .LVU731
 2299 0036 4B69     		ldr	r3, [r1, #20]
 962:../Drivers/STM32N6xx_HAL_Driver/Src/stm32n6xx_hal_dma.c ****     {
 2300              		.loc 1 962 8 view .LVU732
 2301 0038 13F4806F 		tst	r3, #1024
ARM GAS  /tmp/ccRTxeLm.s 			page 83


 2302 003c 06D0     		beq	.L114
 965:../Drivers/STM32N6xx_HAL_Driver/Src/stm32n6xx_hal_dma.c **** 
 2303              		.loc 1 965 7 is_stmt 1 view .LVU733
 2304 003e 4FF48063 		mov	r3, #1024
 2305 0042 CB60     		str	r3, [r1, #12]
 968:../Drivers/STM32N6xx_HAL_Driver/Src/stm32n6xx_hal_dma.c ****     }
 2306              		.loc 1 968 7 view .LVU734
 968:../Drivers/STM32N6xx_HAL_Driver/Src/stm32n6xx_hal_dma.c ****     }
 2307              		.loc 1 968 11 is_stmt 0 view .LVU735
 2308 0044 A36D     		ldr	r3, [r4, #88]
 968:../Drivers/STM32N6xx_HAL_Driver/Src/stm32n6xx_hal_dma.c ****     }
 2309              		.loc 1 968 23 view .LVU736
 2310 0046 43F00103 		orr	r3, r3, #1
 2311 004a A365     		str	r3, [r4, #88]
 2312              	.L114:
 973:../Drivers/STM32N6xx_HAL_Driver/Src/stm32n6xx_hal_dma.c ****   {
 2313              		.loc 1 973 3 is_stmt 1 view .LVU737
 973:../Drivers/STM32N6xx_HAL_Driver/Src/stm32n6xx_hal_dma.c ****   {
 2314              		.loc 1 973 7 is_stmt 0 view .LVU738
 2315 004c 2368     		ldr	r3, [r4]
 2316 004e 1A69     		ldr	r2, [r3, #16]
 2317              	.LVL77:
 973:../Drivers/STM32N6xx_HAL_Driver/Src/stm32n6xx_hal_dma.c ****   {
 2318              		.loc 1 973 6 view .LVU739
 2319 0050 12F4006F 		tst	r2, #2048
 2320 0054 0AD0     		beq	.L115
 976:../Drivers/STM32N6xx_HAL_Driver/Src/stm32n6xx_hal_dma.c ****     {
 2321              		.loc 1 976 5 is_stmt 1 view .LVU740
 976:../Drivers/STM32N6xx_HAL_Driver/Src/stm32n6xx_hal_dma.c ****     {
 2322              		.loc 1 976 9 is_stmt 0 view .LVU741
 2323 0056 5A69     		ldr	r2, [r3, #20]
 976:../Drivers/STM32N6xx_HAL_Driver/Src/stm32n6xx_hal_dma.c ****     {
 2324              		.loc 1 976 8 view .LVU742
 2325 0058 12F4006F 		tst	r2, #2048
 2326 005c 06D0     		beq	.L115
 979:../Drivers/STM32N6xx_HAL_Driver/Src/stm32n6xx_hal_dma.c **** 
 2327              		.loc 1 979 7 is_stmt 1 view .LVU743
 2328 005e 4FF40062 		mov	r2, #2048
 2329 0062 DA60     		str	r2, [r3, #12]
 982:../Drivers/STM32N6xx_HAL_Driver/Src/stm32n6xx_hal_dma.c ****     }
 2330              		.loc 1 982 7 view .LVU744
 982:../Drivers/STM32N6xx_HAL_Driver/Src/stm32n6xx_hal_dma.c ****     }
 2331              		.loc 1 982 11 is_stmt 0 view .LVU745
 2332 0064 A36D     		ldr	r3, [r4, #88]
 982:../Drivers/STM32N6xx_HAL_Driver/Src/stm32n6xx_hal_dma.c ****     }
 2333              		.loc 1 982 23 view .LVU746
 2334 0066 43F00203 		orr	r3, r3, #2
 2335 006a A365     		str	r3, [r4, #88]
 2336              	.L115:
 987:../Drivers/STM32N6xx_HAL_Driver/Src/stm32n6xx_hal_dma.c ****   {
 2337              		.loc 1 987 3 is_stmt 1 view .LVU747
 987:../Drivers/STM32N6xx_HAL_Driver/Src/stm32n6xx_hal_dma.c ****   {
 2338              		.loc 1 987 7 is_stmt 0 view .LVU748
 2339 006c 2368     		ldr	r3, [r4]
 2340 006e 1A69     		ldr	r2, [r3, #16]
 987:../Drivers/STM32N6xx_HAL_Driver/Src/stm32n6xx_hal_dma.c ****   {
 2341              		.loc 1 987 6 view .LVU749
ARM GAS  /tmp/ccRTxeLm.s 			page 84


 2342 0070 12F4805F 		tst	r2, #4096
 2343 0074 0AD0     		beq	.L116
 990:../Drivers/STM32N6xx_HAL_Driver/Src/stm32n6xx_hal_dma.c ****     {
 2344              		.loc 1 990 5 is_stmt 1 view .LVU750
 990:../Drivers/STM32N6xx_HAL_Driver/Src/stm32n6xx_hal_dma.c ****     {
 2345              		.loc 1 990 9 is_stmt 0 view .LVU751
 2346 0076 5A69     		ldr	r2, [r3, #20]
 990:../Drivers/STM32N6xx_HAL_Driver/Src/stm32n6xx_hal_dma.c ****     {
 2347              		.loc 1 990 8 view .LVU752
 2348 0078 12F4805F 		tst	r2, #4096
 2349 007c 06D0     		beq	.L116
 993:../Drivers/STM32N6xx_HAL_Driver/Src/stm32n6xx_hal_dma.c **** 
 2350              		.loc 1 993 7 is_stmt 1 view .LVU753
 2351 007e 4FF48052 		mov	r2, #4096
 2352 0082 DA60     		str	r2, [r3, #12]
 996:../Drivers/STM32N6xx_HAL_Driver/Src/stm32n6xx_hal_dma.c ****     }
 2353              		.loc 1 996 7 view .LVU754
 996:../Drivers/STM32N6xx_HAL_Driver/Src/stm32n6xx_hal_dma.c ****     }
 2354              		.loc 1 996 11 is_stmt 0 view .LVU755
 2355 0084 A36D     		ldr	r3, [r4, #88]
 996:../Drivers/STM32N6xx_HAL_Driver/Src/stm32n6xx_hal_dma.c ****     }
 2356              		.loc 1 996 23 view .LVU756
 2357 0086 43F00403 		orr	r3, r3, #4
 2358 008a A365     		str	r3, [r4, #88]
 2359              	.L116:
1001:../Drivers/STM32N6xx_HAL_Driver/Src/stm32n6xx_hal_dma.c ****   {
 2360              		.loc 1 1001 3 is_stmt 1 view .LVU757
1001:../Drivers/STM32N6xx_HAL_Driver/Src/stm32n6xx_hal_dma.c ****   {
 2361              		.loc 1 1001 7 is_stmt 0 view .LVU758
 2362 008c 2368     		ldr	r3, [r4]
 2363 008e 1A69     		ldr	r2, [r3, #16]
1001:../Drivers/STM32N6xx_HAL_Driver/Src/stm32n6xx_hal_dma.c ****   {
 2364              		.loc 1 1001 6 view .LVU759
 2365 0090 12F4804F 		tst	r2, #16384
 2366 0094 0AD0     		beq	.L117
1004:../Drivers/STM32N6xx_HAL_Driver/Src/stm32n6xx_hal_dma.c ****     {
 2367              		.loc 1 1004 5 is_stmt 1 view .LVU760
1004:../Drivers/STM32N6xx_HAL_Driver/Src/stm32n6xx_hal_dma.c ****     {
 2368              		.loc 1 1004 9 is_stmt 0 view .LVU761
 2369 0096 5A69     		ldr	r2, [r3, #20]
1004:../Drivers/STM32N6xx_HAL_Driver/Src/stm32n6xx_hal_dma.c ****     {
 2370              		.loc 1 1004 8 view .LVU762
 2371 0098 12F4804F 		tst	r2, #16384
 2372 009c 06D0     		beq	.L117
1007:../Drivers/STM32N6xx_HAL_Driver/Src/stm32n6xx_hal_dma.c **** 
 2373              		.loc 1 1007 7 is_stmt 1 view .LVU763
 2374 009e 4FF48042 		mov	r2, #16384
 2375 00a2 DA60     		str	r2, [r3, #12]
1010:../Drivers/STM32N6xx_HAL_Driver/Src/stm32n6xx_hal_dma.c ****     }
 2376              		.loc 1 1010 7 view .LVU764
1010:../Drivers/STM32N6xx_HAL_Driver/Src/stm32n6xx_hal_dma.c ****     }
 2377              		.loc 1 1010 11 is_stmt 0 view .LVU765
 2378 00a4 A36D     		ldr	r3, [r4, #88]
1010:../Drivers/STM32N6xx_HAL_Driver/Src/stm32n6xx_hal_dma.c ****     }
 2379              		.loc 1 1010 23 view .LVU766
 2380 00a6 43F00803 		orr	r3, r3, #8
 2381 00aa A365     		str	r3, [r4, #88]
ARM GAS  /tmp/ccRTxeLm.s 			page 85


 2382              	.L117:
1015:../Drivers/STM32N6xx_HAL_Driver/Src/stm32n6xx_hal_dma.c ****   {
 2383              		.loc 1 1015 3 is_stmt 1 view .LVU767
1015:../Drivers/STM32N6xx_HAL_Driver/Src/stm32n6xx_hal_dma.c ****   {
 2384              		.loc 1 1015 7 is_stmt 0 view .LVU768
 2385 00ac 2368     		ldr	r3, [r4]
 2386 00ae 1A69     		ldr	r2, [r3, #16]
1015:../Drivers/STM32N6xx_HAL_Driver/Src/stm32n6xx_hal_dma.c ****   {
 2387              		.loc 1 1015 6 view .LVU769
 2388 00b0 12F4007F 		tst	r2, #512
 2389 00b4 0AD0     		beq	.L118
1018:../Drivers/STM32N6xx_HAL_Driver/Src/stm32n6xx_hal_dma.c ****     {
 2390              		.loc 1 1018 5 is_stmt 1 view .LVU770
1018:../Drivers/STM32N6xx_HAL_Driver/Src/stm32n6xx_hal_dma.c ****     {
 2391              		.loc 1 1018 9 is_stmt 0 view .LVU771
 2392 00b6 5A69     		ldr	r2, [r3, #20]
1018:../Drivers/STM32N6xx_HAL_Driver/Src/stm32n6xx_hal_dma.c ****     {
 2393              		.loc 1 1018 8 view .LVU772
 2394 00b8 12F4007F 		tst	r2, #512
 2395 00bc 06D0     		beq	.L118
1021:../Drivers/STM32N6xx_HAL_Driver/Src/stm32n6xx_hal_dma.c **** 
 2396              		.loc 1 1021 7 is_stmt 1 view .LVU773
 2397 00be 4FF40072 		mov	r2, #512
 2398 00c2 DA60     		str	r2, [r3, #12]
1024:../Drivers/STM32N6xx_HAL_Driver/Src/stm32n6xx_hal_dma.c ****       {
 2399              		.loc 1 1024 7 view .LVU774
1024:../Drivers/STM32N6xx_HAL_Driver/Src/stm32n6xx_hal_dma.c ****       {
 2400              		.loc 1 1024 15 is_stmt 0 view .LVU775
 2401 00c4 636E     		ldr	r3, [r4, #100]
1024:../Drivers/STM32N6xx_HAL_Driver/Src/stm32n6xx_hal_dma.c ****       {
 2402              		.loc 1 1024 10 view .LVU776
 2403 00c6 0BB1     		cbz	r3, .L118
1027:../Drivers/STM32N6xx_HAL_Driver/Src/stm32n6xx_hal_dma.c ****       }
 2404              		.loc 1 1027 9 is_stmt 1 view .LVU777
 2405 00c8 2046     		mov	r0, r4
 2406              	.LVL78:
1027:../Drivers/STM32N6xx_HAL_Driver/Src/stm32n6xx_hal_dma.c ****       }
 2407              		.loc 1 1027 9 is_stmt 0 view .LVU778
 2408 00ca 9847     		blx	r3
 2409              	.LVL79:
 2410              	.L118:
1033:../Drivers/STM32N6xx_HAL_Driver/Src/stm32n6xx_hal_dma.c ****   {
 2411              		.loc 1 1033 3 is_stmt 1 view .LVU779
1033:../Drivers/STM32N6xx_HAL_Driver/Src/stm32n6xx_hal_dma.c ****   {
 2412              		.loc 1 1033 7 is_stmt 0 view .LVU780
 2413 00cc 2368     		ldr	r3, [r4]
 2414 00ce 1A69     		ldr	r2, [r3, #16]
1033:../Drivers/STM32N6xx_HAL_Driver/Src/stm32n6xx_hal_dma.c ****   {
 2415              		.loc 1 1033 6 view .LVU781
 2416 00d0 12F4005F 		tst	r2, #8192
 2417 00d4 11D0     		beq	.L119
1036:../Drivers/STM32N6xx_HAL_Driver/Src/stm32n6xx_hal_dma.c ****     {
 2418              		.loc 1 1036 5 is_stmt 1 view .LVU782
1036:../Drivers/STM32N6xx_HAL_Driver/Src/stm32n6xx_hal_dma.c ****     {
 2419              		.loc 1 1036 9 is_stmt 0 view .LVU783
 2420 00d6 5A69     		ldr	r2, [r3, #20]
1036:../Drivers/STM32N6xx_HAL_Driver/Src/stm32n6xx_hal_dma.c ****     {
ARM GAS  /tmp/ccRTxeLm.s 			page 86


 2421              		.loc 1 1036 8 view .LVU784
 2422 00d8 12F4005F 		tst	r2, #8192
 2423 00dc 0DD0     		beq	.L119
1039:../Drivers/STM32N6xx_HAL_Driver/Src/stm32n6xx_hal_dma.c **** 
 2424              		.loc 1 1039 7 is_stmt 1 view .LVU785
 2425 00de 4FF40052 		mov	r2, #8192
 2426 00e2 DA60     		str	r2, [r3, #12]
1042:../Drivers/STM32N6xx_HAL_Driver/Src/stm32n6xx_hal_dma.c ****       {
 2427              		.loc 1 1042 7 view .LVU786
1042:../Drivers/STM32N6xx_HAL_Driver/Src/stm32n6xx_hal_dma.c ****       {
 2428              		.loc 1 1042 15 is_stmt 0 view .LVU787
 2429 00e4 94F85430 		ldrb	r3, [r4, #84]	@ zero_extendqisi2
1042:../Drivers/STM32N6xx_HAL_Driver/Src/stm32n6xx_hal_dma.c ****       {
 2430              		.loc 1 1042 10 view .LVU788
 2431 00e8 042B     		cmp	r3, #4
 2432 00ea 1DD0     		beq	.L127
1078:../Drivers/STM32N6xx_HAL_Driver/Src/stm32n6xx_hal_dma.c **** 
 2433              		.loc 1 1078 9 is_stmt 1 view .LVU789
1078:../Drivers/STM32N6xx_HAL_Driver/Src/stm32n6xx_hal_dma.c **** 
 2434              		.loc 1 1078 21 is_stmt 0 view .LVU790
 2435 00ec 0523     		movs	r3, #5
 2436 00ee 84F85430 		strb	r3, [r4, #84]
1081:../Drivers/STM32N6xx_HAL_Driver/Src/stm32n6xx_hal_dma.c ****         {
 2437              		.loc 1 1081 9 is_stmt 1 view .LVU791
1081:../Drivers/STM32N6xx_HAL_Driver/Src/stm32n6xx_hal_dma.c ****         {
 2438              		.loc 1 1081 17 is_stmt 0 view .LVU792
 2439 00f2 236F     		ldr	r3, [r4, #112]
1081:../Drivers/STM32N6xx_HAL_Driver/Src/stm32n6xx_hal_dma.c ****         {
 2440              		.loc 1 1081 12 view .LVU793
 2441 00f4 0BB1     		cbz	r3, .L119
1084:../Drivers/STM32N6xx_HAL_Driver/Src/stm32n6xx_hal_dma.c ****         }
 2442              		.loc 1 1084 11 is_stmt 1 view .LVU794
 2443 00f6 2046     		mov	r0, r4
 2444 00f8 9847     		blx	r3
 2445              	.LVL80:
 2446              	.L119:
1091:../Drivers/STM32N6xx_HAL_Driver/Src/stm32n6xx_hal_dma.c ****   {
 2447              		.loc 1 1091 3 view .LVU795
1091:../Drivers/STM32N6xx_HAL_Driver/Src/stm32n6xx_hal_dma.c ****   {
 2448              		.loc 1 1091 7 is_stmt 0 view .LVU796
 2449 00fa 2368     		ldr	r3, [r4]
 2450 00fc 1A69     		ldr	r2, [r3, #16]
1091:../Drivers/STM32N6xx_HAL_Driver/Src/stm32n6xx_hal_dma.c ****   {
 2451              		.loc 1 1091 6 view .LVU797
 2452 00fe 12F4807F 		tst	r2, #256
 2453 0102 40D0     		beq	.L122
1094:../Drivers/STM32N6xx_HAL_Driver/Src/stm32n6xx_hal_dma.c ****     {
 2454              		.loc 1 1094 5 is_stmt 1 view .LVU798
1094:../Drivers/STM32N6xx_HAL_Driver/Src/stm32n6xx_hal_dma.c ****     {
 2455              		.loc 1 1094 9 is_stmt 0 view .LVU799
 2456 0104 5A69     		ldr	r2, [r3, #20]
1094:../Drivers/STM32N6xx_HAL_Driver/Src/stm32n6xx_hal_dma.c ****     {
 2457              		.loc 1 1094 8 view .LVU800
 2458 0106 12F4807F 		tst	r2, #256
 2459 010a 3CD0     		beq	.L122
1097:../Drivers/STM32N6xx_HAL_Driver/Src/stm32n6xx_hal_dma.c ****       {
 2460              		.loc 1 1097 7 is_stmt 1 view .LVU801
ARM GAS  /tmp/ccRTxeLm.s 			page 87


1097:../Drivers/STM32N6xx_HAL_Driver/Src/stm32n6xx_hal_dma.c ****       {
 2461              		.loc 1 1097 16 is_stmt 0 view .LVU802
 2462 010c 226D     		ldr	r2, [r4, #80]
1097:../Drivers/STM32N6xx_HAL_Driver/Src/stm32n6xx_hal_dma.c ****       {
 2463              		.loc 1 1097 10 view .LVU803
 2464 010e 12F0800F 		tst	r2, #128
 2465 0112 28D0     		beq	.L123
1100:../Drivers/STM32N6xx_HAL_Driver/Src/stm32n6xx_hal_dma.c ****         {
 2466              		.loc 1 1100 9 is_stmt 1 view .LVU804
1100:../Drivers/STM32N6xx_HAL_Driver/Src/stm32n6xx_hal_dma.c ****         {
 2467              		.loc 1 1100 27 is_stmt 0 view .LVU805
 2468 0114 DA6F     		ldr	r2, [r3, #124]
1100:../Drivers/STM32N6xx_HAL_Driver/Src/stm32n6xx_hal_dma.c ****         {
 2469              		.loc 1 1100 12 view .LVU806
 2470 0116 5ABB     		cbnz	r2, .L124
1102:../Drivers/STM32N6xx_HAL_Driver/Src/stm32n6xx_hal_dma.c ****           {
 2471              		.loc 1 1102 11 is_stmt 1 view .LVU807
1102:../Drivers/STM32N6xx_HAL_Driver/Src/stm32n6xx_hal_dma.c ****           {
 2472              		.loc 1 1102 29 is_stmt 0 view .LVU808
 2473 0118 9B6C     		ldr	r3, [r3, #72]
1102:../Drivers/STM32N6xx_HAL_Driver/Src/stm32n6xx_hal_dma.c ****           {
 2474              		.loc 1 1102 14 view .LVU809
 2475 011a 4BBB     		cbnz	r3, .L124
1105:../Drivers/STM32N6xx_HAL_Driver/Src/stm32n6xx_hal_dma.c **** 
 2476              		.loc 1 1105 13 is_stmt 1 view .LVU810
1105:../Drivers/STM32N6xx_HAL_Driver/Src/stm32n6xx_hal_dma.c **** 
 2477              		.loc 1 1105 25 is_stmt 0 view .LVU811
 2478 011c 0123     		movs	r3, #1
1105:../Drivers/STM32N6xx_HAL_Driver/Src/stm32n6xx_hal_dma.c **** 
 2479              		.loc 1 1105 25 view .LVU812
 2480 011e 84F85430 		strb	r3, [r4, #84]
1108:../Drivers/STM32N6xx_HAL_Driver/Src/stm32n6xx_hal_dma.c ****           }
 2481              		.loc 1 1108 13 is_stmt 1 view .LVU813
1108:../Drivers/STM32N6xx_HAL_Driver/Src/stm32n6xx_hal_dma.c ****           }
 2482              		.loc 1 1108 17 is_stmt 0 view .LVU814
 2483 0122 626F     		ldr	r2, [r4, #116]
1108:../Drivers/STM32N6xx_HAL_Driver/Src/stm32n6xx_hal_dma.c ****           }
 2484              		.loc 1 1108 42 view .LVU815
 2485 0124 1373     		strb	r3, [r2, #12]
 2486 0126 23E0     		b	.L124
 2487              	.L127:
1045:../Drivers/STM32N6xx_HAL_Driver/Src/stm32n6xx_hal_dma.c **** 
 2488              		.loc 1 1045 9 is_stmt 1 view .LVU816
 2489 0128 2268     		ldr	r2, [r4]
 2490 012a 5369     		ldr	r3, [r2, #20]
 2491 012c 23F40053 		bic	r3, r3, #8192
 2492 0130 5361     		str	r3, [r2, #20]
1048:../Drivers/STM32N6xx_HAL_Driver/Src/stm32n6xx_hal_dma.c **** 
 2493              		.loc 1 1048 9 view .LVU817
1048:../Drivers/STM32N6xx_HAL_Driver/Src/stm32n6xx_hal_dma.c **** 
 2494              		.loc 1 1048 13 is_stmt 0 view .LVU818
 2495 0132 2268     		ldr	r2, [r4]
1048:../Drivers/STM32N6xx_HAL_Driver/Src/stm32n6xx_hal_dma.c **** 
 2496              		.loc 1 1048 23 view .LVU819
 2497 0134 5369     		ldr	r3, [r2, #20]
1048:../Drivers/STM32N6xx_HAL_Driver/Src/stm32n6xx_hal_dma.c **** 
 2498              		.loc 1 1048 29 view .LVU820
ARM GAS  /tmp/ccRTxeLm.s 			page 88


 2499 0136 43F00203 		orr	r3, r3, #2
 2500 013a 5361     		str	r3, [r2, #20]
1051:../Drivers/STM32N6xx_HAL_Driver/Src/stm32n6xx_hal_dma.c **** 
 2501              		.loc 1 1051 9 is_stmt 1 view .LVU821
1051:../Drivers/STM32N6xx_HAL_Driver/Src/stm32n6xx_hal_dma.c **** 
 2502              		.loc 1 1051 21 is_stmt 0 view .LVU822
 2503 013c 0123     		movs	r3, #1
1051:../Drivers/STM32N6xx_HAL_Driver/Src/stm32n6xx_hal_dma.c **** 
 2504              		.loc 1 1051 21 view .LVU823
 2505 013e 84F85430 		strb	r3, [r4, #84]
1054:../Drivers/STM32N6xx_HAL_Driver/Src/stm32n6xx_hal_dma.c ****         {
 2506              		.loc 1 1054 9 is_stmt 1 view .LVU824
1054:../Drivers/STM32N6xx_HAL_Driver/Src/stm32n6xx_hal_dma.c ****         {
 2507              		.loc 1 1054 18 is_stmt 0 view .LVU825
 2508 0142 236D     		ldr	r3, [r4, #80]
1054:../Drivers/STM32N6xx_HAL_Driver/Src/stm32n6xx_hal_dma.c ****         {
 2509              		.loc 1 1054 12 view .LVU826
 2510 0144 13F0800F 		tst	r3, #128
 2511 0148 05D0     		beq	.L121
1057:../Drivers/STM32N6xx_HAL_Driver/Src/stm32n6xx_hal_dma.c **** 
 2512              		.loc 1 1057 11 is_stmt 1 view .LVU827
1057:../Drivers/STM32N6xx_HAL_Driver/Src/stm32n6xx_hal_dma.c **** 
 2513              		.loc 1 1057 15 is_stmt 0 view .LVU828
 2514 014a 636F     		ldr	r3, [r4, #116]
1057:../Drivers/STM32N6xx_HAL_Driver/Src/stm32n6xx_hal_dma.c **** 
 2515              		.loc 1 1057 40 view .LVU829
 2516 014c 0122     		movs	r2, #1
1057:../Drivers/STM32N6xx_HAL_Driver/Src/stm32n6xx_hal_dma.c **** 
 2517              		.loc 1 1057 40 view .LVU830
 2518 014e 1A73     		strb	r2, [r3, #12]
1060:../Drivers/STM32N6xx_HAL_Driver/Src/stm32n6xx_hal_dma.c ****         }
 2519              		.loc 1 1060 11 is_stmt 1 view .LVU831
1060:../Drivers/STM32N6xx_HAL_Driver/Src/stm32n6xx_hal_dma.c ****         }
 2520              		.loc 1 1060 15 is_stmt 0 view .LVU832
 2521 0150 2368     		ldr	r3, [r4]
1060:../Drivers/STM32N6xx_HAL_Driver/Src/stm32n6xx_hal_dma.c ****         }
 2522              		.loc 1 1060 32 view .LVU833
 2523 0152 0022     		movs	r2, #0
1060:../Drivers/STM32N6xx_HAL_Driver/Src/stm32n6xx_hal_dma.c ****         }
 2524              		.loc 1 1060 32 view .LVU834
 2525 0154 9A64     		str	r2, [r3, #72]
 2526              	.L121:
1064:../Drivers/STM32N6xx_HAL_Driver/Src/stm32n6xx_hal_dma.c **** 
 2527              		.loc 1 1064 9 is_stmt 1 view .LVU835
1064:../Drivers/STM32N6xx_HAL_Driver/Src/stm32n6xx_hal_dma.c **** 
 2528              		.loc 1 1064 9 view .LVU836
 2529 0156 0023     		movs	r3, #0
 2530 0158 84F84C30 		strb	r3, [r4, #76]
1064:../Drivers/STM32N6xx_HAL_Driver/Src/stm32n6xx_hal_dma.c **** 
 2531              		.loc 1 1064 9 view .LVU837
1067:../Drivers/STM32N6xx_HAL_Driver/Src/stm32n6xx_hal_dma.c ****         {
 2532              		.loc 1 1067 9 view .LVU838
1067:../Drivers/STM32N6xx_HAL_Driver/Src/stm32n6xx_hal_dma.c ****         {
 2533              		.loc 1 1067 17 is_stmt 0 view .LVU839
 2534 015c E36E     		ldr	r3, [r4, #108]
1067:../Drivers/STM32N6xx_HAL_Driver/Src/stm32n6xx_hal_dma.c ****         {
 2535              		.loc 1 1067 12 view .LVU840
ARM GAS  /tmp/ccRTxeLm.s 			page 89


 2536 015e 53B3     		cbz	r3, .L111
1070:../Drivers/STM32N6xx_HAL_Driver/Src/stm32n6xx_hal_dma.c ****         }
 2537              		.loc 1 1070 11 is_stmt 1 view .LVU841
 2538 0160 2046     		mov	r0, r4
 2539 0162 9847     		blx	r3
 2540              	.LVL81:
 2541 0164 27E0     		b	.L111
 2542              	.L123:
1115:../Drivers/STM32N6xx_HAL_Driver/Src/stm32n6xx_hal_dma.c ****         {
 2543              		.loc 1 1115 9 view .LVU842
1115:../Drivers/STM32N6xx_HAL_Driver/Src/stm32n6xx_hal_dma.c ****         {
 2544              		.loc 1 1115 27 is_stmt 0 view .LVU843
 2545 0166 9B6C     		ldr	r3, [r3, #72]
1115:../Drivers/STM32N6xx_HAL_Driver/Src/stm32n6xx_hal_dma.c ****         {
 2546              		.loc 1 1115 12 view .LVU844
 2547 0168 13B9     		cbnz	r3, .L124
1118:../Drivers/STM32N6xx_HAL_Driver/Src/stm32n6xx_hal_dma.c ****         }
 2548              		.loc 1 1118 11 is_stmt 1 view .LVU845
1118:../Drivers/STM32N6xx_HAL_Driver/Src/stm32n6xx_hal_dma.c ****         }
 2549              		.loc 1 1118 23 is_stmt 0 view .LVU846
 2550 016a 0123     		movs	r3, #1
1118:../Drivers/STM32N6xx_HAL_Driver/Src/stm32n6xx_hal_dma.c ****         }
 2551              		.loc 1 1118 23 view .LVU847
 2552 016c 84F85430 		strb	r3, [r4, #84]
 2553              	.L124:
1123:../Drivers/STM32N6xx_HAL_Driver/Src/stm32n6xx_hal_dma.c **** 
 2554              		.loc 1 1123 7 is_stmt 1 view .LVU848
 2555 0170 2368     		ldr	r3, [r4]
 2556 0172 4FF44072 		mov	r2, #768
 2557 0176 DA60     		str	r2, [r3, #12]
1126:../Drivers/STM32N6xx_HAL_Driver/Src/stm32n6xx_hal_dma.c **** 
 2558              		.loc 1 1126 7 view .LVU849
1126:../Drivers/STM32N6xx_HAL_Driver/Src/stm32n6xx_hal_dma.c **** 
 2559              		.loc 1 1126 7 view .LVU850
 2560 0178 0023     		movs	r3, #0
 2561 017a 84F84C30 		strb	r3, [r4, #76]
1126:../Drivers/STM32N6xx_HAL_Driver/Src/stm32n6xx_hal_dma.c **** 
 2562              		.loc 1 1126 7 view .LVU851
1129:../Drivers/STM32N6xx_HAL_Driver/Src/stm32n6xx_hal_dma.c ****       {
 2563              		.loc 1 1129 7 view .LVU852
1129:../Drivers/STM32N6xx_HAL_Driver/Src/stm32n6xx_hal_dma.c ****       {
 2564              		.loc 1 1129 15 is_stmt 0 view .LVU853
 2565 017e 236E     		ldr	r3, [r4, #96]
1129:../Drivers/STM32N6xx_HAL_Driver/Src/stm32n6xx_hal_dma.c ****       {
 2566              		.loc 1 1129 10 view .LVU854
 2567 0180 0BB1     		cbz	r3, .L122
1132:../Drivers/STM32N6xx_HAL_Driver/Src/stm32n6xx_hal_dma.c ****       }
 2568              		.loc 1 1132 9 is_stmt 1 view .LVU855
 2569 0182 2046     		mov	r0, r4
 2570 0184 9847     		blx	r3
 2571              	.LVL82:
 2572              	.L122:
1138:../Drivers/STM32N6xx_HAL_Driver/Src/stm32n6xx_hal_dma.c ****   {
 2573              		.loc 1 1138 3 view .LVU856
1138:../Drivers/STM32N6xx_HAL_Driver/Src/stm32n6xx_hal_dma.c ****   {
 2574              		.loc 1 1138 11 is_stmt 0 view .LVU857
 2575 0186 A36D     		ldr	r3, [r4, #88]
ARM GAS  /tmp/ccRTxeLm.s 			page 90


1138:../Drivers/STM32N6xx_HAL_Driver/Src/stm32n6xx_hal_dma.c ****   {
 2576              		.loc 1 1138 6 view .LVU858
 2577 0188 ABB1     		cbz	r3, .L111
1141:../Drivers/STM32N6xx_HAL_Driver/Src/stm32n6xx_hal_dma.c **** 
 2578              		.loc 1 1141 5 is_stmt 1 view .LVU859
1141:../Drivers/STM32N6xx_HAL_Driver/Src/stm32n6xx_hal_dma.c **** 
 2579              		.loc 1 1141 9 is_stmt 0 view .LVU860
 2580 018a 2268     		ldr	r2, [r4]
1141:../Drivers/STM32N6xx_HAL_Driver/Src/stm32n6xx_hal_dma.c **** 
 2581              		.loc 1 1141 19 view .LVU861
 2582 018c 5369     		ldr	r3, [r2, #20]
1141:../Drivers/STM32N6xx_HAL_Driver/Src/stm32n6xx_hal_dma.c **** 
 2583              		.loc 1 1141 25 view .LVU862
 2584 018e 43F00203 		orr	r3, r3, #2
 2585 0192 5361     		str	r3, [r2, #20]
1144:../Drivers/STM32N6xx_HAL_Driver/Src/stm32n6xx_hal_dma.c **** 
 2586              		.loc 1 1144 5 is_stmt 1 view .LVU863
1144:../Drivers/STM32N6xx_HAL_Driver/Src/stm32n6xx_hal_dma.c **** 
 2587              		.loc 1 1144 17 is_stmt 0 view .LVU864
 2588 0194 0123     		movs	r3, #1
1144:../Drivers/STM32N6xx_HAL_Driver/Src/stm32n6xx_hal_dma.c **** 
 2589              		.loc 1 1144 17 view .LVU865
 2590 0196 84F85430 		strb	r3, [r4, #84]
1147:../Drivers/STM32N6xx_HAL_Driver/Src/stm32n6xx_hal_dma.c ****     {
 2591              		.loc 1 1147 5 is_stmt 1 view .LVU866
1147:../Drivers/STM32N6xx_HAL_Driver/Src/stm32n6xx_hal_dma.c ****     {
 2592              		.loc 1 1147 14 is_stmt 0 view .LVU867
 2593 019a 236D     		ldr	r3, [r4, #80]
1147:../Drivers/STM32N6xx_HAL_Driver/Src/stm32n6xx_hal_dma.c ****     {
 2594              		.loc 1 1147 8 view .LVU868
 2595 019c 13F0800F 		tst	r3, #128
 2596 01a0 02D0     		beq	.L125
1150:../Drivers/STM32N6xx_HAL_Driver/Src/stm32n6xx_hal_dma.c ****     }
 2597              		.loc 1 1150 7 is_stmt 1 view .LVU869
1150:../Drivers/STM32N6xx_HAL_Driver/Src/stm32n6xx_hal_dma.c ****     }
 2598              		.loc 1 1150 11 is_stmt 0 view .LVU870
 2599 01a2 636F     		ldr	r3, [r4, #116]
1150:../Drivers/STM32N6xx_HAL_Driver/Src/stm32n6xx_hal_dma.c ****     }
 2600              		.loc 1 1150 36 view .LVU871
 2601 01a4 0122     		movs	r2, #1
1150:../Drivers/STM32N6xx_HAL_Driver/Src/stm32n6xx_hal_dma.c ****     }
 2602              		.loc 1 1150 36 view .LVU872
 2603 01a6 1A73     		strb	r2, [r3, #12]
 2604              	.L125:
1154:../Drivers/STM32N6xx_HAL_Driver/Src/stm32n6xx_hal_dma.c **** 
 2605              		.loc 1 1154 5 is_stmt 1 view .LVU873
1154:../Drivers/STM32N6xx_HAL_Driver/Src/stm32n6xx_hal_dma.c **** 
 2606              		.loc 1 1154 5 view .LVU874
 2607 01a8 0023     		movs	r3, #0
 2608 01aa 84F84C30 		strb	r3, [r4, #76]
1154:../Drivers/STM32N6xx_HAL_Driver/Src/stm32n6xx_hal_dma.c **** 
 2609              		.loc 1 1154 5 view .LVU875
1157:../Drivers/STM32N6xx_HAL_Driver/Src/stm32n6xx_hal_dma.c ****     {
 2610              		.loc 1 1157 5 view .LVU876
1157:../Drivers/STM32N6xx_HAL_Driver/Src/stm32n6xx_hal_dma.c ****     {
 2611              		.loc 1 1157 13 is_stmt 0 view .LVU877
 2612 01ae A36E     		ldr	r3, [r4, #104]
ARM GAS  /tmp/ccRTxeLm.s 			page 91


1157:../Drivers/STM32N6xx_HAL_Driver/Src/stm32n6xx_hal_dma.c ****     {
 2613              		.loc 1 1157 8 view .LVU878
 2614 01b0 0BB1     		cbz	r3, .L111
1160:../Drivers/STM32N6xx_HAL_Driver/Src/stm32n6xx_hal_dma.c ****     }
 2615              		.loc 1 1160 7 is_stmt 1 view .LVU879
 2616 01b2 2046     		mov	r0, r4
 2617 01b4 9847     		blx	r3
 2618              	.LVL83:
 2619              	.L111:
1163:../Drivers/STM32N6xx_HAL_Driver/Src/stm32n6xx_hal_dma.c **** 
 2620              		.loc 1 1163 1 is_stmt 0 view .LVU880
 2621 01b6 10BD     		pop	{r4, pc}
1163:../Drivers/STM32N6xx_HAL_Driver/Src/stm32n6xx_hal_dma.c **** 
 2622              		.loc 1 1163 1 view .LVU881
 2623              		.cfi_endproc
 2624              	.LFE888:
 2626              		.section	.text.HAL_DMA_RegisterCallback,"ax",%progbits
 2627              		.align	1
 2628              		.global	HAL_DMA_RegisterCallback
 2629              		.syntax unified
 2630              		.thumb
 2631              		.thumb_func
 2633              	HAL_DMA_RegisterCallback:
 2634              	.LVL84:
 2635              	.LFB889:
1178:../Drivers/STM32N6xx_HAL_Driver/Src/stm32n6xx_hal_dma.c ****   HAL_StatusTypeDef status = HAL_OK;
 2636              		.loc 1 1178 1 is_stmt 1 view -0
 2637              		.cfi_startproc
 2638              		@ args = 0, pretend = 0, frame = 0
 2639              		@ frame_needed = 0, uses_anonymous_args = 0
 2640              		@ link register save eliminated.
1179:../Drivers/STM32N6xx_HAL_Driver/Src/stm32n6xx_hal_dma.c **** 
 2641              		.loc 1 1179 3 view .LVU883
1182:../Drivers/STM32N6xx_HAL_Driver/Src/stm32n6xx_hal_dma.c ****   {
 2642              		.loc 1 1182 3 view .LVU884
1182:../Drivers/STM32N6xx_HAL_Driver/Src/stm32n6xx_hal_dma.c ****   {
 2643              		.loc 1 1182 6 is_stmt 0 view .LVU885
 2644 0000 0346     		mov	r3, r0
 2645 0002 18B1     		cbz	r0, .L129
1188:../Drivers/STM32N6xx_HAL_Driver/Src/stm32n6xx_hal_dma.c ****   {
 2646              		.loc 1 1188 3 is_stmt 1 view .LVU886
1188:../Drivers/STM32N6xx_HAL_Driver/Src/stm32n6xx_hal_dma.c ****   {
 2647              		.loc 1 1188 11 is_stmt 0 view .LVU887
 2648 0004 90F85400 		ldrb	r0, [r0, #84]	@ zero_extendqisi2
 2649              	.LVL85:
1188:../Drivers/STM32N6xx_HAL_Driver/Src/stm32n6xx_hal_dma.c ****   {
 2650              		.loc 1 1188 6 view .LVU888
 2651 0008 0128     		cmp	r0, #1
 2652 000a 01D0     		beq	.L139
 2653              	.L129:
1184:../Drivers/STM32N6xx_HAL_Driver/Src/stm32n6xx_hal_dma.c ****   }
 2654              		.loc 1 1184 12 view .LVU889
 2655 000c 0120     		movs	r0, #1
 2656              	.L130:
 2657              	.LVL86:
1243:../Drivers/STM32N6xx_HAL_Driver/Src/stm32n6xx_hal_dma.c **** 
 2658              		.loc 1 1243 1 view .LVU890
ARM GAS  /tmp/ccRTxeLm.s 			page 92


 2659 000e 7047     		bx	lr
 2660              	.LVL87:
 2661              	.L139:
1191:../Drivers/STM32N6xx_HAL_Driver/Src/stm32n6xx_hal_dma.c ****     {
 2662              		.loc 1 1191 5 is_stmt 1 view .LVU891
 2663 0010 0429     		cmp	r1, #4
 2664 0012 FCD8     		bhi	.L130
 2665 0014 DFE801F0 		tbb	[pc, r1]
 2666              	.L132:
 2667 0018 03       		.byte	(.L136-.L132)/2
 2668 0019 06       		.byte	(.L135-.L132)/2
 2669 001a 09       		.byte	(.L134-.L132)/2
 2670 001b 0B       		.byte	(.L133-.L132)/2
 2671 001c 0D       		.byte	(.L131-.L132)/2
 2672 001d 00       		.p2align 1
 2673              	.L136:
1196:../Drivers/STM32N6xx_HAL_Driver/Src/stm32n6xx_hal_dma.c ****         break;
 2674              		.loc 1 1196 9 view .LVU892
1196:../Drivers/STM32N6xx_HAL_Driver/Src/stm32n6xx_hal_dma.c ****         break;
 2675              		.loc 1 1196 32 is_stmt 0 view .LVU893
 2676 001e 1A66     		str	r2, [r3, #96]
1197:../Drivers/STM32N6xx_HAL_Driver/Src/stm32n6xx_hal_dma.c ****       }
 2677              		.loc 1 1197 9 is_stmt 1 view .LVU894
1179:../Drivers/STM32N6xx_HAL_Driver/Src/stm32n6xx_hal_dma.c **** 
 2678              		.loc 1 1179 21 is_stmt 0 view .LVU895
 2679 0020 0846     		mov	r0, r1
1197:../Drivers/STM32N6xx_HAL_Driver/Src/stm32n6xx_hal_dma.c ****       }
 2680              		.loc 1 1197 9 view .LVU896
 2681 0022 7047     		bx	lr
 2682              	.L135:
1203:../Drivers/STM32N6xx_HAL_Driver/Src/stm32n6xx_hal_dma.c ****         break;
 2683              		.loc 1 1203 9 is_stmt 1 view .LVU897
1203:../Drivers/STM32N6xx_HAL_Driver/Src/stm32n6xx_hal_dma.c ****         break;
 2684              		.loc 1 1203 36 is_stmt 0 view .LVU898
 2685 0024 5A66     		str	r2, [r3, #100]
1204:../Drivers/STM32N6xx_HAL_Driver/Src/stm32n6xx_hal_dma.c ****       }
 2686              		.loc 1 1204 9 is_stmt 1 view .LVU899
 2687              	.L137:
1179:../Drivers/STM32N6xx_HAL_Driver/Src/stm32n6xx_hal_dma.c **** 
 2688              		.loc 1 1179 21 is_stmt 0 view .LVU900
 2689 0026 0020     		movs	r0, #0
 2690 0028 7047     		bx	lr
 2691              	.L134:
1210:../Drivers/STM32N6xx_HAL_Driver/Src/stm32n6xx_hal_dma.c ****         break;
 2692              		.loc 1 1210 9 is_stmt 1 view .LVU901
1210:../Drivers/STM32N6xx_HAL_Driver/Src/stm32n6xx_hal_dma.c ****         break;
 2693              		.loc 1 1210 33 is_stmt 0 view .LVU902
 2694 002a 9A66     		str	r2, [r3, #104]
1211:../Drivers/STM32N6xx_HAL_Driver/Src/stm32n6xx_hal_dma.c ****       }
 2695              		.loc 1 1211 9 is_stmt 1 view .LVU903
 2696 002c FBE7     		b	.L137
 2697              	.L133:
1217:../Drivers/STM32N6xx_HAL_Driver/Src/stm32n6xx_hal_dma.c ****         break;
 2698              		.loc 1 1217 9 view .LVU904
1217:../Drivers/STM32N6xx_HAL_Driver/Src/stm32n6xx_hal_dma.c ****         break;
 2699              		.loc 1 1217 33 is_stmt 0 view .LVU905
 2700 002e DA66     		str	r2, [r3, #108]
ARM GAS  /tmp/ccRTxeLm.s 			page 93


1218:../Drivers/STM32N6xx_HAL_Driver/Src/stm32n6xx_hal_dma.c ****       }
 2701              		.loc 1 1218 9 is_stmt 1 view .LVU906
 2702 0030 F9E7     		b	.L137
 2703              	.L131:
1224:../Drivers/STM32N6xx_HAL_Driver/Src/stm32n6xx_hal_dma.c ****         break;
 2704              		.loc 1 1224 9 view .LVU907
1224:../Drivers/STM32N6xx_HAL_Driver/Src/stm32n6xx_hal_dma.c ****         break;
 2705              		.loc 1 1224 35 is_stmt 0 view .LVU908
 2706 0032 1A67     		str	r2, [r3, #112]
1225:../Drivers/STM32N6xx_HAL_Driver/Src/stm32n6xx_hal_dma.c ****       }
 2707              		.loc 1 1225 9 is_stmt 1 view .LVU909
 2708 0034 F7E7     		b	.L137
 2709              		.cfi_endproc
 2710              	.LFE889:
 2712              		.section	.text.HAL_DMA_UnRegisterCallback,"ax",%progbits
 2713              		.align	1
 2714              		.global	HAL_DMA_UnRegisterCallback
 2715              		.syntax unified
 2716              		.thumb
 2717              		.thumb_func
 2719              	HAL_DMA_UnRegisterCallback:
 2720              	.LVL88:
 2721              	.LFB890:
1256:../Drivers/STM32N6xx_HAL_Driver/Src/stm32n6xx_hal_dma.c ****   HAL_StatusTypeDef status = HAL_OK;
 2722              		.loc 1 1256 1 view -0
 2723              		.cfi_startproc
 2724              		@ args = 0, pretend = 0, frame = 0
 2725              		@ frame_needed = 0, uses_anonymous_args = 0
 2726              		@ link register save eliminated.
1257:../Drivers/STM32N6xx_HAL_Driver/Src/stm32n6xx_hal_dma.c **** 
 2727              		.loc 1 1257 3 view .LVU911
1260:../Drivers/STM32N6xx_HAL_Driver/Src/stm32n6xx_hal_dma.c ****   {
 2728              		.loc 1 1260 3 view .LVU912
1260:../Drivers/STM32N6xx_HAL_Driver/Src/stm32n6xx_hal_dma.c ****   {
 2729              		.loc 1 1260 6 is_stmt 0 view .LVU913
 2730 0000 0346     		mov	r3, r0
 2731 0002 18B1     		cbz	r0, .L141
1266:../Drivers/STM32N6xx_HAL_Driver/Src/stm32n6xx_hal_dma.c ****   {
 2732              		.loc 1 1266 3 is_stmt 1 view .LVU914
1266:../Drivers/STM32N6xx_HAL_Driver/Src/stm32n6xx_hal_dma.c ****   {
 2733              		.loc 1 1266 11 is_stmt 0 view .LVU915
 2734 0004 90F85400 		ldrb	r0, [r0, #84]	@ zero_extendqisi2
 2735              	.LVL89:
1266:../Drivers/STM32N6xx_HAL_Driver/Src/stm32n6xx_hal_dma.c ****   {
 2736              		.loc 1 1266 6 view .LVU916
 2737 0008 0128     		cmp	r0, #1
 2738 000a 01D0     		beq	.L152
 2739              	.L141:
1262:../Drivers/STM32N6xx_HAL_Driver/Src/stm32n6xx_hal_dma.c ****   }
 2740              		.loc 1 1262 12 view .LVU917
 2741 000c 0120     		movs	r0, #1
 2742              	.L142:
 2743              	.LVL90:
1332:../Drivers/STM32N6xx_HAL_Driver/Src/stm32n6xx_hal_dma.c **** /**
 2744              		.loc 1 1332 1 view .LVU918
 2745 000e 7047     		bx	lr
 2746              	.LVL91:
ARM GAS  /tmp/ccRTxeLm.s 			page 94


 2747              	.L152:
1269:../Drivers/STM32N6xx_HAL_Driver/Src/stm32n6xx_hal_dma.c ****     {
 2748              		.loc 1 1269 5 is_stmt 1 view .LVU919
 2749 0010 0529     		cmp	r1, #5
 2750 0012 FCD8     		bhi	.L142
 2751 0014 DFE801F0 		tbb	[pc, r1]
 2752              	.L144:
 2753 0018 03       		.byte	(.L149-.L144)/2
 2754 0019 07       		.byte	(.L148-.L144)/2
 2755 001a 0B       		.byte	(.L147-.L144)/2
 2756 001b 0E       		.byte	(.L146-.L144)/2
 2757 001c 11       		.byte	(.L145-.L144)/2
 2758 001d 14       		.byte	(.L143-.L144)/2
 2759              		.p2align 1
 2760              	.L149:
1274:../Drivers/STM32N6xx_HAL_Driver/Src/stm32n6xx_hal_dma.c ****         break;
 2761              		.loc 1 1274 9 view .LVU920
1274:../Drivers/STM32N6xx_HAL_Driver/Src/stm32n6xx_hal_dma.c ****         break;
 2762              		.loc 1 1274 32 is_stmt 0 view .LVU921
 2763 001e 0022     		movs	r2, #0
 2764 0020 1A66     		str	r2, [r3, #96]
1275:../Drivers/STM32N6xx_HAL_Driver/Src/stm32n6xx_hal_dma.c ****       }
 2765              		.loc 1 1275 9 is_stmt 1 view .LVU922
1257:../Drivers/STM32N6xx_HAL_Driver/Src/stm32n6xx_hal_dma.c **** 
 2766              		.loc 1 1257 21 is_stmt 0 view .LVU923
 2767 0022 0846     		mov	r0, r1
1275:../Drivers/STM32N6xx_HAL_Driver/Src/stm32n6xx_hal_dma.c ****       }
 2768              		.loc 1 1275 9 view .LVU924
 2769 0024 7047     		bx	lr
 2770              	.L148:
1281:../Drivers/STM32N6xx_HAL_Driver/Src/stm32n6xx_hal_dma.c ****         break;
 2771              		.loc 1 1281 9 is_stmt 1 view .LVU925
1281:../Drivers/STM32N6xx_HAL_Driver/Src/stm32n6xx_hal_dma.c ****         break;
 2772              		.loc 1 1281 36 is_stmt 0 view .LVU926
 2773 0026 0022     		movs	r2, #0
 2774 0028 5A66     		str	r2, [r3, #100]
1282:../Drivers/STM32N6xx_HAL_Driver/Src/stm32n6xx_hal_dma.c ****       }
 2775              		.loc 1 1282 9 is_stmt 1 view .LVU927
 2776              	.L150:
1257:../Drivers/STM32N6xx_HAL_Driver/Src/stm32n6xx_hal_dma.c **** 
 2777              		.loc 1 1257 21 is_stmt 0 view .LVU928
 2778 002a 0020     		movs	r0, #0
 2779 002c 7047     		bx	lr
 2780              	.L147:
1288:../Drivers/STM32N6xx_HAL_Driver/Src/stm32n6xx_hal_dma.c ****         break;
 2781              		.loc 1 1288 9 is_stmt 1 view .LVU929
1288:../Drivers/STM32N6xx_HAL_Driver/Src/stm32n6xx_hal_dma.c ****         break;
 2782              		.loc 1 1288 33 is_stmt 0 view .LVU930
 2783 002e 0022     		movs	r2, #0
 2784 0030 9A66     		str	r2, [r3, #104]
1289:../Drivers/STM32N6xx_HAL_Driver/Src/stm32n6xx_hal_dma.c ****       }
 2785              		.loc 1 1289 9 is_stmt 1 view .LVU931
 2786 0032 FAE7     		b	.L150
 2787              	.L146:
1295:../Drivers/STM32N6xx_HAL_Driver/Src/stm32n6xx_hal_dma.c ****         break;
 2788              		.loc 1 1295 9 view .LVU932
1295:../Drivers/STM32N6xx_HAL_Driver/Src/stm32n6xx_hal_dma.c ****         break;
ARM GAS  /tmp/ccRTxeLm.s 			page 95


 2789              		.loc 1 1295 33 is_stmt 0 view .LVU933
 2790 0034 0022     		movs	r2, #0
 2791 0036 DA66     		str	r2, [r3, #108]
1296:../Drivers/STM32N6xx_HAL_Driver/Src/stm32n6xx_hal_dma.c ****       }
 2792              		.loc 1 1296 9 is_stmt 1 view .LVU934
 2793 0038 F7E7     		b	.L150
 2794              	.L145:
1302:../Drivers/STM32N6xx_HAL_Driver/Src/stm32n6xx_hal_dma.c ****         break;
 2795              		.loc 1 1302 9 view .LVU935
1302:../Drivers/STM32N6xx_HAL_Driver/Src/stm32n6xx_hal_dma.c ****         break;
 2796              		.loc 1 1302 35 is_stmt 0 view .LVU936
 2797 003a 0022     		movs	r2, #0
 2798 003c 1A67     		str	r2, [r3, #112]
1303:../Drivers/STM32N6xx_HAL_Driver/Src/stm32n6xx_hal_dma.c ****       }
 2799              		.loc 1 1303 9 is_stmt 1 view .LVU937
 2800 003e F4E7     		b	.L150
 2801              	.L143:
1309:../Drivers/STM32N6xx_HAL_Driver/Src/stm32n6xx_hal_dma.c ****         hdma->XferHalfCpltCallback = NULL;
 2802              		.loc 1 1309 9 view .LVU938
1309:../Drivers/STM32N6xx_HAL_Driver/Src/stm32n6xx_hal_dma.c ****         hdma->XferHalfCpltCallback = NULL;
 2803              		.loc 1 1309 36 is_stmt 0 view .LVU939
 2804 0040 0022     		movs	r2, #0
 2805 0042 1A66     		str	r2, [r3, #96]
1310:../Drivers/STM32N6xx_HAL_Driver/Src/stm32n6xx_hal_dma.c ****         hdma->XferErrorCallback    = NULL;
 2806              		.loc 1 1310 9 is_stmt 1 view .LVU940
1310:../Drivers/STM32N6xx_HAL_Driver/Src/stm32n6xx_hal_dma.c ****         hdma->XferErrorCallback    = NULL;
 2807              		.loc 1 1310 36 is_stmt 0 view .LVU941
 2808 0044 5A66     		str	r2, [r3, #100]
1311:../Drivers/STM32N6xx_HAL_Driver/Src/stm32n6xx_hal_dma.c ****         hdma->XferAbortCallback    = NULL;
 2809              		.loc 1 1311 9 is_stmt 1 view .LVU942
1311:../Drivers/STM32N6xx_HAL_Driver/Src/stm32n6xx_hal_dma.c ****         hdma->XferAbortCallback    = NULL;
 2810              		.loc 1 1311 36 is_stmt 0 view .LVU943
 2811 0046 9A66     		str	r2, [r3, #104]
1312:../Drivers/STM32N6xx_HAL_Driver/Src/stm32n6xx_hal_dma.c ****         hdma->XferSuspendCallback  = NULL;
 2812              		.loc 1 1312 9 is_stmt 1 view .LVU944
1312:../Drivers/STM32N6xx_HAL_Driver/Src/stm32n6xx_hal_dma.c ****         hdma->XferSuspendCallback  = NULL;
 2813              		.loc 1 1312 36 is_stmt 0 view .LVU945
 2814 0048 DA66     		str	r2, [r3, #108]
1313:../Drivers/STM32N6xx_HAL_Driver/Src/stm32n6xx_hal_dma.c ****         break;
 2815              		.loc 1 1313 9 is_stmt 1 view .LVU946
1313:../Drivers/STM32N6xx_HAL_Driver/Src/stm32n6xx_hal_dma.c ****         break;
 2816              		.loc 1 1313 36 is_stmt 0 view .LVU947
 2817 004a 1A67     		str	r2, [r3, #112]
1314:../Drivers/STM32N6xx_HAL_Driver/Src/stm32n6xx_hal_dma.c ****       }
 2818              		.loc 1 1314 9 is_stmt 1 view .LVU948
 2819 004c EDE7     		b	.L150
 2820              		.cfi_endproc
 2821              	.LFE890:
 2823              		.section	.text.HAL_DMA_GetState,"ax",%progbits
 2824              		.align	1
 2825              		.global	HAL_DMA_GetState
 2826              		.syntax unified
 2827              		.thumb
 2828              		.thumb_func
 2830              	HAL_DMA_GetState:
 2831              	.LVL92:
 2832              	.LFB891:
ARM GAS  /tmp/ccRTxeLm.s 			page 96


1363:../Drivers/STM32N6xx_HAL_Driver/Src/stm32n6xx_hal_dma.c ****   /* Return the DMA channel state */
 2833              		.loc 1 1363 1 view -0
 2834              		.cfi_startproc
 2835              		@ args = 0, pretend = 0, frame = 0
 2836              		@ frame_needed = 0, uses_anonymous_args = 0
 2837              		@ link register save eliminated.
1365:../Drivers/STM32N6xx_HAL_Driver/Src/stm32n6xx_hal_dma.c **** }
 2838              		.loc 1 1365 3 view .LVU950
1366:../Drivers/STM32N6xx_HAL_Driver/Src/stm32n6xx_hal_dma.c **** 
 2839              		.loc 1 1366 1 is_stmt 0 view .LVU951
 2840 0000 90F85400 		ldrb	r0, [r0, #84]	@ zero_extendqisi2
 2841              	.LVL93:
1366:../Drivers/STM32N6xx_HAL_Driver/Src/stm32n6xx_hal_dma.c **** 
 2842              		.loc 1 1366 1 view .LVU952
 2843 0004 7047     		bx	lr
 2844              		.cfi_endproc
 2845              	.LFE891:
 2847              		.section	.text.HAL_DMA_GetError,"ax",%progbits
 2848              		.align	1
 2849              		.global	HAL_DMA_GetError
 2850              		.syntax unified
 2851              		.thumb
 2852              		.thumb_func
 2854              	HAL_DMA_GetError:
 2855              	.LVL94:
 2856              	.LFB892:
1375:../Drivers/STM32N6xx_HAL_Driver/Src/stm32n6xx_hal_dma.c ****   /* Return the DMA channel error code */
 2857              		.loc 1 1375 1 is_stmt 1 view -0
 2858              		.cfi_startproc
 2859              		@ args = 0, pretend = 0, frame = 0
 2860              		@ frame_needed = 0, uses_anonymous_args = 0
 2861              		@ link register save eliminated.
1377:../Drivers/STM32N6xx_HAL_Driver/Src/stm32n6xx_hal_dma.c **** }
 2862              		.loc 1 1377 3 view .LVU954
1378:../Drivers/STM32N6xx_HAL_Driver/Src/stm32n6xx_hal_dma.c **** /**
 2863              		.loc 1 1378 1 is_stmt 0 view .LVU955
 2864 0000 806D     		ldr	r0, [r0, #88]
 2865              	.LVL95:
1378:../Drivers/STM32N6xx_HAL_Driver/Src/stm32n6xx_hal_dma.c **** /**
 2866              		.loc 1 1378 1 view .LVU956
 2867 0002 7047     		bx	lr
 2868              		.cfi_endproc
 2869              	.LFE892:
 2871              		.section	.text.HAL_DMA_ConfigChannelAttributes,"ax",%progbits
 2872              		.align	1
 2873              		.global	HAL_DMA_ConfigChannelAttributes
 2874              		.syntax unified
 2875              		.thumb
 2876              		.thumb_func
 2878              	HAL_DMA_ConfigChannelAttributes:
 2879              	.LVL96:
 2880              	.LFB893:
1419:../Drivers/STM32N6xx_HAL_Driver/Src/stm32n6xx_hal_dma.c ****   DMA_TypeDef *p_dma_instance;
 2881              		.loc 1 1419 1 is_stmt 1 view -0
 2882              		.cfi_startproc
 2883              		@ args = 0, pretend = 0, frame = 0
 2884              		@ frame_needed = 0, uses_anonymous_args = 0
ARM GAS  /tmp/ccRTxeLm.s 			page 97


 2885              		@ link register save eliminated.
1420:../Drivers/STM32N6xx_HAL_Driver/Src/stm32n6xx_hal_dma.c ****   uint32_t channel_idx;
 2886              		.loc 1 1420 3 view .LVU958
1421:../Drivers/STM32N6xx_HAL_Driver/Src/stm32n6xx_hal_dma.c **** 
 2887              		.loc 1 1421 3 view .LVU959
1424:../Drivers/STM32N6xx_HAL_Driver/Src/stm32n6xx_hal_dma.c ****   {
 2888              		.loc 1 1424 3 view .LVU960
1424:../Drivers/STM32N6xx_HAL_Driver/Src/stm32n6xx_hal_dma.c ****   {
 2889              		.loc 1 1424 6 is_stmt 0 view .LVU961
 2890 0000 8446     		mov	ip, r0
 2891 0002 0028     		cmp	r0, #0
 2892 0004 53D0     		beq	.L165
1430:../Drivers/STM32N6xx_HAL_Driver/Src/stm32n6xx_hal_dma.c **** 
 2893              		.loc 1 1430 3 is_stmt 1 view .LVU962
1433:../Drivers/STM32N6xx_HAL_Driver/Src/stm32n6xx_hal_dma.c **** 
 2894              		.loc 1 1433 3 view .LVU963
1433:../Drivers/STM32N6xx_HAL_Driver/Src/stm32n6xx_hal_dma.c **** 
 2895              		.loc 1 1433 20 is_stmt 0 view .LVU964
 2896 0006 0368     		ldr	r3, [r0]
 2897 0008 23F47F60 		bic	r0, r3, #4080
 2898              	.LVL97:
1433:../Drivers/STM32N6xx_HAL_Driver/Src/stm32n6xx_hal_dma.c **** 
 2899              		.loc 1 1433 20 view .LVU965
 2900 000c 20F00F00 		bic	r0, r0, #15
 2901              	.LVL98:
1436:../Drivers/STM32N6xx_HAL_Driver/Src/stm32n6xx_hal_dma.c **** 
 2902              		.loc 1 1436 3 is_stmt 1 view .LVU966
1436:../Drivers/STM32N6xx_HAL_Driver/Src/stm32n6xx_hal_dma.c **** 
 2903              		.loc 1 1436 25 is_stmt 0 view .LVU967
 2904 0010 C3F30B03 		ubfx	r3, r3, #0, #12
 2905 0014 503B     		subs	r3, r3, #80
1436:../Drivers/STM32N6xx_HAL_Driver/Src/stm32n6xx_hal_dma.c **** 
 2906              		.loc 1 1436 47 view .LVU968
 2907 0016 C3F3C413 		ubfx	r3, r3, #7, #5
1436:../Drivers/STM32N6xx_HAL_Driver/Src/stm32n6xx_hal_dma.c **** 
 2908              		.loc 1 1436 15 view .LVU969
 2909 001a 0122     		movs	r2, #1
 2910 001c 9A40     		lsls	r2, r2, r3
 2911              	.LVL99:
1439:../Drivers/STM32N6xx_HAL_Driver/Src/stm32n6xx_hal_dma.c ****   {
 2912              		.loc 1 1439 3 is_stmt 1 view .LVU970
1439:../Drivers/STM32N6xx_HAL_Driver/Src/stm32n6xx_hal_dma.c ****   {
 2913              		.loc 1 1439 6 is_stmt 0 view .LVU971
 2914 001e 11F0100F 		tst	r1, #16
 2915 0022 07D0     		beq	.L157
1442:../Drivers/STM32N6xx_HAL_Driver/Src/stm32n6xx_hal_dma.c ****     {
 2916              		.loc 1 1442 5 is_stmt 1 view .LVU972
1442:../Drivers/STM32N6xx_HAL_Driver/Src/stm32n6xx_hal_dma.c ****     {
 2917              		.loc 1 1442 28 is_stmt 0 view .LVU973
 2918 0024 01F01103 		and	r3, r1, #17
1442:../Drivers/STM32N6xx_HAL_Driver/Src/stm32n6xx_hal_dma.c ****     {
 2919              		.loc 1 1442 8 view .LVU974
 2920 0028 112B     		cmp	r3, #17
 2921 002a 2AD0     		beq	.L166
1448:../Drivers/STM32N6xx_HAL_Driver/Src/stm32n6xx_hal_dma.c ****     }
 2922              		.loc 1 1448 7 is_stmt 1 view .LVU975
1448:../Drivers/STM32N6xx_HAL_Driver/Src/stm32n6xx_hal_dma.c ****     }
ARM GAS  /tmp/ccRTxeLm.s 			page 98


 2923              		.loc 1 1448 21 is_stmt 0 view .LVU976
 2924 002c 4368     		ldr	r3, [r0, #4]
1448:../Drivers/STM32N6xx_HAL_Driver/Src/stm32n6xx_hal_dma.c ****     }
 2925              		.loc 1 1448 32 view .LVU977
 2926 002e 23EA0203 		bic	r3, r3, r2
 2927 0032 4360     		str	r3, [r0, #4]
 2928              	.L157:
1454:../Drivers/STM32N6xx_HAL_Driver/Src/stm32n6xx_hal_dma.c ****   {
 2929              		.loc 1 1454 3 is_stmt 1 view .LVU978
1454:../Drivers/STM32N6xx_HAL_Driver/Src/stm32n6xx_hal_dma.c ****   {
 2930              		.loc 1 1454 6 is_stmt 0 view .LVU979
 2931 0034 11F0200F 		tst	r1, #32
 2932 0038 07D0     		beq	.L159
1457:../Drivers/STM32N6xx_HAL_Driver/Src/stm32n6xx_hal_dma.c ****     {
 2933              		.loc 1 1457 5 is_stmt 1 view .LVU980
1457:../Drivers/STM32N6xx_HAL_Driver/Src/stm32n6xx_hal_dma.c ****     {
 2934              		.loc 1 1457 28 is_stmt 0 view .LVU981
 2935 003a 01F02203 		and	r3, r1, #34
1457:../Drivers/STM32N6xx_HAL_Driver/Src/stm32n6xx_hal_dma.c ****     {
 2936              		.loc 1 1457 8 view .LVU982
 2937 003e 222B     		cmp	r3, #34
 2938 0040 23D0     		beq	.L167
1463:../Drivers/STM32N6xx_HAL_Driver/Src/stm32n6xx_hal_dma.c ****     }
 2939              		.loc 1 1463 7 is_stmt 1 view .LVU983
1463:../Drivers/STM32N6xx_HAL_Driver/Src/stm32n6xx_hal_dma.c ****     }
 2940              		.loc 1 1463 21 is_stmt 0 view .LVU984
 2941 0042 0368     		ldr	r3, [r0]
1463:../Drivers/STM32N6xx_HAL_Driver/Src/stm32n6xx_hal_dma.c ****     }
 2942              		.loc 1 1463 31 view .LVU985
 2943 0044 23EA0203 		bic	r3, r3, r2
 2944 0048 0360     		str	r3, [r0]
 2945              	.L159:
1468:../Drivers/STM32N6xx_HAL_Driver/Src/stm32n6xx_hal_dma.c ****   {
 2946              		.loc 1 1468 3 is_stmt 1 view .LVU986
1468:../Drivers/STM32N6xx_HAL_Driver/Src/stm32n6xx_hal_dma.c ****   {
 2947              		.loc 1 1468 6 is_stmt 0 view .LVU987
 2948 004a 11F0400F 		tst	r1, #64
 2949 004e 09D0     		beq	.L161
1471:../Drivers/STM32N6xx_HAL_Driver/Src/stm32n6xx_hal_dma.c ****     {
 2950              		.loc 1 1471 5 is_stmt 1 view .LVU988
1471:../Drivers/STM32N6xx_HAL_Driver/Src/stm32n6xx_hal_dma.c ****     {
 2951              		.loc 1 1471 28 is_stmt 0 view .LVU989
 2952 0050 01F04403 		and	r3, r1, #68
1471:../Drivers/STM32N6xx_HAL_Driver/Src/stm32n6xx_hal_dma.c ****     {
 2953              		.loc 1 1471 8 view .LVU990
 2954 0054 442B     		cmp	r3, #68
 2955 0056 1CD0     		beq	.L168
1477:../Drivers/STM32N6xx_HAL_Driver/Src/stm32n6xx_hal_dma.c ****     }
 2956              		.loc 1 1477 7 is_stmt 1 view .LVU991
1477:../Drivers/STM32N6xx_HAL_Driver/Src/stm32n6xx_hal_dma.c ****     }
 2957              		.loc 1 1477 11 is_stmt 0 view .LVU992
 2958 0058 DCF80020 		ldr	r2, [ip]
 2959              	.LVL100:
1477:../Drivers/STM32N6xx_HAL_Driver/Src/stm32n6xx_hal_dma.c ****     }
 2960              		.loc 1 1477 21 view .LVU993
 2961 005c 136C     		ldr	r3, [r2, #64]
1477:../Drivers/STM32N6xx_HAL_Driver/Src/stm32n6xx_hal_dma.c ****     }
ARM GAS  /tmp/ccRTxeLm.s 			page 99


 2962              		.loc 1 1477 28 view .LVU994
 2963 005e 23F40043 		bic	r3, r3, #32768
 2964 0062 1364     		str	r3, [r2, #64]
 2965              	.L161:
1482:../Drivers/STM32N6xx_HAL_Driver/Src/stm32n6xx_hal_dma.c ****   {
 2966              		.loc 1 1482 3 is_stmt 1 view .LVU995
1482:../Drivers/STM32N6xx_HAL_Driver/Src/stm32n6xx_hal_dma.c ****   {
 2967              		.loc 1 1482 6 is_stmt 0 view .LVU996
 2968 0064 11F0800F 		tst	r1, #128
 2969 0068 09D0     		beq	.L163
1485:../Drivers/STM32N6xx_HAL_Driver/Src/stm32n6xx_hal_dma.c ****     {
 2970              		.loc 1 1485 5 is_stmt 1 view .LVU997
1485:../Drivers/STM32N6xx_HAL_Driver/Src/stm32n6xx_hal_dma.c ****     {
 2971              		.loc 1 1485 28 is_stmt 0 view .LVU998
 2972 006a 01F08801 		and	r1, r1, #136
 2973              	.LVL101:
1485:../Drivers/STM32N6xx_HAL_Driver/Src/stm32n6xx_hal_dma.c ****     {
 2974              		.loc 1 1485 8 view .LVU999
 2975 006e 8829     		cmp	r1, #136
 2976 0070 16D0     		beq	.L169
1491:../Drivers/STM32N6xx_HAL_Driver/Src/stm32n6xx_hal_dma.c ****     }
 2977              		.loc 1 1491 7 is_stmt 1 view .LVU1000
1491:../Drivers/STM32N6xx_HAL_Driver/Src/stm32n6xx_hal_dma.c ****     }
 2978              		.loc 1 1491 11 is_stmt 0 view .LVU1001
 2979 0072 DCF80020 		ldr	r2, [ip]
1491:../Drivers/STM32N6xx_HAL_Driver/Src/stm32n6xx_hal_dma.c ****     }
 2980              		.loc 1 1491 21 view .LVU1002
 2981 0076 136C     		ldr	r3, [r2, #64]
1491:../Drivers/STM32N6xx_HAL_Driver/Src/stm32n6xx_hal_dma.c ****     }
 2982              		.loc 1 1491 28 view .LVU1003
 2983 0078 23F00043 		bic	r3, r3, #-2147483648
 2984 007c 1364     		str	r3, [r2, #64]
 2985              	.L163:
1496:../Drivers/STM32N6xx_HAL_Driver/Src/stm32n6xx_hal_dma.c **** }
 2986              		.loc 1 1496 10 view .LVU1004
 2987 007e 0020     		movs	r0, #0
 2988              	.LVL102:
1496:../Drivers/STM32N6xx_HAL_Driver/Src/stm32n6xx_hal_dma.c **** }
 2989              		.loc 1 1496 10 view .LVU1005
 2990 0080 7047     		bx	lr
 2991              	.LVL103:
 2992              	.L166:
1444:../Drivers/STM32N6xx_HAL_Driver/Src/stm32n6xx_hal_dma.c ****     }
 2993              		.loc 1 1444 7 is_stmt 1 view .LVU1006
1444:../Drivers/STM32N6xx_HAL_Driver/Src/stm32n6xx_hal_dma.c ****     }
 2994              		.loc 1 1444 21 is_stmt 0 view .LVU1007
 2995 0082 4368     		ldr	r3, [r0, #4]
1444:../Drivers/STM32N6xx_HAL_Driver/Src/stm32n6xx_hal_dma.c ****     }
 2996              		.loc 1 1444 32 view .LVU1008
 2997 0084 1343     		orrs	r3, r3, r2
 2998 0086 4360     		str	r3, [r0, #4]
 2999 0088 D4E7     		b	.L157
 3000              	.L167:
1459:../Drivers/STM32N6xx_HAL_Driver/Src/stm32n6xx_hal_dma.c ****     }
 3001              		.loc 1 1459 7 is_stmt 1 view .LVU1009
1459:../Drivers/STM32N6xx_HAL_Driver/Src/stm32n6xx_hal_dma.c ****     }
 3002              		.loc 1 1459 21 is_stmt 0 view .LVU1010
ARM GAS  /tmp/ccRTxeLm.s 			page 100


 3003 008a 0368     		ldr	r3, [r0]
1459:../Drivers/STM32N6xx_HAL_Driver/Src/stm32n6xx_hal_dma.c ****     }
 3004              		.loc 1 1459 31 view .LVU1011
 3005 008c 1343     		orrs	r3, r3, r2
 3006 008e 0360     		str	r3, [r0]
 3007 0090 DBE7     		b	.L159
 3008              	.L168:
1473:../Drivers/STM32N6xx_HAL_Driver/Src/stm32n6xx_hal_dma.c ****     }
 3009              		.loc 1 1473 7 is_stmt 1 view .LVU1012
1473:../Drivers/STM32N6xx_HAL_Driver/Src/stm32n6xx_hal_dma.c ****     }
 3010              		.loc 1 1473 11 is_stmt 0 view .LVU1013
 3011 0092 DCF80020 		ldr	r2, [ip]
 3012              	.LVL104:
1473:../Drivers/STM32N6xx_HAL_Driver/Src/stm32n6xx_hal_dma.c ****     }
 3013              		.loc 1 1473 21 view .LVU1014
 3014 0096 136C     		ldr	r3, [r2, #64]
1473:../Drivers/STM32N6xx_HAL_Driver/Src/stm32n6xx_hal_dma.c ****     }
 3015              		.loc 1 1473 28 view .LVU1015
 3016 0098 43F40043 		orr	r3, r3, #32768
 3017 009c 1364     		str	r3, [r2, #64]
 3018 009e E1E7     		b	.L161
 3019              	.LVL105:
 3020              	.L169:
1487:../Drivers/STM32N6xx_HAL_Driver/Src/stm32n6xx_hal_dma.c ****     }
 3021              		.loc 1 1487 7 is_stmt 1 view .LVU1016
1487:../Drivers/STM32N6xx_HAL_Driver/Src/stm32n6xx_hal_dma.c ****     }
 3022              		.loc 1 1487 11 is_stmt 0 view .LVU1017
 3023 00a0 DCF80020 		ldr	r2, [ip]
1487:../Drivers/STM32N6xx_HAL_Driver/Src/stm32n6xx_hal_dma.c ****     }
 3024              		.loc 1 1487 21 view .LVU1018
 3025 00a4 136C     		ldr	r3, [r2, #64]
1487:../Drivers/STM32N6xx_HAL_Driver/Src/stm32n6xx_hal_dma.c ****     }
 3026              		.loc 1 1487 28 view .LVU1019
 3027 00a6 43F00043 		orr	r3, r3, #-2147483648
 3028 00aa 1364     		str	r3, [r2, #64]
 3029 00ac E7E7     		b	.L163
 3030              	.LVL106:
 3031              	.L165:
1426:../Drivers/STM32N6xx_HAL_Driver/Src/stm32n6xx_hal_dma.c ****   }
 3032              		.loc 1 1426 12 view .LVU1020
 3033 00ae 0120     		movs	r0, #1
 3034              	.LVL107:
1497:../Drivers/STM32N6xx_HAL_Driver/Src/stm32n6xx_hal_dma.c **** 
 3035              		.loc 1 1497 1 view .LVU1021
 3036 00b0 7047     		bx	lr
 3037              		.cfi_endproc
 3038              	.LFE893:
 3040              		.section	.text.HAL_DMA_GetConfigChannelAttributes,"ax",%progbits
 3041              		.align	1
 3042              		.global	HAL_DMA_GetConfigChannelAttributes
 3043              		.syntax unified
 3044              		.thumb
 3045              		.thumb_func
 3047              	HAL_DMA_GetConfigChannelAttributes:
 3048              	.LVL108:
 3049              	.LFB894:
1508:../Drivers/STM32N6xx_HAL_Driver/Src/stm32n6xx_hal_dma.c ****   const DMA_TypeDef *p_dma_instance;
ARM GAS  /tmp/ccRTxeLm.s 			page 101


 3050              		.loc 1 1508 1 is_stmt 1 view -0
 3051              		.cfi_startproc
 3052              		@ args = 0, pretend = 0, frame = 0
 3053              		@ frame_needed = 0, uses_anonymous_args = 0
 3054              		@ link register save eliminated.
1509:../Drivers/STM32N6xx_HAL_Driver/Src/stm32n6xx_hal_dma.c ****   uint32_t attributes;
 3055              		.loc 1 1509 3 view .LVU1023
1510:../Drivers/STM32N6xx_HAL_Driver/Src/stm32n6xx_hal_dma.c ****   uint32_t channel_idx;
 3056              		.loc 1 1510 3 view .LVU1024
1511:../Drivers/STM32N6xx_HAL_Driver/Src/stm32n6xx_hal_dma.c **** 
 3057              		.loc 1 1511 3 view .LVU1025
1514:../Drivers/STM32N6xx_HAL_Driver/Src/stm32n6xx_hal_dma.c ****   {
 3058              		.loc 1 1514 3 view .LVU1026
1514:../Drivers/STM32N6xx_HAL_Driver/Src/stm32n6xx_hal_dma.c ****   {
 3059              		.loc 1 1514 6 is_stmt 0 view .LVU1027
 3060 0000 38B3     		cbz	r0, .L171
1514:../Drivers/STM32N6xx_HAL_Driver/Src/stm32n6xx_hal_dma.c ****   {
 3061              		.loc 1 1514 22 discriminator 1 view .LVU1028
 3062 0002 31B3     		cbz	r1, .L171
1520:../Drivers/STM32N6xx_HAL_Driver/Src/stm32n6xx_hal_dma.c **** 
 3063              		.loc 1 1520 3 is_stmt 1 view .LVU1029
1520:../Drivers/STM32N6xx_HAL_Driver/Src/stm32n6xx_hal_dma.c **** 
 3064              		.loc 1 1520 20 is_stmt 0 view .LVU1030
 3065 0004 0268     		ldr	r2, [r0]
 3066 0006 22F47F6C 		bic	ip, r2, #4080
 3067 000a 2CF00F0C 		bic	ip, ip, #15
 3068              	.LVL109:
1523:../Drivers/STM32N6xx_HAL_Driver/Src/stm32n6xx_hal_dma.c **** 
 3069              		.loc 1 1523 3 is_stmt 1 view .LVU1031
1523:../Drivers/STM32N6xx_HAL_Driver/Src/stm32n6xx_hal_dma.c **** 
 3070              		.loc 1 1523 25 is_stmt 0 view .LVU1032
 3071 000e C2F30B03 		ubfx	r3, r2, #0, #12
 3072 0012 503B     		subs	r3, r3, #80
1523:../Drivers/STM32N6xx_HAL_Driver/Src/stm32n6xx_hal_dma.c **** 
 3073              		.loc 1 1523 47 view .LVU1033
 3074 0014 C3F3C413 		ubfx	r3, r3, #7, #5
1523:../Drivers/STM32N6xx_HAL_Driver/Src/stm32n6xx_hal_dma.c **** 
 3075              		.loc 1 1523 15 view .LVU1034
 3076 0018 0120     		movs	r0, #1
 3077              	.LVL110:
1523:../Drivers/STM32N6xx_HAL_Driver/Src/stm32n6xx_hal_dma.c **** 
 3078              		.loc 1 1523 15 view .LVU1035
 3079 001a 00FA03F3 		lsl	r3, r0, r3
 3080              	.LVL111:
1526:../Drivers/STM32N6xx_HAL_Driver/Src/stm32n6xx_hal_dma.c **** 
 3081              		.loc 1 1526 3 is_stmt 1 view .LVU1036
1526:../Drivers/STM32N6xx_HAL_Driver/Src/stm32n6xx_hal_dma.c **** 
 3082              		.loc 1 1526 32 is_stmt 0 view .LVU1037
 3083 001e DCF80400 		ldr	r0, [ip, #4]
1526:../Drivers/STM32N6xx_HAL_Driver/Src/stm32n6xx_hal_dma.c **** 
 3084              		.loc 1 1526 85 view .LVU1038
 3085 0022 1842     		tst	r0, r3
 3086 0024 17D1     		bne	.L178
1526:../Drivers/STM32N6xx_HAL_Driver/Src/stm32n6xx_hal_dma.c **** 
 3087              		.loc 1 1526 14 discriminator 1 view .LVU1039
 3088 0026 1020     		movs	r0, #16
 3089              	.L174:
ARM GAS  /tmp/ccRTxeLm.s 			page 102


 3090              	.LVL112:
1529:../Drivers/STM32N6xx_HAL_Driver/Src/stm32n6xx_hal_dma.c **** 
 3091              		.loc 1 1529 3 is_stmt 1 view .LVU1040
1529:../Drivers/STM32N6xx_HAL_Driver/Src/stm32n6xx_hal_dma.c **** 
 3092              		.loc 1 1529 33 is_stmt 0 view .LVU1041
 3093 0028 DCF800C0 		ldr	ip, [ip]
 3094              	.LVL113:
1529:../Drivers/STM32N6xx_HAL_Driver/Src/stm32n6xx_hal_dma.c **** 
 3095              		.loc 1 1529 84 view .LVU1042
 3096 002c 1CEA030F 		tst	ip, r3
 3097 0030 13D1     		bne	.L179
1529:../Drivers/STM32N6xx_HAL_Driver/Src/stm32n6xx_hal_dma.c **** 
 3098              		.loc 1 1529 84 discriminator 1 view .LVU1043
 3099 0032 2023     		movs	r3, #32
 3100              	.LVL114:
 3101              	.L175:
1529:../Drivers/STM32N6xx_HAL_Driver/Src/stm32n6xx_hal_dma.c **** 
 3102              		.loc 1 1529 14 discriminator 3 view .LVU1044
 3103 0034 0343     		orrs	r3, r3, r0
 3104              	.LVL115:
1532:../Drivers/STM32N6xx_HAL_Driver/Src/stm32n6xx_hal_dma.c **** 
 3105              		.loc 1 1532 3 is_stmt 1 view .LVU1045
1532:../Drivers/STM32N6xx_HAL_Driver/Src/stm32n6xx_hal_dma.c **** 
 3106              		.loc 1 1532 33 is_stmt 0 view .LVU1046
 3107 0036 106C     		ldr	r0, [r2, #64]
1532:../Drivers/STM32N6xx_HAL_Driver/Src/stm32n6xx_hal_dma.c **** 
 3108              		.loc 1 1532 87 view .LVU1047
 3109 0038 10F4004F 		tst	r0, #32768
 3110 003c 0FD1     		bne	.L180
1532:../Drivers/STM32N6xx_HAL_Driver/Src/stm32n6xx_hal_dma.c **** 
 3111              		.loc 1 1532 87 discriminator 1 view .LVU1048
 3112 003e 4020     		movs	r0, #64
 3113              	.L176:
1532:../Drivers/STM32N6xx_HAL_Driver/Src/stm32n6xx_hal_dma.c **** 
 3114              		.loc 1 1532 14 discriminator 3 view .LVU1049
 3115 0040 1843     		orrs	r0, r0, r3
 3116              	.LVL116:
1535:../Drivers/STM32N6xx_HAL_Driver/Src/stm32n6xx_hal_dma.c **** 
 3117              		.loc 1 1535 3 is_stmt 1 view .LVU1050
1535:../Drivers/STM32N6xx_HAL_Driver/Src/stm32n6xx_hal_dma.c **** 
 3118              		.loc 1 1535 33 is_stmt 0 view .LVU1051
 3119 0042 136C     		ldr	r3, [r2, #64]
1535:../Drivers/STM32N6xx_HAL_Driver/Src/stm32n6xx_hal_dma.c **** 
 3120              		.loc 1 1535 88 view .LVU1052
 3121 0044 002B     		cmp	r3, #0
 3122 0046 0CDB     		blt	.L181
1535:../Drivers/STM32N6xx_HAL_Driver/Src/stm32n6xx_hal_dma.c **** 
 3123              		.loc 1 1535 88 discriminator 1 view .LVU1053
 3124 0048 8023     		movs	r3, #128
 3125              	.L177:
1535:../Drivers/STM32N6xx_HAL_Driver/Src/stm32n6xx_hal_dma.c **** 
 3126              		.loc 1 1535 14 discriminator 3 view .LVU1054
 3127 004a 0343     		orrs	r3, r3, r0
 3128              	.LVL117:
1538:../Drivers/STM32N6xx_HAL_Driver/Src/stm32n6xx_hal_dma.c **** 
 3129              		.loc 1 1538 3 is_stmt 1 view .LVU1055
1538:../Drivers/STM32N6xx_HAL_Driver/Src/stm32n6xx_hal_dma.c **** 
ARM GAS  /tmp/ccRTxeLm.s 			page 103


 3130              		.loc 1 1538 23 is_stmt 0 view .LVU1056
 3131 004c 0B60     		str	r3, [r1]
1540:../Drivers/STM32N6xx_HAL_Driver/Src/stm32n6xx_hal_dma.c **** }
 3132              		.loc 1 1540 3 is_stmt 1 view .LVU1057
1540:../Drivers/STM32N6xx_HAL_Driver/Src/stm32n6xx_hal_dma.c **** }
 3133              		.loc 1 1540 10 is_stmt 0 view .LVU1058
 3134 004e 0020     		movs	r0, #0
1541:../Drivers/STM32N6xx_HAL_Driver/Src/stm32n6xx_hal_dma.c **** 
 3135              		.loc 1 1541 1 view .LVU1059
 3136 0050 7047     		bx	lr
 3137              	.LVL118:
 3138              	.L171:
1516:../Drivers/STM32N6xx_HAL_Driver/Src/stm32n6xx_hal_dma.c ****   }
 3139              		.loc 1 1516 12 view .LVU1060
 3140 0052 0120     		movs	r0, #1
 3141              	.LVL119:
1516:../Drivers/STM32N6xx_HAL_Driver/Src/stm32n6xx_hal_dma.c ****   }
 3142              		.loc 1 1516 12 view .LVU1061
 3143 0054 7047     		bx	lr
 3144              	.LVL120:
 3145              	.L178:
1526:../Drivers/STM32N6xx_HAL_Driver/Src/stm32n6xx_hal_dma.c **** 
 3146              		.loc 1 1526 14 discriminator 2 view .LVU1062
 3147 0056 1120     		movs	r0, #17
 3148 0058 E6E7     		b	.L174
 3149              	.LVL121:
 3150              	.L179:
1529:../Drivers/STM32N6xx_HAL_Driver/Src/stm32n6xx_hal_dma.c **** 
 3151              		.loc 1 1529 84 discriminator 2 view .LVU1063
 3152 005a 2223     		movs	r3, #34
 3153              	.LVL122:
1529:../Drivers/STM32N6xx_HAL_Driver/Src/stm32n6xx_hal_dma.c **** 
 3154              		.loc 1 1529 84 discriminator 2 view .LVU1064
 3155 005c EAE7     		b	.L175
 3156              	.LVL123:
 3157              	.L180:
1532:../Drivers/STM32N6xx_HAL_Driver/Src/stm32n6xx_hal_dma.c **** 
 3158              		.loc 1 1532 87 discriminator 2 view .LVU1065
 3159 005e 4420     		movs	r0, #68
 3160 0060 EEE7     		b	.L176
 3161              	.LVL124:
 3162              	.L181:
1535:../Drivers/STM32N6xx_HAL_Driver/Src/stm32n6xx_hal_dma.c **** 
 3163              		.loc 1 1535 88 discriminator 2 view .LVU1066
 3164 0062 8823     		movs	r3, #136
 3165 0064 F1E7     		b	.L177
 3166              		.cfi_endproc
 3167              	.LFE894:
 3169              		.section	.text.HAL_DMA_SetIsolationAttributes,"ax",%progbits
 3170              		.align	1
 3171              		.global	HAL_DMA_SetIsolationAttributes
 3172              		.syntax unified
 3173              		.thumb
 3174              		.thumb_func
 3176              	HAL_DMA_SetIsolationAttributes:
 3177              	.LVL125:
 3178              	.LFB895:
ARM GAS  /tmp/ccRTxeLm.s 			page 104


1555:../Drivers/STM32N6xx_HAL_Driver/Src/stm32n6xx_hal_dma.c ****   /* Check the DMA peripheral handle parameter */
 3179              		.loc 1 1555 1 is_stmt 1 view -0
 3180              		.cfi_startproc
 3181              		@ args = 0, pretend = 0, frame = 0
 3182              		@ frame_needed = 0, uses_anonymous_args = 0
 3183              		@ link register save eliminated.
1557:../Drivers/STM32N6xx_HAL_Driver/Src/stm32n6xx_hal_dma.c ****   {
 3184              		.loc 1 1557 3 view .LVU1068
1557:../Drivers/STM32N6xx_HAL_Driver/Src/stm32n6xx_hal_dma.c ****   {
 3185              		.loc 1 1557 6 is_stmt 0 view .LVU1069
 3186 0000 40B1     		cbz	r0, .L183
1557:../Drivers/STM32N6xx_HAL_Driver/Src/stm32n6xx_hal_dma.c ****   {
 3187              		.loc 1 1557 22 discriminator 1 view .LVU1070
 3188 0002 39B1     		cbz	r1, .L183
1563:../Drivers/STM32N6xx_HAL_Driver/Src/stm32n6xx_hal_dma.c ****   assert_param(IS_DMA_ISOLATION_MODE(pConfig->CidFiltering));
 3189              		.loc 1 1563 3 is_stmt 1 view .LVU1071
1564:../Drivers/STM32N6xx_HAL_Driver/Src/stm32n6xx_hal_dma.c ****   assert_param(IS_DMA_ISOLATION_STATIC_CID(pConfig->StaticCid));
 3190              		.loc 1 1564 3 view .LVU1072
1565:../Drivers/STM32N6xx_HAL_Driver/Src/stm32n6xx_hal_dma.c **** 
 3191              		.loc 1 1565 3 view .LVU1073
1568:../Drivers/STM32N6xx_HAL_Driver/Src/stm32n6xx_hal_dma.c ****   {
 3192              		.loc 1 1568 3 view .LVU1074
1568:../Drivers/STM32N6xx_HAL_Driver/Src/stm32n6xx_hal_dma.c ****   {
 3193              		.loc 1 1568 15 is_stmt 0 view .LVU1075
 3194 0004 0A68     		ldr	r2, [r1]
1568:../Drivers/STM32N6xx_HAL_Driver/Src/stm32n6xx_hal_dma.c ****   {
 3195              		.loc 1 1568 6 view .LVU1076
 3196 0006 012A     		cmp	r2, #1
 3197 0008 06D0     		beq	.L188
1576:../Drivers/STM32N6xx_HAL_Driver/Src/stm32n6xx_hal_dma.c ****   }
 3198              		.loc 1 1576 5 is_stmt 1 view .LVU1077
1576:../Drivers/STM32N6xx_HAL_Driver/Src/stm32n6xx_hal_dma.c ****   }
 3199              		.loc 1 1576 9 is_stmt 0 view .LVU1078
 3200 000a 0368     		ldr	r3, [r0]
1576:../Drivers/STM32N6xx_HAL_Driver/Src/stm32n6xx_hal_dma.c ****   }
 3201              		.loc 1 1576 30 view .LVU1079
 3202 000c 0022     		movs	r2, #0
 3203 000e 5A60     		str	r2, [r3, #4]
 3204              	.LVL126:
 3205              	.L187:
1579:../Drivers/STM32N6xx_HAL_Driver/Src/stm32n6xx_hal_dma.c **** }
 3206              		.loc 1 1579 10 view .LVU1080
 3207 0010 0020     		movs	r0, #0
 3208              	.LVL127:
1580:../Drivers/STM32N6xx_HAL_Driver/Src/stm32n6xx_hal_dma.c **** #endif /* CPU_IN_SECURE_STATE */
 3209              		.loc 1 1580 1 view .LVU1081
 3210 0012 7047     		bx	lr
 3211              	.LVL128:
 3212              	.L183:
1559:../Drivers/STM32N6xx_HAL_Driver/Src/stm32n6xx_hal_dma.c ****   }
 3213              		.loc 1 1559 12 view .LVU1082
 3214 0014 0120     		movs	r0, #1
 3215              	.LVL129:
1559:../Drivers/STM32N6xx_HAL_Driver/Src/stm32n6xx_hal_dma.c ****   }
 3216              		.loc 1 1559 12 view .LVU1083
 3217 0016 7047     		bx	lr
 3218              	.LVL130:
ARM GAS  /tmp/ccRTxeLm.s 			page 105


 3219              	.L188:
1571:../Drivers/STM32N6xx_HAL_Driver/Src/stm32n6xx_hal_dma.c ****   }
 3220              		.loc 1 1571 5 is_stmt 1 view .LVU1084
1571:../Drivers/STM32N6xx_HAL_Driver/Src/stm32n6xx_hal_dma.c ****   }
 3221              		.loc 1 1571 41 is_stmt 0 view .LVU1085
 3222 0018 4A68     		ldr	r2, [r1, #4]
1571:../Drivers/STM32N6xx_HAL_Driver/Src/stm32n6xx_hal_dma.c ****   }
 3223              		.loc 1 1571 53 view .LVU1086
 3224 001a 02F07002 		and	r2, r2, #112
1571:../Drivers/STM32N6xx_HAL_Driver/Src/stm32n6xx_hal_dma.c ****   }
 3225              		.loc 1 1571 9 view .LVU1087
 3226 001e 0168     		ldr	r1, [r0]
 3227              	.LVL131:
1571:../Drivers/STM32N6xx_HAL_Driver/Src/stm32n6xx_hal_dma.c ****   }
 3228              		.loc 1 1571 78 view .LVU1088
 3229 0020 42F00102 		orr	r2, r2, #1
1571:../Drivers/STM32N6xx_HAL_Driver/Src/stm32n6xx_hal_dma.c ****   }
 3230              		.loc 1 1571 30 view .LVU1089
 3231 0024 4A60     		str	r2, [r1, #4]
 3232 0026 F3E7     		b	.L187
 3233              		.cfi_endproc
 3234              	.LFE895:
 3236              		.section	.text.HAL_DMA_GetIsolationAttributes,"ax",%progbits
 3237              		.align	1
 3238              		.global	HAL_DMA_GetIsolationAttributes
 3239              		.syntax unified
 3240              		.thumb
 3241              		.thumb_func
 3243              	HAL_DMA_GetIsolationAttributes:
 3244              	.LVL132:
 3245              	.LFB896:
1593:../Drivers/STM32N6xx_HAL_Driver/Src/stm32n6xx_hal_dma.c ****   uint32_t ccidcfgr;
 3246              		.loc 1 1593 1 is_stmt 1 view -0
 3247              		.cfi_startproc
 3248              		@ args = 0, pretend = 0, frame = 0
 3249              		@ frame_needed = 0, uses_anonymous_args = 0
 3250              		@ link register save eliminated.
1594:../Drivers/STM32N6xx_HAL_Driver/Src/stm32n6xx_hal_dma.c **** 
 3251              		.loc 1 1594 3 view .LVU1091
1597:../Drivers/STM32N6xx_HAL_Driver/Src/stm32n6xx_hal_dma.c ****   {
 3252              		.loc 1 1597 3 view .LVU1092
1597:../Drivers/STM32N6xx_HAL_Driver/Src/stm32n6xx_hal_dma.c ****   {
 3253              		.loc 1 1597 6 is_stmt 0 view .LVU1093
 3254 0000 60B1     		cbz	r0, .L190
1597:../Drivers/STM32N6xx_HAL_Driver/Src/stm32n6xx_hal_dma.c ****   {
 3255              		.loc 1 1597 22 discriminator 1 view .LVU1094
 3256 0002 59B1     		cbz	r1, .L190
1602:../Drivers/STM32N6xx_HAL_Driver/Src/stm32n6xx_hal_dma.c **** 
 3257              		.loc 1 1602 3 is_stmt 1 view .LVU1095
1602:../Drivers/STM32N6xx_HAL_Driver/Src/stm32n6xx_hal_dma.c **** 
 3258              		.loc 1 1602 18 is_stmt 0 view .LVU1096
 3259 0004 0368     		ldr	r3, [r0]
1602:../Drivers/STM32N6xx_HAL_Driver/Src/stm32n6xx_hal_dma.c **** 
 3260              		.loc 1 1602 12 view .LVU1097
 3261 0006 5B68     		ldr	r3, [r3, #4]
 3262              	.LVL133:
1605:../Drivers/STM32N6xx_HAL_Driver/Src/stm32n6xx_hal_dma.c **** 
ARM GAS  /tmp/ccRTxeLm.s 			page 106


 3263              		.loc 1 1605 3 is_stmt 1 view .LVU1098
1607:../Drivers/STM32N6xx_HAL_Driver/Src/stm32n6xx_hal_dma.c ****   {
 3264              		.loc 1 1607 3 view .LVU1099
1607:../Drivers/STM32N6xx_HAL_Driver/Src/stm32n6xx_hal_dma.c ****   {
 3265              		.loc 1 1607 6 is_stmt 0 view .LVU1100
 3266 0008 13F0010F 		tst	r3, #1
 3267 000c 08D0     		beq	.L193
1609:../Drivers/STM32N6xx_HAL_Driver/Src/stm32n6xx_hal_dma.c ****   }
 3268              		.loc 1 1609 5 is_stmt 1 view .LVU1101
1609:../Drivers/STM32N6xx_HAL_Driver/Src/stm32n6xx_hal_dma.c ****   }
 3269              		.loc 1 1609 27 is_stmt 0 view .LVU1102
 3270 000e 0122     		movs	r2, #1
 3271 0010 0A60     		str	r2, [r1]
 3272              	.L194:
1615:../Drivers/STM32N6xx_HAL_Driver/Src/stm32n6xx_hal_dma.c **** 
 3273              		.loc 1 1615 3 is_stmt 1 view .LVU1103
1615:../Drivers/STM32N6xx_HAL_Driver/Src/stm32n6xx_hal_dma.c **** 
 3274              		.loc 1 1615 34 is_stmt 0 view .LVU1104
 3275 0012 03F07003 		and	r3, r3, #112
 3276              	.LVL134:
1615:../Drivers/STM32N6xx_HAL_Driver/Src/stm32n6xx_hal_dma.c **** 
 3277              		.loc 1 1615 22 view .LVU1105
 3278 0016 4B60     		str	r3, [r1, #4]
1617:../Drivers/STM32N6xx_HAL_Driver/Src/stm32n6xx_hal_dma.c **** }
 3279              		.loc 1 1617 3 is_stmt 1 view .LVU1106
1617:../Drivers/STM32N6xx_HAL_Driver/Src/stm32n6xx_hal_dma.c **** }
 3280              		.loc 1 1617 10 is_stmt 0 view .LVU1107
 3281 0018 0020     		movs	r0, #0
 3282              	.LVL135:
1618:../Drivers/STM32N6xx_HAL_Driver/Src/stm32n6xx_hal_dma.c **** 
 3283              		.loc 1 1618 1 view .LVU1108
 3284 001a 7047     		bx	lr
 3285              	.LVL136:
 3286              	.L190:
1599:../Drivers/STM32N6xx_HAL_Driver/Src/stm32n6xx_hal_dma.c ****   }
 3287              		.loc 1 1599 12 view .LVU1109
 3288 001c 0120     		movs	r0, #1
 3289              	.LVL137:
1599:../Drivers/STM32N6xx_HAL_Driver/Src/stm32n6xx_hal_dma.c ****   }
 3290              		.loc 1 1599 12 view .LVU1110
 3291 001e 7047     		bx	lr
 3292              	.LVL138:
 3293              	.L193:
1613:../Drivers/STM32N6xx_HAL_Driver/Src/stm32n6xx_hal_dma.c ****   }
 3294              		.loc 1 1613 5 is_stmt 1 view .LVU1111
1613:../Drivers/STM32N6xx_HAL_Driver/Src/stm32n6xx_hal_dma.c ****   }
 3295              		.loc 1 1613 27 is_stmt 0 view .LVU1112
 3296 0020 0022     		movs	r2, #0
 3297 0022 0A60     		str	r2, [r1]
 3298 0024 F5E7     		b	.L194
 3299              		.cfi_endproc
 3300              	.LFE896:
 3302              		.section	.text.HAL_DMA_LockChannelAttributes,"ax",%progbits
 3303              		.align	1
 3304              		.global	HAL_DMA_LockChannelAttributes
 3305              		.syntax unified
 3306              		.thumb
ARM GAS  /tmp/ccRTxeLm.s 			page 107


 3307              		.thumb_func
 3309              	HAL_DMA_LockChannelAttributes:
 3310              	.LVL139:
 3311              	.LFB897:
1628:../Drivers/STM32N6xx_HAL_Driver/Src/stm32n6xx_hal_dma.c ****   DMA_TypeDef *p_dma_instance;
 3312              		.loc 1 1628 1 is_stmt 1 view -0
 3313              		.cfi_startproc
 3314              		@ args = 0, pretend = 0, frame = 0
 3315              		@ frame_needed = 0, uses_anonymous_args = 0
 3316              		@ link register save eliminated.
1629:../Drivers/STM32N6xx_HAL_Driver/Src/stm32n6xx_hal_dma.c ****   uint32_t channel_idx;
 3317              		.loc 1 1629 3 view .LVU1114
1630:../Drivers/STM32N6xx_HAL_Driver/Src/stm32n6xx_hal_dma.c **** 
 3318              		.loc 1 1630 3 view .LVU1115
1633:../Drivers/STM32N6xx_HAL_Driver/Src/stm32n6xx_hal_dma.c ****   {
 3319              		.loc 1 1633 3 view .LVU1116
1633:../Drivers/STM32N6xx_HAL_Driver/Src/stm32n6xx_hal_dma.c ****   {
 3320              		.loc 1 1633 6 is_stmt 0 view .LVU1117
 3321 0000 80B1     		cbz	r0, .L197
1639:../Drivers/STM32N6xx_HAL_Driver/Src/stm32n6xx_hal_dma.c **** 
 3322              		.loc 1 1639 3 is_stmt 1 view .LVU1118
1639:../Drivers/STM32N6xx_HAL_Driver/Src/stm32n6xx_hal_dma.c **** 
 3323              		.loc 1 1639 20 is_stmt 0 view .LVU1119
 3324 0002 0368     		ldr	r3, [r0]
 3325 0004 23F47F61 		bic	r1, r3, #4080
 3326 0008 21F00F01 		bic	r1, r1, #15
 3327              	.LVL140:
1642:../Drivers/STM32N6xx_HAL_Driver/Src/stm32n6xx_hal_dma.c **** 
 3328              		.loc 1 1642 3 is_stmt 1 view .LVU1120
1642:../Drivers/STM32N6xx_HAL_Driver/Src/stm32n6xx_hal_dma.c **** 
 3329              		.loc 1 1642 25 is_stmt 0 view .LVU1121
 3330 000c C3F30B03 		ubfx	r3, r3, #0, #12
 3331 0010 503B     		subs	r3, r3, #80
1642:../Drivers/STM32N6xx_HAL_Driver/Src/stm32n6xx_hal_dma.c **** 
 3332              		.loc 1 1642 47 view .LVU1122
 3333 0012 C3F3C413 		ubfx	r3, r3, #7, #5
1642:../Drivers/STM32N6xx_HAL_Driver/Src/stm32n6xx_hal_dma.c **** 
 3334              		.loc 1 1642 15 view .LVU1123
 3335 0016 0122     		movs	r2, #1
 3336 0018 9A40     		lsls	r2, r2, r3
 3337              	.LVL141:
1645:../Drivers/STM32N6xx_HAL_Driver/Src/stm32n6xx_hal_dma.c **** 
 3338              		.loc 1 1645 3 is_stmt 1 view .LVU1124
1645:../Drivers/STM32N6xx_HAL_Driver/Src/stm32n6xx_hal_dma.c **** 
 3339              		.loc 1 1645 17 is_stmt 0 view .LVU1125
 3340 001a 8B68     		ldr	r3, [r1, #8]
1645:../Drivers/STM32N6xx_HAL_Driver/Src/stm32n6xx_hal_dma.c **** 
 3341              		.loc 1 1645 29 view .LVU1126
 3342 001c 1343     		orrs	r3, r3, r2
 3343 001e 8B60     		str	r3, [r1, #8]
1647:../Drivers/STM32N6xx_HAL_Driver/Src/stm32n6xx_hal_dma.c **** }
 3344              		.loc 1 1647 3 is_stmt 1 view .LVU1127
1647:../Drivers/STM32N6xx_HAL_Driver/Src/stm32n6xx_hal_dma.c **** }
 3345              		.loc 1 1647 10 is_stmt 0 view .LVU1128
 3346 0020 0020     		movs	r0, #0
 3347              	.LVL142:
1647:../Drivers/STM32N6xx_HAL_Driver/Src/stm32n6xx_hal_dma.c **** }
ARM GAS  /tmp/ccRTxeLm.s 			page 108


 3348              		.loc 1 1647 10 view .LVU1129
 3349 0022 7047     		bx	lr
 3350              	.LVL143:
 3351              	.L197:
1635:../Drivers/STM32N6xx_HAL_Driver/Src/stm32n6xx_hal_dma.c ****   }
 3352              		.loc 1 1635 12 view .LVU1130
 3353 0024 0120     		movs	r0, #1
 3354              	.LVL144:
1648:../Drivers/STM32N6xx_HAL_Driver/Src/stm32n6xx_hal_dma.c **** #endif /* CPU_IN_SECURE_STATE */
 3355              		.loc 1 1648 1 view .LVU1131
 3356 0026 7047     		bx	lr
 3357              		.cfi_endproc
 3358              	.LFE897:
 3360              		.section	.text.HAL_DMA_GetLockChannelAttributes,"ax",%progbits
 3361              		.align	1
 3362              		.global	HAL_DMA_GetLockChannelAttributes
 3363              		.syntax unified
 3364              		.thumb
 3365              		.thumb_func
 3367              	HAL_DMA_GetLockChannelAttributes:
 3368              	.LVL145:
 3369              	.LFB898:
1660:../Drivers/STM32N6xx_HAL_Driver/Src/stm32n6xx_hal_dma.c ****   const DMA_TypeDef *p_dma_instance;
 3370              		.loc 1 1660 1 is_stmt 1 view -0
 3371              		.cfi_startproc
 3372              		@ args = 0, pretend = 0, frame = 0
 3373              		@ frame_needed = 0, uses_anonymous_args = 0
 3374              		@ link register save eliminated.
1661:../Drivers/STM32N6xx_HAL_Driver/Src/stm32n6xx_hal_dma.c ****   uint32_t channel_idx;
 3375              		.loc 1 1661 3 view .LVU1133
1662:../Drivers/STM32N6xx_HAL_Driver/Src/stm32n6xx_hal_dma.c **** 
 3376              		.loc 1 1662 3 view .LVU1134
1665:../Drivers/STM32N6xx_HAL_Driver/Src/stm32n6xx_hal_dma.c ****   {
 3377              		.loc 1 1665 3 view .LVU1135
1665:../Drivers/STM32N6xx_HAL_Driver/Src/stm32n6xx_hal_dma.c ****   {
 3378              		.loc 1 1665 6 is_stmt 0 view .LVU1136
 3379 0000 A8B1     		cbz	r0, .L199
1665:../Drivers/STM32N6xx_HAL_Driver/Src/stm32n6xx_hal_dma.c ****   {
 3380              		.loc 1 1665 22 discriminator 1 view .LVU1137
 3381 0002 A1B1     		cbz	r1, .L199
1671:../Drivers/STM32N6xx_HAL_Driver/Src/stm32n6xx_hal_dma.c **** 
 3382              		.loc 1 1671 3 is_stmt 1 view .LVU1138
1671:../Drivers/STM32N6xx_HAL_Driver/Src/stm32n6xx_hal_dma.c **** 
 3383              		.loc 1 1671 20 is_stmt 0 view .LVU1139
 3384 0004 0368     		ldr	r3, [r0]
 3385 0006 23F47F60 		bic	r0, r3, #4080
 3386              	.LVL146:
1671:../Drivers/STM32N6xx_HAL_Driver/Src/stm32n6xx_hal_dma.c **** 
 3387              		.loc 1 1671 20 view .LVU1140
 3388 000a 20F00F00 		bic	r0, r0, #15
 3389              	.LVL147:
1674:../Drivers/STM32N6xx_HAL_Driver/Src/stm32n6xx_hal_dma.c **** 
 3390              		.loc 1 1674 3 is_stmt 1 view .LVU1141
1674:../Drivers/STM32N6xx_HAL_Driver/Src/stm32n6xx_hal_dma.c **** 
 3391              		.loc 1 1674 25 is_stmt 0 view .LVU1142
 3392 000e C3F30B03 		ubfx	r3, r3, #0, #12
 3393 0012 503B     		subs	r3, r3, #80
ARM GAS  /tmp/ccRTxeLm.s 			page 109


1674:../Drivers/STM32N6xx_HAL_Driver/Src/stm32n6xx_hal_dma.c **** 
 3394              		.loc 1 1674 47 view .LVU1143
 3395 0014 C3F3C413 		ubfx	r3, r3, #7, #5
1674:../Drivers/STM32N6xx_HAL_Driver/Src/stm32n6xx_hal_dma.c **** 
 3396              		.loc 1 1674 15 view .LVU1144
 3397 0018 0122     		movs	r2, #1
 3398 001a 02FA03F3 		lsl	r3, r2, r3
 3399              	.LVL148:
1677:../Drivers/STM32N6xx_HAL_Driver/Src/stm32n6xx_hal_dma.c ****                 DMA_CHANNEL_ATTRIBUTE_LOCKED;
 3400              		.loc 1 1677 3 is_stmt 1 view .LVU1145
1677:../Drivers/STM32N6xx_HAL_Driver/Src/stm32n6xx_hal_dma.c ****                 DMA_CHANNEL_ATTRIBUTE_LOCKED;
 3401              		.loc 1 1677 33 is_stmt 0 view .LVU1146
 3402 001e 8268     		ldr	r2, [r0, #8]
1677:../Drivers/STM32N6xx_HAL_Driver/Src/stm32n6xx_hal_dma.c ****                 DMA_CHANNEL_ATTRIBUTE_LOCKED;
 3403              		.loc 1 1677 100 view .LVU1147
 3404 0020 1A42     		tst	r2, r3
 3405 0022 14BF     		ite	ne
 3406 0024 0123     		movne	r3, #1
 3407              	.LVL149:
1677:../Drivers/STM32N6xx_HAL_Driver/Src/stm32n6xx_hal_dma.c ****                 DMA_CHANNEL_ATTRIBUTE_LOCKED;
 3408              		.loc 1 1677 100 view .LVU1148
 3409 0026 0023     		moveq	r3, #0
1677:../Drivers/STM32N6xx_HAL_Driver/Src/stm32n6xx_hal_dma.c ****                 DMA_CHANNEL_ATTRIBUTE_LOCKED;
 3410              		.loc 1 1677 15 view .LVU1149
 3411 0028 0B60     		str	r3, [r1]
 3412              	.LVL150:
1680:../Drivers/STM32N6xx_HAL_Driver/Src/stm32n6xx_hal_dma.c **** }
 3413              		.loc 1 1680 3 is_stmt 1 view .LVU1150
1680:../Drivers/STM32N6xx_HAL_Driver/Src/stm32n6xx_hal_dma.c **** }
 3414              		.loc 1 1680 10 is_stmt 0 view .LVU1151
 3415 002a 0020     		movs	r0, #0
 3416              	.LVL151:
1681:../Drivers/STM32N6xx_HAL_Driver/Src/stm32n6xx_hal_dma.c **** /**
 3417              		.loc 1 1681 1 view .LVU1152
 3418 002c 7047     		bx	lr
 3419              	.LVL152:
 3420              	.L199:
1667:../Drivers/STM32N6xx_HAL_Driver/Src/stm32n6xx_hal_dma.c ****   }
 3421              		.loc 1 1667 12 view .LVU1153
 3422 002e 0120     		movs	r0, #1
 3423              	.LVL153:
1667:../Drivers/STM32N6xx_HAL_Driver/Src/stm32n6xx_hal_dma.c ****   }
 3424              		.loc 1 1667 12 view .LVU1154
 3425 0030 7047     		bx	lr
 3426              		.cfi_endproc
 3427              	.LFE898:
 3429              		.text
 3430              	.Letext0:
 3431              		.file 2 "/usr/arm-none-eabi/include/machine/_default_types.h"
 3432              		.file 3 "/usr/arm-none-eabi/include/sys/_stdint.h"
 3433              		.file 4 "../Drivers/CMSIS/Device/ST/STM32N6xx/Include/stm32n657xx.h"
 3434              		.file 5 "../Drivers/STM32N6xx_HAL_Driver/Inc/stm32n6xx_hal_def.h"
 3435              		.file 6 "../Drivers/STM32N6xx_HAL_Driver/Inc/stm32n6xx_hal_dma.h"
 3436              		.file 7 "../Drivers/STM32N6xx_HAL_Driver/Inc/stm32n6xx_hal_dma_ex.h"
 3437              		.file 8 "../Drivers/STM32N6xx_HAL_Driver/Inc/stm32n6xx_hal.h"
ARM GAS  /tmp/ccRTxeLm.s 			page 110


DEFINED SYMBOLS
                            *ABS*:00000000 stm32n6xx_hal_dma.c
     /tmp/ccRTxeLm.s:26     .text.DMA_SetConfig:00000000 $t
     /tmp/ccRTxeLm.s:31     .text.DMA_SetConfig:00000000 DMA_SetConfig
     /tmp/ccRTxeLm.s:73     .text.DMA_Init:00000000 $t
     /tmp/ccRTxeLm.s:78     .text.DMA_Init:00000000 DMA_Init
     /tmp/ccRTxeLm.s:506    .text.DMA_Init:00000324 $d
     /tmp/ccRTxeLm.s:510    .text.DMA_Init:0000032c $t
     /tmp/ccRTxeLm.s:896    .text.DMA_Init:00000648 $d
     /tmp/ccRTxeLm.s:901    .text.HAL_DMA_Init:00000000 $t
     /tmp/ccRTxeLm.s:907    .text.HAL_DMA_Init:00000000 HAL_DMA_Init
     /tmp/ccRTxeLm.s:1214   .text.HAL_DMA_Init:000001ac $d
     /tmp/ccRTxeLm.s:1219   .text.HAL_DMA_DeInit:00000000 $t
     /tmp/ccRTxeLm.s:1225   .text.HAL_DMA_DeInit:00000000 HAL_DMA_DeInit
     /tmp/ccRTxeLm.s:1473   .text.HAL_DMA_DeInit:00000124 $d
     /tmp/ccRTxeLm.s:1478   .text.HAL_DMA_Start:00000000 $t
     /tmp/ccRTxeLm.s:1484   .text.HAL_DMA_Start:00000000 HAL_DMA_Start
     /tmp/ccRTxeLm.s:1580   .text.HAL_DMA_Start_IT:00000000 $t
     /tmp/ccRTxeLm.s:1586   .text.HAL_DMA_Start_IT:00000000 HAL_DMA_Start_IT
     /tmp/ccRTxeLm.s:1710   .text.HAL_DMA_Abort:00000000 $t
     /tmp/ccRTxeLm.s:1716   .text.HAL_DMA_Abort:00000000 HAL_DMA_Abort
     /tmp/ccRTxeLm.s:1878   .text.HAL_DMA_Abort_IT:00000000 $t
     /tmp/ccRTxeLm.s:1884   .text.HAL_DMA_Abort_IT:00000000 HAL_DMA_Abort_IT
     /tmp/ccRTxeLm.s:1937   .text.HAL_DMA_PollForTransfer:00000000 $t
     /tmp/ccRTxeLm.s:1943   .text.HAL_DMA_PollForTransfer:00000000 HAL_DMA_PollForTransfer
     /tmp/ccRTxeLm.s:2234   .text.HAL_DMA_IRQHandler:00000000 $t
     /tmp/ccRTxeLm.s:2240   .text.HAL_DMA_IRQHandler:00000000 HAL_DMA_IRQHandler
     /tmp/ccRTxeLm.s:2627   .text.HAL_DMA_RegisterCallback:00000000 $t
     /tmp/ccRTxeLm.s:2633   .text.HAL_DMA_RegisterCallback:00000000 HAL_DMA_RegisterCallback
     /tmp/ccRTxeLm.s:2667   .text.HAL_DMA_RegisterCallback:00000018 $d
     /tmp/ccRTxeLm.s:2713   .text.HAL_DMA_UnRegisterCallback:00000000 $t
     /tmp/ccRTxeLm.s:2719   .text.HAL_DMA_UnRegisterCallback:00000000 HAL_DMA_UnRegisterCallback
     /tmp/ccRTxeLm.s:2753   .text.HAL_DMA_UnRegisterCallback:00000018 $d
     /tmp/ccRTxeLm.s:2759   .text.HAL_DMA_UnRegisterCallback:0000001e $t
     /tmp/ccRTxeLm.s:2824   .text.HAL_DMA_GetState:00000000 $t
     /tmp/ccRTxeLm.s:2830   .text.HAL_DMA_GetState:00000000 HAL_DMA_GetState
     /tmp/ccRTxeLm.s:2848   .text.HAL_DMA_GetError:00000000 $t
     /tmp/ccRTxeLm.s:2854   .text.HAL_DMA_GetError:00000000 HAL_DMA_GetError
     /tmp/ccRTxeLm.s:2872   .text.HAL_DMA_ConfigChannelAttributes:00000000 $t
     /tmp/ccRTxeLm.s:2878   .text.HAL_DMA_ConfigChannelAttributes:00000000 HAL_DMA_ConfigChannelAttributes
     /tmp/ccRTxeLm.s:3041   .text.HAL_DMA_GetConfigChannelAttributes:00000000 $t
     /tmp/ccRTxeLm.s:3047   .text.HAL_DMA_GetConfigChannelAttributes:00000000 HAL_DMA_GetConfigChannelAttributes
     /tmp/ccRTxeLm.s:3170   .text.HAL_DMA_SetIsolationAttributes:00000000 $t
     /tmp/ccRTxeLm.s:3176   .text.HAL_DMA_SetIsolationAttributes:00000000 HAL_DMA_SetIsolationAttributes
     /tmp/ccRTxeLm.s:3237   .text.HAL_DMA_GetIsolationAttributes:00000000 $t
     /tmp/ccRTxeLm.s:3243   .text.HAL_DMA_GetIsolationAttributes:00000000 HAL_DMA_GetIsolationAttributes
     /tmp/ccRTxeLm.s:3303   .text.HAL_DMA_LockChannelAttributes:00000000 $t
     /tmp/ccRTxeLm.s:3309   .text.HAL_DMA_LockChannelAttributes:00000000 HAL_DMA_LockChannelAttributes
     /tmp/ccRTxeLm.s:3361   .text.HAL_DMA_GetLockChannelAttributes:00000000 $t
     /tmp/ccRTxeLm.s:3367   .text.HAL_DMA_GetLockChannelAttributes:00000000 HAL_DMA_GetLockChannelAttributes
     /tmp/ccRTxeLm.s:2672   .text.HAL_DMA_RegisterCallback:0000001d $d
     /tmp/ccRTxeLm.s:2672   .text.HAL_DMA_RegisterCallback:0000001e $t

UNDEFINED SYMBOLS
HAL_GetTick
