ARM GAS  /tmp/ccuJg0Ev.s 			page 1


   1              		.arch armv8.1-m.main
   2              		.fpu fpv5-d16
   3              		.arch_extension dsp
   4              		.arch_extension fp
   5              		.arch_extension fp.dp
   6              		.arch_extension mve
   7              		.arch_extension mve.fp
   8              		.eabi_attribute 5, "cortex-m55"
   9              		.eabi_attribute 28, 1
  10              		.eabi_attribute 20, 1
  11              		.eabi_attribute 21, 1
  12              		.eabi_attribute 23, 3
  13              		.eabi_attribute 24, 1
  14              		.eabi_attribute 25, 1
  15              		.eabi_attribute 26, 1
  16              		.eabi_attribute 30, 1
  17              		.eabi_attribute 34, 1
  18              		.eabi_attribute 38, 1
  19              		.eabi_attribute 18, 4
  20              		.file	"stm32_sal_xspi.c"
  21              		.text
  22              	.Ltext0:
  23              		.cfi_sections	.debug_frame
  24              		.file 1 "../Drivers/STM32_ExtMem_Manager/sal/stm32_sal_xspi.c"
  25              		.section	.text.SAL_XSPI_SetClock,"ax",%progbits
  26              		.align	1
  27              		.global	SAL_XSPI_SetClock
  28              		.syntax unified
  29              		.thumb
  30              		.thumb_func
  32              	SAL_XSPI_SetClock:
  33              	.LVL0:
  34              	.LFB881:
   1:../Drivers/STM32_ExtMem_Manager/sal/stm32_sal_xspi.c **** /**
   2:../Drivers/STM32_ExtMem_Manager/sal/stm32_sal_xspi.c ****   ******************************************************************************
   3:../Drivers/STM32_ExtMem_Manager/sal/stm32_sal_xspi.c ****   * @file   stm32_sal_xspi.c
   4:../Drivers/STM32_ExtMem_Manager/sal/stm32_sal_xspi.c ****   * @author  MCD Application Team
   5:../Drivers/STM32_ExtMem_Manager/sal/stm32_sal_xspi.c ****   * @brief   This file implements the software adaptation layer for XSPI.
   6:../Drivers/STM32_ExtMem_Manager/sal/stm32_sal_xspi.c ****   ******************************************************************************
   7:../Drivers/STM32_ExtMem_Manager/sal/stm32_sal_xspi.c ****   * @attention
   8:../Drivers/STM32_ExtMem_Manager/sal/stm32_sal_xspi.c ****   *
   9:../Drivers/STM32_ExtMem_Manager/sal/stm32_sal_xspi.c ****   * Copyright (c) 2022 STMicroelectronics.
  10:../Drivers/STM32_ExtMem_Manager/sal/stm32_sal_xspi.c ****   * All rights reserved.
  11:../Drivers/STM32_ExtMem_Manager/sal/stm32_sal_xspi.c ****   *
  12:../Drivers/STM32_ExtMem_Manager/sal/stm32_sal_xspi.c ****   * This software is licensed under terms that can be found in the LICENSE file
  13:../Drivers/STM32_ExtMem_Manager/sal/stm32_sal_xspi.c ****   * in the root directory of this software component.
  14:../Drivers/STM32_ExtMem_Manager/sal/stm32_sal_xspi.c ****   * If no LICENSE file comes with this software, it is provided AS-IS.
  15:../Drivers/STM32_ExtMem_Manager/sal/stm32_sal_xspi.c ****   *
  16:../Drivers/STM32_ExtMem_Manager/sal/stm32_sal_xspi.c ****   ******************************************************************************
  17:../Drivers/STM32_ExtMem_Manager/sal/stm32_sal_xspi.c ****   */
  18:../Drivers/STM32_ExtMem_Manager/sal/stm32_sal_xspi.c **** 
  19:../Drivers/STM32_ExtMem_Manager/sal/stm32_sal_xspi.c **** /* Includes ------------------------------------------------------------------*/
  20:../Drivers/STM32_ExtMem_Manager/sal/stm32_sal_xspi.c **** #include "stm32_extmem.h"
  21:../Drivers/STM32_ExtMem_Manager/sal/stm32_sal_xspi.c **** #include "stm32_extmem_conf.h"
  22:../Drivers/STM32_ExtMem_Manager/sal/stm32_sal_xspi.c **** #if EXTMEM_SAL_XSPI_DEBUG_LEVEL != 0 && defined(EXTMEM_MACRO_DEBUG)
  23:../Drivers/STM32_ExtMem_Manager/sal/stm32_sal_xspi.c **** #include <stdio.h>
  24:../Drivers/STM32_ExtMem_Manager/sal/stm32_sal_xspi.c **** #endif /* EXTMEM_SAL_XSPI_DEBUG_LEVEL != 0 && EXTMEM_MACRO_DEBUG */
ARM GAS  /tmp/ccuJg0Ev.s 			page 2


  25:../Drivers/STM32_ExtMem_Manager/sal/stm32_sal_xspi.c **** 
  26:../Drivers/STM32_ExtMem_Manager/sal/stm32_sal_xspi.c **** #if EXTMEM_SAL_XSPI == 1
  27:../Drivers/STM32_ExtMem_Manager/sal/stm32_sal_xspi.c **** 
  28:../Drivers/STM32_ExtMem_Manager/sal/stm32_sal_xspi.c **** #include "stm32_sal_xspi_type.h"
  29:../Drivers/STM32_ExtMem_Manager/sal/stm32_sal_xspi.c **** #include "stm32_sal_xspi_api.h"
  30:../Drivers/STM32_ExtMem_Manager/sal/stm32_sal_xspi.c **** 
  31:../Drivers/STM32_ExtMem_Manager/sal/stm32_sal_xspi.c **** /** @defgroup SAL_XSPI SAL_XSPI : Software adaptation layer for XSPI
  32:../Drivers/STM32_ExtMem_Manager/sal/stm32_sal_xspi.c ****   * @ingroup EXTMEM_SAL
  33:../Drivers/STM32_ExtMem_Manager/sal/stm32_sal_xspi.c ****   * @{
  34:../Drivers/STM32_ExtMem_Manager/sal/stm32_sal_xspi.c ****   */
  35:../Drivers/STM32_ExtMem_Manager/sal/stm32_sal_xspi.c **** 
  36:../Drivers/STM32_ExtMem_Manager/sal/stm32_sal_xspi.c **** /* Private Macros ------------------------------------------------------------*/
  37:../Drivers/STM32_ExtMem_Manager/sal/stm32_sal_xspi.c **** /** @defgroup SAL_XSPI_Private_Macros SAL XSPI Private Macros
  38:../Drivers/STM32_ExtMem_Manager/sal/stm32_sal_xspi.c ****   * @{
  39:../Drivers/STM32_ExtMem_Manager/sal/stm32_sal_xspi.c ****   */
  40:../Drivers/STM32_ExtMem_Manager/sal/stm32_sal_xspi.c **** 
  41:../Drivers/STM32_ExtMem_Manager/sal/stm32_sal_xspi.c **** #if EXTMEM_SAL_XSPI_DEBUG_LEVEL == 0 || !defined(EXTMEM_MACRO_DEBUG)
  42:../Drivers/STM32_ExtMem_Manager/sal/stm32_sal_xspi.c **** #define DEBUG_PARAM_BEGIN()
  43:../Drivers/STM32_ExtMem_Manager/sal/stm32_sal_xspi.c **** #define DEBUG_PARAM_DATA(_STR_)
  44:../Drivers/STM32_ExtMem_Manager/sal/stm32_sal_xspi.c **** #define DEBUG_PARAM_INT(_INT_ )
  45:../Drivers/STM32_ExtMem_Manager/sal/stm32_sal_xspi.c **** #define DEBUG_PARAM_INTD(_INT_ )
  46:../Drivers/STM32_ExtMem_Manager/sal/stm32_sal_xspi.c **** #define DEBUG_PARAM_END()
  47:../Drivers/STM32_ExtMem_Manager/sal/stm32_sal_xspi.c **** #define DEBUG_AUTOPOLLING(_DR_,_MVAL_,_MMASK_)
  48:../Drivers/STM32_ExtMem_Manager/sal/stm32_sal_xspi.c **** #define STR_PHY_LINK(_PHY_)
  49:../Drivers/STM32_ExtMem_Manager/sal/stm32_sal_xspi.c **** #else
  50:../Drivers/STM32_ExtMem_Manager/sal/stm32_sal_xspi.c **** /**
  51:../Drivers/STM32_ExtMem_Manager/sal/stm32_sal_xspi.c ****   * @brief Trace header macro.
  52:../Drivers/STM32_ExtMem_Manager/sal/stm32_sal_xspi.c ****   */
  53:../Drivers/STM32_ExtMem_Manager/sal/stm32_sal_xspi.c **** #define DEBUG_PARAM_BEGIN()     EXTMEM_MACRO_DEBUG("\t\tSALXSPI::");
  54:../Drivers/STM32_ExtMem_Manager/sal/stm32_sal_xspi.c **** 
  55:../Drivers/STM32_ExtMem_Manager/sal/stm32_sal_xspi.c **** const uint8_t phylink_string[][17] = {"PHY_LINK_1S1S1S",
  56:../Drivers/STM32_ExtMem_Manager/sal/stm32_sal_xspi.c ****                                       "PHY_LINK_1S1S2S",
  57:../Drivers/STM32_ExtMem_Manager/sal/stm32_sal_xspi.c ****                                       "PHY_LINK_1S2S2S",
  58:../Drivers/STM32_ExtMem_Manager/sal/stm32_sal_xspi.c ****                                       "PHY_LINK_1S1D1D",
  59:../Drivers/STM32_ExtMem_Manager/sal/stm32_sal_xspi.c ****                                       "PHY_LINK_4S4S4S",
  60:../Drivers/STM32_ExtMem_Manager/sal/stm32_sal_xspi.c ****                                       "PHY_LINK_4S4D4D",
  61:../Drivers/STM32_ExtMem_Manager/sal/stm32_sal_xspi.c ****                                       "PHY_LINK_4D4D4D",
  62:../Drivers/STM32_ExtMem_Manager/sal/stm32_sal_xspi.c ****                                       "PHY_LINK_1S8S8S",
  63:../Drivers/STM32_ExtMem_Manager/sal/stm32_sal_xspi.c ****                                       "PHY_LINK_8S8D8D",
  64:../Drivers/STM32_ExtMem_Manager/sal/stm32_sal_xspi.c ****                                       "PHY_LINK_8D8D8D",
  65:../Drivers/STM32_ExtMem_Manager/sal/stm32_sal_xspi.c ****                                       "PHY_LINK_RAM8",
  66:../Drivers/STM32_ExtMem_Manager/sal/stm32_sal_xspi.c **** #if defined(HAL_XSPI_DATA_16_LINES)
  67:../Drivers/STM32_ExtMem_Manager/sal/stm32_sal_xspi.c ****                                       "PHY_LINK_RAM16",
  68:../Drivers/STM32_ExtMem_Manager/sal/stm32_sal_xspi.c **** #endif /* HAL_XSPI_DATA_16_LINES */
  69:../Drivers/STM32_ExtMem_Manager/sal/stm32_sal_xspi.c ****                                      };
  70:../Drivers/STM32_ExtMem_Manager/sal/stm32_sal_xspi.c **** 
  71:../Drivers/STM32_ExtMem_Manager/sal/stm32_sal_xspi.c **** #define STR_PHY_LINK(_PHY_)  phylink_string[_PHY_]
  72:../Drivers/STM32_ExtMem_Manager/sal/stm32_sal_xspi.c **** 
  73:../Drivers/STM32_ExtMem_Manager/sal/stm32_sal_xspi.c **** /**
  74:../Drivers/STM32_ExtMem_Manager/sal/stm32_sal_xspi.c ****   * @brief Trace data string macro.
  75:../Drivers/STM32_ExtMem_Manager/sal/stm32_sal_xspi.c ****   */
  76:../Drivers/STM32_ExtMem_Manager/sal/stm32_sal_xspi.c **** #define DEBUG_PARAM_DATA(_STR_) EXTMEM_MACRO_DEBUG(_STR_);
  77:../Drivers/STM32_ExtMem_Manager/sal/stm32_sal_xspi.c **** 
  78:../Drivers/STM32_ExtMem_Manager/sal/stm32_sal_xspi.c **** /**
  79:../Drivers/STM32_ExtMem_Manager/sal/stm32_sal_xspi.c ****   * @brief Trace data integer macro.
  80:../Drivers/STM32_ExtMem_Manager/sal/stm32_sal_xspi.c ****   */
  81:../Drivers/STM32_ExtMem_Manager/sal/stm32_sal_xspi.c **** #define DEBUG_PARAM_INT(_INT_)                         \
ARM GAS  /tmp/ccuJg0Ev.s 			page 3


  82:../Drivers/STM32_ExtMem_Manager/sal/stm32_sal_xspi.c ****   {                                                    \
  83:../Drivers/STM32_ExtMem_Manager/sal/stm32_sal_xspi.c ****     char str[10];                                      \
  84:../Drivers/STM32_ExtMem_Manager/sal/stm32_sal_xspi.c ****     (void)snprintf(str, sizeof(str), "0x%x", _INT_);   \
  85:../Drivers/STM32_ExtMem_Manager/sal/stm32_sal_xspi.c ****     EXTMEM_MACRO_DEBUG(str);                           \
  86:../Drivers/STM32_ExtMem_Manager/sal/stm32_sal_xspi.c ****   }
  87:../Drivers/STM32_ExtMem_Manager/sal/stm32_sal_xspi.c **** 
  88:../Drivers/STM32_ExtMem_Manager/sal/stm32_sal_xspi.c **** #define DEBUG_PARAM_INTD(_INT_)                        \
  89:../Drivers/STM32_ExtMem_Manager/sal/stm32_sal_xspi.c ****   {                                                    \
  90:../Drivers/STM32_ExtMem_Manager/sal/stm32_sal_xspi.c ****     char str[15];                                      \
  91:../Drivers/STM32_ExtMem_Manager/sal/stm32_sal_xspi.c ****     (void)snprintf(str, sizeof(str), "%zu", _INT_);    \
  92:../Drivers/STM32_ExtMem_Manager/sal/stm32_sal_xspi.c ****     EXTMEM_MACRO_DEBUG(str);                           \
  93:../Drivers/STM32_ExtMem_Manager/sal/stm32_sal_xspi.c ****   }
  94:../Drivers/STM32_ExtMem_Manager/sal/stm32_sal_xspi.c **** 
  95:../Drivers/STM32_ExtMem_Manager/sal/stm32_sal_xspi.c **** /**
  96:../Drivers/STM32_ExtMem_Manager/sal/stm32_sal_xspi.c ****   * @brief Trace close macro
  97:../Drivers/STM32_ExtMem_Manager/sal/stm32_sal_xspi.c ****   */
  98:../Drivers/STM32_ExtMem_Manager/sal/stm32_sal_xspi.c **** #define DEBUG_PARAM_END()       EXTMEM_MACRO_DEBUG("\n");
  99:../Drivers/STM32_ExtMem_Manager/sal/stm32_sal_xspi.c **** 
 100:../Drivers/STM32_ExtMem_Manager/sal/stm32_sal_xspi.c **** #if EXTMEM_SAL_XSPI_DEBUG_LEVEL == 2
 101:../Drivers/STM32_ExtMem_Manager/sal/stm32_sal_xspi.c **** #define DEBUG_AUTOPOLLING(_DR_,_MVAL_,_MMASK_)                                                    \
 102:../Drivers/STM32_ExtMem_Manager/sal/stm32_sal_xspi.c ****   {                                                                                               \
 103:../Drivers/STM32_ExtMem_Manager/sal/stm32_sal_xspi.c ****     char str[50];                                                                                 \
 104:../Drivers/STM32_ExtMem_Manager/sal/stm32_sal_xspi.c ****     (void)snprintf(str, sizeof(str),"DR:0x%x::MVal:0x%x::MMask:0x%x\n\r", _DR_, _MVAL_, _MMASK_); \
 105:../Drivers/STM32_ExtMem_Manager/sal/stm32_sal_xspi.c ****     DEBUG_PARAM_BEGIN()                                                                           \
 106:../Drivers/STM32_ExtMem_Manager/sal/stm32_sal_xspi.c ****     DEBUG_PARAM_DATA(str)                                                                         \
 107:../Drivers/STM32_ExtMem_Manager/sal/stm32_sal_xspi.c ****     DEBUG_PARAM_END()                                                                             \
 108:../Drivers/STM32_ExtMem_Manager/sal/stm32_sal_xspi.c ****   }
 109:../Drivers/STM32_ExtMem_Manager/sal/stm32_sal_xspi.c **** #else
 110:../Drivers/STM32_ExtMem_Manager/sal/stm32_sal_xspi.c **** #define DEBUG_AUTOPOLLING(_DR_,_MVAL_,_MMASK_)
 111:../Drivers/STM32_ExtMem_Manager/sal/stm32_sal_xspi.c **** #endif /* EXTMEM_SAL_XSPI_DEBUG_LEVEL == 2 */
 112:../Drivers/STM32_ExtMem_Manager/sal/stm32_sal_xspi.c **** #endif /* EXTMEM_SAL_XSPI_DEBUG_LEVEL == 0 || !EXTMEM_MACRO_DEBUG */
 113:../Drivers/STM32_ExtMem_Manager/sal/stm32_sal_xspi.c **** 
 114:../Drivers/STM32_ExtMem_Manager/sal/stm32_sal_xspi.c **** /**
 115:../Drivers/STM32_ExtMem_Manager/sal/stm32_sal_xspi.c ****   * @brief Default SAL timeout (100 ms)
 116:../Drivers/STM32_ExtMem_Manager/sal/stm32_sal_xspi.c ****   */
 117:../Drivers/STM32_ExtMem_Manager/sal/stm32_sal_xspi.c **** 
 118:../Drivers/STM32_ExtMem_Manager/sal/stm32_sal_xspi.c **** #define SAL_XSPI_TIMEOUT_DEFAULT_VALUE (100U)
 119:../Drivers/STM32_ExtMem_Manager/sal/stm32_sal_xspi.c **** 
 120:../Drivers/STM32_ExtMem_Manager/sal/stm32_sal_xspi.c **** /**
 121:../Drivers/STM32_ExtMem_Manager/sal/stm32_sal_xspi.c ****   * @}
 122:../Drivers/STM32_ExtMem_Manager/sal/stm32_sal_xspi.c ****   */
 123:../Drivers/STM32_ExtMem_Manager/sal/stm32_sal_xspi.c **** 
 124:../Drivers/STM32_ExtMem_Manager/sal/stm32_sal_xspi.c **** #if defined (USE_HAL_XSPI_REGISTER_CALLBACKS) && (USE_HAL_XSPI_REGISTER_CALLBACKS == 1U)
 125:../Drivers/STM32_ExtMem_Manager/sal/stm32_sal_xspi.c **** /** @defgroup SAL_XSPI_Private_Transfer SAL XSPI Dma transfer management definition
 126:../Drivers/STM32_ExtMem_Manager/sal/stm32_sal_xspi.c ****   * @{
 127:../Drivers/STM32_ExtMem_Manager/sal/stm32_sal_xspi.c ****   */
 128:../Drivers/STM32_ExtMem_Manager/sal/stm32_sal_xspi.c **** /**
 129:../Drivers/STM32_ExtMem_Manager/sal/stm32_sal_xspi.c ****   * @brief State of the transfer status
 130:../Drivers/STM32_ExtMem_Manager/sal/stm32_sal_xspi.c ****   */
 131:../Drivers/STM32_ExtMem_Manager/sal/stm32_sal_xspi.c **** typedef enum
 132:../Drivers/STM32_ExtMem_Manager/sal/stm32_sal_xspi.c **** {
 133:../Drivers/STM32_ExtMem_Manager/sal/stm32_sal_xspi.c ****   SALXSPI_TRANSFER_NONE, /*!< */
 134:../Drivers/STM32_ExtMem_Manager/sal/stm32_sal_xspi.c ****   SALXSPI_TRANSFER_OK,
 135:../Drivers/STM32_ExtMem_Manager/sal/stm32_sal_xspi.c ****   SALXSPI_TRANSFER_ERROR
 136:../Drivers/STM32_ExtMem_Manager/sal/stm32_sal_xspi.c **** } SAL_XSPI_TRANSFER_STATUS;
 137:../Drivers/STM32_ExtMem_Manager/sal/stm32_sal_xspi.c **** 
 138:../Drivers/STM32_ExtMem_Manager/sal/stm32_sal_xspi.c **** /**
ARM GAS  /tmp/ccuJg0Ev.s 			page 4


 139:../Drivers/STM32_ExtMem_Manager/sal/stm32_sal_xspi.c ****   * @brief Variable of the transfer status
 140:../Drivers/STM32_ExtMem_Manager/sal/stm32_sal_xspi.c ****   */
 141:../Drivers/STM32_ExtMem_Manager/sal/stm32_sal_xspi.c **** volatile SAL_XSPI_TRANSFER_STATUS salXSPI_status = SALXSPI_TRANSFER_NONE;
 142:../Drivers/STM32_ExtMem_Manager/sal/stm32_sal_xspi.c **** 
 143:../Drivers/STM32_ExtMem_Manager/sal/stm32_sal_xspi.c **** /**
 144:../Drivers/STM32_ExtMem_Manager/sal/stm32_sal_xspi.c ****   * @}
 145:../Drivers/STM32_ExtMem_Manager/sal/stm32_sal_xspi.c ****   */
 146:../Drivers/STM32_ExtMem_Manager/sal/stm32_sal_xspi.c **** #endif /* USE_HAL_XSPI_REGISTER_CALLBACKS */
 147:../Drivers/STM32_ExtMem_Manager/sal/stm32_sal_xspi.c **** 
 148:../Drivers/STM32_ExtMem_Manager/sal/stm32_sal_xspi.c **** /* Private typedefs ---------------------------------------------------------*/
 149:../Drivers/STM32_ExtMem_Manager/sal/stm32_sal_xspi.c **** /* Private functions ---------------------------------------------------------*/
 150:../Drivers/STM32_ExtMem_Manager/sal/stm32_sal_xspi.c **** /** @defgroup SAL_XSPI_Private_Functions SAL XSP Private Functions
 151:../Drivers/STM32_ExtMem_Manager/sal/stm32_sal_xspi.c ****   * @{
 152:../Drivers/STM32_ExtMem_Manager/sal/stm32_sal_xspi.c ****   */
 153:../Drivers/STM32_ExtMem_Manager/sal/stm32_sal_xspi.c **** uint16_t XSPI_FormatCommand(uint8_t CommandExtension, uint32_t InstructionWidth, uint8_t Command);
 154:../Drivers/STM32_ExtMem_Manager/sal/stm32_sal_xspi.c **** HAL_StatusTypeDef XSPI_Transmit(SAL_XSPI_ObjectTypeDef *SalXspi, const uint8_t *Data);
 155:../Drivers/STM32_ExtMem_Manager/sal/stm32_sal_xspi.c **** HAL_StatusTypeDef XSPI_Receive(SAL_XSPI_ObjectTypeDef *SalXspi,  uint8_t *Data);
 156:../Drivers/STM32_ExtMem_Manager/sal/stm32_sal_xspi.c **** #if defined (USE_HAL_XSPI_REGISTER_CALLBACKS) && (USE_HAL_XSPI_REGISTER_CALLBACKS == 1U)
 157:../Drivers/STM32_ExtMem_Manager/sal/stm32_sal_xspi.c **** void SAL_XSPI_ErrorCallback(struct __XSPI_HandleTypeDef *hxspi);
 158:../Drivers/STM32_ExtMem_Manager/sal/stm32_sal_xspi.c **** void SAL_XSPI_CompleteCallback(struct __XSPI_HandleTypeDef *hxspi);
 159:../Drivers/STM32_ExtMem_Manager/sal/stm32_sal_xspi.c **** #endif /* USE_HAL_XSPI_REGISTER_CALLBACKS */
 160:../Drivers/STM32_ExtMem_Manager/sal/stm32_sal_xspi.c **** 
 161:../Drivers/STM32_ExtMem_Manager/sal/stm32_sal_xspi.c **** /**
 162:../Drivers/STM32_ExtMem_Manager/sal/stm32_sal_xspi.c ****   * @}
 163:../Drivers/STM32_ExtMem_Manager/sal/stm32_sal_xspi.c ****   */
 164:../Drivers/STM32_ExtMem_Manager/sal/stm32_sal_xspi.c **** 
 165:../Drivers/STM32_ExtMem_Manager/sal/stm32_sal_xspi.c **** /* Exported variables ---------------------------------------------------------*/
 166:../Drivers/STM32_ExtMem_Manager/sal/stm32_sal_xspi.c **** /* Private variables ---------------------------------------------------------*/
 167:../Drivers/STM32_ExtMem_Manager/sal/stm32_sal_xspi.c **** 
 168:../Drivers/STM32_ExtMem_Manager/sal/stm32_sal_xspi.c **** 
 169:../Drivers/STM32_ExtMem_Manager/sal/stm32_sal_xspi.c **** /** @defgroup SAL_XSPI_Exported_Functions SAL XSP Exported Functions
 170:../Drivers/STM32_ExtMem_Manager/sal/stm32_sal_xspi.c ****   * @{
 171:../Drivers/STM32_ExtMem_Manager/sal/stm32_sal_xspi.c ****   */
 172:../Drivers/STM32_ExtMem_Manager/sal/stm32_sal_xspi.c **** 
 173:../Drivers/STM32_ExtMem_Manager/sal/stm32_sal_xspi.c **** /**
 174:../Drivers/STM32_ExtMem_Manager/sal/stm32_sal_xspi.c ****   * @brief This function sets the clock according the clock in and the expected clock
 175:../Drivers/STM32_ExtMem_Manager/sal/stm32_sal_xspi.c ****   * @param SalXspi SAL XSPI handle
 176:../Drivers/STM32_ExtMem_Manager/sal/stm32_sal_xspi.c ****   * @param ClockIn Clock in input
 177:../Drivers/STM32_ExtMem_Manager/sal/stm32_sal_xspi.c ****   * @param ClockRequested Clock requested
 178:../Drivers/STM32_ExtMem_Manager/sal/stm32_sal_xspi.c ****   * @param ClockReal Pointer on the value of the real clock used
 179:../Drivers/STM32_ExtMem_Manager/sal/stm32_sal_xspi.c ****   * @return @ref HAL_StatusTypeDef
 180:../Drivers/STM32_ExtMem_Manager/sal/stm32_sal_xspi.c ****   **/
 181:../Drivers/STM32_ExtMem_Manager/sal/stm32_sal_xspi.c **** HAL_StatusTypeDef SAL_XSPI_SetClock(SAL_XSPI_ObjectTypeDef *SalXspi, uint32_t ClockIn, uint32_t Clo
 182:../Drivers/STM32_ExtMem_Manager/sal/stm32_sal_xspi.c ****                                     uint32_t *ClockReal)
 183:../Drivers/STM32_ExtMem_Manager/sal/stm32_sal_xspi.c **** {
  35              		.loc 1 183 1 view -0
  36              		.cfi_startproc
  37              		@ args = 0, pretend = 0, frame = 0
  38              		@ frame_needed = 0, uses_anonymous_args = 0
 184:../Drivers/STM32_ExtMem_Manager/sal/stm32_sal_xspi.c ****   HAL_StatusTypeDef retr = HAL_OK;
  39              		.loc 1 184 3 view .LVU1
 185:../Drivers/STM32_ExtMem_Manager/sal/stm32_sal_xspi.c ****   uint32_t divider;
  40              		.loc 1 185 3 view .LVU2
 186:../Drivers/STM32_ExtMem_Manager/sal/stm32_sal_xspi.c **** 
 187:../Drivers/STM32_ExtMem_Manager/sal/stm32_sal_xspi.c ****   if (ClockRequested == 0u)
  41              		.loc 1 187 3 view .LVU3
  42              		.loc 1 187 6 is_stmt 0 view .LVU4
ARM GAS  /tmp/ccuJg0Ev.s 			page 5


  43 0000 D2B1     		cbz	r2, .L6
 183:../Drivers/STM32_ExtMem_Manager/sal/stm32_sal_xspi.c ****   HAL_StatusTypeDef retr = HAL_OK;
  44              		.loc 1 183 1 view .LVU5
  45 0002 00B5     		push	{lr}
  46              	.LCFI0:
  47              		.cfi_def_cfa_offset 4
  48              		.cfi_offset 14, -4
  49 0004 9446     		mov	ip, r2
 188:../Drivers/STM32_ExtMem_Manager/sal/stm32_sal_xspi.c ****   {
 189:../Drivers/STM32_ExtMem_Manager/sal/stm32_sal_xspi.c ****     retr = HAL_ERROR;
 190:../Drivers/STM32_ExtMem_Manager/sal/stm32_sal_xspi.c ****   }
 191:../Drivers/STM32_ExtMem_Manager/sal/stm32_sal_xspi.c ****   else
 192:../Drivers/STM32_ExtMem_Manager/sal/stm32_sal_xspi.c ****   {
 193:../Drivers/STM32_ExtMem_Manager/sal/stm32_sal_xspi.c ****     divider = (ClockIn / ClockRequested);
  50              		.loc 1 193 5 is_stmt 1 view .LVU6
  51              		.loc 1 193 13 is_stmt 0 view .LVU7
  52 0006 B1FBF2F2 		udiv	r2, r1, r2
  53              	.LVL1:
 194:../Drivers/STM32_ExtMem_Manager/sal/stm32_sal_xspi.c ****     if (divider >= 1u)
  54              		.loc 1 194 5 is_stmt 1 view .LVU8
  55              		.loc 1 194 8 is_stmt 0 view .LVU9
  56 000a 8C45     		cmp	ip, r1
  57 000c 06D8     		bhi	.L4
 195:../Drivers/STM32_ExtMem_Manager/sal/stm32_sal_xspi.c ****     {
 196:../Drivers/STM32_ExtMem_Manager/sal/stm32_sal_xspi.c ****       *ClockReal = ClockIn / divider;
  58              		.loc 1 196 7 is_stmt 1 view .LVU10
  59              		.loc 1 196 28 is_stmt 0 view .LVU11
  60 000e B1FBF2FE 		udiv	lr, r1, r2
  61              		.loc 1 196 18 view .LVU12
  62 0012 C3F800E0 		str	lr, [r3]
 197:../Drivers/STM32_ExtMem_Manager/sal/stm32_sal_xspi.c ****       if (*ClockReal <= ClockRequested)
  63              		.loc 1 197 7 is_stmt 1 view .LVU13
  64              		.loc 1 197 10 is_stmt 0 view .LVU14
  65 0016 E645     		cmp	lr, ip
  66 0018 00D8     		bhi	.L4
 198:../Drivers/STM32_ExtMem_Manager/sal/stm32_sal_xspi.c ****       {
 199:../Drivers/STM32_ExtMem_Manager/sal/stm32_sal_xspi.c ****         divider--;
  67              		.loc 1 199 9 is_stmt 1 view .LVU15
  68              		.loc 1 199 16 is_stmt 0 view .LVU16
  69 001a 013A     		subs	r2, r2, #1
  70              	.LVL2:
  71              	.L4:
 200:../Drivers/STM32_ExtMem_Manager/sal/stm32_sal_xspi.c ****       }
 201:../Drivers/STM32_ExtMem_Manager/sal/stm32_sal_xspi.c ****     }
 202:../Drivers/STM32_ExtMem_Manager/sal/stm32_sal_xspi.c **** 
 203:../Drivers/STM32_ExtMem_Manager/sal/stm32_sal_xspi.c ****     /* Real clock calculation */
 204:../Drivers/STM32_ExtMem_Manager/sal/stm32_sal_xspi.c ****     *ClockReal = ClockIn / (divider + 1u);
  72              		.loc 1 204 5 is_stmt 1 view .LVU17
  73              		.loc 1 204 37 is_stmt 0 view .LVU18
  74 001c 02F1010C 		add	ip, r2, #1
  75              	.LVL3:
  76              		.loc 1 204 26 view .LVU19
  77 0020 B1FBFCF1 		udiv	r1, r1, ip
  78              	.LVL4:
  79              		.loc 1 204 16 view .LVU20
  80 0024 1960     		str	r1, [r3]
 205:../Drivers/STM32_ExtMem_Manager/sal/stm32_sal_xspi.c **** 
ARM GAS  /tmp/ccuJg0Ev.s 			page 6


 206:../Drivers/STM32_ExtMem_Manager/sal/stm32_sal_xspi.c ****     DEBUG_PARAM_BEGIN();
  81              		.loc 1 206 24 is_stmt 1 view .LVU21
 207:../Drivers/STM32_ExtMem_Manager/sal/stm32_sal_xspi.c ****     DEBUG_PARAM_DATA("::CLOCKDIV::");
  82              		.loc 1 207 37 view .LVU22
 208:../Drivers/STM32_ExtMem_Manager/sal/stm32_sal_xspi.c ****     DEBUG_PARAM_INT(divider + 1);
  83              		.loc 1 208 33 view .LVU23
 209:../Drivers/STM32_ExtMem_Manager/sal/stm32_sal_xspi.c ****     DEBUG_PARAM_END();
  84              		.loc 1 209 22 view .LVU24
 210:../Drivers/STM32_ExtMem_Manager/sal/stm32_sal_xspi.c ****     DEBUG_PARAM_BEGIN();
  85              		.loc 1 210 24 view .LVU25
 211:../Drivers/STM32_ExtMem_Manager/sal/stm32_sal_xspi.c ****     DEBUG_PARAM_DATA("::CLKFREQ::");
  86              		.loc 1 211 36 view .LVU26
 212:../Drivers/STM32_ExtMem_Manager/sal/stm32_sal_xspi.c ****     DEBUG_PARAM_INTD(*ClockReal);
  87              		.loc 1 212 33 view .LVU27
 213:../Drivers/STM32_ExtMem_Manager/sal/stm32_sal_xspi.c ****     DEBUG_PARAM_END();
  88              		.loc 1 213 22 view .LVU28
 214:../Drivers/STM32_ExtMem_Manager/sal/stm32_sal_xspi.c ****     MODIFY_REG(SalXspi->hxspi->Instance->DCR2, XSPI_DCR2_PRESCALER, (uint32_t)divider << XSPI_DCR2_
  89              		.loc 1 214 5 view .LVU29
  90 0026 0368     		ldr	r3, [r0]
  91              	.LVL5:
  92              		.loc 1 214 5 is_stmt 0 view .LVU30
  93 0028 1968     		ldr	r1, [r3]
  94 002a CB68     		ldr	r3, [r1, #12]
  95 002c 23F0FF03 		bic	r3, r3, #255
  96 0030 1343     		orrs	r3, r3, r2
  97 0032 CB60     		str	r3, [r1, #12]
 184:../Drivers/STM32_ExtMem_Manager/sal/stm32_sal_xspi.c ****   uint32_t divider;
  98              		.loc 1 184 21 view .LVU31
  99 0034 0020     		movs	r0, #0
 100              	.LVL6:
 215:../Drivers/STM32_ExtMem_Manager/sal/stm32_sal_xspi.c ****   }
 216:../Drivers/STM32_ExtMem_Manager/sal/stm32_sal_xspi.c **** 
 217:../Drivers/STM32_ExtMem_Manager/sal/stm32_sal_xspi.c ****   return retr;
 101              		.loc 1 217 3 is_stmt 1 view .LVU32
 218:../Drivers/STM32_ExtMem_Manager/sal/stm32_sal_xspi.c **** }
 102              		.loc 1 218 1 is_stmt 0 view .LVU33
 103 0036 00BD     		pop	{pc}
 104              	.LVL7:
 105              	.L6:
 106              	.LCFI1:
 107              		.cfi_def_cfa_offset 0
 108              		.cfi_restore 14
 189:../Drivers/STM32_ExtMem_Manager/sal/stm32_sal_xspi.c ****   }
 109              		.loc 1 189 10 view .LVU34
 110 0038 0120     		movs	r0, #1
 111              	.LVL8:
 217:../Drivers/STM32_ExtMem_Manager/sal/stm32_sal_xspi.c **** }
 112              		.loc 1 217 3 is_stmt 1 view .LVU35
 113              		.loc 1 218 1 is_stmt 0 view .LVU36
 114 003a 7047     		bx	lr
 115              		.cfi_endproc
 116              	.LFE881:
 118              		.section	.text.SAL_XSPI_Init,"ax",%progbits
 119              		.align	1
 120              		.global	SAL_XSPI_Init
 121              		.syntax unified
 122              		.thumb
ARM GAS  /tmp/ccuJg0Ev.s 			page 7


 123              		.thumb_func
 125              	SAL_XSPI_Init:
 126              	.LVL9:
 127              	.LFB882:
 219:../Drivers/STM32_ExtMem_Manager/sal/stm32_sal_xspi.c **** 
 220:../Drivers/STM32_ExtMem_Manager/sal/stm32_sal_xspi.c **** /**
 221:../Drivers/STM32_ExtMem_Manager/sal/stm32_sal_xspi.c ****   * @brief This function is used to configure the way to discuss with the memory
 222:../Drivers/STM32_ExtMem_Manager/sal/stm32_sal_xspi.c ****   * @param SalXspi SAL XSPI handle
 223:../Drivers/STM32_ExtMem_Manager/sal/stm32_sal_xspi.c ****   * @param HALHandle HAl XSPI handle used for memory access
 224:../Drivers/STM32_ExtMem_Manager/sal/stm32_sal_xspi.c ****   * @return @ref HAL_StatusTypeDef
 225:../Drivers/STM32_ExtMem_Manager/sal/stm32_sal_xspi.c ****   **/
 226:../Drivers/STM32_ExtMem_Manager/sal/stm32_sal_xspi.c **** HAL_StatusTypeDef SAL_XSPI_Init(SAL_XSPI_ObjectTypeDef *SalXspi, void *HALHandle)
 227:../Drivers/STM32_ExtMem_Manager/sal/stm32_sal_xspi.c **** {
 128              		.loc 1 227 1 is_stmt 1 view -0
 129              		.cfi_startproc
 130              		@ args = 0, pretend = 0, frame = 80
 131              		@ frame_needed = 0, uses_anonymous_args = 0
 132              		.loc 1 227 1 is_stmt 0 view .LVU38
 133 0000 F0B5     		push	{r4, r5, r6, r7, lr}
 134              	.LCFI2:
 135              		.cfi_def_cfa_offset 20
 136              		.cfi_offset 4, -20
 137              		.cfi_offset 5, -16
 138              		.cfi_offset 6, -12
 139              		.cfi_offset 7, -8
 140              		.cfi_offset 14, -4
 141 0002 95B0     		sub	sp, sp, #84
 142              	.LCFI3:
 143              		.cfi_def_cfa_offset 104
 144 0004 0446     		mov	r4, r0
 145 0006 0F46     		mov	r7, r1
 228:../Drivers/STM32_ExtMem_Manager/sal/stm32_sal_xspi.c ****   XSPI_RegularCmdTypeDef s_commandbase =
 146              		.loc 1 228 3 is_stmt 1 view .LVU39
 147              		.loc 1 228 26 is_stmt 0 view .LVU40
 148 0008 01AD     		add	r5, sp, #4
 149 000a 4C26     		movs	r6, #76
 150 000c 3246     		mov	r2, r6
 151 000e 0021     		movs	r1, #0
 152              	.LVL10:
 153              		.loc 1 228 26 view .LVU41
 154 0010 2846     		mov	r0, r5
 155              	.LVL11:
 156              		.loc 1 228 26 view .LVU42
 157 0012 FFF7FEFF 		bl	memset
 158              	.LVL12:
 159 0016 5A23     		movs	r3, #90
 160 0018 0393     		str	r3, [sp, #12]
 161 001a 0123     		movs	r3, #1
 162 001c 0493     		str	r3, [sp, #16]
 163 001e 4FF48073 		mov	r3, #256
 164 0022 0893     		str	r3, [sp, #32]
 165 0024 4FF40053 		mov	r3, #8192
 166 0028 0993     		str	r3, [sp, #36]
 167 002a 4FF08073 		mov	r3, #16777216
 168 002e 0F93     		str	r3, [sp, #60]
 169 0030 0823     		movs	r3, #8
 170 0032 1293     		str	r3, [sp, #72]
ARM GAS  /tmp/ccuJg0Ev.s 			page 8


 229:../Drivers/STM32_ExtMem_Manager/sal/stm32_sal_xspi.c ****   {
 230:../Drivers/STM32_ExtMem_Manager/sal/stm32_sal_xspi.c ****     .OperationType = HAL_XSPI_OPTYPE_COMMON_CFG,
 231:../Drivers/STM32_ExtMem_Manager/sal/stm32_sal_xspi.c ****     .IOSelect = HAL_XSPI_SELECT_IO_7_0,
 232:../Drivers/STM32_ExtMem_Manager/sal/stm32_sal_xspi.c ****     .InstructionMode = HAL_XSPI_INSTRUCTION_1_LINE,
 233:../Drivers/STM32_ExtMem_Manager/sal/stm32_sal_xspi.c ****     .Instruction = EXTMEM_READ_SFDP_COMMAND,
 234:../Drivers/STM32_ExtMem_Manager/sal/stm32_sal_xspi.c ****     .InstructionWidth = HAL_XSPI_INSTRUCTION_8_BITS,
 235:../Drivers/STM32_ExtMem_Manager/sal/stm32_sal_xspi.c ****     .InstructionDTRMode = HAL_XSPI_INSTRUCTION_DTR_DISABLE,
 236:../Drivers/STM32_ExtMem_Manager/sal/stm32_sal_xspi.c ****     .AlternateBytesMode = HAL_XSPI_ALT_BYTES_NONE,
 237:../Drivers/STM32_ExtMem_Manager/sal/stm32_sal_xspi.c ****     .AddressMode = HAL_XSPI_ADDRESS_1_LINE,
 238:../Drivers/STM32_ExtMem_Manager/sal/stm32_sal_xspi.c ****     .AddressWidth = HAL_XSPI_ADDRESS_24_BITS,
 239:../Drivers/STM32_ExtMem_Manager/sal/stm32_sal_xspi.c ****     .Address = 0x0,
 240:../Drivers/STM32_ExtMem_Manager/sal/stm32_sal_xspi.c ****     .AddressDTRMode = HAL_XSPI_ADDRESS_DTR_DISABLE,
 241:../Drivers/STM32_ExtMem_Manager/sal/stm32_sal_xspi.c ****     .DataMode = HAL_XSPI_DATA_1_LINE,
 242:../Drivers/STM32_ExtMem_Manager/sal/stm32_sal_xspi.c ****     .DataLength = 0x0,
 243:../Drivers/STM32_ExtMem_Manager/sal/stm32_sal_xspi.c ****     .DataDTRMode = HAL_XSPI_DATA_DTR_DISABLE,
 244:../Drivers/STM32_ExtMem_Manager/sal/stm32_sal_xspi.c ****     .DummyCycles = EXTMEM_READ_SFDP_NB_DUMMY_CYCLES_DEFAULT,
 245:../Drivers/STM32_ExtMem_Manager/sal/stm32_sal_xspi.c ****     .DQSMode = HAL_XSPI_DQS_DISABLE,
 246:../Drivers/STM32_ExtMem_Manager/sal/stm32_sal_xspi.c **** #if defined(XSPI_CCR_SIOO)
 247:../Drivers/STM32_ExtMem_Manager/sal/stm32_sal_xspi.c ****     .SIOOMode = HAL_XSPI_SIOO_INST_EVERY_CMD,
 248:../Drivers/STM32_ExtMem_Manager/sal/stm32_sal_xspi.c **** #endif /* XSPI_CCR_SIOO */
 249:../Drivers/STM32_ExtMem_Manager/sal/stm32_sal_xspi.c ****   };
 250:../Drivers/STM32_ExtMem_Manager/sal/stm32_sal_xspi.c **** 
 251:../Drivers/STM32_ExtMem_Manager/sal/stm32_sal_xspi.c ****   SalXspi->hxspi = (XSPI_HandleTypeDef *)HALHandle;
 171              		.loc 1 251 3 is_stmt 1 view .LVU43
 172              		.loc 1 251 18 is_stmt 0 view .LVU44
 173 0034 2046     		mov	r0, r4
 174 0036 40F8047B 		str	r7, [r0], #4
 252:../Drivers/STM32_ExtMem_Manager/sal/stm32_sal_xspi.c ****   SalXspi->Commandbase = s_commandbase;
 175              		.loc 1 252 3 is_stmt 1 view .LVU45
 176              		.loc 1 252 24 is_stmt 0 view .LVU46
 177 003a 3246     		mov	r2, r6
 178 003c 2946     		mov	r1, r5
 179 003e FFF7FEFF 		bl	memcpy
 180              	.LVL13:
 253:../Drivers/STM32_ExtMem_Manager/sal/stm32_sal_xspi.c ****   SalXspi->CommandExtension = 0;
 181              		.loc 1 253 3 is_stmt 1 view .LVU47
 182              		.loc 1 253 29 is_stmt 0 view .LVU48
 183 0042 0020     		movs	r0, #0
 184 0044 84F85000 		strb	r0, [r4, #80]
 254:../Drivers/STM32_ExtMem_Manager/sal/stm32_sal_xspi.c ****   SalXspi->PhyLink = PHY_LINK_1S1S1S;
 185              		.loc 1 254 3 is_stmt 1 view .LVU49
 186              		.loc 1 254 20 is_stmt 0 view .LVU50
 187 0048 84F85200 		strb	r0, [r4, #82]
 255:../Drivers/STM32_ExtMem_Manager/sal/stm32_sal_xspi.c **** 
 256:../Drivers/STM32_ExtMem_Manager/sal/stm32_sal_xspi.c **** #if defined (USE_HAL_XSPI_REGISTER_CALLBACKS) && (USE_HAL_XSPI_REGISTER_CALLBACKS == 1U)
 257:../Drivers/STM32_ExtMem_Manager/sal/stm32_sal_xspi.c ****   /* Set completion call back */
 258:../Drivers/STM32_ExtMem_Manager/sal/stm32_sal_xspi.c ****   HAL_XSPI_RegisterCallback(SalXspi->hxspi, HAL_XSPI_RX_CPLT_CB_ID, SAL_XSPI_CompleteCallback);
 259:../Drivers/STM32_ExtMem_Manager/sal/stm32_sal_xspi.c ****   HAL_XSPI_RegisterCallback(SalXspi->hxspi, HAL_XSPI_TX_CPLT_CB_ID, SAL_XSPI_CompleteCallback);
 260:../Drivers/STM32_ExtMem_Manager/sal/stm32_sal_xspi.c ****   /* Set the error callback */
 261:../Drivers/STM32_ExtMem_Manager/sal/stm32_sal_xspi.c ****   HAL_XSPI_RegisterCallback(SalXspi->hxspi, HAL_XSPI_ERROR_CB_ID, SAL_XSPI_ErrorCallback);
 262:../Drivers/STM32_ExtMem_Manager/sal/stm32_sal_xspi.c **** #endif /* USE_HAL_XSPI_REGISTER_CALLBACKS */
 263:../Drivers/STM32_ExtMem_Manager/sal/stm32_sal_xspi.c **** 
 264:../Drivers/STM32_ExtMem_Manager/sal/stm32_sal_xspi.c ****   return HAL_OK;
 188              		.loc 1 264 3 is_stmt 1 view .LVU51
 265:../Drivers/STM32_ExtMem_Manager/sal/stm32_sal_xspi.c **** }
 189              		.loc 1 265 1 is_stmt 0 view .LVU52
 190 004c 15B0     		add	sp, sp, #84
ARM GAS  /tmp/ccuJg0Ev.s 			page 9


 191              	.LCFI4:
 192              		.cfi_def_cfa_offset 20
 193              		@ sp needed
 194 004e F0BD     		pop	{r4, r5, r6, r7, pc}
 195              		.loc 1 265 1 view .LVU53
 196              		.cfi_endproc
 197              	.LFE882:
 199              		.section	.text.SAL_XSPI_MemoryConfig,"ax",%progbits
 200              		.align	1
 201              		.global	SAL_XSPI_MemoryConfig
 202              		.syntax unified
 203              		.thumb
 204              		.thumb_func
 206              	SAL_XSPI_MemoryConfig:
 207              	.LVL14:
 208              	.LFB883:
 266:../Drivers/STM32_ExtMem_Manager/sal/stm32_sal_xspi.c **** 
 267:../Drivers/STM32_ExtMem_Manager/sal/stm32_sal_xspi.c **** /**
 268:../Drivers/STM32_ExtMem_Manager/sal/stm32_sal_xspi.c ****   * @brief This function sets a configuration parameter
 269:../Drivers/STM32_ExtMem_Manager/sal/stm32_sal_xspi.c ****   * @param SalXspi SAL XSPI handle
 270:../Drivers/STM32_ExtMem_Manager/sal/stm32_sal_xspi.c ****   * @param ParametersType @ref SAL_XSPI_MemParamTypeTypeDef
 271:../Drivers/STM32_ExtMem_Manager/sal/stm32_sal_xspi.c ****   * @param ParamVal Pointer on the parameter value
 272:../Drivers/STM32_ExtMem_Manager/sal/stm32_sal_xspi.c ****   * @return @ref HAL_StatusTypeDef
 273:../Drivers/STM32_ExtMem_Manager/sal/stm32_sal_xspi.c ****   **/
 274:../Drivers/STM32_ExtMem_Manager/sal/stm32_sal_xspi.c **** HAL_StatusTypeDef SAL_XSPI_MemoryConfig(SAL_XSPI_ObjectTypeDef *SalXspi, SAL_XSPI_MemParamTypeTypeD
 275:../Drivers/STM32_ExtMem_Manager/sal/stm32_sal_xspi.c ****                                         void *ParamVal)
 276:../Drivers/STM32_ExtMem_Manager/sal/stm32_sal_xspi.c **** {
 209              		.loc 1 276 1 is_stmt 1 view -0
 210              		.cfi_startproc
 211              		@ args = 0, pretend = 0, frame = 80
 212              		@ frame_needed = 0, uses_anonymous_args = 0
 213              		.loc 1 276 1 is_stmt 0 view .LVU55
 214 0000 70B5     		push	{r4, r5, r6, lr}
 215              	.LCFI5:
 216              		.cfi_def_cfa_offset 16
 217              		.cfi_offset 4, -16
 218              		.cfi_offset 5, -12
 219              		.cfi_offset 6, -8
 220              		.cfi_offset 14, -4
 221 0002 94B0     		sub	sp, sp, #80
 222              	.LCFI6:
 223              		.cfi_def_cfa_offset 96
 224 0004 0446     		mov	r4, r0
 225 0006 0D46     		mov	r5, r1
 226 0008 1646     		mov	r6, r2
 277:../Drivers/STM32_ExtMem_Manager/sal/stm32_sal_xspi.c ****   HAL_StatusTypeDef retr = HAL_OK;
 227              		.loc 1 277 3 is_stmt 1 view .LVU56
 228              	.LVL15:
 278:../Drivers/STM32_ExtMem_Manager/sal/stm32_sal_xspi.c ****   XSPI_RegularCmdTypeDef s_commandbase = SalXspi->Commandbase;
 229              		.loc 1 278 3 view .LVU57
 230              		.loc 1 278 26 is_stmt 0 view .LVU58
 231 000a 4C22     		movs	r2, #76
 232              	.LVL16:
 233              		.loc 1 278 26 view .LVU59
 234 000c 011D     		adds	r1, r0, #4
 235              	.LVL17:
 236              		.loc 1 278 26 view .LVU60
ARM GAS  /tmp/ccuJg0Ev.s 			page 10


 237 000e 01A8     		add	r0, sp, #4
 238              	.LVL18:
 239              		.loc 1 278 26 view .LVU61
 240 0010 FFF7FEFF 		bl	memcpy
 241              	.LVL19:
 279:../Drivers/STM32_ExtMem_Manager/sal/stm32_sal_xspi.c **** 
 280:../Drivers/STM32_ExtMem_Manager/sal/stm32_sal_xspi.c ****   switch (ParametersType)
 242              		.loc 1 280 3 is_stmt 1 view .LVU62
 243 0014 042D     		cmp	r5, #4
 244 0016 13D8     		bhi	.L14
 245 0018 DFE815F0 		tbh	[pc, r5, lsl #1]
 246              	.L16:
 247 001c 0500     		.2byte	(.L19-.L16)/2
 248 001e EC00     		.2byte	(.L18-.L16)/2
 249 0020 D500     		.2byte	(.L17-.L16)/2
 250 0022 1200     		.2byte	(.L14-.L16)/2
 251 0024 E200     		.2byte	(.L15-.L16)/2
 252              		.p2align 1
 253              	.L19:
 281:../Drivers/STM32_ExtMem_Manager/sal/stm32_sal_xspi.c ****   {
 282:../Drivers/STM32_ExtMem_Manager/sal/stm32_sal_xspi.c ****     case PARAM_PHY_LINK:
 283:../Drivers/STM32_ExtMem_Manager/sal/stm32_sal_xspi.c ****     {
 284:../Drivers/STM32_ExtMem_Manager/sal/stm32_sal_xspi.c ****       SalXspi->PhyLink = *((SAL_XSPI_PhysicalLinkTypeDef *)ParamVal);
 254              		.loc 1 284 7 view .LVU63
 255              		.loc 1 284 26 is_stmt 0 view .LVU64
 256 0026 3378     		ldrb	r3, [r6]	@ zero_extendqisi2
 257              		.loc 1 284 24 view .LVU65
 258 0028 84F85230 		strb	r3, [r4, #82]
 285:../Drivers/STM32_ExtMem_Manager/sal/stm32_sal_xspi.c ****       DEBUG_PARAM_BEGIN();
 259              		.loc 1 285 26 is_stmt 1 view .LVU66
 286:../Drivers/STM32_ExtMem_Manager/sal/stm32_sal_xspi.c ****       DEBUG_PARAM_DATA("::PARAM_PHY_LINK::");
 260              		.loc 1 286 45 view .LVU67
 287:../Drivers/STM32_ExtMem_Manager/sal/stm32_sal_xspi.c ****       DEBUG_PARAM_DATA(STR_PHY_LINK(SalXspi->PhyLink));
 261              		.loc 1 287 55 view .LVU68
 288:../Drivers/STM32_ExtMem_Manager/sal/stm32_sal_xspi.c ****       switch (SalXspi->PhyLink)
 262              		.loc 1 288 7 view .LVU69
 263 002c 0B2B     		cmp	r3, #11
 264 002e 07D8     		bhi	.L14
 265 0030 DFE803F0 		tbb	[pc, r3]
 266              	.L21:
 267 0034 09       		.byte	(.L28-.L21)/2
 268 0035 09       		.byte	(.L28-.L21)/2
 269 0036 09       		.byte	(.L28-.L21)/2
 270 0037 09       		.byte	(.L28-.L21)/2
 271 0038 1D       		.byte	(.L27-.L21)/2
 272 0039 1D       		.byte	(.L27-.L21)/2
 273 003a 31       		.byte	(.L26-.L21)/2
 274 003b 4A       		.byte	(.L25-.L21)/2
 275 003c 5E       		.byte	(.L24-.L21)/2
 276 003d 78       		.byte	(.L23-.L21)/2
 277 003e 93       		.byte	(.L22-.L21)/2
 278 003f AE       		.byte	(.L20-.L21)/2
 279              		.p2align 1
 280              	.L14:
 277:../Drivers/STM32_ExtMem_Manager/sal/stm32_sal_xspi.c ****   XSPI_RegularCmdTypeDef s_commandbase = SalXspi->Commandbase;
 281              		.loc 1 277 21 is_stmt 0 view .LVU70
 282 0040 0123     		movs	r3, #1
ARM GAS  /tmp/ccuJg0Ev.s 			page 11


 283 0042 1D46     		mov	r5, r3
 284              	.LVL20:
 277:../Drivers/STM32_ExtMem_Manager/sal/stm32_sal_xspi.c ****   XSPI_RegularCmdTypeDef s_commandbase = SalXspi->Commandbase;
 285              		.loc 1 277 21 view .LVU71
 286 0044 C4E0     		b	.L29
 287              	.L28:
 289:../Drivers/STM32_ExtMem_Manager/sal/stm32_sal_xspi.c ****       {
 290:../Drivers/STM32_ExtMem_Manager/sal/stm32_sal_xspi.c ****         case PHY_LINK_1S1D1D:
 291:../Drivers/STM32_ExtMem_Manager/sal/stm32_sal_xspi.c ****         case PHY_LINK_1S2S2S:
 292:../Drivers/STM32_ExtMem_Manager/sal/stm32_sal_xspi.c ****         case PHY_LINK_1S1S2S:
 293:../Drivers/STM32_ExtMem_Manager/sal/stm32_sal_xspi.c ****         case PHY_LINK_1S1S1S:
 294:../Drivers/STM32_ExtMem_Manager/sal/stm32_sal_xspi.c ****         {
 295:../Drivers/STM32_ExtMem_Manager/sal/stm32_sal_xspi.c ****           s_commandbase.InstructionMode = HAL_XSPI_INSTRUCTION_1_LINE;
 288              		.loc 1 295 11 is_stmt 1 view .LVU72
 289              		.loc 1 295 41 is_stmt 0 view .LVU73
 290 0046 0123     		movs	r3, #1
 291 0048 0493     		str	r3, [sp, #16]
 296:../Drivers/STM32_ExtMem_Manager/sal/stm32_sal_xspi.c ****           s_commandbase.InstructionWidth = HAL_XSPI_INSTRUCTION_8_BITS;
 292              		.loc 1 296 11 is_stmt 1 view .LVU74
 293              		.loc 1 296 42 is_stmt 0 view .LVU75
 294 004a 0023     		movs	r3, #0
 295 004c 0593     		str	r3, [sp, #20]
 297:../Drivers/STM32_ExtMem_Manager/sal/stm32_sal_xspi.c ****           s_commandbase.InstructionDTRMode = HAL_XSPI_INSTRUCTION_DTR_DISABLE;
 296              		.loc 1 297 11 is_stmt 1 view .LVU76
 297              		.loc 1 297 44 is_stmt 0 view .LVU77
 298 004e 0693     		str	r3, [sp, #24]
 298:../Drivers/STM32_ExtMem_Manager/sal/stm32_sal_xspi.c ****           s_commandbase.AddressMode = HAL_XSPI_ADDRESS_1_LINE;
 299              		.loc 1 298 11 is_stmt 1 view .LVU78
 300              		.loc 1 298 37 is_stmt 0 view .LVU79
 301 0050 4FF48072 		mov	r2, #256
 302 0054 0892     		str	r2, [sp, #32]
 299:../Drivers/STM32_ExtMem_Manager/sal/stm32_sal_xspi.c ****           s_commandbase.AddressWidth = HAL_XSPI_ADDRESS_24_BITS;
 303              		.loc 1 299 11 is_stmt 1 view .LVU80
 304              		.loc 1 299 38 is_stmt 0 view .LVU81
 305 0056 4FF40052 		mov	r2, #8192
 306 005a 0992     		str	r2, [sp, #36]
 300:../Drivers/STM32_ExtMem_Manager/sal/stm32_sal_xspi.c ****           s_commandbase.AddressDTRMode = HAL_XSPI_ADDRESS_DTR_DISABLE;
 307              		.loc 1 300 11 is_stmt 1 view .LVU82
 308              		.loc 1 300 40 is_stmt 0 view .LVU83
 309 005c 0A93     		str	r3, [sp, #40]
 301:../Drivers/STM32_ExtMem_Manager/sal/stm32_sal_xspi.c ****           s_commandbase.DataMode = HAL_XSPI_DATA_1_LINE;
 310              		.loc 1 301 11 is_stmt 1 view .LVU84
 311              		.loc 1 301 34 is_stmt 0 view .LVU85
 312 005e 4FF08072 		mov	r2, #16777216
 313 0062 0F92     		str	r2, [sp, #60]
 302:../Drivers/STM32_ExtMem_Manager/sal/stm32_sal_xspi.c ****           s_commandbase.DataDTRMode = HAL_XSPI_DATA_DTR_DISABLE;
 314              		.loc 1 302 11 is_stmt 1 view .LVU86
 315              		.loc 1 302 37 is_stmt 0 view .LVU87
 316 0064 1193     		str	r3, [sp, #68]
 303:../Drivers/STM32_ExtMem_Manager/sal/stm32_sal_xspi.c ****           s_commandbase.DummyCycles = 8;
 317              		.loc 1 303 11 is_stmt 1 view .LVU88
 318              		.loc 1 303 37 is_stmt 0 view .LVU89
 319 0066 0822     		movs	r2, #8
 320 0068 1292     		str	r2, [sp, #72]
 304:../Drivers/STM32_ExtMem_Manager/sal/stm32_sal_xspi.c ****           s_commandbase.DQSMode = HAL_XSPI_DQS_DISABLE;
 321              		.loc 1 304 11 is_stmt 1 view .LVU90
 322              		.loc 1 304 33 is_stmt 0 view .LVU91
ARM GAS  /tmp/ccuJg0Ev.s 			page 12


 323 006a 1393     		str	r3, [sp, #76]
 305:../Drivers/STM32_ExtMem_Manager/sal/stm32_sal_xspi.c ****           break;
 324              		.loc 1 305 11 is_stmt 1 view .LVU92
 325 006c B0E0     		b	.L29
 326              	.L27:
 306:../Drivers/STM32_ExtMem_Manager/sal/stm32_sal_xspi.c ****         }
 307:../Drivers/STM32_ExtMem_Manager/sal/stm32_sal_xspi.c **** 
 308:../Drivers/STM32_ExtMem_Manager/sal/stm32_sal_xspi.c ****         case PHY_LINK_4S4D4D:
 309:../Drivers/STM32_ExtMem_Manager/sal/stm32_sal_xspi.c ****         case PHY_LINK_4S4S4S:
 310:../Drivers/STM32_ExtMem_Manager/sal/stm32_sal_xspi.c ****         {
 311:../Drivers/STM32_ExtMem_Manager/sal/stm32_sal_xspi.c ****           s_commandbase.InstructionMode = HAL_XSPI_INSTRUCTION_4_LINES;
 327              		.loc 1 311 11 view .LVU93
 328              		.loc 1 311 41 is_stmt 0 view .LVU94
 329 006e 0323     		movs	r3, #3
 330 0070 0493     		str	r3, [sp, #16]
 312:../Drivers/STM32_ExtMem_Manager/sal/stm32_sal_xspi.c ****           s_commandbase.InstructionWidth = HAL_XSPI_INSTRUCTION_8_BITS;
 331              		.loc 1 312 11 is_stmt 1 view .LVU95
 332              		.loc 1 312 42 is_stmt 0 view .LVU96
 333 0072 0023     		movs	r3, #0
 334 0074 0593     		str	r3, [sp, #20]
 313:../Drivers/STM32_ExtMem_Manager/sal/stm32_sal_xspi.c ****           s_commandbase.InstructionDTRMode = HAL_XSPI_INSTRUCTION_DTR_DISABLE;
 335              		.loc 1 313 11 is_stmt 1 view .LVU97
 336              		.loc 1 313 44 is_stmt 0 view .LVU98
 337 0076 0693     		str	r3, [sp, #24]
 314:../Drivers/STM32_ExtMem_Manager/sal/stm32_sal_xspi.c ****           s_commandbase.AddressMode = HAL_XSPI_ADDRESS_4_LINES;
 338              		.loc 1 314 11 is_stmt 1 view .LVU99
 339              		.loc 1 314 37 is_stmt 0 view .LVU100
 340 0078 4FF44072 		mov	r2, #768
 341 007c 0892     		str	r2, [sp, #32]
 315:../Drivers/STM32_ExtMem_Manager/sal/stm32_sal_xspi.c ****           s_commandbase.AddressDTRMode = HAL_XSPI_ADDRESS_DTR_DISABLE;
 342              		.loc 1 315 11 is_stmt 1 view .LVU101
 343              		.loc 1 315 40 is_stmt 0 view .LVU102
 344 007e 0A93     		str	r3, [sp, #40]
 316:../Drivers/STM32_ExtMem_Manager/sal/stm32_sal_xspi.c ****           s_commandbase.AddressWidth = HAL_XSPI_ADDRESS_24_BITS;
 345              		.loc 1 316 11 is_stmt 1 view .LVU103
 346              		.loc 1 316 38 is_stmt 0 view .LVU104
 347 0080 4FF40052 		mov	r2, #8192
 348 0084 0992     		str	r2, [sp, #36]
 317:../Drivers/STM32_ExtMem_Manager/sal/stm32_sal_xspi.c ****           s_commandbase.DataMode = HAL_XSPI_DATA_4_LINES;
 349              		.loc 1 317 11 is_stmt 1 view .LVU105
 350              		.loc 1 317 34 is_stmt 0 view .LVU106
 351 0086 4FF04072 		mov	r2, #50331648
 352 008a 0F92     		str	r2, [sp, #60]
 318:../Drivers/STM32_ExtMem_Manager/sal/stm32_sal_xspi.c ****           s_commandbase.DataDTRMode = HAL_XSPI_DATA_DTR_DISABLE;
 353              		.loc 1 318 11 is_stmt 1 view .LVU107
 354              		.loc 1 318 37 is_stmt 0 view .LVU108
 355 008c 1193     		str	r3, [sp, #68]
 319:../Drivers/STM32_ExtMem_Manager/sal/stm32_sal_xspi.c ****           s_commandbase.DummyCycles = 6;
 356              		.loc 1 319 11 is_stmt 1 view .LVU109
 357              		.loc 1 319 37 is_stmt 0 view .LVU110
 358 008e 0622     		movs	r2, #6
 359 0090 1292     		str	r2, [sp, #72]
 320:../Drivers/STM32_ExtMem_Manager/sal/stm32_sal_xspi.c ****           s_commandbase.DQSMode = HAL_XSPI_DQS_DISABLE;
 360              		.loc 1 320 11 is_stmt 1 view .LVU111
 361              		.loc 1 320 33 is_stmt 0 view .LVU112
 362 0092 1393     		str	r3, [sp, #76]
 321:../Drivers/STM32_ExtMem_Manager/sal/stm32_sal_xspi.c ****           break;
ARM GAS  /tmp/ccuJg0Ev.s 			page 13


 363              		.loc 1 321 11 is_stmt 1 view .LVU113
 364 0094 9CE0     		b	.L29
 365              	.L26:
 322:../Drivers/STM32_ExtMem_Manager/sal/stm32_sal_xspi.c ****         }
 323:../Drivers/STM32_ExtMem_Manager/sal/stm32_sal_xspi.c ****         case PHY_LINK_4D4D4D:
 324:../Drivers/STM32_ExtMem_Manager/sal/stm32_sal_xspi.c ****         {
 325:../Drivers/STM32_ExtMem_Manager/sal/stm32_sal_xspi.c ****           s_commandbase.InstructionMode = HAL_XSPI_INSTRUCTION_4_LINES;
 366              		.loc 1 325 11 view .LVU114
 367              		.loc 1 325 41 is_stmt 0 view .LVU115
 368 0096 0323     		movs	r3, #3
 369 0098 0493     		str	r3, [sp, #16]
 326:../Drivers/STM32_ExtMem_Manager/sal/stm32_sal_xspi.c ****           s_commandbase.InstructionWidth = HAL_XSPI_INSTRUCTION_8_BITS;
 370              		.loc 1 326 11 is_stmt 1 view .LVU116
 371              		.loc 1 326 42 is_stmt 0 view .LVU117
 372 009a 0023     		movs	r3, #0
 373 009c 0593     		str	r3, [sp, #20]
 327:../Drivers/STM32_ExtMem_Manager/sal/stm32_sal_xspi.c ****           s_commandbase.InstructionDTRMode = HAL_XSPI_INSTRUCTION_DTR_ENABLE;
 374              		.loc 1 327 11 is_stmt 1 view .LVU118
 375              		.loc 1 327 44 is_stmt 0 view .LVU119
 376 009e 0822     		movs	r2, #8
 377 00a0 0692     		str	r2, [sp, #24]
 328:../Drivers/STM32_ExtMem_Manager/sal/stm32_sal_xspi.c ****           s_commandbase.AddressMode = HAL_XSPI_ADDRESS_4_LINES;
 378              		.loc 1 328 11 is_stmt 1 view .LVU120
 379              		.loc 1 328 37 is_stmt 0 view .LVU121
 380 00a2 4FF44072 		mov	r2, #768
 381 00a6 0892     		str	r2, [sp, #32]
 329:../Drivers/STM32_ExtMem_Manager/sal/stm32_sal_xspi.c ****           s_commandbase.AddressWidth = HAL_XSPI_ADDRESS_24_BITS;
 382              		.loc 1 329 11 is_stmt 1 view .LVU122
 383              		.loc 1 329 38 is_stmt 0 view .LVU123
 384 00a8 4FF40052 		mov	r2, #8192
 385 00ac 0992     		str	r2, [sp, #36]
 330:../Drivers/STM32_ExtMem_Manager/sal/stm32_sal_xspi.c ****           s_commandbase.AddressDTRMode = HAL_XSPI_ADDRESS_DTR_ENABLE;
 386              		.loc 1 330 11 is_stmt 1 view .LVU124
 387              		.loc 1 330 40 is_stmt 0 view .LVU125
 388 00ae 4FF40062 		mov	r2, #2048
 389 00b2 0A92     		str	r2, [sp, #40]
 331:../Drivers/STM32_ExtMem_Manager/sal/stm32_sal_xspi.c ****           s_commandbase.DataMode = HAL_XSPI_DATA_4_LINES;
 390              		.loc 1 331 11 is_stmt 1 view .LVU126
 391              		.loc 1 331 34 is_stmt 0 view .LVU127
 392 00b4 4FF04072 		mov	r2, #50331648
 393 00b8 0F92     		str	r2, [sp, #60]
 332:../Drivers/STM32_ExtMem_Manager/sal/stm32_sal_xspi.c ****           s_commandbase.DataDTRMode = HAL_XSPI_DATA_DTR_ENABLE;
 394              		.loc 1 332 11 is_stmt 1 view .LVU128
 395              		.loc 1 332 37 is_stmt 0 view .LVU129
 396 00ba 4FF00062 		mov	r2, #134217728
 397 00be 1192     		str	r2, [sp, #68]
 333:../Drivers/STM32_ExtMem_Manager/sal/stm32_sal_xspi.c ****           s_commandbase.DummyCycles = 6;
 398              		.loc 1 333 11 is_stmt 1 view .LVU130
 399              		.loc 1 333 37 is_stmt 0 view .LVU131
 400 00c0 0622     		movs	r2, #6
 401 00c2 1292     		str	r2, [sp, #72]
 334:../Drivers/STM32_ExtMem_Manager/sal/stm32_sal_xspi.c ****           s_commandbase.DQSMode = HAL_XSPI_DQS_DISABLE;
 402              		.loc 1 334 11 is_stmt 1 view .LVU132
 403              		.loc 1 334 33 is_stmt 0 view .LVU133
 404 00c4 1393     		str	r3, [sp, #76]
 335:../Drivers/STM32_ExtMem_Manager/sal/stm32_sal_xspi.c ****           break;
 405              		.loc 1 335 11 is_stmt 1 view .LVU134
ARM GAS  /tmp/ccuJg0Ev.s 			page 14


 406 00c6 83E0     		b	.L29
 407              	.L25:
 336:../Drivers/STM32_ExtMem_Manager/sal/stm32_sal_xspi.c ****         }
 337:../Drivers/STM32_ExtMem_Manager/sal/stm32_sal_xspi.c ****         case PHY_LINK_1S8S8S:
 338:../Drivers/STM32_ExtMem_Manager/sal/stm32_sal_xspi.c ****         {
 339:../Drivers/STM32_ExtMem_Manager/sal/stm32_sal_xspi.c ****           s_commandbase.InstructionMode = HAL_XSPI_INSTRUCTION_1_LINE;
 408              		.loc 1 339 11 view .LVU135
 409              		.loc 1 339 41 is_stmt 0 view .LVU136
 410 00c8 0123     		movs	r3, #1
 411 00ca 0493     		str	r3, [sp, #16]
 340:../Drivers/STM32_ExtMem_Manager/sal/stm32_sal_xspi.c ****           s_commandbase.InstructionWidth = HAL_XSPI_INSTRUCTION_8_BITS;
 412              		.loc 1 340 11 is_stmt 1 view .LVU137
 413              		.loc 1 340 42 is_stmt 0 view .LVU138
 414 00cc 0023     		movs	r3, #0
 415 00ce 0593     		str	r3, [sp, #20]
 341:../Drivers/STM32_ExtMem_Manager/sal/stm32_sal_xspi.c ****           s_commandbase.InstructionDTRMode = HAL_XSPI_INSTRUCTION_DTR_DISABLE;
 416              		.loc 1 341 11 is_stmt 1 view .LVU139
 417              		.loc 1 341 44 is_stmt 0 view .LVU140
 418 00d0 0693     		str	r3, [sp, #24]
 342:../Drivers/STM32_ExtMem_Manager/sal/stm32_sal_xspi.c ****           s_commandbase.AddressMode = HAL_XSPI_ADDRESS_8_LINES;
 419              		.loc 1 342 11 is_stmt 1 view .LVU141
 420              		.loc 1 342 37 is_stmt 0 view .LVU142
 421 00d2 4FF48062 		mov	r2, #1024
 422 00d6 0892     		str	r2, [sp, #32]
 343:../Drivers/STM32_ExtMem_Manager/sal/stm32_sal_xspi.c ****           s_commandbase.AddressWidth = HAL_XSPI_ADDRESS_32_BITS;
 423              		.loc 1 343 11 is_stmt 1 view .LVU143
 424              		.loc 1 343 38 is_stmt 0 view .LVU144
 425 00d8 4FF44052 		mov	r2, #12288
 426 00dc 0992     		str	r2, [sp, #36]
 344:../Drivers/STM32_ExtMem_Manager/sal/stm32_sal_xspi.c ****           s_commandbase.AddressDTRMode = HAL_XSPI_ADDRESS_DTR_DISABLE;
 427              		.loc 1 344 11 is_stmt 1 view .LVU145
 428              		.loc 1 344 40 is_stmt 0 view .LVU146
 429 00de 0A93     		str	r3, [sp, #40]
 345:../Drivers/STM32_ExtMem_Manager/sal/stm32_sal_xspi.c ****           s_commandbase.DataMode = HAL_XSPI_DATA_8_LINES;
 430              		.loc 1 345 11 is_stmt 1 view .LVU147
 431              		.loc 1 345 34 is_stmt 0 view .LVU148
 432 00e0 4FF08062 		mov	r2, #67108864
 433 00e4 0F92     		str	r2, [sp, #60]
 346:../Drivers/STM32_ExtMem_Manager/sal/stm32_sal_xspi.c ****           s_commandbase.DataDTRMode = HAL_XSPI_DATA_DTR_DISABLE;
 434              		.loc 1 346 11 is_stmt 1 view .LVU149
 435              		.loc 1 346 37 is_stmt 0 view .LVU150
 436 00e6 1193     		str	r3, [sp, #68]
 347:../Drivers/STM32_ExtMem_Manager/sal/stm32_sal_xspi.c ****           s_commandbase.DummyCycles = 8;
 437              		.loc 1 347 11 is_stmt 1 view .LVU151
 438              		.loc 1 347 37 is_stmt 0 view .LVU152
 439 00e8 0822     		movs	r2, #8
 440 00ea 1292     		str	r2, [sp, #72]
 348:../Drivers/STM32_ExtMem_Manager/sal/stm32_sal_xspi.c ****           s_commandbase.DQSMode = HAL_XSPI_DQS_DISABLE;
 441              		.loc 1 348 11 is_stmt 1 view .LVU153
 442              		.loc 1 348 33 is_stmt 0 view .LVU154
 443 00ec 1393     		str	r3, [sp, #76]
 349:../Drivers/STM32_ExtMem_Manager/sal/stm32_sal_xspi.c ****           break;
 444              		.loc 1 349 11 is_stmt 1 view .LVU155
 445 00ee 6FE0     		b	.L29
 446              	.L24:
 350:../Drivers/STM32_ExtMem_Manager/sal/stm32_sal_xspi.c ****         }
 351:../Drivers/STM32_ExtMem_Manager/sal/stm32_sal_xspi.c ****         case PHY_LINK_8S8D8D:
ARM GAS  /tmp/ccuJg0Ev.s 			page 15


 352:../Drivers/STM32_ExtMem_Manager/sal/stm32_sal_xspi.c ****         {
 353:../Drivers/STM32_ExtMem_Manager/sal/stm32_sal_xspi.c ****           s_commandbase.InstructionMode = HAL_XSPI_INSTRUCTION_8_LINES;
 447              		.loc 1 353 11 view .LVU156
 448              		.loc 1 353 41 is_stmt 0 view .LVU157
 449 00f0 0423     		movs	r3, #4
 450 00f2 0493     		str	r3, [sp, #16]
 354:../Drivers/STM32_ExtMem_Manager/sal/stm32_sal_xspi.c ****           s_commandbase.InstructionWidth = HAL_XSPI_INSTRUCTION_8_BITS;
 451              		.loc 1 354 11 is_stmt 1 view .LVU158
 452              		.loc 1 354 42 is_stmt 0 view .LVU159
 453 00f4 0023     		movs	r3, #0
 454 00f6 0593     		str	r3, [sp, #20]
 355:../Drivers/STM32_ExtMem_Manager/sal/stm32_sal_xspi.c ****           s_commandbase.InstructionDTRMode = HAL_XSPI_INSTRUCTION_DTR_DISABLE;
 455              		.loc 1 355 11 is_stmt 1 view .LVU160
 456              		.loc 1 355 44 is_stmt 0 view .LVU161
 457 00f8 0693     		str	r3, [sp, #24]
 356:../Drivers/STM32_ExtMem_Manager/sal/stm32_sal_xspi.c ****           s_commandbase.AddressMode = HAL_XSPI_ADDRESS_8_LINES;
 458              		.loc 1 356 11 is_stmt 1 view .LVU162
 459              		.loc 1 356 37 is_stmt 0 view .LVU163
 460 00fa 4FF48063 		mov	r3, #1024
 461 00fe 0893     		str	r3, [sp, #32]
 357:../Drivers/STM32_ExtMem_Manager/sal/stm32_sal_xspi.c ****           s_commandbase.AddressWidth = HAL_XSPI_ADDRESS_32_BITS;
 462              		.loc 1 357 11 is_stmt 1 view .LVU164
 463              		.loc 1 357 38 is_stmt 0 view .LVU165
 464 0100 4FF44053 		mov	r3, #12288
 465 0104 0993     		str	r3, [sp, #36]
 358:../Drivers/STM32_ExtMem_Manager/sal/stm32_sal_xspi.c ****           s_commandbase.AddressDTRMode = HAL_XSPI_ADDRESS_DTR_ENABLE;
 466              		.loc 1 358 11 is_stmt 1 view .LVU166
 467              		.loc 1 358 40 is_stmt 0 view .LVU167
 468 0106 4FF40063 		mov	r3, #2048
 469 010a 0A93     		str	r3, [sp, #40]
 359:../Drivers/STM32_ExtMem_Manager/sal/stm32_sal_xspi.c ****           s_commandbase.DataMode = HAL_XSPI_DATA_8_LINES;
 470              		.loc 1 359 11 is_stmt 1 view .LVU168
 471              		.loc 1 359 34 is_stmt 0 view .LVU169
 472 010c 4FF08063 		mov	r3, #67108864
 473 0110 0F93     		str	r3, [sp, #60]
 360:../Drivers/STM32_ExtMem_Manager/sal/stm32_sal_xspi.c ****           s_commandbase.DataDTRMode = HAL_XSPI_DATA_DTR_ENABLE;
 474              		.loc 1 360 11 is_stmt 1 view .LVU170
 475              		.loc 1 360 37 is_stmt 0 view .LVU171
 476 0112 4FF00063 		mov	r3, #134217728
 477 0116 1193     		str	r3, [sp, #68]
 361:../Drivers/STM32_ExtMem_Manager/sal/stm32_sal_xspi.c ****           s_commandbase.DummyCycles = 8;
 478              		.loc 1 361 11 is_stmt 1 view .LVU172
 479              		.loc 1 361 37 is_stmt 0 view .LVU173
 480 0118 0823     		movs	r3, #8
 481 011a 1293     		str	r3, [sp, #72]
 362:../Drivers/STM32_ExtMem_Manager/sal/stm32_sal_xspi.c ****           s_commandbase.DQSMode = HAL_XSPI_DQS_ENABLE;
 482              		.loc 1 362 11 is_stmt 1 view .LVU174
 483              		.loc 1 362 33 is_stmt 0 view .LVU175
 484 011c 4FF00053 		mov	r3, #536870912
 485 0120 1393     		str	r3, [sp, #76]
 363:../Drivers/STM32_ExtMem_Manager/sal/stm32_sal_xspi.c ****           break;
 486              		.loc 1 363 11 is_stmt 1 view .LVU176
 487 0122 55E0     		b	.L29
 488              	.L23:
 364:../Drivers/STM32_ExtMem_Manager/sal/stm32_sal_xspi.c ****         }
 365:../Drivers/STM32_ExtMem_Manager/sal/stm32_sal_xspi.c **** 
 366:../Drivers/STM32_ExtMem_Manager/sal/stm32_sal_xspi.c ****         case PHY_LINK_8D8D8D:
ARM GAS  /tmp/ccuJg0Ev.s 			page 16


 367:../Drivers/STM32_ExtMem_Manager/sal/stm32_sal_xspi.c ****         {
 368:../Drivers/STM32_ExtMem_Manager/sal/stm32_sal_xspi.c ****           s_commandbase.InstructionMode = HAL_XSPI_INSTRUCTION_8_LINES;
 489              		.loc 1 368 11 view .LVU177
 490              		.loc 1 368 41 is_stmt 0 view .LVU178
 491 0124 0423     		movs	r3, #4
 492 0126 0493     		str	r3, [sp, #16]
 369:../Drivers/STM32_ExtMem_Manager/sal/stm32_sal_xspi.c ****           s_commandbase.InstructionWidth = HAL_XSPI_INSTRUCTION_16_BITS;
 493              		.loc 1 369 11 is_stmt 1 view .LVU179
 494              		.loc 1 369 42 is_stmt 0 view .LVU180
 495 0128 1023     		movs	r3, #16
 496 012a 0593     		str	r3, [sp, #20]
 370:../Drivers/STM32_ExtMem_Manager/sal/stm32_sal_xspi.c ****           s_commandbase.InstructionDTRMode = HAL_XSPI_INSTRUCTION_DTR_ENABLE;
 497              		.loc 1 370 11 is_stmt 1 view .LVU181
 498              		.loc 1 370 44 is_stmt 0 view .LVU182
 499 012c 0823     		movs	r3, #8
 500 012e 0693     		str	r3, [sp, #24]
 371:../Drivers/STM32_ExtMem_Manager/sal/stm32_sal_xspi.c ****           s_commandbase.AddressMode = HAL_XSPI_ADDRESS_8_LINES;
 501              		.loc 1 371 11 is_stmt 1 view .LVU183
 502              		.loc 1 371 37 is_stmt 0 view .LVU184
 503 0130 4FF48063 		mov	r3, #1024
 504 0134 0893     		str	r3, [sp, #32]
 372:../Drivers/STM32_ExtMem_Manager/sal/stm32_sal_xspi.c ****           s_commandbase.AddressWidth = HAL_XSPI_ADDRESS_32_BITS;
 505              		.loc 1 372 11 is_stmt 1 view .LVU185
 506              		.loc 1 372 38 is_stmt 0 view .LVU186
 507 0136 4FF44053 		mov	r3, #12288
 508 013a 0993     		str	r3, [sp, #36]
 373:../Drivers/STM32_ExtMem_Manager/sal/stm32_sal_xspi.c ****           s_commandbase.AddressDTRMode = HAL_XSPI_ADDRESS_DTR_ENABLE;
 509              		.loc 1 373 11 is_stmt 1 view .LVU187
 510              		.loc 1 373 40 is_stmt 0 view .LVU188
 511 013c 4FF40063 		mov	r3, #2048
 512 0140 0A93     		str	r3, [sp, #40]
 374:../Drivers/STM32_ExtMem_Manager/sal/stm32_sal_xspi.c ****           s_commandbase.DataMode = HAL_XSPI_DATA_8_LINES;
 513              		.loc 1 374 11 is_stmt 1 view .LVU189
 514              		.loc 1 374 34 is_stmt 0 view .LVU190
 515 0142 4FF08063 		mov	r3, #67108864
 516 0146 0F93     		str	r3, [sp, #60]
 375:../Drivers/STM32_ExtMem_Manager/sal/stm32_sal_xspi.c ****           s_commandbase.DataDTRMode = HAL_XSPI_DATA_DTR_ENABLE;
 517              		.loc 1 375 11 is_stmt 1 view .LVU191
 518              		.loc 1 375 37 is_stmt 0 view .LVU192
 519 0148 4FF00063 		mov	r3, #134217728
 520 014c 1193     		str	r3, [sp, #68]
 376:../Drivers/STM32_ExtMem_Manager/sal/stm32_sal_xspi.c ****           s_commandbase.DummyCycles = 20;
 521              		.loc 1 376 11 is_stmt 1 view .LVU193
 522              		.loc 1 376 37 is_stmt 0 view .LVU194
 523 014e 1423     		movs	r3, #20
 524 0150 1293     		str	r3, [sp, #72]
 377:../Drivers/STM32_ExtMem_Manager/sal/stm32_sal_xspi.c ****           s_commandbase.DQSMode = HAL_XSPI_DQS_ENABLE;
 525              		.loc 1 377 11 is_stmt 1 view .LVU195
 526              		.loc 1 377 33 is_stmt 0 view .LVU196
 527 0152 4FF00053 		mov	r3, #536870912
 528 0156 1393     		str	r3, [sp, #76]
 378:../Drivers/STM32_ExtMem_Manager/sal/stm32_sal_xspi.c ****           break;
 529              		.loc 1 378 11 is_stmt 1 view .LVU197
 530 0158 3AE0     		b	.L29
 531              	.L22:
 379:../Drivers/STM32_ExtMem_Manager/sal/stm32_sal_xspi.c ****         }
 380:../Drivers/STM32_ExtMem_Manager/sal/stm32_sal_xspi.c ****         case PHY_LINK_RAM8:
ARM GAS  /tmp/ccuJg0Ev.s 			page 17


 381:../Drivers/STM32_ExtMem_Manager/sal/stm32_sal_xspi.c ****         {
 382:../Drivers/STM32_ExtMem_Manager/sal/stm32_sal_xspi.c ****           s_commandbase.InstructionMode    = HAL_XSPI_INSTRUCTION_8_LINES;
 532              		.loc 1 382 11 view .LVU198
 533              		.loc 1 382 44 is_stmt 0 view .LVU199
 534 015a 0423     		movs	r3, #4
 535 015c 0493     		str	r3, [sp, #16]
 383:../Drivers/STM32_ExtMem_Manager/sal/stm32_sal_xspi.c ****           s_commandbase.InstructionWidth   = HAL_XSPI_INSTRUCTION_8_BITS;
 536              		.loc 1 383 11 is_stmt 1 view .LVU200
 537              		.loc 1 383 44 is_stmt 0 view .LVU201
 538 015e 0023     		movs	r3, #0
 539 0160 0593     		str	r3, [sp, #20]
 384:../Drivers/STM32_ExtMem_Manager/sal/stm32_sal_xspi.c ****           s_commandbase.InstructionDTRMode = HAL_XSPI_INSTRUCTION_DTR_DISABLE;
 540              		.loc 1 384 11 is_stmt 1 view .LVU202
 541              		.loc 1 384 44 is_stmt 0 view .LVU203
 542 0162 0693     		str	r3, [sp, #24]
 385:../Drivers/STM32_ExtMem_Manager/sal/stm32_sal_xspi.c ****           s_commandbase.AddressMode        = HAL_XSPI_ADDRESS_8_LINES;
 543              		.loc 1 385 11 is_stmt 1 view .LVU204
 544              		.loc 1 385 44 is_stmt 0 view .LVU205
 545 0164 4FF48062 		mov	r2, #1024
 546 0168 0892     		str	r2, [sp, #32]
 386:../Drivers/STM32_ExtMem_Manager/sal/stm32_sal_xspi.c ****           s_commandbase.AddressWidth       = HAL_XSPI_ADDRESS_32_BITS;
 547              		.loc 1 386 11 is_stmt 1 view .LVU206
 548              		.loc 1 386 44 is_stmt 0 view .LVU207
 549 016a 4FF44052 		mov	r2, #12288
 550 016e 0992     		str	r2, [sp, #36]
 387:../Drivers/STM32_ExtMem_Manager/sal/stm32_sal_xspi.c ****           s_commandbase.AddressDTRMode     = HAL_XSPI_ADDRESS_DTR_ENABLE;
 551              		.loc 1 387 11 is_stmt 1 view .LVU208
 552              		.loc 1 387 44 is_stmt 0 view .LVU209
 553 0170 4FF40062 		mov	r2, #2048
 554 0174 0A92     		str	r2, [sp, #40]
 388:../Drivers/STM32_ExtMem_Manager/sal/stm32_sal_xspi.c ****           s_commandbase.AlternateBytesMode = HAL_XSPI_ALT_BYTES_NONE;
 555              		.loc 1 388 11 is_stmt 1 view .LVU210
 556              		.loc 1 388 44 is_stmt 0 view .LVU211
 557 0176 0C93     		str	r3, [sp, #48]
 389:../Drivers/STM32_ExtMem_Manager/sal/stm32_sal_xspi.c ****           s_commandbase.DataMode           = HAL_XSPI_DATA_8_LINES;
 558              		.loc 1 389 11 is_stmt 1 view .LVU212
 559              		.loc 1 389 44 is_stmt 0 view .LVU213
 560 0178 4FF08063 		mov	r3, #67108864
 561 017c 0F93     		str	r3, [sp, #60]
 390:../Drivers/STM32_ExtMem_Manager/sal/stm32_sal_xspi.c ****           s_commandbase.DataDTRMode        = HAL_XSPI_DATA_DTR_ENABLE;
 562              		.loc 1 390 11 is_stmt 1 view .LVU214
 563              		.loc 1 390 44 is_stmt 0 view .LVU215
 564 017e 4FF00063 		mov	r3, #134217728
 565 0182 1193     		str	r3, [sp, #68]
 391:../Drivers/STM32_ExtMem_Manager/sal/stm32_sal_xspi.c ****           s_commandbase.DummyCycles        = 10;
 566              		.loc 1 391 11 is_stmt 1 view .LVU216
 567              		.loc 1 391 44 is_stmt 0 view .LVU217
 568 0184 0A23     		movs	r3, #10
 569 0186 1293     		str	r3, [sp, #72]
 392:../Drivers/STM32_ExtMem_Manager/sal/stm32_sal_xspi.c ****           s_commandbase.DQSMode            = HAL_XSPI_DQS_ENABLE;
 570              		.loc 1 392 11 is_stmt 1 view .LVU218
 571              		.loc 1 392 44 is_stmt 0 view .LVU219
 572 0188 4FF00053 		mov	r3, #536870912
 573 018c 1393     		str	r3, [sp, #76]
 393:../Drivers/STM32_ExtMem_Manager/sal/stm32_sal_xspi.c ****           break;
 574              		.loc 1 393 11 is_stmt 1 view .LVU220
 575 018e 1FE0     		b	.L29
ARM GAS  /tmp/ccuJg0Ev.s 			page 18


 576              	.L20:
 394:../Drivers/STM32_ExtMem_Manager/sal/stm32_sal_xspi.c ****         }
 395:../Drivers/STM32_ExtMem_Manager/sal/stm32_sal_xspi.c **** #if defined(HAL_XSPI_DATA_16_LINES)
 396:../Drivers/STM32_ExtMem_Manager/sal/stm32_sal_xspi.c ****         case PHY_LINK_RAM16 :
 397:../Drivers/STM32_ExtMem_Manager/sal/stm32_sal_xspi.c ****         {
 398:../Drivers/STM32_ExtMem_Manager/sal/stm32_sal_xspi.c ****           s_commandbase.InstructionMode    = HAL_XSPI_INSTRUCTION_8_LINES;
 577              		.loc 1 398 11 view .LVU221
 578              		.loc 1 398 44 is_stmt 0 view .LVU222
 579 0190 0423     		movs	r3, #4
 580 0192 0493     		str	r3, [sp, #16]
 399:../Drivers/STM32_ExtMem_Manager/sal/stm32_sal_xspi.c ****           s_commandbase.InstructionWidth   = HAL_XSPI_INSTRUCTION_8_BITS;
 581              		.loc 1 399 11 is_stmt 1 view .LVU223
 582              		.loc 1 399 44 is_stmt 0 view .LVU224
 583 0194 0023     		movs	r3, #0
 584 0196 0593     		str	r3, [sp, #20]
 400:../Drivers/STM32_ExtMem_Manager/sal/stm32_sal_xspi.c ****           s_commandbase.InstructionDTRMode = HAL_XSPI_INSTRUCTION_DTR_DISABLE;
 585              		.loc 1 400 11 is_stmt 1 view .LVU225
 586              		.loc 1 400 44 is_stmt 0 view .LVU226
 587 0198 0693     		str	r3, [sp, #24]
 401:../Drivers/STM32_ExtMem_Manager/sal/stm32_sal_xspi.c ****           s_commandbase.AddressMode        = HAL_XSPI_ADDRESS_8_LINES;
 588              		.loc 1 401 11 is_stmt 1 view .LVU227
 589              		.loc 1 401 44 is_stmt 0 view .LVU228
 590 019a 4FF48062 		mov	r2, #1024
 591 019e 0892     		str	r2, [sp, #32]
 402:../Drivers/STM32_ExtMem_Manager/sal/stm32_sal_xspi.c ****           s_commandbase.AddressWidth       = HAL_XSPI_ADDRESS_32_BITS;
 592              		.loc 1 402 11 is_stmt 1 view .LVU229
 593              		.loc 1 402 44 is_stmt 0 view .LVU230
 594 01a0 4FF44052 		mov	r2, #12288
 595 01a4 0992     		str	r2, [sp, #36]
 403:../Drivers/STM32_ExtMem_Manager/sal/stm32_sal_xspi.c ****           s_commandbase.AddressDTRMode     = HAL_XSPI_ADDRESS_DTR_ENABLE;
 596              		.loc 1 403 11 is_stmt 1 view .LVU231
 597              		.loc 1 403 44 is_stmt 0 view .LVU232
 598 01a6 4FF40062 		mov	r2, #2048
 599 01aa 0A92     		str	r2, [sp, #40]
 404:../Drivers/STM32_ExtMem_Manager/sal/stm32_sal_xspi.c ****           s_commandbase.AlternateBytesMode = HAL_XSPI_ALT_BYTES_NONE;
 600              		.loc 1 404 11 is_stmt 1 view .LVU233
 601              		.loc 1 404 44 is_stmt 0 view .LVU234
 602 01ac 0C93     		str	r3, [sp, #48]
 405:../Drivers/STM32_ExtMem_Manager/sal/stm32_sal_xspi.c ****           s_commandbase.DataMode           = HAL_XSPI_DATA_16_LINES;
 603              		.loc 1 405 11 is_stmt 1 view .LVU235
 604              		.loc 1 405 44 is_stmt 0 view .LVU236
 605 01ae 4FF0A063 		mov	r3, #83886080
 606 01b2 0F93     		str	r3, [sp, #60]
 406:../Drivers/STM32_ExtMem_Manager/sal/stm32_sal_xspi.c ****           s_commandbase.DataDTRMode        = HAL_XSPI_DATA_DTR_ENABLE;
 607              		.loc 1 406 11 is_stmt 1 view .LVU237
 608              		.loc 1 406 44 is_stmt 0 view .LVU238
 609 01b4 4FF00063 		mov	r3, #134217728
 610 01b8 1193     		str	r3, [sp, #68]
 407:../Drivers/STM32_ExtMem_Manager/sal/stm32_sal_xspi.c ****           s_commandbase.DummyCycles        = 10;
 611              		.loc 1 407 11 is_stmt 1 view .LVU239
 612              		.loc 1 407 44 is_stmt 0 view .LVU240
 613 01ba 0A23     		movs	r3, #10
 614 01bc 1293     		str	r3, [sp, #72]
 408:../Drivers/STM32_ExtMem_Manager/sal/stm32_sal_xspi.c ****           s_commandbase.DQSMode            = HAL_XSPI_DQS_ENABLE;
 615              		.loc 1 408 11 is_stmt 1 view .LVU241
 616              		.loc 1 408 44 is_stmt 0 view .LVU242
 617 01be 4FF00053 		mov	r3, #536870912
ARM GAS  /tmp/ccuJg0Ev.s 			page 19


 618 01c2 1393     		str	r3, [sp, #76]
 409:../Drivers/STM32_ExtMem_Manager/sal/stm32_sal_xspi.c ****           break;
 619              		.loc 1 409 11 is_stmt 1 view .LVU243
 620 01c4 04E0     		b	.L29
 621              	.L17:
 410:../Drivers/STM32_ExtMem_Manager/sal/stm32_sal_xspi.c ****         }
 411:../Drivers/STM32_ExtMem_Manager/sal/stm32_sal_xspi.c **** #endif /* HAL_XSPI_DATA_16_LINES */
 412:../Drivers/STM32_ExtMem_Manager/sal/stm32_sal_xspi.c ****         default:
 413:../Drivers/STM32_ExtMem_Manager/sal/stm32_sal_xspi.c ****           retr = HAL_ERROR;
 414:../Drivers/STM32_ExtMem_Manager/sal/stm32_sal_xspi.c ****           break;
 415:../Drivers/STM32_ExtMem_Manager/sal/stm32_sal_xspi.c ****       }
 416:../Drivers/STM32_ExtMem_Manager/sal/stm32_sal_xspi.c ****       DEBUG_PARAM_END();
 417:../Drivers/STM32_ExtMem_Manager/sal/stm32_sal_xspi.c ****       break;
 418:../Drivers/STM32_ExtMem_Manager/sal/stm32_sal_xspi.c ****     }
 419:../Drivers/STM32_ExtMem_Manager/sal/stm32_sal_xspi.c ****     case PARAM_ADDRESS_4BYTES:
 420:../Drivers/STM32_ExtMem_Manager/sal/stm32_sal_xspi.c ****     {
 421:../Drivers/STM32_ExtMem_Manager/sal/stm32_sal_xspi.c ****       DEBUG_PARAM_BEGIN();
 622              		.loc 1 421 26 view .LVU244
 422:../Drivers/STM32_ExtMem_Manager/sal/stm32_sal_xspi.c ****       DEBUG_PARAM_DATA("::PARAM_ADDRESS_4BYTES");
 623              		.loc 1 422 49 view .LVU245
 423:../Drivers/STM32_ExtMem_Manager/sal/stm32_sal_xspi.c ****       DEBUG_PARAM_END();
 624              		.loc 1 423 24 view .LVU246
 424:../Drivers/STM32_ExtMem_Manager/sal/stm32_sal_xspi.c ****       s_commandbase.AddressWidth = HAL_XSPI_ADDRESS_32_BITS;
 625              		.loc 1 424 7 view .LVU247
 626              		.loc 1 424 34 is_stmt 0 view .LVU248
 627 01c6 4FF44053 		mov	r3, #12288
 628 01ca 0993     		str	r3, [sp, #36]
 425:../Drivers/STM32_ExtMem_Manager/sal/stm32_sal_xspi.c ****       break;
 629              		.loc 1 425 7 is_stmt 1 view .LVU249
 630              	.L31:
 277:../Drivers/STM32_ExtMem_Manager/sal/stm32_sal_xspi.c ****   XSPI_RegularCmdTypeDef s_commandbase = SalXspi->Commandbase;
 631              		.loc 1 277 21 is_stmt 0 view .LVU250
 632 01cc 0023     		movs	r3, #0
 633 01ce 1D46     		mov	r5, r3
 634              	.L29:
 635              	.LVL21:
 426:../Drivers/STM32_ExtMem_Manager/sal/stm32_sal_xspi.c ****     }
 427:../Drivers/STM32_ExtMem_Manager/sal/stm32_sal_xspi.c ****     case PARAM_FLASHSIZE:
 428:../Drivers/STM32_ExtMem_Manager/sal/stm32_sal_xspi.c ****     {
 429:../Drivers/STM32_ExtMem_Manager/sal/stm32_sal_xspi.c ****       uint8_t valParam = *((uint8_t *)ParamVal);
 430:../Drivers/STM32_ExtMem_Manager/sal/stm32_sal_xspi.c ****       DEBUG_PARAM_BEGIN();
 431:../Drivers/STM32_ExtMem_Manager/sal/stm32_sal_xspi.c ****       DEBUG_PARAM_DATA("::PARAM_FLASHSIZE::");
 432:../Drivers/STM32_ExtMem_Manager/sal/stm32_sal_xspi.c ****       DEBUG_PARAM_INT(valParam);
 433:../Drivers/STM32_ExtMem_Manager/sal/stm32_sal_xspi.c ****       DEBUG_PARAM_END();
 434:../Drivers/STM32_ExtMem_Manager/sal/stm32_sal_xspi.c ****       MODIFY_REG(SalXspi->hxspi->Instance->DCR1, XSPI_DCR1_DEVSIZE, ((uint32_t)valParam) << XSPI_DC
 435:../Drivers/STM32_ExtMem_Manager/sal/stm32_sal_xspi.c ****       break;
 436:../Drivers/STM32_ExtMem_Manager/sal/stm32_sal_xspi.c ****     }
 437:../Drivers/STM32_ExtMem_Manager/sal/stm32_sal_xspi.c ****     case PARAM_DUMMY_CYCLES:
 438:../Drivers/STM32_ExtMem_Manager/sal/stm32_sal_xspi.c ****     {
 439:../Drivers/STM32_ExtMem_Manager/sal/stm32_sal_xspi.c ****       uint8_t valParam = *((uint8_t *)ParamVal);
 440:../Drivers/STM32_ExtMem_Manager/sal/stm32_sal_xspi.c ****       DEBUG_PARAM_BEGIN();
 441:../Drivers/STM32_ExtMem_Manager/sal/stm32_sal_xspi.c ****       DEBUG_PARAM_DATA("::PARAM_DUMMY_CYCLES::");
 442:../Drivers/STM32_ExtMem_Manager/sal/stm32_sal_xspi.c ****       DEBUG_PARAM_INT(valParam);
 443:../Drivers/STM32_ExtMem_Manager/sal/stm32_sal_xspi.c ****       DEBUG_PARAM_END();
 444:../Drivers/STM32_ExtMem_Manager/sal/stm32_sal_xspi.c ****       s_commandbase.DummyCycles = valParam;
 445:../Drivers/STM32_ExtMem_Manager/sal/stm32_sal_xspi.c ****       break;
 446:../Drivers/STM32_ExtMem_Manager/sal/stm32_sal_xspi.c ****     }
ARM GAS  /tmp/ccuJg0Ev.s 			page 20


 447:../Drivers/STM32_ExtMem_Manager/sal/stm32_sal_xspi.c ****     default:
 448:../Drivers/STM32_ExtMem_Manager/sal/stm32_sal_xspi.c ****       DEBUG_PARAM_BEGIN();
 449:../Drivers/STM32_ExtMem_Manager/sal/stm32_sal_xspi.c ****       DEBUG_PARAM_DATA("::SAL_XSPI_MemoryConfig::ERROR");
 450:../Drivers/STM32_ExtMem_Manager/sal/stm32_sal_xspi.c ****       DEBUG_PARAM_END();
 451:../Drivers/STM32_ExtMem_Manager/sal/stm32_sal_xspi.c ****       retr = HAL_ERROR;
 452:../Drivers/STM32_ExtMem_Manager/sal/stm32_sal_xspi.c ****       break;
 453:../Drivers/STM32_ExtMem_Manager/sal/stm32_sal_xspi.c ****   }
 454:../Drivers/STM32_ExtMem_Manager/sal/stm32_sal_xspi.c ****   SalXspi->Commandbase = s_commandbase;
 636              		.loc 1 454 3 is_stmt 1 view .LVU251
 637              		.loc 1 454 24 is_stmt 0 view .LVU252
 638 01d0 4C22     		movs	r2, #76
 639 01d2 01A9     		add	r1, sp, #4
 640 01d4 201D     		adds	r0, r4, #4
 641 01d6 FFF7FEFF 		bl	memcpy
 642              	.LVL22:
 455:../Drivers/STM32_ExtMem_Manager/sal/stm32_sal_xspi.c ****   return retr;
 643              		.loc 1 455 3 is_stmt 1 view .LVU253
 456:../Drivers/STM32_ExtMem_Manager/sal/stm32_sal_xspi.c **** }
 644              		.loc 1 456 1 is_stmt 0 view .LVU254
 645 01da 2846     		mov	r0, r5
 646 01dc 14B0     		add	sp, sp, #80
 647              	.LCFI7:
 648              		.cfi_remember_state
 649              		.cfi_def_cfa_offset 16
 650              		@ sp needed
 651 01de 70BD     		pop	{r4, r5, r6, pc}
 652              	.LVL23:
 653              	.L15:
 654              	.LCFI8:
 655              		.cfi_restore_state
 656              	.LBB4:
 429:../Drivers/STM32_ExtMem_Manager/sal/stm32_sal_xspi.c ****       DEBUG_PARAM_BEGIN();
 657              		.loc 1 429 7 is_stmt 1 view .LVU255
 429:../Drivers/STM32_ExtMem_Manager/sal/stm32_sal_xspi.c ****       DEBUG_PARAM_BEGIN();
 658              		.loc 1 429 15 is_stmt 0 view .LVU256
 659 01e0 3178     		ldrb	r1, [r6]	@ zero_extendqisi2
 660              	.LVL24:
 430:../Drivers/STM32_ExtMem_Manager/sal/stm32_sal_xspi.c ****       DEBUG_PARAM_DATA("::PARAM_FLASHSIZE::");
 661              		.loc 1 430 26 is_stmt 1 view .LVU257
 431:../Drivers/STM32_ExtMem_Manager/sal/stm32_sal_xspi.c ****       DEBUG_PARAM_INT(valParam);
 662              		.loc 1 431 46 view .LVU258
 432:../Drivers/STM32_ExtMem_Manager/sal/stm32_sal_xspi.c ****       DEBUG_PARAM_END();
 663              		.loc 1 432 32 view .LVU259
 433:../Drivers/STM32_ExtMem_Manager/sal/stm32_sal_xspi.c ****       MODIFY_REG(SalXspi->hxspi->Instance->DCR1, XSPI_DCR1_DEVSIZE, ((uint32_t)valParam) << XSPI_DC
 664              		.loc 1 433 24 view .LVU260
 434:../Drivers/STM32_ExtMem_Manager/sal/stm32_sal_xspi.c ****       break;
 665              		.loc 1 434 7 view .LVU261
 666 01e2 2368     		ldr	r3, [r4]
 667 01e4 1A68     		ldr	r2, [r3]
 668 01e6 9368     		ldr	r3, [r2, #8]
 669 01e8 23F4F813 		bic	r3, r3, #2031616
 670 01ec 43EA0143 		orr	r3, r3, r1, lsl #16
 671 01f0 9360     		str	r3, [r2, #8]
 435:../Drivers/STM32_ExtMem_Manager/sal/stm32_sal_xspi.c ****     }
 672              		.loc 1 435 7 view .LVU262
 673 01f2 EBE7     		b	.L31
 674              	.LVL25:
ARM GAS  /tmp/ccuJg0Ev.s 			page 21


 675              	.L18:
 435:../Drivers/STM32_ExtMem_Manager/sal/stm32_sal_xspi.c ****     }
 676              		.loc 1 435 7 is_stmt 0 view .LVU263
 677              	.LBE4:
 678              	.LBB5:
 439:../Drivers/STM32_ExtMem_Manager/sal/stm32_sal_xspi.c ****       DEBUG_PARAM_BEGIN();
 679              		.loc 1 439 7 is_stmt 1 view .LVU264
 439:../Drivers/STM32_ExtMem_Manager/sal/stm32_sal_xspi.c ****       DEBUG_PARAM_BEGIN();
 680              		.loc 1 439 15 is_stmt 0 view .LVU265
 681 01f4 3378     		ldrb	r3, [r6]	@ zero_extendqisi2
 682              	.LVL26:
 440:../Drivers/STM32_ExtMem_Manager/sal/stm32_sal_xspi.c ****       DEBUG_PARAM_DATA("::PARAM_DUMMY_CYCLES::");
 683              		.loc 1 440 26 is_stmt 1 view .LVU266
 441:../Drivers/STM32_ExtMem_Manager/sal/stm32_sal_xspi.c ****       DEBUG_PARAM_INT(valParam);
 684              		.loc 1 441 49 view .LVU267
 442:../Drivers/STM32_ExtMem_Manager/sal/stm32_sal_xspi.c ****       DEBUG_PARAM_END();
 685              		.loc 1 442 32 view .LVU268
 443:../Drivers/STM32_ExtMem_Manager/sal/stm32_sal_xspi.c ****       s_commandbase.DummyCycles = valParam;
 686              		.loc 1 443 24 view .LVU269
 444:../Drivers/STM32_ExtMem_Manager/sal/stm32_sal_xspi.c ****       break;
 687              		.loc 1 444 7 view .LVU270
 444:../Drivers/STM32_ExtMem_Manager/sal/stm32_sal_xspi.c ****       break;
 688              		.loc 1 444 33 is_stmt 0 view .LVU271
 689 01f6 1293     		str	r3, [sp, #72]
 445:../Drivers/STM32_ExtMem_Manager/sal/stm32_sal_xspi.c ****     }
 690              		.loc 1 445 7 is_stmt 1 view .LVU272
 691 01f8 E8E7     		b	.L31
 692              	.LBE5:
 693              		.cfi_endproc
 694              	.LFE883:
 696              		.section	.text.SAL_XSPI_DisableMapMode,"ax",%progbits
 697              		.align	1
 698              		.global	SAL_XSPI_DisableMapMode
 699              		.syntax unified
 700              		.thumb
 701              		.thumb_func
 703              	SAL_XSPI_DisableMapMode:
 704              	.LVL27:
 705              	.LFB895:
 457:../Drivers/STM32_ExtMem_Manager/sal/stm32_sal_xspi.c **** 
 458:../Drivers/STM32_ExtMem_Manager/sal/stm32_sal_xspi.c **** /**
 459:../Drivers/STM32_ExtMem_Manager/sal/stm32_sal_xspi.c ****   * @brief This function gets SFDP data
 460:../Drivers/STM32_ExtMem_Manager/sal/stm32_sal_xspi.c ****   * @param SalXspi SAL XSPI handle
 461:../Drivers/STM32_ExtMem_Manager/sal/stm32_sal_xspi.c ****   * @param Address Address to read the data
 462:../Drivers/STM32_ExtMem_Manager/sal/stm32_sal_xspi.c ****   * @param Data Data pointer
 463:../Drivers/STM32_ExtMem_Manager/sal/stm32_sal_xspi.c ****   * @param DataSize Size of the data to read
 464:../Drivers/STM32_ExtMem_Manager/sal/stm32_sal_xspi.c ****   * @return @ref HAL_StatusTypeDef
 465:../Drivers/STM32_ExtMem_Manager/sal/stm32_sal_xspi.c ****   **/
 466:../Drivers/STM32_ExtMem_Manager/sal/stm32_sal_xspi.c **** HAL_StatusTypeDef SAL_XSPI_GetSFDP(SAL_XSPI_ObjectTypeDef *SalXspi, uint32_t Address, uint8_t *Data
 467:../Drivers/STM32_ExtMem_Manager/sal/stm32_sal_xspi.c **** {
 468:../Drivers/STM32_ExtMem_Manager/sal/stm32_sal_xspi.c ****   HAL_StatusTypeDef retr;
 469:../Drivers/STM32_ExtMem_Manager/sal/stm32_sal_xspi.c ****   XSPI_RegularCmdTypeDef s_command = SalXspi->Commandbase;
 470:../Drivers/STM32_ExtMem_Manager/sal/stm32_sal_xspi.c **** 
 471:../Drivers/STM32_ExtMem_Manager/sal/stm32_sal_xspi.c ****   /* Initialize the read ID command */
 472:../Drivers/STM32_ExtMem_Manager/sal/stm32_sal_xspi.c ****   s_command.Instruction = XSPI_FormatCommand(SalXspi->CommandExtension, s_command.InstructionWidth,
 473:../Drivers/STM32_ExtMem_Manager/sal/stm32_sal_xspi.c ****                                              EXTMEM_READ_SFDP_COMMAND);
 474:../Drivers/STM32_ExtMem_Manager/sal/stm32_sal_xspi.c **** 
ARM GAS  /tmp/ccuJg0Ev.s 			page 22


 475:../Drivers/STM32_ExtMem_Manager/sal/stm32_sal_xspi.c ****   s_command.Address     = Address;
 476:../Drivers/STM32_ExtMem_Manager/sal/stm32_sal_xspi.c ****   s_command.DataLength  = DataSize;
 477:../Drivers/STM32_ExtMem_Manager/sal/stm32_sal_xspi.c ****   s_command.DummyCycles = SalXspi->SFDPDummyCycle;
 478:../Drivers/STM32_ExtMem_Manager/sal/stm32_sal_xspi.c **** 
 479:../Drivers/STM32_ExtMem_Manager/sal/stm32_sal_xspi.c ****   if ((s_command.AddressMode == HAL_XSPI_ADDRESS_1_LINE) || (s_command.AddressMode == HAL_XSPI_ADDR
 480:../Drivers/STM32_ExtMem_Manager/sal/stm32_sal_xspi.c ****   {
 481:../Drivers/STM32_ExtMem_Manager/sal/stm32_sal_xspi.c ****     s_command.AddressWidth = HAL_XSPI_ADDRESS_24_BITS;
 482:../Drivers/STM32_ExtMem_Manager/sal/stm32_sal_xspi.c ****   }
 483:../Drivers/STM32_ExtMem_Manager/sal/stm32_sal_xspi.c **** 
 484:../Drivers/STM32_ExtMem_Manager/sal/stm32_sal_xspi.c ****   if (s_command.DataDTRMode == HAL_XSPI_DATA_DTR_ENABLE)
 485:../Drivers/STM32_ExtMem_Manager/sal/stm32_sal_xspi.c ****   {
 486:../Drivers/STM32_ExtMem_Manager/sal/stm32_sal_xspi.c ****     s_command.DQSMode = HAL_XSPI_DQS_ENABLE;
 487:../Drivers/STM32_ExtMem_Manager/sal/stm32_sal_xspi.c ****   }
 488:../Drivers/STM32_ExtMem_Manager/sal/stm32_sal_xspi.c ****   else
 489:../Drivers/STM32_ExtMem_Manager/sal/stm32_sal_xspi.c ****   {
 490:../Drivers/STM32_ExtMem_Manager/sal/stm32_sal_xspi.c ****     s_command.DQSMode = HAL_XSPI_DQS_DISABLE;
 491:../Drivers/STM32_ExtMem_Manager/sal/stm32_sal_xspi.c ****   }
 492:../Drivers/STM32_ExtMem_Manager/sal/stm32_sal_xspi.c **** 
 493:../Drivers/STM32_ExtMem_Manager/sal/stm32_sal_xspi.c ****   /* Configure the command */
 494:../Drivers/STM32_ExtMem_Manager/sal/stm32_sal_xspi.c ****   retr = HAL_XSPI_Command(SalXspi->hxspi, &s_command, SAL_XSPI_TIMEOUT_DEFAULT_VALUE);
 495:../Drivers/STM32_ExtMem_Manager/sal/stm32_sal_xspi.c ****   if (retr  != HAL_OK)
 496:../Drivers/STM32_ExtMem_Manager/sal/stm32_sal_xspi.c ****   {
 497:../Drivers/STM32_ExtMem_Manager/sal/stm32_sal_xspi.c ****     goto error;
 498:../Drivers/STM32_ExtMem_Manager/sal/stm32_sal_xspi.c ****   }
 499:../Drivers/STM32_ExtMem_Manager/sal/stm32_sal_xspi.c **** 
 500:../Drivers/STM32_ExtMem_Manager/sal/stm32_sal_xspi.c ****   /* Reception of the data */
 501:../Drivers/STM32_ExtMem_Manager/sal/stm32_sal_xspi.c ****   retr = HAL_XSPI_Receive(SalXspi->hxspi, Data, SAL_XSPI_TIMEOUT_DEFAULT_VALUE);
 502:../Drivers/STM32_ExtMem_Manager/sal/stm32_sal_xspi.c **** 
 503:../Drivers/STM32_ExtMem_Manager/sal/stm32_sal_xspi.c **** error:
 504:../Drivers/STM32_ExtMem_Manager/sal/stm32_sal_xspi.c ****   if (retr != HAL_OK)
 505:../Drivers/STM32_ExtMem_Manager/sal/stm32_sal_xspi.c ****   {
 506:../Drivers/STM32_ExtMem_Manager/sal/stm32_sal_xspi.c ****     /* Abort any ongoing transaction for the next action */
 507:../Drivers/STM32_ExtMem_Manager/sal/stm32_sal_xspi.c ****     (void)HAL_XSPI_Abort(SalXspi->hxspi);
 508:../Drivers/STM32_ExtMem_Manager/sal/stm32_sal_xspi.c ****   }
 509:../Drivers/STM32_ExtMem_Manager/sal/stm32_sal_xspi.c ****   return retr;
 510:../Drivers/STM32_ExtMem_Manager/sal/stm32_sal_xspi.c **** }
 511:../Drivers/STM32_ExtMem_Manager/sal/stm32_sal_xspi.c **** 
 512:../Drivers/STM32_ExtMem_Manager/sal/stm32_sal_xspi.c **** /**
 513:../Drivers/STM32_ExtMem_Manager/sal/stm32_sal_xspi.c ****   * @brief This function reads the flash ID
 514:../Drivers/STM32_ExtMem_Manager/sal/stm32_sal_xspi.c ****   * @param SalXspi SAL XSPI handle
 515:../Drivers/STM32_ExtMem_Manager/sal/stm32_sal_xspi.c ****   * @param Data Data pointer where read ID should be stored
 516:../Drivers/STM32_ExtMem_Manager/sal/stm32_sal_xspi.c ****   * @param DataSize Number of data to read
 517:../Drivers/STM32_ExtMem_Manager/sal/stm32_sal_xspi.c ****   * @return @ref HAL_StatusTypeDef
 518:../Drivers/STM32_ExtMem_Manager/sal/stm32_sal_xspi.c ****   **/
 519:../Drivers/STM32_ExtMem_Manager/sal/stm32_sal_xspi.c **** HAL_StatusTypeDef SAL_XSPI_GetId(SAL_XSPI_ObjectTypeDef *SalXspi, uint8_t *Data, uint32_t DataSize)
 520:../Drivers/STM32_ExtMem_Manager/sal/stm32_sal_xspi.c **** {
 521:../Drivers/STM32_ExtMem_Manager/sal/stm32_sal_xspi.c ****   HAL_StatusTypeDef retr;
 522:../Drivers/STM32_ExtMem_Manager/sal/stm32_sal_xspi.c ****   XSPI_RegularCmdTypeDef s_command = SalXspi->Commandbase;
 523:../Drivers/STM32_ExtMem_Manager/sal/stm32_sal_xspi.c **** 
 524:../Drivers/STM32_ExtMem_Manager/sal/stm32_sal_xspi.c ****   /* Initialize the Read ID command */
 525:../Drivers/STM32_ExtMem_Manager/sal/stm32_sal_xspi.c ****   s_command.Instruction = XSPI_FormatCommand(SalXspi->CommandExtension, s_command.InstructionWidth,
 526:../Drivers/STM32_ExtMem_Manager/sal/stm32_sal_xspi.c ****                                              EXTMEM_READ_JEDEC_ID_SPI_COMMAND);
 527:../Drivers/STM32_ExtMem_Manager/sal/stm32_sal_xspi.c **** 
 528:../Drivers/STM32_ExtMem_Manager/sal/stm32_sal_xspi.c ****   s_command.DataLength  = DataSize;
 529:../Drivers/STM32_ExtMem_Manager/sal/stm32_sal_xspi.c **** 
 530:../Drivers/STM32_ExtMem_Manager/sal/stm32_sal_xspi.c ****   if (s_command.InstructionMode == HAL_XSPI_INSTRUCTION_1_LINE)
 531:../Drivers/STM32_ExtMem_Manager/sal/stm32_sal_xspi.c ****   {
ARM GAS  /tmp/ccuJg0Ev.s 			page 23


 532:../Drivers/STM32_ExtMem_Manager/sal/stm32_sal_xspi.c ****     s_command.AddressMode       = HAL_XSPI_ADDRESS_NONE;
 533:../Drivers/STM32_ExtMem_Manager/sal/stm32_sal_xspi.c ****     s_command.DummyCycles       = 0;
 534:../Drivers/STM32_ExtMem_Manager/sal/stm32_sal_xspi.c ****     /* This behavior is linked with micron memory to read ID in 1S8S8S */
 535:../Drivers/STM32_ExtMem_Manager/sal/stm32_sal_xspi.c ****     s_command.DataMode = HAL_XSPI_DATA_1_LINE;
 536:../Drivers/STM32_ExtMem_Manager/sal/stm32_sal_xspi.c ****   }
 537:../Drivers/STM32_ExtMem_Manager/sal/stm32_sal_xspi.c ****   else if (s_command.InstructionMode == HAL_XSPI_INSTRUCTION_4_LINES)
 538:../Drivers/STM32_ExtMem_Manager/sal/stm32_sal_xspi.c ****   {
 539:../Drivers/STM32_ExtMem_Manager/sal/stm32_sal_xspi.c ****     s_command.AddressMode       = HAL_XSPI_ADDRESS_NONE;
 540:../Drivers/STM32_ExtMem_Manager/sal/stm32_sal_xspi.c ****     s_command.DummyCycles       = 0;
 541:../Drivers/STM32_ExtMem_Manager/sal/stm32_sal_xspi.c ****     /* This behavior is linked with ISSI memory to read ID in 4S4S4S */
 542:../Drivers/STM32_ExtMem_Manager/sal/stm32_sal_xspi.c ****     s_command.DataMode          = HAL_XSPI_DATA_4_LINES;
 543:../Drivers/STM32_ExtMem_Manager/sal/stm32_sal_xspi.c ****   }
 544:../Drivers/STM32_ExtMem_Manager/sal/stm32_sal_xspi.c ****   else if (s_command.InstructionMode == HAL_XSPI_INSTRUCTION_8_LINES)
 545:../Drivers/STM32_ExtMem_Manager/sal/stm32_sal_xspi.c ****   {
 546:../Drivers/STM32_ExtMem_Manager/sal/stm32_sal_xspi.c ****     s_command.Address = 0;
 547:../Drivers/STM32_ExtMem_Manager/sal/stm32_sal_xspi.c **** 
 548:../Drivers/STM32_ExtMem_Manager/sal/stm32_sal_xspi.c ****     /* Specific case for Macronix memories : RDID is not Data DTR  */
 549:../Drivers/STM32_ExtMem_Manager/sal/stm32_sal_xspi.c ****     if ((Data[0] == 0xC2) && (s_command.DataDTRMode == HAL_XSPI_DATA_DTR_ENABLE))
 550:../Drivers/STM32_ExtMem_Manager/sal/stm32_sal_xspi.c ****     {
 551:../Drivers/STM32_ExtMem_Manager/sal/stm32_sal_xspi.c ****       s_command.DummyCycles       = 4;
 552:../Drivers/STM32_ExtMem_Manager/sal/stm32_sal_xspi.c ****       s_command.DataDTRMode       = HAL_XSPI_DATA_DTR_DISABLE;
 553:../Drivers/STM32_ExtMem_Manager/sal/stm32_sal_xspi.c ****     }
 554:../Drivers/STM32_ExtMem_Manager/sal/stm32_sal_xspi.c ****     /* Specific case for GigaDevice memories : RDID has no address even in Octal mode  */
 555:../Drivers/STM32_ExtMem_Manager/sal/stm32_sal_xspi.c ****     else if ((Data[0] == 0xC8) && (s_command.DataDTRMode == HAL_XSPI_DATA_DTR_ENABLE))
 556:../Drivers/STM32_ExtMem_Manager/sal/stm32_sal_xspi.c ****     {
 557:../Drivers/STM32_ExtMem_Manager/sal/stm32_sal_xspi.c ****       s_command.DummyCycles       = 8;
 558:../Drivers/STM32_ExtMem_Manager/sal/stm32_sal_xspi.c ****       s_command.AddressMode       = HAL_XSPI_ADDRESS_NONE;
 559:../Drivers/STM32_ExtMem_Manager/sal/stm32_sal_xspi.c ****     }
 560:../Drivers/STM32_ExtMem_Manager/sal/stm32_sal_xspi.c ****     else
 561:../Drivers/STM32_ExtMem_Manager/sal/stm32_sal_xspi.c ****     {
 562:../Drivers/STM32_ExtMem_Manager/sal/stm32_sal_xspi.c ****       s_command.DummyCycles = 8;
 563:../Drivers/STM32_ExtMem_Manager/sal/stm32_sal_xspi.c ****     }
 564:../Drivers/STM32_ExtMem_Manager/sal/stm32_sal_xspi.c ****     /* Required behavior to be confirmed on the other memories */
 565:../Drivers/STM32_ExtMem_Manager/sal/stm32_sal_xspi.c ****   }
 566:../Drivers/STM32_ExtMem_Manager/sal/stm32_sal_xspi.c ****   else
 567:../Drivers/STM32_ExtMem_Manager/sal/stm32_sal_xspi.c ****   {
 568:../Drivers/STM32_ExtMem_Manager/sal/stm32_sal_xspi.c ****     s_command.Address = 0;
 569:../Drivers/STM32_ExtMem_Manager/sal/stm32_sal_xspi.c ****     s_command.DummyCycles = 8;
 570:../Drivers/STM32_ExtMem_Manager/sal/stm32_sal_xspi.c ****   }
 571:../Drivers/STM32_ExtMem_Manager/sal/stm32_sal_xspi.c **** 
 572:../Drivers/STM32_ExtMem_Manager/sal/stm32_sal_xspi.c ****   /* Configure the command */
 573:../Drivers/STM32_ExtMem_Manager/sal/stm32_sal_xspi.c ****   retr = HAL_XSPI_Command(SalXspi->hxspi, &s_command, SAL_XSPI_TIMEOUT_DEFAULT_VALUE);
 574:../Drivers/STM32_ExtMem_Manager/sal/stm32_sal_xspi.c ****   if (retr  != HAL_OK)
 575:../Drivers/STM32_ExtMem_Manager/sal/stm32_sal_xspi.c ****   {
 576:../Drivers/STM32_ExtMem_Manager/sal/stm32_sal_xspi.c ****     goto error;
 577:../Drivers/STM32_ExtMem_Manager/sal/stm32_sal_xspi.c ****   }
 578:../Drivers/STM32_ExtMem_Manager/sal/stm32_sal_xspi.c **** 
 579:../Drivers/STM32_ExtMem_Manager/sal/stm32_sal_xspi.c ****   /* Reception of the data */
 580:../Drivers/STM32_ExtMem_Manager/sal/stm32_sal_xspi.c ****   retr = HAL_XSPI_Receive(SalXspi->hxspi, Data, SAL_XSPI_TIMEOUT_DEFAULT_VALUE);
 581:../Drivers/STM32_ExtMem_Manager/sal/stm32_sal_xspi.c **** 
 582:../Drivers/STM32_ExtMem_Manager/sal/stm32_sal_xspi.c **** error:
 583:../Drivers/STM32_ExtMem_Manager/sal/stm32_sal_xspi.c ****   if (retr != HAL_OK)
 584:../Drivers/STM32_ExtMem_Manager/sal/stm32_sal_xspi.c ****   {
 585:../Drivers/STM32_ExtMem_Manager/sal/stm32_sal_xspi.c ****     /* Abort any ongoing transaction for the next action */
 586:../Drivers/STM32_ExtMem_Manager/sal/stm32_sal_xspi.c ****     (void)HAL_XSPI_Abort(SalXspi->hxspi);
 587:../Drivers/STM32_ExtMem_Manager/sal/stm32_sal_xspi.c ****   }
 588:../Drivers/STM32_ExtMem_Manager/sal/stm32_sal_xspi.c ****   return retr;
ARM GAS  /tmp/ccuJg0Ev.s 			page 24


 589:../Drivers/STM32_ExtMem_Manager/sal/stm32_sal_xspi.c **** }
 590:../Drivers/STM32_ExtMem_Manager/sal/stm32_sal_xspi.c **** 
 591:../Drivers/STM32_ExtMem_Manager/sal/stm32_sal_xspi.c **** /**
 592:../Drivers/STM32_ExtMem_Manager/sal/stm32_sal_xspi.c ****   * @brief This function reads data from the flash
 593:../Drivers/STM32_ExtMem_Manager/sal/stm32_sal_xspi.c ****   * @param SalXspi SAL XSPI handle
 594:../Drivers/STM32_ExtMem_Manager/sal/stm32_sal_xspi.c ****   * @param Command Command to execute
 595:../Drivers/STM32_ExtMem_Manager/sal/stm32_sal_xspi.c ****   * @param Address Address to read the data
 596:../Drivers/STM32_ExtMem_Manager/sal/stm32_sal_xspi.c ****   * @param Data Data pointer
 597:../Drivers/STM32_ExtMem_Manager/sal/stm32_sal_xspi.c ****   * @param DataSize Size of the data to read
 598:../Drivers/STM32_ExtMem_Manager/sal/stm32_sal_xspi.c ****   * @return @ref HAL_StatusTypeDef
 599:../Drivers/STM32_ExtMem_Manager/sal/stm32_sal_xspi.c ****   **/
 600:../Drivers/STM32_ExtMem_Manager/sal/stm32_sal_xspi.c **** HAL_StatusTypeDef SAL_XSPI_Read(SAL_XSPI_ObjectTypeDef *SalXspi, uint8_t Command, uint32_t Address,
 601:../Drivers/STM32_ExtMem_Manager/sal/stm32_sal_xspi.c ****                                 uint32_t DataSize)
 602:../Drivers/STM32_ExtMem_Manager/sal/stm32_sal_xspi.c **** {
 603:../Drivers/STM32_ExtMem_Manager/sal/stm32_sal_xspi.c ****   HAL_StatusTypeDef retr;
 604:../Drivers/STM32_ExtMem_Manager/sal/stm32_sal_xspi.c ****   XSPI_RegularCmdTypeDef s_command = SalXspi->Commandbase;
 605:../Drivers/STM32_ExtMem_Manager/sal/stm32_sal_xspi.c **** 
 606:../Drivers/STM32_ExtMem_Manager/sal/stm32_sal_xspi.c ****   /* Initialize the read ID command */
 607:../Drivers/STM32_ExtMem_Manager/sal/stm32_sal_xspi.c ****   s_command.Instruction = XSPI_FormatCommand(SalXspi->CommandExtension, s_command.InstructionWidth,
 608:../Drivers/STM32_ExtMem_Manager/sal/stm32_sal_xspi.c **** 
 609:../Drivers/STM32_ExtMem_Manager/sal/stm32_sal_xspi.c ****   s_command.Address           = Address;
 610:../Drivers/STM32_ExtMem_Manager/sal/stm32_sal_xspi.c ****   s_command.DataLength        = DataSize;
 611:../Drivers/STM32_ExtMem_Manager/sal/stm32_sal_xspi.c **** 
 612:../Drivers/STM32_ExtMem_Manager/sal/stm32_sal_xspi.c ****   /* DTR management for single/dual/quad */
 613:../Drivers/STM32_ExtMem_Manager/sal/stm32_sal_xspi.c ****   switch (SalXspi->PhyLink)
 614:../Drivers/STM32_ExtMem_Manager/sal/stm32_sal_xspi.c ****   {
 615:../Drivers/STM32_ExtMem_Manager/sal/stm32_sal_xspi.c ****     case PHY_LINK_4S4D4D :
 616:../Drivers/STM32_ExtMem_Manager/sal/stm32_sal_xspi.c ****       s_command.AddressDTRMode = HAL_XSPI_ADDRESS_DTR_ENABLE;
 617:../Drivers/STM32_ExtMem_Manager/sal/stm32_sal_xspi.c ****       s_command.DataDTRMode    = HAL_XSPI_DATA_DTR_ENABLE;
 618:../Drivers/STM32_ExtMem_Manager/sal/stm32_sal_xspi.c ****       s_command.DummyCycles    = SalXspi->DTRDummyCycle;
 619:../Drivers/STM32_ExtMem_Manager/sal/stm32_sal_xspi.c ****       break;
 620:../Drivers/STM32_ExtMem_Manager/sal/stm32_sal_xspi.c **** 
 621:../Drivers/STM32_ExtMem_Manager/sal/stm32_sal_xspi.c ****     case PHY_LINK_1S2S2S :
 622:../Drivers/STM32_ExtMem_Manager/sal/stm32_sal_xspi.c ****       s_command.AddressMode    = HAL_XSPI_ADDRESS_2_LINES;
 623:../Drivers/STM32_ExtMem_Manager/sal/stm32_sal_xspi.c ****       s_command.DataMode       = HAL_XSPI_DATA_2_LINES;
 624:../Drivers/STM32_ExtMem_Manager/sal/stm32_sal_xspi.c ****       break;
 625:../Drivers/STM32_ExtMem_Manager/sal/stm32_sal_xspi.c **** 
 626:../Drivers/STM32_ExtMem_Manager/sal/stm32_sal_xspi.c ****     case PHY_LINK_1S1S2S :
 627:../Drivers/STM32_ExtMem_Manager/sal/stm32_sal_xspi.c ****       s_command.DataMode       = HAL_XSPI_DATA_2_LINES;
 628:../Drivers/STM32_ExtMem_Manager/sal/stm32_sal_xspi.c ****       break;
 629:../Drivers/STM32_ExtMem_Manager/sal/stm32_sal_xspi.c **** 
 630:../Drivers/STM32_ExtMem_Manager/sal/stm32_sal_xspi.c ****     default :
 631:../Drivers/STM32_ExtMem_Manager/sal/stm32_sal_xspi.c ****       /* Keep default parameters */
 632:../Drivers/STM32_ExtMem_Manager/sal/stm32_sal_xspi.c ****       break;
 633:../Drivers/STM32_ExtMem_Manager/sal/stm32_sal_xspi.c ****   }
 634:../Drivers/STM32_ExtMem_Manager/sal/stm32_sal_xspi.c **** 
 635:../Drivers/STM32_ExtMem_Manager/sal/stm32_sal_xspi.c ****   /* Configure the command */
 636:../Drivers/STM32_ExtMem_Manager/sal/stm32_sal_xspi.c ****   retr = HAL_XSPI_Command(SalXspi->hxspi, &s_command, SAL_XSPI_TIMEOUT_DEFAULT_VALUE);
 637:../Drivers/STM32_ExtMem_Manager/sal/stm32_sal_xspi.c ****   if (retr  != HAL_OK)
 638:../Drivers/STM32_ExtMem_Manager/sal/stm32_sal_xspi.c ****   {
 639:../Drivers/STM32_ExtMem_Manager/sal/stm32_sal_xspi.c ****     goto error;
 640:../Drivers/STM32_ExtMem_Manager/sal/stm32_sal_xspi.c ****   }
 641:../Drivers/STM32_ExtMem_Manager/sal/stm32_sal_xspi.c **** 
 642:../Drivers/STM32_ExtMem_Manager/sal/stm32_sal_xspi.c ****   /* Read data */
 643:../Drivers/STM32_ExtMem_Manager/sal/stm32_sal_xspi.c ****   retr = XSPI_Receive(SalXspi, Data);
 644:../Drivers/STM32_ExtMem_Manager/sal/stm32_sal_xspi.c **** 
 645:../Drivers/STM32_ExtMem_Manager/sal/stm32_sal_xspi.c **** error:
ARM GAS  /tmp/ccuJg0Ev.s 			page 25


 646:../Drivers/STM32_ExtMem_Manager/sal/stm32_sal_xspi.c ****   if (retr != HAL_OK)
 647:../Drivers/STM32_ExtMem_Manager/sal/stm32_sal_xspi.c ****   {
 648:../Drivers/STM32_ExtMem_Manager/sal/stm32_sal_xspi.c ****     /* Abort any ongoing transaction for the next action */
 649:../Drivers/STM32_ExtMem_Manager/sal/stm32_sal_xspi.c ****     (void)HAL_XSPI_Abort(SalXspi->hxspi);
 650:../Drivers/STM32_ExtMem_Manager/sal/stm32_sal_xspi.c ****   }
 651:../Drivers/STM32_ExtMem_Manager/sal/stm32_sal_xspi.c ****   return retr;
 652:../Drivers/STM32_ExtMem_Manager/sal/stm32_sal_xspi.c **** }
 653:../Drivers/STM32_ExtMem_Manager/sal/stm32_sal_xspi.c **** 
 654:../Drivers/STM32_ExtMem_Manager/sal/stm32_sal_xspi.c **** /**
 655:../Drivers/STM32_ExtMem_Manager/sal/stm32_sal_xspi.c ****   * @brief This function writes data at an Address
 656:../Drivers/STM32_ExtMem_Manager/sal/stm32_sal_xspi.c ****   * @param SalXspi SAL XSPI handle
 657:../Drivers/STM32_ExtMem_Manager/sal/stm32_sal_xspi.c ****   * @param Command Command to execute
 658:../Drivers/STM32_ExtMem_Manager/sal/stm32_sal_xspi.c ****   * @param Address Address to write the data
 659:../Drivers/STM32_ExtMem_Manager/sal/stm32_sal_xspi.c ****   * @param Data Data pointer
 660:../Drivers/STM32_ExtMem_Manager/sal/stm32_sal_xspi.c ****   * @param DataSize Size of the data to write
 661:../Drivers/STM32_ExtMem_Manager/sal/stm32_sal_xspi.c ****   * @return @ref HAL_StatusTypeDef
 662:../Drivers/STM32_ExtMem_Manager/sal/stm32_sal_xspi.c ****   **/
 663:../Drivers/STM32_ExtMem_Manager/sal/stm32_sal_xspi.c **** HAL_StatusTypeDef SAL_XSPI_Write(SAL_XSPI_ObjectTypeDef *SalXspi, uint8_t Command, uint32_t Address
 664:../Drivers/STM32_ExtMem_Manager/sal/stm32_sal_xspi.c ****                                  const uint8_t *Data, uint32_t DataSize)
 665:../Drivers/STM32_ExtMem_Manager/sal/stm32_sal_xspi.c **** {
 666:../Drivers/STM32_ExtMem_Manager/sal/stm32_sal_xspi.c ****   HAL_StatusTypeDef retr;
 667:../Drivers/STM32_ExtMem_Manager/sal/stm32_sal_xspi.c ****   XSPI_RegularCmdTypeDef s_command = SalXspi->Commandbase;
 668:../Drivers/STM32_ExtMem_Manager/sal/stm32_sal_xspi.c **** 
 669:../Drivers/STM32_ExtMem_Manager/sal/stm32_sal_xspi.c ****   /* Initialize the read ID command */
 670:../Drivers/STM32_ExtMem_Manager/sal/stm32_sal_xspi.c ****   s_command.Instruction = XSPI_FormatCommand(SalXspi->CommandExtension, s_command.InstructionWidth,
 671:../Drivers/STM32_ExtMem_Manager/sal/stm32_sal_xspi.c **** 
 672:../Drivers/STM32_ExtMem_Manager/sal/stm32_sal_xspi.c ****   s_command.Address           = Address;
 673:../Drivers/STM32_ExtMem_Manager/sal/stm32_sal_xspi.c ****   s_command.DataLength        = DataSize;
 674:../Drivers/STM32_ExtMem_Manager/sal/stm32_sal_xspi.c ****   s_command.DummyCycles       = 0u;
 675:../Drivers/STM32_ExtMem_Manager/sal/stm32_sal_xspi.c ****   s_command.DQSMode           = HAL_XSPI_DQS_DISABLE;
 676:../Drivers/STM32_ExtMem_Manager/sal/stm32_sal_xspi.c **** 
 677:../Drivers/STM32_ExtMem_Manager/sal/stm32_sal_xspi.c ****   /* Configure the command */
 678:../Drivers/STM32_ExtMem_Manager/sal/stm32_sal_xspi.c ****   retr = HAL_XSPI_Command(SalXspi->hxspi, &s_command, SAL_XSPI_TIMEOUT_DEFAULT_VALUE);
 679:../Drivers/STM32_ExtMem_Manager/sal/stm32_sal_xspi.c ****   if (HAL_OK != retr)
 680:../Drivers/STM32_ExtMem_Manager/sal/stm32_sal_xspi.c ****   {
 681:../Drivers/STM32_ExtMem_Manager/sal/stm32_sal_xspi.c ****     goto error;
 682:../Drivers/STM32_ExtMem_Manager/sal/stm32_sal_xspi.c ****   }
 683:../Drivers/STM32_ExtMem_Manager/sal/stm32_sal_xspi.c **** 
 684:../Drivers/STM32_ExtMem_Manager/sal/stm32_sal_xspi.c ****   /* Transmit data */
 685:../Drivers/STM32_ExtMem_Manager/sal/stm32_sal_xspi.c ****   retr = XSPI_Transmit(SalXspi, Data);
 686:../Drivers/STM32_ExtMem_Manager/sal/stm32_sal_xspi.c **** 
 687:../Drivers/STM32_ExtMem_Manager/sal/stm32_sal_xspi.c **** error:
 688:../Drivers/STM32_ExtMem_Manager/sal/stm32_sal_xspi.c ****   if (retr != HAL_OK)
 689:../Drivers/STM32_ExtMem_Manager/sal/stm32_sal_xspi.c ****   {
 690:../Drivers/STM32_ExtMem_Manager/sal/stm32_sal_xspi.c ****     /* Abort any ongoing transaction for the next action */
 691:../Drivers/STM32_ExtMem_Manager/sal/stm32_sal_xspi.c ****     (void)HAL_XSPI_Abort(SalXspi->hxspi);
 692:../Drivers/STM32_ExtMem_Manager/sal/stm32_sal_xspi.c ****   }
 693:../Drivers/STM32_ExtMem_Manager/sal/stm32_sal_xspi.c ****   return retr;
 694:../Drivers/STM32_ExtMem_Manager/sal/stm32_sal_xspi.c **** }
 695:../Drivers/STM32_ExtMem_Manager/sal/stm32_sal_xspi.c **** 
 696:../Drivers/STM32_ExtMem_Manager/sal/stm32_sal_xspi.c **** /**
 697:../Drivers/STM32_ExtMem_Manager/sal/stm32_sal_xspi.c ****   * @brief This function sends a command and an address
 698:../Drivers/STM32_ExtMem_Manager/sal/stm32_sal_xspi.c ****   * @param SalXspi SAL XSPI handle
 699:../Drivers/STM32_ExtMem_Manager/sal/stm32_sal_xspi.c ****   * @param Command Command to execute
 700:../Drivers/STM32_ExtMem_Manager/sal/stm32_sal_xspi.c ****   * @param Address Address to write the data
 701:../Drivers/STM32_ExtMem_Manager/sal/stm32_sal_xspi.c ****   * @return @ref HAL_StatusTypeDef
 702:../Drivers/STM32_ExtMem_Manager/sal/stm32_sal_xspi.c ****   **/
ARM GAS  /tmp/ccuJg0Ev.s 			page 26


 703:../Drivers/STM32_ExtMem_Manager/sal/stm32_sal_xspi.c **** HAL_StatusTypeDef SAL_XSPI_CommandSendAddress(SAL_XSPI_ObjectTypeDef *SalXspi, uint8_t Command,
 704:../Drivers/STM32_ExtMem_Manager/sal/stm32_sal_xspi.c ****                                               uint32_t Address)
 705:../Drivers/STM32_ExtMem_Manager/sal/stm32_sal_xspi.c **** {
 706:../Drivers/STM32_ExtMem_Manager/sal/stm32_sal_xspi.c ****   HAL_StatusTypeDef retr;
 707:../Drivers/STM32_ExtMem_Manager/sal/stm32_sal_xspi.c ****   XSPI_RegularCmdTypeDef s_command = SalXspi->Commandbase;
 708:../Drivers/STM32_ExtMem_Manager/sal/stm32_sal_xspi.c **** 
 709:../Drivers/STM32_ExtMem_Manager/sal/stm32_sal_xspi.c ****   /* Initialize the writing of status register */
 710:../Drivers/STM32_ExtMem_Manager/sal/stm32_sal_xspi.c ****   s_command.Instruction = XSPI_FormatCommand(SalXspi->CommandExtension, s_command.InstructionWidth,
 711:../Drivers/STM32_ExtMem_Manager/sal/stm32_sal_xspi.c **** 
 712:../Drivers/STM32_ExtMem_Manager/sal/stm32_sal_xspi.c ****   if (s_command.InstructionMode == HAL_XSPI_INSTRUCTION_1_LINE)
 713:../Drivers/STM32_ExtMem_Manager/sal/stm32_sal_xspi.c ****   {
 714:../Drivers/STM32_ExtMem_Manager/sal/stm32_sal_xspi.c ****     s_command.AddressMode = HAL_XSPI_ADDRESS_1_LINE;
 715:../Drivers/STM32_ExtMem_Manager/sal/stm32_sal_xspi.c ****   }
 716:../Drivers/STM32_ExtMem_Manager/sal/stm32_sal_xspi.c **** 
 717:../Drivers/STM32_ExtMem_Manager/sal/stm32_sal_xspi.c ****   s_command.Address           = Address;
 718:../Drivers/STM32_ExtMem_Manager/sal/stm32_sal_xspi.c ****   s_command.DummyCycles       = 0U;
 719:../Drivers/STM32_ExtMem_Manager/sal/stm32_sal_xspi.c ****   s_command.DataMode          = HAL_XSPI_DATA_NONE;
 720:../Drivers/STM32_ExtMem_Manager/sal/stm32_sal_xspi.c ****   s_command.DQSMode           = HAL_XSPI_DQS_DISABLE;
 721:../Drivers/STM32_ExtMem_Manager/sal/stm32_sal_xspi.c **** 
 722:../Drivers/STM32_ExtMem_Manager/sal/stm32_sal_xspi.c ****   /* Send the command */
 723:../Drivers/STM32_ExtMem_Manager/sal/stm32_sal_xspi.c ****   retr = HAL_XSPI_Command(SalXspi->hxspi, &s_command, SAL_XSPI_TIMEOUT_DEFAULT_VALUE);
 724:../Drivers/STM32_ExtMem_Manager/sal/stm32_sal_xspi.c ****   if (retr != HAL_OK)
 725:../Drivers/STM32_ExtMem_Manager/sal/stm32_sal_xspi.c ****   {
 726:../Drivers/STM32_ExtMem_Manager/sal/stm32_sal_xspi.c ****     /* Abort any ongoing transaction for the next action */
 727:../Drivers/STM32_ExtMem_Manager/sal/stm32_sal_xspi.c ****     (void)HAL_XSPI_Abort(SalXspi->hxspi);
 728:../Drivers/STM32_ExtMem_Manager/sal/stm32_sal_xspi.c ****   }
 729:../Drivers/STM32_ExtMem_Manager/sal/stm32_sal_xspi.c ****   return retr;
 730:../Drivers/STM32_ExtMem_Manager/sal/stm32_sal_xspi.c **** }
 731:../Drivers/STM32_ExtMem_Manager/sal/stm32_sal_xspi.c **** 
 732:../Drivers/STM32_ExtMem_Manager/sal/stm32_sal_xspi.c **** /**
 733:../Drivers/STM32_ExtMem_Manager/sal/stm32_sal_xspi.c ****   * @brief This function sends a command + data
 734:../Drivers/STM32_ExtMem_Manager/sal/stm32_sal_xspi.c ****   * @param SalXspi SAL XSPI handle
 735:../Drivers/STM32_ExtMem_Manager/sal/stm32_sal_xspi.c ****   * @param Command Command to execute
 736:../Drivers/STM32_ExtMem_Manager/sal/stm32_sal_xspi.c ****   * @param Data Data pointer
 737:../Drivers/STM32_ExtMem_Manager/sal/stm32_sal_xspi.c ****   * @param DataSize Size of the data to write
 738:../Drivers/STM32_ExtMem_Manager/sal/stm32_sal_xspi.c ****   * @return @ref HAL_StatusTypeDef
 739:../Drivers/STM32_ExtMem_Manager/sal/stm32_sal_xspi.c ****   **/
 740:../Drivers/STM32_ExtMem_Manager/sal/stm32_sal_xspi.c **** HAL_StatusTypeDef SAL_XSPI_CommandSendData(SAL_XSPI_ObjectTypeDef *SalXspi, uint8_t Command,
 741:../Drivers/STM32_ExtMem_Manager/sal/stm32_sal_xspi.c ****                                            uint8_t *Data, uint16_t DataSize)
 742:../Drivers/STM32_ExtMem_Manager/sal/stm32_sal_xspi.c **** {
 743:../Drivers/STM32_ExtMem_Manager/sal/stm32_sal_xspi.c ****   XSPI_RegularCmdTypeDef   s_command = SalXspi->Commandbase;
 744:../Drivers/STM32_ExtMem_Manager/sal/stm32_sal_xspi.c ****   HAL_StatusTypeDef retr;
 745:../Drivers/STM32_ExtMem_Manager/sal/stm32_sal_xspi.c **** 
 746:../Drivers/STM32_ExtMem_Manager/sal/stm32_sal_xspi.c ****   /* Initialize the writing of status register */
 747:../Drivers/STM32_ExtMem_Manager/sal/stm32_sal_xspi.c ****   s_command.Instruction = XSPI_FormatCommand(SalXspi->CommandExtension, s_command.InstructionWidth,
 748:../Drivers/STM32_ExtMem_Manager/sal/stm32_sal_xspi.c **** 
 749:../Drivers/STM32_ExtMem_Manager/sal/stm32_sal_xspi.c ****   s_command.AddressMode        = HAL_XSPI_ADDRESS_NONE;
 750:../Drivers/STM32_ExtMem_Manager/sal/stm32_sal_xspi.c ****   s_command.DummyCycles        = 0U;
 751:../Drivers/STM32_ExtMem_Manager/sal/stm32_sal_xspi.c ****   s_command.DataLength         = DataSize;
 752:../Drivers/STM32_ExtMem_Manager/sal/stm32_sal_xspi.c ****   s_command.DQSMode            = HAL_XSPI_DQS_DISABLE;
 753:../Drivers/STM32_ExtMem_Manager/sal/stm32_sal_xspi.c **** 
 754:../Drivers/STM32_ExtMem_Manager/sal/stm32_sal_xspi.c ****   if (DataSize == 0u)
 755:../Drivers/STM32_ExtMem_Manager/sal/stm32_sal_xspi.c ****   {
 756:../Drivers/STM32_ExtMem_Manager/sal/stm32_sal_xspi.c ****     s_command.DataMode         = HAL_XSPI_DATA_NONE;
 757:../Drivers/STM32_ExtMem_Manager/sal/stm32_sal_xspi.c ****   }
 758:../Drivers/STM32_ExtMem_Manager/sal/stm32_sal_xspi.c **** 
 759:../Drivers/STM32_ExtMem_Manager/sal/stm32_sal_xspi.c ****   /* Send the command */
ARM GAS  /tmp/ccuJg0Ev.s 			page 27


 760:../Drivers/STM32_ExtMem_Manager/sal/stm32_sal_xspi.c ****   retr = HAL_XSPI_Command(SalXspi->hxspi, &s_command, SAL_XSPI_TIMEOUT_DEFAULT_VALUE);
 761:../Drivers/STM32_ExtMem_Manager/sal/stm32_sal_xspi.c **** 
 762:../Drivers/STM32_ExtMem_Manager/sal/stm32_sal_xspi.c ****   if ((retr == HAL_OK) && (DataSize != 0u))
 763:../Drivers/STM32_ExtMem_Manager/sal/stm32_sal_xspi.c ****   {
 764:../Drivers/STM32_ExtMem_Manager/sal/stm32_sal_xspi.c ****     retr = HAL_XSPI_Transmit(SalXspi->hxspi, Data, SAL_XSPI_TIMEOUT_DEFAULT_VALUE);
 765:../Drivers/STM32_ExtMem_Manager/sal/stm32_sal_xspi.c ****   }
 766:../Drivers/STM32_ExtMem_Manager/sal/stm32_sal_xspi.c **** 
 767:../Drivers/STM32_ExtMem_Manager/sal/stm32_sal_xspi.c ****   if (retr != HAL_OK)
 768:../Drivers/STM32_ExtMem_Manager/sal/stm32_sal_xspi.c ****   {
 769:../Drivers/STM32_ExtMem_Manager/sal/stm32_sal_xspi.c ****     /* Abort any ongoing transaction for the next action */
 770:../Drivers/STM32_ExtMem_Manager/sal/stm32_sal_xspi.c ****     (void)HAL_XSPI_Abort(SalXspi->hxspi);
 771:../Drivers/STM32_ExtMem_Manager/sal/stm32_sal_xspi.c ****   }
 772:../Drivers/STM32_ExtMem_Manager/sal/stm32_sal_xspi.c ****   return retr;
 773:../Drivers/STM32_ExtMem_Manager/sal/stm32_sal_xspi.c **** }
 774:../Drivers/STM32_ExtMem_Manager/sal/stm32_sal_xspi.c **** 
 775:../Drivers/STM32_ExtMem_Manager/sal/stm32_sal_xspi.c **** /**
 776:../Drivers/STM32_ExtMem_Manager/sal/stm32_sal_xspi.c ****   * @brief This function sends a command to read the data
 777:../Drivers/STM32_ExtMem_Manager/sal/stm32_sal_xspi.c ****   * @param SalXspi SAL XSPI handle
 778:../Drivers/STM32_ExtMem_Manager/sal/stm32_sal_xspi.c ****   * @param Command Command to execute
 779:../Drivers/STM32_ExtMem_Manager/sal/stm32_sal_xspi.c ****   * @param Data Data pointer
 780:../Drivers/STM32_ExtMem_Manager/sal/stm32_sal_xspi.c ****   * @param DataSize Size of the data to receive
 781:../Drivers/STM32_ExtMem_Manager/sal/stm32_sal_xspi.c ****   * @return @ref HAL_StatusTypeDef
 782:../Drivers/STM32_ExtMem_Manager/sal/stm32_sal_xspi.c ****   **/
 783:../Drivers/STM32_ExtMem_Manager/sal/stm32_sal_xspi.c **** HAL_StatusTypeDef SAL_XSPI_SendReadCommand(SAL_XSPI_ObjectTypeDef *SalXspi, uint8_t Command,
 784:../Drivers/STM32_ExtMem_Manager/sal/stm32_sal_xspi.c ****                                            uint8_t *Data, uint16_t DataSize)
 785:../Drivers/STM32_ExtMem_Manager/sal/stm32_sal_xspi.c **** {
 786:../Drivers/STM32_ExtMem_Manager/sal/stm32_sal_xspi.c ****   XSPI_RegularCmdTypeDef   s_command = SalXspi->Commandbase;
 787:../Drivers/STM32_ExtMem_Manager/sal/stm32_sal_xspi.c ****   HAL_StatusTypeDef retr;
 788:../Drivers/STM32_ExtMem_Manager/sal/stm32_sal_xspi.c **** 
 789:../Drivers/STM32_ExtMem_Manager/sal/stm32_sal_xspi.c ****   /* Initialize the reading of status register */
 790:../Drivers/STM32_ExtMem_Manager/sal/stm32_sal_xspi.c ****   s_command.Instruction = XSPI_FormatCommand(SalXspi->CommandExtension, s_command.InstructionWidth,
 791:../Drivers/STM32_ExtMem_Manager/sal/stm32_sal_xspi.c **** 
 792:../Drivers/STM32_ExtMem_Manager/sal/stm32_sal_xspi.c ****   s_command.AddressMode        = HAL_XSPI_ADDRESS_NONE;
 793:../Drivers/STM32_ExtMem_Manager/sal/stm32_sal_xspi.c ****   s_command.DummyCycles        = 0u;
 794:../Drivers/STM32_ExtMem_Manager/sal/stm32_sal_xspi.c ****   s_command.DataLength         = DataSize;
 795:../Drivers/STM32_ExtMem_Manager/sal/stm32_sal_xspi.c ****   s_command.DQSMode            = HAL_XSPI_DQS_DISABLE;
 796:../Drivers/STM32_ExtMem_Manager/sal/stm32_sal_xspi.c **** 
 797:../Drivers/STM32_ExtMem_Manager/sal/stm32_sal_xspi.c ****   if (DataSize == 0u)
 798:../Drivers/STM32_ExtMem_Manager/sal/stm32_sal_xspi.c ****   {
 799:../Drivers/STM32_ExtMem_Manager/sal/stm32_sal_xspi.c ****     s_command.DataMode         = HAL_XSPI_DATA_NONE;
 800:../Drivers/STM32_ExtMem_Manager/sal/stm32_sal_xspi.c ****   }
 801:../Drivers/STM32_ExtMem_Manager/sal/stm32_sal_xspi.c **** 
 802:../Drivers/STM32_ExtMem_Manager/sal/stm32_sal_xspi.c ****   /* Send the command */
 803:../Drivers/STM32_ExtMem_Manager/sal/stm32_sal_xspi.c ****   retr = HAL_XSPI_Command(SalXspi->hxspi, &s_command, SAL_XSPI_TIMEOUT_DEFAULT_VALUE);
 804:../Drivers/STM32_ExtMem_Manager/sal/stm32_sal_xspi.c **** 
 805:../Drivers/STM32_ExtMem_Manager/sal/stm32_sal_xspi.c ****   if ((retr == HAL_OK) && (DataSize != 0u))
 806:../Drivers/STM32_ExtMem_Manager/sal/stm32_sal_xspi.c ****   {
 807:../Drivers/STM32_ExtMem_Manager/sal/stm32_sal_xspi.c ****     /* Receive data */
 808:../Drivers/STM32_ExtMem_Manager/sal/stm32_sal_xspi.c ****     retr = HAL_XSPI_Receive(SalXspi->hxspi, Data, SAL_XSPI_TIMEOUT_DEFAULT_VALUE);
 809:../Drivers/STM32_ExtMem_Manager/sal/stm32_sal_xspi.c ****   }
 810:../Drivers/STM32_ExtMem_Manager/sal/stm32_sal_xspi.c **** 
 811:../Drivers/STM32_ExtMem_Manager/sal/stm32_sal_xspi.c ****   if (retr != HAL_OK)
 812:../Drivers/STM32_ExtMem_Manager/sal/stm32_sal_xspi.c ****   {
 813:../Drivers/STM32_ExtMem_Manager/sal/stm32_sal_xspi.c ****     /* Abort any ongoing transaction for the next action */
 814:../Drivers/STM32_ExtMem_Manager/sal/stm32_sal_xspi.c ****     (void)HAL_XSPI_Abort(SalXspi->hxspi);
 815:../Drivers/STM32_ExtMem_Manager/sal/stm32_sal_xspi.c ****   }
 816:../Drivers/STM32_ExtMem_Manager/sal/stm32_sal_xspi.c ****   return retr;
ARM GAS  /tmp/ccuJg0Ev.s 			page 28


 817:../Drivers/STM32_ExtMem_Manager/sal/stm32_sal_xspi.c **** }
 818:../Drivers/STM32_ExtMem_Manager/sal/stm32_sal_xspi.c **** 
 819:../Drivers/STM32_ExtMem_Manager/sal/stm32_sal_xspi.c **** /**
 820:../Drivers/STM32_ExtMem_Manager/sal/stm32_sal_xspi.c ****   * @brief This function sends a command with address and read the data
 821:../Drivers/STM32_ExtMem_Manager/sal/stm32_sal_xspi.c ****   * @param SalXspi SAL XSPI handle
 822:../Drivers/STM32_ExtMem_Manager/sal/stm32_sal_xspi.c ****   * @param Command Command to execute
 823:../Drivers/STM32_ExtMem_Manager/sal/stm32_sal_xspi.c ****   * @param Address Address value
 824:../Drivers/STM32_ExtMem_Manager/sal/stm32_sal_xspi.c ****   * @param Data Data pointer
 825:../Drivers/STM32_ExtMem_Manager/sal/stm32_sal_xspi.c ****   * @param DataSize Size of the data to read
 826:../Drivers/STM32_ExtMem_Manager/sal/stm32_sal_xspi.c ****   * @param ManuId Manufacturer Identifier
 827:../Drivers/STM32_ExtMem_Manager/sal/stm32_sal_xspi.c ****   * @return @ref HAL_StatusTypeDef
 828:../Drivers/STM32_ExtMem_Manager/sal/stm32_sal_xspi.c ****   **/
 829:../Drivers/STM32_ExtMem_Manager/sal/stm32_sal_xspi.c **** HAL_StatusTypeDef SAL_XSPI_CommandSendReadAddress(SAL_XSPI_ObjectTypeDef *SalXspi, uint8_t Command,
 830:../Drivers/STM32_ExtMem_Manager/sal/stm32_sal_xspi.c ****                                                   uint32_t Address, uint8_t *Data, uint16_t DataSiz
 831:../Drivers/STM32_ExtMem_Manager/sal/stm32_sal_xspi.c ****                                                   uint8_t ManuId)
 832:../Drivers/STM32_ExtMem_Manager/sal/stm32_sal_xspi.c **** {
 833:../Drivers/STM32_ExtMem_Manager/sal/stm32_sal_xspi.c ****   XSPI_RegularCmdTypeDef   s_command = SalXspi->Commandbase;
 834:../Drivers/STM32_ExtMem_Manager/sal/stm32_sal_xspi.c ****   HAL_StatusTypeDef retr;
 835:../Drivers/STM32_ExtMem_Manager/sal/stm32_sal_xspi.c **** 
 836:../Drivers/STM32_ExtMem_Manager/sal/stm32_sal_xspi.c ****   /* Initialize the reading of status register */
 837:../Drivers/STM32_ExtMem_Manager/sal/stm32_sal_xspi.c ****   s_command.Instruction = XSPI_FormatCommand(SalXspi->CommandExtension, s_command.InstructionWidth,
 838:../Drivers/STM32_ExtMem_Manager/sal/stm32_sal_xspi.c **** 
 839:../Drivers/STM32_ExtMem_Manager/sal/stm32_sal_xspi.c ****   s_command.Address            = Address;
 840:../Drivers/STM32_ExtMem_Manager/sal/stm32_sal_xspi.c ****   s_command.DummyCycles        = SalXspi->SFDPDummyCycle;
 841:../Drivers/STM32_ExtMem_Manager/sal/stm32_sal_xspi.c ****   s_command.DataLength         = DataSize;
 842:../Drivers/STM32_ExtMem_Manager/sal/stm32_sal_xspi.c ****   /* Specific case for Macronix memories : RDID and RDCR are not Data DTR  */
 843:../Drivers/STM32_ExtMem_Manager/sal/stm32_sal_xspi.c ****   if ((ManuId == EXTMEM_MANUFACTURER_MACRONIX) && (s_command.DataDTRMode == HAL_XSPI_DATA_DTR_ENABL
 844:../Drivers/STM32_ExtMem_Manager/sal/stm32_sal_xspi.c ****   {
 845:../Drivers/STM32_ExtMem_Manager/sal/stm32_sal_xspi.c ****     s_command.DataDTRMode      = HAL_XSPI_DATA_DTR_DISABLE;
 846:../Drivers/STM32_ExtMem_Manager/sal/stm32_sal_xspi.c ****   }
 847:../Drivers/STM32_ExtMem_Manager/sal/stm32_sal_xspi.c ****   /* Specific case for GigaDevice memories : Read Configuration Register are not Data DTR  */
 848:../Drivers/STM32_ExtMem_Manager/sal/stm32_sal_xspi.c ****   else if ((ManuId == 0xC8) && (s_command.DataDTRMode == HAL_XSPI_DATA_DTR_ENABLE))
 849:../Drivers/STM32_ExtMem_Manager/sal/stm32_sal_xspi.c ****   {
 850:../Drivers/STM32_ExtMem_Manager/sal/stm32_sal_xspi.c ****     s_command.DataDTRMode      = HAL_XSPI_DATA_DTR_DISABLE;
 851:../Drivers/STM32_ExtMem_Manager/sal/stm32_sal_xspi.c ****     s_command.DQSMode          = HAL_XSPI_DQS_DISABLE;
 852:../Drivers/STM32_ExtMem_Manager/sal/stm32_sal_xspi.c ****   }
 853:../Drivers/STM32_ExtMem_Manager/sal/stm32_sal_xspi.c ****   else
 854:../Drivers/STM32_ExtMem_Manager/sal/stm32_sal_xspi.c ****   {
 855:../Drivers/STM32_ExtMem_Manager/sal/stm32_sal_xspi.c ****     s_command.DQSMode          = HAL_XSPI_DQS_DISABLE;
 856:../Drivers/STM32_ExtMem_Manager/sal/stm32_sal_xspi.c ****   }
 857:../Drivers/STM32_ExtMem_Manager/sal/stm32_sal_xspi.c **** 
 858:../Drivers/STM32_ExtMem_Manager/sal/stm32_sal_xspi.c ****   /* Send the command */
 859:../Drivers/STM32_ExtMem_Manager/sal/stm32_sal_xspi.c ****   retr = HAL_XSPI_Command(SalXspi->hxspi, &s_command, SAL_XSPI_TIMEOUT_DEFAULT_VALUE);
 860:../Drivers/STM32_ExtMem_Manager/sal/stm32_sal_xspi.c **** 
 861:../Drivers/STM32_ExtMem_Manager/sal/stm32_sal_xspi.c ****   if (retr == HAL_OK)
 862:../Drivers/STM32_ExtMem_Manager/sal/stm32_sal_xspi.c ****   {
 863:../Drivers/STM32_ExtMem_Manager/sal/stm32_sal_xspi.c ****     /* Retrieve data */
 864:../Drivers/STM32_ExtMem_Manager/sal/stm32_sal_xspi.c ****     retr = HAL_XSPI_Receive(SalXspi->hxspi, Data, SAL_XSPI_TIMEOUT_DEFAULT_VALUE);
 865:../Drivers/STM32_ExtMem_Manager/sal/stm32_sal_xspi.c ****   }
 866:../Drivers/STM32_ExtMem_Manager/sal/stm32_sal_xspi.c **** 
 867:../Drivers/STM32_ExtMem_Manager/sal/stm32_sal_xspi.c ****   if (retr != HAL_OK)
 868:../Drivers/STM32_ExtMem_Manager/sal/stm32_sal_xspi.c ****   {
 869:../Drivers/STM32_ExtMem_Manager/sal/stm32_sal_xspi.c ****     /* Abort any ongoing transaction for the next action */
 870:../Drivers/STM32_ExtMem_Manager/sal/stm32_sal_xspi.c ****     (void)HAL_XSPI_Abort(SalXspi->hxspi);
 871:../Drivers/STM32_ExtMem_Manager/sal/stm32_sal_xspi.c ****   }
 872:../Drivers/STM32_ExtMem_Manager/sal/stm32_sal_xspi.c ****   return retr;
 873:../Drivers/STM32_ExtMem_Manager/sal/stm32_sal_xspi.c **** }
ARM GAS  /tmp/ccuJg0Ev.s 			page 29


 874:../Drivers/STM32_ExtMem_Manager/sal/stm32_sal_xspi.c **** 
 875:../Drivers/STM32_ExtMem_Manager/sal/stm32_sal_xspi.c **** /**
 876:../Drivers/STM32_ExtMem_Manager/sal/stm32_sal_xspi.c ****   * @brief This function controls the status register
 877:../Drivers/STM32_ExtMem_Manager/sal/stm32_sal_xspi.c ****   * @param SalXspi SAL XSPI handle
 878:../Drivers/STM32_ExtMem_Manager/sal/stm32_sal_xspi.c ****   * @param Command Command to execute
 879:../Drivers/STM32_ExtMem_Manager/sal/stm32_sal_xspi.c ****   * @param Address Specify the address
 880:../Drivers/STM32_ExtMem_Manager/sal/stm32_sal_xspi.c ****   * @param MatchValue  Expected value
 881:../Drivers/STM32_ExtMem_Manager/sal/stm32_sal_xspi.c ****   * @param MatchMask   Mask used to control the expected value
 882:../Drivers/STM32_ExtMem_Manager/sal/stm32_sal_xspi.c ****   * @param ManuId Manufacturer Identifier
 883:../Drivers/STM32_ExtMem_Manager/sal/stm32_sal_xspi.c ****   * @param Timeout Timeout parameter
 884:../Drivers/STM32_ExtMem_Manager/sal/stm32_sal_xspi.c ****   * @return @ref HAL_StatusTypeDef
 885:../Drivers/STM32_ExtMem_Manager/sal/stm32_sal_xspi.c ****   **/
 886:../Drivers/STM32_ExtMem_Manager/sal/stm32_sal_xspi.c **** HAL_StatusTypeDef SAL_XSPI_CheckStatusRegister(SAL_XSPI_ObjectTypeDef *SalXspi, uint8_t Command, ui
 887:../Drivers/STM32_ExtMem_Manager/sal/stm32_sal_xspi.c ****                                                uint8_t MatchValue, uint8_t MatchMask, uint8_t ManuI
 888:../Drivers/STM32_ExtMem_Manager/sal/stm32_sal_xspi.c ****                                                uint32_t Timeout)
 889:../Drivers/STM32_ExtMem_Manager/sal/stm32_sal_xspi.c **** {
 890:../Drivers/STM32_ExtMem_Manager/sal/stm32_sal_xspi.c ****   XSPI_RegularCmdTypeDef s_command = SalXspi->Commandbase;
 891:../Drivers/STM32_ExtMem_Manager/sal/stm32_sal_xspi.c ****   XSPI_AutoPollingTypeDef  s_config =
 892:../Drivers/STM32_ExtMem_Manager/sal/stm32_sal_xspi.c ****   {
 893:../Drivers/STM32_ExtMem_Manager/sal/stm32_sal_xspi.c ****     .MatchValue    = MatchValue,
 894:../Drivers/STM32_ExtMem_Manager/sal/stm32_sal_xspi.c ****     .MatchMask     = MatchMask,
 895:../Drivers/STM32_ExtMem_Manager/sal/stm32_sal_xspi.c ****     .MatchMode     = HAL_XSPI_MATCH_MODE_AND,
 896:../Drivers/STM32_ExtMem_Manager/sal/stm32_sal_xspi.c ****     .AutomaticStop = HAL_XSPI_AUTOMATIC_STOP_ENABLE,
 897:../Drivers/STM32_ExtMem_Manager/sal/stm32_sal_xspi.c ****     .IntervalTime  = 0x10
 898:../Drivers/STM32_ExtMem_Manager/sal/stm32_sal_xspi.c ****   };
 899:../Drivers/STM32_ExtMem_Manager/sal/stm32_sal_xspi.c ****   HAL_StatusTypeDef retr;
 900:../Drivers/STM32_ExtMem_Manager/sal/stm32_sal_xspi.c **** 
 901:../Drivers/STM32_ExtMem_Manager/sal/stm32_sal_xspi.c ****   /* Initialize the reading of status register */
 902:../Drivers/STM32_ExtMem_Manager/sal/stm32_sal_xspi.c ****   s_command.Instruction = XSPI_FormatCommand(SalXspi->CommandExtension, s_command.InstructionWidth,
 903:../Drivers/STM32_ExtMem_Manager/sal/stm32_sal_xspi.c **** 
 904:../Drivers/STM32_ExtMem_Manager/sal/stm32_sal_xspi.c ****   s_command.DataLength     = 1u;
 905:../Drivers/STM32_ExtMem_Manager/sal/stm32_sal_xspi.c ****   s_command.DQSMode        = HAL_XSPI_DQS_DISABLE;
 906:../Drivers/STM32_ExtMem_Manager/sal/stm32_sal_xspi.c **** 
 907:../Drivers/STM32_ExtMem_Manager/sal/stm32_sal_xspi.c ****   if (s_command.InstructionMode == HAL_XSPI_INSTRUCTION_1_LINE)
 908:../Drivers/STM32_ExtMem_Manager/sal/stm32_sal_xspi.c ****   {
 909:../Drivers/STM32_ExtMem_Manager/sal/stm32_sal_xspi.c ****     /* Specific behavior for Cypress to force 1 line on status read */
 910:../Drivers/STM32_ExtMem_Manager/sal/stm32_sal_xspi.c ****     s_command.DataMode    = HAL_XSPI_DATA_1_LINE;
 911:../Drivers/STM32_ExtMem_Manager/sal/stm32_sal_xspi.c ****     s_command.AddressMode = HAL_XSPI_DATA_NONE;
 912:../Drivers/STM32_ExtMem_Manager/sal/stm32_sal_xspi.c ****     s_command.DummyCycles = 0u;
 913:../Drivers/STM32_ExtMem_Manager/sal/stm32_sal_xspi.c ****   }
 914:../Drivers/STM32_ExtMem_Manager/sal/stm32_sal_xspi.c **** 
 915:../Drivers/STM32_ExtMem_Manager/sal/stm32_sal_xspi.c ****   /* Address is used only in 8 LINES format */
 916:../Drivers/STM32_ExtMem_Manager/sal/stm32_sal_xspi.c ****   if (s_command.DataMode == HAL_XSPI_DATA_8_LINES)
 917:../Drivers/STM32_ExtMem_Manager/sal/stm32_sal_xspi.c ****   {
 918:../Drivers/STM32_ExtMem_Manager/sal/stm32_sal_xspi.c ****     /* Specific case for Macronix memories : RDID and RDCR are not Data DTR  */
 919:../Drivers/STM32_ExtMem_Manager/sal/stm32_sal_xspi.c ****     if ((ManuId == EXTMEM_MANUFACTURER_MACRONIX) && (s_command.DataDTRMode == HAL_XSPI_DATA_DTR_ENA
 920:../Drivers/STM32_ExtMem_Manager/sal/stm32_sal_xspi.c ****     {
 921:../Drivers/STM32_ExtMem_Manager/sal/stm32_sal_xspi.c ****       s_command.DQSMode        = HAL_XSPI_DQS_ENABLE;
 922:../Drivers/STM32_ExtMem_Manager/sal/stm32_sal_xspi.c ****       s_command.DataDTRMode    = HAL_XSPI_DATA_DTR_DISABLE;
 923:../Drivers/STM32_ExtMem_Manager/sal/stm32_sal_xspi.c ****     }
 924:../Drivers/STM32_ExtMem_Manager/sal/stm32_sal_xspi.c ****     s_command.AddressMode    = HAL_XSPI_ADDRESS_8_LINES;
 925:../Drivers/STM32_ExtMem_Manager/sal/stm32_sal_xspi.c ****     s_command.AddressWidth   = HAL_XSPI_ADDRESS_32_BITS;
 926:../Drivers/STM32_ExtMem_Manager/sal/stm32_sal_xspi.c ****     s_command.Address        = Address;
 927:../Drivers/STM32_ExtMem_Manager/sal/stm32_sal_xspi.c ****   }
 928:../Drivers/STM32_ExtMem_Manager/sal/stm32_sal_xspi.c **** 
 929:../Drivers/STM32_ExtMem_Manager/sal/stm32_sal_xspi.c ****   /* Send the command */
 930:../Drivers/STM32_ExtMem_Manager/sal/stm32_sal_xspi.c ****   retr = HAL_XSPI_Command(SalXspi->hxspi, &s_command, SAL_XSPI_TIMEOUT_DEFAULT_VALUE);
ARM GAS  /tmp/ccuJg0Ev.s 			page 30


 931:../Drivers/STM32_ExtMem_Manager/sal/stm32_sal_xspi.c ****   if (retr == HAL_OK)
 932:../Drivers/STM32_ExtMem_Manager/sal/stm32_sal_xspi.c ****   {
 933:../Drivers/STM32_ExtMem_Manager/sal/stm32_sal_xspi.c ****     retr = HAL_XSPI_AutoPolling(SalXspi->hxspi, &s_config, Timeout);
 934:../Drivers/STM32_ExtMem_Manager/sal/stm32_sal_xspi.c ****     DEBUG_AUTOPOLLING(SalXspi->hxspi->Instance->DR, s_config.MatchValue, s_config.MatchMask)
 935:../Drivers/STM32_ExtMem_Manager/sal/stm32_sal_xspi.c ****   }
 936:../Drivers/STM32_ExtMem_Manager/sal/stm32_sal_xspi.c **** 
 937:../Drivers/STM32_ExtMem_Manager/sal/stm32_sal_xspi.c ****   if (retr != HAL_OK)
 938:../Drivers/STM32_ExtMem_Manager/sal/stm32_sal_xspi.c ****   {
 939:../Drivers/STM32_ExtMem_Manager/sal/stm32_sal_xspi.c ****     /* Abort any ongoing transaction for the next action */
 940:../Drivers/STM32_ExtMem_Manager/sal/stm32_sal_xspi.c ****     (void)HAL_XSPI_Abort(SalXspi->hxspi);
 941:../Drivers/STM32_ExtMem_Manager/sal/stm32_sal_xspi.c ****   }
 942:../Drivers/STM32_ExtMem_Manager/sal/stm32_sal_xspi.c ****   return retr;
 943:../Drivers/STM32_ExtMem_Manager/sal/stm32_sal_xspi.c **** }
 944:../Drivers/STM32_ExtMem_Manager/sal/stm32_sal_xspi.c **** 
 945:../Drivers/STM32_ExtMem_Manager/sal/stm32_sal_xspi.c **** /**
 946:../Drivers/STM32_ExtMem_Manager/sal/stm32_sal_xspi.c ****   * @brief This function enables the memory mapped mode
 947:../Drivers/STM32_ExtMem_Manager/sal/stm32_sal_xspi.c ****   * @param SalXspi SAL XSPI handle
 948:../Drivers/STM32_ExtMem_Manager/sal/stm32_sal_xspi.c ****   * @param WrapCommand Wrap command to execute in case of write operation
 949:../Drivers/STM32_ExtMem_Manager/sal/stm32_sal_xspi.c ****   * @param WrapDummy Number of dummy cycle for the read operation
 950:../Drivers/STM32_ExtMem_Manager/sal/stm32_sal_xspi.c ****   * @return @ref HAL_StatusTypeDef
 951:../Drivers/STM32_ExtMem_Manager/sal/stm32_sal_xspi.c ****   **/
 952:../Drivers/STM32_ExtMem_Manager/sal/stm32_sal_xspi.c **** HAL_StatusTypeDef SAL_XSPI_ConfigureWrappMode(SAL_XSPI_ObjectTypeDef *SalXspi, uint8_t WrapCommand,
 953:../Drivers/STM32_ExtMem_Manager/sal/stm32_sal_xspi.c **** {
 954:../Drivers/STM32_ExtMem_Manager/sal/stm32_sal_xspi.c ****   HAL_StatusTypeDef retr;
 955:../Drivers/STM32_ExtMem_Manager/sal/stm32_sal_xspi.c ****   XSPI_RegularCmdTypeDef s_command = SalXspi->Commandbase;
 956:../Drivers/STM32_ExtMem_Manager/sal/stm32_sal_xspi.c **** 
 957:../Drivers/STM32_ExtMem_Manager/sal/stm32_sal_xspi.c ****   /* Initialize the read ID command */
 958:../Drivers/STM32_ExtMem_Manager/sal/stm32_sal_xspi.c ****   s_command.OperationType = HAL_XSPI_OPTYPE_WRAP_CFG;
 959:../Drivers/STM32_ExtMem_Manager/sal/stm32_sal_xspi.c ****   s_command.Instruction = XSPI_FormatCommand(SalXspi->CommandExtension, s_command.InstructionWidth,
 960:../Drivers/STM32_ExtMem_Manager/sal/stm32_sal_xspi.c ****   s_command.DummyCycles = WrapDummy;
 961:../Drivers/STM32_ExtMem_Manager/sal/stm32_sal_xspi.c ****   /* Configure the read command */
 962:../Drivers/STM32_ExtMem_Manager/sal/stm32_sal_xspi.c ****   retr = HAL_XSPI_Command(SalXspi->hxspi, &s_command, SAL_XSPI_TIMEOUT_DEFAULT_VALUE);
 963:../Drivers/STM32_ExtMem_Manager/sal/stm32_sal_xspi.c ****   if (retr  != HAL_OK)
 964:../Drivers/STM32_ExtMem_Manager/sal/stm32_sal_xspi.c ****   {
 965:../Drivers/STM32_ExtMem_Manager/sal/stm32_sal_xspi.c ****     goto error;
 966:../Drivers/STM32_ExtMem_Manager/sal/stm32_sal_xspi.c ****   }
 967:../Drivers/STM32_ExtMem_Manager/sal/stm32_sal_xspi.c **** 
 968:../Drivers/STM32_ExtMem_Manager/sal/stm32_sal_xspi.c **** error:
 969:../Drivers/STM32_ExtMem_Manager/sal/stm32_sal_xspi.c ****   if (retr != HAL_OK)
 970:../Drivers/STM32_ExtMem_Manager/sal/stm32_sal_xspi.c ****   {
 971:../Drivers/STM32_ExtMem_Manager/sal/stm32_sal_xspi.c ****     /* Abort any ongoing transaction for the next action */
 972:../Drivers/STM32_ExtMem_Manager/sal/stm32_sal_xspi.c ****     (void)HAL_XSPI_Abort(SalXspi->hxspi);
 973:../Drivers/STM32_ExtMem_Manager/sal/stm32_sal_xspi.c ****   }
 974:../Drivers/STM32_ExtMem_Manager/sal/stm32_sal_xspi.c ****   return retr;
 975:../Drivers/STM32_ExtMem_Manager/sal/stm32_sal_xspi.c **** }
 976:../Drivers/STM32_ExtMem_Manager/sal/stm32_sal_xspi.c **** 
 977:../Drivers/STM32_ExtMem_Manager/sal/stm32_sal_xspi.c **** /**
 978:../Drivers/STM32_ExtMem_Manager/sal/stm32_sal_xspi.c ****   * @brief This function enables the memory mapped mode
 979:../Drivers/STM32_ExtMem_Manager/sal/stm32_sal_xspi.c ****   * @param SalXspi SAL XSPI handle
 980:../Drivers/STM32_ExtMem_Manager/sal/stm32_sal_xspi.c ****   * @param CommandRead command to execute in case of read operation
 981:../Drivers/STM32_ExtMem_Manager/sal/stm32_sal_xspi.c ****   * @param DummyRead number of dummy cycle for the read operation
 982:../Drivers/STM32_ExtMem_Manager/sal/stm32_sal_xspi.c ****   * @param CommandWrite command to execute in case of write operation
 983:../Drivers/STM32_ExtMem_Manager/sal/stm32_sal_xspi.c ****   * @param DummyWrite number of dummy cycle for the read operation
 984:../Drivers/STM32_ExtMem_Manager/sal/stm32_sal_xspi.c ****   * @return @ref HAL_StatusTypeDef
 985:../Drivers/STM32_ExtMem_Manager/sal/stm32_sal_xspi.c ****   **/
 986:../Drivers/STM32_ExtMem_Manager/sal/stm32_sal_xspi.c **** HAL_StatusTypeDef SAL_XSPI_EnableMapMode(SAL_XSPI_ObjectTypeDef *SalXspi, uint8_t CommandRead, uint
 987:../Drivers/STM32_ExtMem_Manager/sal/stm32_sal_xspi.c ****                                          uint8_t CommandWrite, uint8_t DummyWrite)
ARM GAS  /tmp/ccuJg0Ev.s 			page 31


 988:../Drivers/STM32_ExtMem_Manager/sal/stm32_sal_xspi.c **** {
 989:../Drivers/STM32_ExtMem_Manager/sal/stm32_sal_xspi.c ****   HAL_StatusTypeDef retr;
 990:../Drivers/STM32_ExtMem_Manager/sal/stm32_sal_xspi.c ****   XSPI_RegularCmdTypeDef s_command = SalXspi->Commandbase;
 991:../Drivers/STM32_ExtMem_Manager/sal/stm32_sal_xspi.c ****   XSPI_MemoryMappedTypeDef sMemMappedCfg = {0};
 992:../Drivers/STM32_ExtMem_Manager/sal/stm32_sal_xspi.c **** 
 993:../Drivers/STM32_ExtMem_Manager/sal/stm32_sal_xspi.c ****   /* Initialize the read ID command */
 994:../Drivers/STM32_ExtMem_Manager/sal/stm32_sal_xspi.c ****   s_command.OperationType = HAL_XSPI_OPTYPE_READ_CFG;
 995:../Drivers/STM32_ExtMem_Manager/sal/stm32_sal_xspi.c ****   s_command.Instruction = XSPI_FormatCommand(SalXspi->CommandExtension, s_command.InstructionWidth,
 996:../Drivers/STM32_ExtMem_Manager/sal/stm32_sal_xspi.c ****   s_command.DummyCycles = DummyRead;
 997:../Drivers/STM32_ExtMem_Manager/sal/stm32_sal_xspi.c ****   /* Configure the read command */
 998:../Drivers/STM32_ExtMem_Manager/sal/stm32_sal_xspi.c ****   retr = HAL_XSPI_Command(SalXspi->hxspi, &s_command, SAL_XSPI_TIMEOUT_DEFAULT_VALUE);
 999:../Drivers/STM32_ExtMem_Manager/sal/stm32_sal_xspi.c ****   if (retr  != HAL_OK)
1000:../Drivers/STM32_ExtMem_Manager/sal/stm32_sal_xspi.c ****   {
1001:../Drivers/STM32_ExtMem_Manager/sal/stm32_sal_xspi.c ****     goto error;
1002:../Drivers/STM32_ExtMem_Manager/sal/stm32_sal_xspi.c ****   }
1003:../Drivers/STM32_ExtMem_Manager/sal/stm32_sal_xspi.c **** 
1004:../Drivers/STM32_ExtMem_Manager/sal/stm32_sal_xspi.c ****   /* Initialize the read ID command */
1005:../Drivers/STM32_ExtMem_Manager/sal/stm32_sal_xspi.c ****   s_command.OperationType     = HAL_XSPI_OPTYPE_WRITE_CFG;
1006:../Drivers/STM32_ExtMem_Manager/sal/stm32_sal_xspi.c ****   s_command.Instruction = XSPI_FormatCommand(SalXspi->CommandExtension, s_command.InstructionWidth,
1007:../Drivers/STM32_ExtMem_Manager/sal/stm32_sal_xspi.c ****   s_command.DummyCycles = DummyWrite;
1008:../Drivers/STM32_ExtMem_Manager/sal/stm32_sal_xspi.c ****   /* Configure the read command */
1009:../Drivers/STM32_ExtMem_Manager/sal/stm32_sal_xspi.c ****   retr = HAL_XSPI_Command(SalXspi->hxspi, &s_command, SAL_XSPI_TIMEOUT_DEFAULT_VALUE);
1010:../Drivers/STM32_ExtMem_Manager/sal/stm32_sal_xspi.c ****   if (retr  != HAL_OK)
1011:../Drivers/STM32_ExtMem_Manager/sal/stm32_sal_xspi.c ****   {
1012:../Drivers/STM32_ExtMem_Manager/sal/stm32_sal_xspi.c ****     goto error;
1013:../Drivers/STM32_ExtMem_Manager/sal/stm32_sal_xspi.c ****   }
1014:../Drivers/STM32_ExtMem_Manager/sal/stm32_sal_xspi.c **** 
1015:../Drivers/STM32_ExtMem_Manager/sal/stm32_sal_xspi.c ****   /* Activation of memory-mapped mode */
1016:../Drivers/STM32_ExtMem_Manager/sal/stm32_sal_xspi.c ****   sMemMappedCfg.TimeOutActivation  = HAL_XSPI_TIMEOUT_COUNTER_DISABLE;
1017:../Drivers/STM32_ExtMem_Manager/sal/stm32_sal_xspi.c ****   sMemMappedCfg.TimeoutPeriodClock = 0x50;
1018:../Drivers/STM32_ExtMem_Manager/sal/stm32_sal_xspi.c ****   retr = HAL_XSPI_MemoryMapped(SalXspi->hxspi, &sMemMappedCfg);
1019:../Drivers/STM32_ExtMem_Manager/sal/stm32_sal_xspi.c **** 
1020:../Drivers/STM32_ExtMem_Manager/sal/stm32_sal_xspi.c **** error:
1021:../Drivers/STM32_ExtMem_Manager/sal/stm32_sal_xspi.c ****   if (retr != HAL_OK)
1022:../Drivers/STM32_ExtMem_Manager/sal/stm32_sal_xspi.c ****   {
1023:../Drivers/STM32_ExtMem_Manager/sal/stm32_sal_xspi.c ****     /* Abort any ongoing transaction for the next action */
1024:../Drivers/STM32_ExtMem_Manager/sal/stm32_sal_xspi.c ****     (void)HAL_XSPI_Abort(SalXspi->hxspi);
1025:../Drivers/STM32_ExtMem_Manager/sal/stm32_sal_xspi.c ****   }
1026:../Drivers/STM32_ExtMem_Manager/sal/stm32_sal_xspi.c ****   return retr;
1027:../Drivers/STM32_ExtMem_Manager/sal/stm32_sal_xspi.c **** }
1028:../Drivers/STM32_ExtMem_Manager/sal/stm32_sal_xspi.c **** 
1029:../Drivers/STM32_ExtMem_Manager/sal/stm32_sal_xspi.c **** /**
1030:../Drivers/STM32_ExtMem_Manager/sal/stm32_sal_xspi.c ****   * @brief This function disables the memory mapped mode
1031:../Drivers/STM32_ExtMem_Manager/sal/stm32_sal_xspi.c ****   * @param SalXspi SAL XSPI handle
1032:../Drivers/STM32_ExtMem_Manager/sal/stm32_sal_xspi.c ****   * @return @ref HAL_StatusTypeDef
1033:../Drivers/STM32_ExtMem_Manager/sal/stm32_sal_xspi.c ****   **/
1034:../Drivers/STM32_ExtMem_Manager/sal/stm32_sal_xspi.c **** HAL_StatusTypeDef SAL_XSPI_DisableMapMode(SAL_XSPI_ObjectTypeDef *SalXspi)
1035:../Drivers/STM32_ExtMem_Manager/sal/stm32_sal_xspi.c **** {
 706              		.loc 1 1035 1 view -0
 707              		.cfi_startproc
 708              		@ args = 0, pretend = 0, frame = 0
 709              		@ frame_needed = 0, uses_anonymous_args = 0
 710              		.loc 1 1035 1 is_stmt 0 view .LVU274
 711 0000 08B5     		push	{r3, lr}
 712              	.LCFI9:
 713              		.cfi_def_cfa_offset 8
 714              		.cfi_offset 3, -8
ARM GAS  /tmp/ccuJg0Ev.s 			page 32


 715              		.cfi_offset 14, -4
1036:../Drivers/STM32_ExtMem_Manager/sal/stm32_sal_xspi.c ****   __DSB();
 716              		.loc 1 1036 3 is_stmt 1 view .LVU275
 717              	.LBB6:
 718              	.LBI6:
 719              		.file 2 "../Drivers/CMSIS/Include/cmsis_gcc.h"
   1:../Drivers/CMSIS/Include/cmsis_gcc.h **** /**************************************************************************//**
   2:../Drivers/CMSIS/Include/cmsis_gcc.h ****  * @file     cmsis_gcc.h
   3:../Drivers/CMSIS/Include/cmsis_gcc.h ****  * @brief    CMSIS compiler GCC header file
   4:../Drivers/CMSIS/Include/cmsis_gcc.h ****  * @version  V6.0.0
   5:../Drivers/CMSIS/Include/cmsis_gcc.h ****  * @date     27. July 2024
   6:../Drivers/CMSIS/Include/cmsis_gcc.h ****  ******************************************************************************/
   7:../Drivers/CMSIS/Include/cmsis_gcc.h **** /*
   8:../Drivers/CMSIS/Include/cmsis_gcc.h ****  * Copyright (c) 2009-2023 Arm Limited. All rights reserved.
   9:../Drivers/CMSIS/Include/cmsis_gcc.h ****  *
  10:../Drivers/CMSIS/Include/cmsis_gcc.h ****  * SPDX-License-Identifier: Apache-2.0
  11:../Drivers/CMSIS/Include/cmsis_gcc.h ****  *
  12:../Drivers/CMSIS/Include/cmsis_gcc.h ****  * Licensed under the Apache License, Version 2.0 (the License); you may
  13:../Drivers/CMSIS/Include/cmsis_gcc.h ****  * not use this file except in compliance with the License.
  14:../Drivers/CMSIS/Include/cmsis_gcc.h ****  * You may obtain a copy of the License at
  15:../Drivers/CMSIS/Include/cmsis_gcc.h ****  *
  16:../Drivers/CMSIS/Include/cmsis_gcc.h ****  * www.apache.org/licenses/LICENSE-2.0
  17:../Drivers/CMSIS/Include/cmsis_gcc.h ****  *
  18:../Drivers/CMSIS/Include/cmsis_gcc.h ****  * Unless required by applicable law or agreed to in writing, software
  19:../Drivers/CMSIS/Include/cmsis_gcc.h ****  * distributed under the License is distributed on an AS IS BASIS, WITHOUT
  20:../Drivers/CMSIS/Include/cmsis_gcc.h ****  * WARRANTIES OR CONDITIONS OF ANY KIND, either express or implied.
  21:../Drivers/CMSIS/Include/cmsis_gcc.h ****  * See the License for the specific language governing permissions and
  22:../Drivers/CMSIS/Include/cmsis_gcc.h ****  * limitations under the License.
  23:../Drivers/CMSIS/Include/cmsis_gcc.h ****  */
  24:../Drivers/CMSIS/Include/cmsis_gcc.h **** 
  25:../Drivers/CMSIS/Include/cmsis_gcc.h **** #ifndef __CMSIS_GCC_H
  26:../Drivers/CMSIS/Include/cmsis_gcc.h **** #define __CMSIS_GCC_H
  27:../Drivers/CMSIS/Include/cmsis_gcc.h **** 
  28:../Drivers/CMSIS/Include/cmsis_gcc.h **** #pragma GCC system_header   /* treat file as system include file */
  29:../Drivers/CMSIS/Include/cmsis_gcc.h **** 
  30:../Drivers/CMSIS/Include/cmsis_gcc.h **** #include <arm_acle.h>
  31:../Drivers/CMSIS/Include/cmsis_gcc.h **** 
  32:../Drivers/CMSIS/Include/cmsis_gcc.h **** /* Fallback for __has_builtin */
  33:../Drivers/CMSIS/Include/cmsis_gcc.h **** #ifndef __has_builtin
  34:../Drivers/CMSIS/Include/cmsis_gcc.h ****   #define __has_builtin(x) (0)
  35:../Drivers/CMSIS/Include/cmsis_gcc.h **** #endif
  36:../Drivers/CMSIS/Include/cmsis_gcc.h **** 
  37:../Drivers/CMSIS/Include/cmsis_gcc.h **** /* CMSIS compiler specific defines */
  38:../Drivers/CMSIS/Include/cmsis_gcc.h **** #ifndef   __ASM
  39:../Drivers/CMSIS/Include/cmsis_gcc.h ****   #define __ASM                                  __asm
  40:../Drivers/CMSIS/Include/cmsis_gcc.h **** #endif
  41:../Drivers/CMSIS/Include/cmsis_gcc.h **** #ifndef   __INLINE
  42:../Drivers/CMSIS/Include/cmsis_gcc.h ****   #define __INLINE                               inline
  43:../Drivers/CMSIS/Include/cmsis_gcc.h **** #endif
  44:../Drivers/CMSIS/Include/cmsis_gcc.h **** #ifndef   __STATIC_INLINE
  45:../Drivers/CMSIS/Include/cmsis_gcc.h ****   #define __STATIC_INLINE                        static inline
  46:../Drivers/CMSIS/Include/cmsis_gcc.h **** #endif
  47:../Drivers/CMSIS/Include/cmsis_gcc.h **** #ifndef   __STATIC_FORCEINLINE
  48:../Drivers/CMSIS/Include/cmsis_gcc.h ****   #define __STATIC_FORCEINLINE                   __attribute__((always_inline)) static inline
  49:../Drivers/CMSIS/Include/cmsis_gcc.h **** #endif
  50:../Drivers/CMSIS/Include/cmsis_gcc.h **** #ifndef   __NO_RETURN
  51:../Drivers/CMSIS/Include/cmsis_gcc.h ****   #define __NO_RETURN                            __attribute__((__noreturn__))
ARM GAS  /tmp/ccuJg0Ev.s 			page 33


  52:../Drivers/CMSIS/Include/cmsis_gcc.h **** #endif
  53:../Drivers/CMSIS/Include/cmsis_gcc.h **** #ifndef   CMSIS_DEPRECATED
  54:../Drivers/CMSIS/Include/cmsis_gcc.h ****   #define CMSIS_DEPRECATED                       __attribute__((deprecated))
  55:../Drivers/CMSIS/Include/cmsis_gcc.h **** #endif
  56:../Drivers/CMSIS/Include/cmsis_gcc.h **** #ifndef   __USED
  57:../Drivers/CMSIS/Include/cmsis_gcc.h ****   #define __USED                                 __attribute__((used))
  58:../Drivers/CMSIS/Include/cmsis_gcc.h **** #endif
  59:../Drivers/CMSIS/Include/cmsis_gcc.h **** #ifndef   __WEAK
  60:../Drivers/CMSIS/Include/cmsis_gcc.h ****   #define __WEAK                                 __attribute__((weak))
  61:../Drivers/CMSIS/Include/cmsis_gcc.h **** #endif
  62:../Drivers/CMSIS/Include/cmsis_gcc.h **** #ifndef   __PACKED
  63:../Drivers/CMSIS/Include/cmsis_gcc.h ****   #define __PACKED                               __attribute__((packed, aligned(1)))
  64:../Drivers/CMSIS/Include/cmsis_gcc.h **** #endif
  65:../Drivers/CMSIS/Include/cmsis_gcc.h **** #ifndef   __PACKED_STRUCT
  66:../Drivers/CMSIS/Include/cmsis_gcc.h ****   #define __PACKED_STRUCT                        struct __attribute__((packed, aligned(1)))
  67:../Drivers/CMSIS/Include/cmsis_gcc.h **** #endif
  68:../Drivers/CMSIS/Include/cmsis_gcc.h **** #ifndef   __PACKED_UNION
  69:../Drivers/CMSIS/Include/cmsis_gcc.h ****   #define __PACKED_UNION                         union __attribute__((packed, aligned(1)))
  70:../Drivers/CMSIS/Include/cmsis_gcc.h **** #endif
  71:../Drivers/CMSIS/Include/cmsis_gcc.h **** #ifndef   __UNALIGNED_UINT16_WRITE
  72:../Drivers/CMSIS/Include/cmsis_gcc.h ****   #pragma GCC diagnostic push
  73:../Drivers/CMSIS/Include/cmsis_gcc.h ****   #pragma GCC diagnostic ignored "-Wpacked"
  74:../Drivers/CMSIS/Include/cmsis_gcc.h ****   #pragma GCC diagnostic ignored "-Wattributes"
  75:../Drivers/CMSIS/Include/cmsis_gcc.h ****   __PACKED_STRUCT T_UINT16_WRITE { uint16_t v; };
  76:../Drivers/CMSIS/Include/cmsis_gcc.h ****   #pragma GCC diagnostic pop
  77:../Drivers/CMSIS/Include/cmsis_gcc.h ****   #define __UNALIGNED_UINT16_WRITE(addr, val)    (void)((((struct T_UINT16_WRITE *)(void *)(addr))-
  78:../Drivers/CMSIS/Include/cmsis_gcc.h **** #endif
  79:../Drivers/CMSIS/Include/cmsis_gcc.h **** #ifndef   __UNALIGNED_UINT16_READ
  80:../Drivers/CMSIS/Include/cmsis_gcc.h ****   #pragma GCC diagnostic push
  81:../Drivers/CMSIS/Include/cmsis_gcc.h ****   #pragma GCC diagnostic ignored "-Wpacked"
  82:../Drivers/CMSIS/Include/cmsis_gcc.h ****   #pragma GCC diagnostic ignored "-Wattributes"
  83:../Drivers/CMSIS/Include/cmsis_gcc.h ****   __PACKED_STRUCT T_UINT16_READ { uint16_t v; };
  84:../Drivers/CMSIS/Include/cmsis_gcc.h ****   #pragma GCC diagnostic pop
  85:../Drivers/CMSIS/Include/cmsis_gcc.h ****   #define __UNALIGNED_UINT16_READ(addr)          (((const struct T_UINT16_READ *)(const void *)(add
  86:../Drivers/CMSIS/Include/cmsis_gcc.h **** #endif
  87:../Drivers/CMSIS/Include/cmsis_gcc.h **** #ifndef   __UNALIGNED_UINT32_WRITE
  88:../Drivers/CMSIS/Include/cmsis_gcc.h ****   #pragma GCC diagnostic push
  89:../Drivers/CMSIS/Include/cmsis_gcc.h ****   #pragma GCC diagnostic ignored "-Wpacked"
  90:../Drivers/CMSIS/Include/cmsis_gcc.h ****   #pragma GCC diagnostic ignored "-Wattributes"
  91:../Drivers/CMSIS/Include/cmsis_gcc.h ****   __PACKED_STRUCT T_UINT32_WRITE { uint32_t v; };
  92:../Drivers/CMSIS/Include/cmsis_gcc.h ****   #pragma GCC diagnostic pop
  93:../Drivers/CMSIS/Include/cmsis_gcc.h ****   #define __UNALIGNED_UINT32_WRITE(addr, val)    (void)((((struct T_UINT32_WRITE *)(void *)(addr))-
  94:../Drivers/CMSIS/Include/cmsis_gcc.h **** #endif
  95:../Drivers/CMSIS/Include/cmsis_gcc.h **** #ifndef   __UNALIGNED_UINT32_READ
  96:../Drivers/CMSIS/Include/cmsis_gcc.h ****   #pragma GCC diagnostic push
  97:../Drivers/CMSIS/Include/cmsis_gcc.h ****   #pragma GCC diagnostic ignored "-Wpacked"
  98:../Drivers/CMSIS/Include/cmsis_gcc.h ****   #pragma GCC diagnostic ignored "-Wattributes"
  99:../Drivers/CMSIS/Include/cmsis_gcc.h ****   __PACKED_STRUCT T_UINT32_READ { uint32_t v; };
 100:../Drivers/CMSIS/Include/cmsis_gcc.h ****   #pragma GCC diagnostic pop
 101:../Drivers/CMSIS/Include/cmsis_gcc.h ****   #define __UNALIGNED_UINT32_READ(addr)          (((const struct T_UINT32_READ *)(const void *)(add
 102:../Drivers/CMSIS/Include/cmsis_gcc.h **** #endif
 103:../Drivers/CMSIS/Include/cmsis_gcc.h **** #ifndef   __ALIGNED
 104:../Drivers/CMSIS/Include/cmsis_gcc.h ****   #define __ALIGNED(x)                           __attribute__((aligned(x)))
 105:../Drivers/CMSIS/Include/cmsis_gcc.h **** #endif
 106:../Drivers/CMSIS/Include/cmsis_gcc.h **** #ifndef   __RESTRICT
 107:../Drivers/CMSIS/Include/cmsis_gcc.h ****   #define __RESTRICT                             __restrict
 108:../Drivers/CMSIS/Include/cmsis_gcc.h **** #endif
ARM GAS  /tmp/ccuJg0Ev.s 			page 34


 109:../Drivers/CMSIS/Include/cmsis_gcc.h **** #ifndef   __COMPILER_BARRIER
 110:../Drivers/CMSIS/Include/cmsis_gcc.h ****   #define __COMPILER_BARRIER()                   __ASM volatile("":::"memory")
 111:../Drivers/CMSIS/Include/cmsis_gcc.h **** #endif
 112:../Drivers/CMSIS/Include/cmsis_gcc.h **** #ifndef __NO_INIT
 113:../Drivers/CMSIS/Include/cmsis_gcc.h ****   #define __NO_INIT                              __attribute__ ((section (".noinit")))
 114:../Drivers/CMSIS/Include/cmsis_gcc.h **** #endif
 115:../Drivers/CMSIS/Include/cmsis_gcc.h **** #ifndef __ALIAS
 116:../Drivers/CMSIS/Include/cmsis_gcc.h ****   #define __ALIAS(x)                             __attribute__ ((alias(x)))
 117:../Drivers/CMSIS/Include/cmsis_gcc.h **** #endif
 118:../Drivers/CMSIS/Include/cmsis_gcc.h **** 
 119:../Drivers/CMSIS/Include/cmsis_gcc.h **** /* ##########################  Core Instruction Access  ######################### */
 120:../Drivers/CMSIS/Include/cmsis_gcc.h **** /** \defgroup CMSIS_Core_InstructionInterface CMSIS Core Instruction Interface
 121:../Drivers/CMSIS/Include/cmsis_gcc.h ****   Access to dedicated instructions
 122:../Drivers/CMSIS/Include/cmsis_gcc.h ****   @{
 123:../Drivers/CMSIS/Include/cmsis_gcc.h **** */
 124:../Drivers/CMSIS/Include/cmsis_gcc.h **** 
 125:../Drivers/CMSIS/Include/cmsis_gcc.h **** /* Define macros for porting to both thumb1 and thumb2.
 126:../Drivers/CMSIS/Include/cmsis_gcc.h ****  * For thumb1, use low register (r0-r7), specified by constraint "l"
 127:../Drivers/CMSIS/Include/cmsis_gcc.h ****  * Otherwise, use general registers, specified by constraint "r" */
 128:../Drivers/CMSIS/Include/cmsis_gcc.h **** #if defined (__thumb__) && !defined (__thumb2__)
 129:../Drivers/CMSIS/Include/cmsis_gcc.h **** #define __CMSIS_GCC_OUT_REG(r) "=l" (r)
 130:../Drivers/CMSIS/Include/cmsis_gcc.h **** #define __CMSIS_GCC_RW_REG(r) "+l" (r)
 131:../Drivers/CMSIS/Include/cmsis_gcc.h **** #define __CMSIS_GCC_USE_REG(r) "l" (r)
 132:../Drivers/CMSIS/Include/cmsis_gcc.h **** #else
 133:../Drivers/CMSIS/Include/cmsis_gcc.h **** #define __CMSIS_GCC_OUT_REG(r) "=r" (r)
 134:../Drivers/CMSIS/Include/cmsis_gcc.h **** #define __CMSIS_GCC_RW_REG(r) "+r" (r)
 135:../Drivers/CMSIS/Include/cmsis_gcc.h **** #define __CMSIS_GCC_USE_REG(r) "r" (r)
 136:../Drivers/CMSIS/Include/cmsis_gcc.h **** #endif
 137:../Drivers/CMSIS/Include/cmsis_gcc.h **** 
 138:../Drivers/CMSIS/Include/cmsis_gcc.h **** /**
 139:../Drivers/CMSIS/Include/cmsis_gcc.h ****   \brief   No Operation
 140:../Drivers/CMSIS/Include/cmsis_gcc.h ****   \details No Operation does nothing. This instruction can be used for code alignment purposes.
 141:../Drivers/CMSIS/Include/cmsis_gcc.h ****  */
 142:../Drivers/CMSIS/Include/cmsis_gcc.h **** #define __NOP()         __ASM volatile ("nop")
 143:../Drivers/CMSIS/Include/cmsis_gcc.h **** 
 144:../Drivers/CMSIS/Include/cmsis_gcc.h **** 
 145:../Drivers/CMSIS/Include/cmsis_gcc.h **** /**
 146:../Drivers/CMSIS/Include/cmsis_gcc.h ****   \brief   Wait For Interrupt
 147:../Drivers/CMSIS/Include/cmsis_gcc.h ****   \details Wait For Interrupt is a hint instruction that suspends execution until one of a number o
 148:../Drivers/CMSIS/Include/cmsis_gcc.h ****  */
 149:../Drivers/CMSIS/Include/cmsis_gcc.h **** #define __WFI()         __ASM volatile ("wfi":::"memory")
 150:../Drivers/CMSIS/Include/cmsis_gcc.h **** 
 151:../Drivers/CMSIS/Include/cmsis_gcc.h **** 
 152:../Drivers/CMSIS/Include/cmsis_gcc.h **** /**
 153:../Drivers/CMSIS/Include/cmsis_gcc.h ****   \brief   Wait For Event
 154:../Drivers/CMSIS/Include/cmsis_gcc.h ****   \details Wait For Event is a hint instruction that permits the processor to enter
 155:../Drivers/CMSIS/Include/cmsis_gcc.h ****            a low-power state until one of a number of events occurs.
 156:../Drivers/CMSIS/Include/cmsis_gcc.h ****  */
 157:../Drivers/CMSIS/Include/cmsis_gcc.h **** #define __WFE()         __ASM volatile ("wfe":::"memory")
 158:../Drivers/CMSIS/Include/cmsis_gcc.h **** 
 159:../Drivers/CMSIS/Include/cmsis_gcc.h **** 
 160:../Drivers/CMSIS/Include/cmsis_gcc.h **** /**
 161:../Drivers/CMSIS/Include/cmsis_gcc.h ****   \brief   Send Event
 162:../Drivers/CMSIS/Include/cmsis_gcc.h ****   \details Send Event is a hint instruction. It causes an event to be signaled to the CPU.
 163:../Drivers/CMSIS/Include/cmsis_gcc.h ****  */
 164:../Drivers/CMSIS/Include/cmsis_gcc.h **** #define __SEV()         __ASM volatile ("sev")
 165:../Drivers/CMSIS/Include/cmsis_gcc.h **** 
ARM GAS  /tmp/ccuJg0Ev.s 			page 35


 166:../Drivers/CMSIS/Include/cmsis_gcc.h **** 
 167:../Drivers/CMSIS/Include/cmsis_gcc.h **** /**
 168:../Drivers/CMSIS/Include/cmsis_gcc.h ****   \brief   Instruction Synchronization Barrier
 169:../Drivers/CMSIS/Include/cmsis_gcc.h ****   \details Instruction Synchronization Barrier flushes the pipeline in the processor,
 170:../Drivers/CMSIS/Include/cmsis_gcc.h ****            so that all instructions following the ISB are fetched from cache or memory,
 171:../Drivers/CMSIS/Include/cmsis_gcc.h ****            after the instruction has been completed.
 172:../Drivers/CMSIS/Include/cmsis_gcc.h ****  */
 173:../Drivers/CMSIS/Include/cmsis_gcc.h **** __STATIC_FORCEINLINE void __ISB(void)
 174:../Drivers/CMSIS/Include/cmsis_gcc.h **** {
 175:../Drivers/CMSIS/Include/cmsis_gcc.h ****   __ASM volatile ("isb 0xF":::"memory");
 176:../Drivers/CMSIS/Include/cmsis_gcc.h **** }
 177:../Drivers/CMSIS/Include/cmsis_gcc.h **** 
 178:../Drivers/CMSIS/Include/cmsis_gcc.h **** 
 179:../Drivers/CMSIS/Include/cmsis_gcc.h **** /**
 180:../Drivers/CMSIS/Include/cmsis_gcc.h ****   \brief   Data Synchronization Barrier
 181:../Drivers/CMSIS/Include/cmsis_gcc.h ****   \details Acts as a special kind of Data Memory Barrier.
 182:../Drivers/CMSIS/Include/cmsis_gcc.h ****            It completes when all explicit memory accesses before this instruction complete.
 183:../Drivers/CMSIS/Include/cmsis_gcc.h ****  */
 184:../Drivers/CMSIS/Include/cmsis_gcc.h **** __STATIC_FORCEINLINE void __DSB(void)
 720              		.loc 2 184 27 view .LVU276
 721              	.LBB7:
 185:../Drivers/CMSIS/Include/cmsis_gcc.h **** {
 186:../Drivers/CMSIS/Include/cmsis_gcc.h ****   __ASM volatile ("dsb 0xF":::"memory");
 722              		.loc 2 186 3 view .LVU277
 723              		.syntax unified
 724              	@ 186 "../Drivers/CMSIS/Include/cmsis_gcc.h" 1
 725 0002 BFF34F8F 		dsb 0xF
 726              	@ 0 "" 2
 727              		.thumb
 728              		.syntax unified
 729              	.LBE7:
 730              	.LBE6:
1037:../Drivers/STM32_ExtMem_Manager/sal/stm32_sal_xspi.c ****   return HAL_XSPI_Abort(SalXspi->hxspi);
 731              		.loc 1 1037 3 view .LVU278
 732              		.loc 1 1037 10 is_stmt 0 view .LVU279
 733 0006 0068     		ldr	r0, [r0]
 734              	.LVL28:
 735              		.loc 1 1037 10 view .LVU280
 736 0008 FFF7FEFF 		bl	HAL_XSPI_Abort
 737              	.LVL29:
1038:../Drivers/STM32_ExtMem_Manager/sal/stm32_sal_xspi.c **** }
 738              		.loc 1 1038 1 view .LVU281
 739 000c 08BD     		pop	{r3, pc}
 740              		.cfi_endproc
 741              	.LFE895:
 743              		.section	.text.SAL_XSPI_UpdateMemoryType,"ax",%progbits
 744              		.align	1
 745              		.global	SAL_XSPI_UpdateMemoryType
 746              		.syntax unified
 747              		.thumb
 748              		.thumb_func
 750              	SAL_XSPI_UpdateMemoryType:
 751              	.LVL30:
 752              	.LFB896:
1039:../Drivers/STM32_ExtMem_Manager/sal/stm32_sal_xspi.c **** 
1040:../Drivers/STM32_ExtMem_Manager/sal/stm32_sal_xspi.c **** /**
1041:../Drivers/STM32_ExtMem_Manager/sal/stm32_sal_xspi.c ****   * @brief This function updates the memory according the SFDP signature value
ARM GAS  /tmp/ccuJg0Ev.s 			page 36


1042:../Drivers/STM32_ExtMem_Manager/sal/stm32_sal_xspi.c ****   * @param SalXspi SAL XSPI handle
1043:../Drivers/STM32_ExtMem_Manager/sal/stm32_sal_xspi.c ****   * @param DataOrder Selected data order
1044:../Drivers/STM32_ExtMem_Manager/sal/stm32_sal_xspi.c ****   * @return @ref HAL_StatusTypeDef
1045:../Drivers/STM32_ExtMem_Manager/sal/stm32_sal_xspi.c ****   **/
1046:../Drivers/STM32_ExtMem_Manager/sal/stm32_sal_xspi.c **** HAL_StatusTypeDef SAL_XSPI_UpdateMemoryType(SAL_XSPI_ObjectTypeDef *SalXspi, SAL_XSPI_DataOrderType
1047:../Drivers/STM32_ExtMem_Manager/sal/stm32_sal_xspi.c **** {
 753              		.loc 1 1047 1 is_stmt 1 view -0
 754              		.cfi_startproc
 755              		@ args = 0, pretend = 0, frame = 0
 756              		@ frame_needed = 0, uses_anonymous_args = 0
 757              		@ link register save eliminated.
1048:../Drivers/STM32_ExtMem_Manager/sal/stm32_sal_xspi.c ****   HAL_StatusTypeDef retr = HAL_OK;
 758              		.loc 1 1048 3 view .LVU283
1049:../Drivers/STM32_ExtMem_Manager/sal/stm32_sal_xspi.c **** 
1050:../Drivers/STM32_ExtMem_Manager/sal/stm32_sal_xspi.c ****   /* Read the memory type value */
1051:../Drivers/STM32_ExtMem_Manager/sal/stm32_sal_xspi.c ****   uint32_t memorytype = READ_REG(SalXspi->hxspi->Instance->DCR1) & XSPI_DCR1_MTYP;
 759              		.loc 1 1051 3 view .LVU284
 760              		.loc 1 1051 25 is_stmt 0 view .LVU285
 761 0000 0368     		ldr	r3, [r0]
 762 0002 1A68     		ldr	r2, [r3]
 763 0004 9368     		ldr	r3, [r2, #8]
 764              		.loc 1 1051 12 view .LVU286
 765 0006 03F0E063 		and	r3, r3, #117440512
 766              	.LVL31:
1052:../Drivers/STM32_ExtMem_Manager/sal/stm32_sal_xspi.c **** 
1053:../Drivers/STM32_ExtMem_Manager/sal/stm32_sal_xspi.c ****   switch (DataOrder)
 767              		.loc 1 1053 3 is_stmt 1 view .LVU287
 768 000a 0846     		mov	r0, r1
 769              	.LVL32:
 770              		.loc 1 1053 3 is_stmt 0 view .LVU288
 771 000c 79B9     		cbnz	r1, .L40
1054:../Drivers/STM32_ExtMem_Manager/sal/stm32_sal_xspi.c ****   {
1055:../Drivers/STM32_ExtMem_Manager/sal/stm32_sal_xspi.c ****     case SAL_XSPI_ORDERINVERTED :
1056:../Drivers/STM32_ExtMem_Manager/sal/stm32_sal_xspi.c ****       if (memorytype == HAL_XSPI_MEMTYPE_MICRON)
 772              		.loc 1 1056 7 is_stmt 1 view .LVU289
 773              		.loc 1 1056 10 is_stmt 0 view .LVU290
 774 000e 33B1     		cbz	r3, .L41
1057:../Drivers/STM32_ExtMem_Manager/sal/stm32_sal_xspi.c ****       {
1058:../Drivers/STM32_ExtMem_Manager/sal/stm32_sal_xspi.c ****         memorytype = HAL_XSPI_MEMTYPE_MACRONIX;
1059:../Drivers/STM32_ExtMem_Manager/sal/stm32_sal_xspi.c ****       }
1060:../Drivers/STM32_ExtMem_Manager/sal/stm32_sal_xspi.c ****       else if (memorytype == HAL_XSPI_MEMTYPE_MACRONIX)
 775              		.loc 1 1060 12 is_stmt 1 view .LVU291
 776              		.loc 1 1060 15 is_stmt 0 view .LVU292
 777 0010 B3F1807F 		cmp	r3, #16777216
 778 0014 01D0     		beq	.L43
1061:../Drivers/STM32_ExtMem_Manager/sal/stm32_sal_xspi.c ****       {
1062:../Drivers/STM32_ExtMem_Manager/sal/stm32_sal_xspi.c ****         memorytype = HAL_XSPI_MEMTYPE_MICRON;
1063:../Drivers/STM32_ExtMem_Manager/sal/stm32_sal_xspi.c ****       }
1064:../Drivers/STM32_ExtMem_Manager/sal/stm32_sal_xspi.c ****       else
1065:../Drivers/STM32_ExtMem_Manager/sal/stm32_sal_xspi.c ****       {
1066:../Drivers/STM32_ExtMem_Manager/sal/stm32_sal_xspi.c ****         retr = HAL_ERROR;
 779              		.loc 1 1066 14 view .LVU293
 780 0016 0120     		movs	r0, #1
 781 0018 03E0     		b	.L39
 782              	.L43:
1062:../Drivers/STM32_ExtMem_Manager/sal/stm32_sal_xspi.c ****       }
 783              		.loc 1 1062 20 view .LVU294
ARM GAS  /tmp/ccuJg0Ev.s 			page 37


 784 001a 0B46     		mov	r3, r1
 785              	.LVL33:
1062:../Drivers/STM32_ExtMem_Manager/sal/stm32_sal_xspi.c ****       }
 786              		.loc 1 1062 20 view .LVU295
 787 001c 01E0     		b	.L39
 788              	.LVL34:
 789              	.L41:
1058:../Drivers/STM32_ExtMem_Manager/sal/stm32_sal_xspi.c ****       }
 790              		.loc 1 1058 20 view .LVU296
 791 001e 4FF08073 		mov	r3, #16777216
 792              	.LVL35:
 793              	.L39:
1067:../Drivers/STM32_ExtMem_Manager/sal/stm32_sal_xspi.c ****       }
1068:../Drivers/STM32_ExtMem_Manager/sal/stm32_sal_xspi.c ****       MODIFY_REG(SalXspi->hxspi->Instance->DCR1, XSPI_DCR1_MTYP, memorytype);
 794              		.loc 1 1068 7 is_stmt 1 view .LVU297
 795 0022 9168     		ldr	r1, [r2, #8]
 796              	.LVL36:
 797              		.loc 1 1068 7 is_stmt 0 view .LVU298
 798 0024 21F0E061 		bic	r1, r1, #117440512
 799 0028 0B43     		orrs	r3, r3, r1
 800              	.LVL37:
 801              		.loc 1 1068 7 view .LVU299
 802 002a 9360     		str	r3, [r2, #8]
1069:../Drivers/STM32_ExtMem_Manager/sal/stm32_sal_xspi.c ****       break;
 803              		.loc 1 1069 7 is_stmt 1 view .LVU300
1070:../Drivers/STM32_ExtMem_Manager/sal/stm32_sal_xspi.c ****     default :
1071:../Drivers/STM32_ExtMem_Manager/sal/stm32_sal_xspi.c ****       return HAL_ERROR;
1072:../Drivers/STM32_ExtMem_Manager/sal/stm32_sal_xspi.c ****       break;
 804              		.loc 1 1072 7 view .LVU301
1073:../Drivers/STM32_ExtMem_Manager/sal/stm32_sal_xspi.c ****   }
1074:../Drivers/STM32_ExtMem_Manager/sal/stm32_sal_xspi.c **** 
1075:../Drivers/STM32_ExtMem_Manager/sal/stm32_sal_xspi.c ****   DEBUG_PARAM_BEGIN();
 805              		.loc 1 1075 22 view .LVU302
1076:../Drivers/STM32_ExtMem_Manager/sal/stm32_sal_xspi.c ****   DEBUG_PARAM_DATA("::SAL_XSPI_UpdateMemoryType::");
 806              		.loc 1 1076 52 view .LVU303
1077:../Drivers/STM32_ExtMem_Manager/sal/stm32_sal_xspi.c ****   DEBUG_PARAM_INT(memorytype);
 807              		.loc 1 1077 30 view .LVU304
1078:../Drivers/STM32_ExtMem_Manager/sal/stm32_sal_xspi.c ****   DEBUG_PARAM_END();
 808              		.loc 1 1078 20 view .LVU305
1079:../Drivers/STM32_ExtMem_Manager/sal/stm32_sal_xspi.c ****   return retr;
 809              		.loc 1 1079 3 view .LVU306
 810              		.loc 1 1079 10 is_stmt 0 view .LVU307
 811 002c 7047     		bx	lr
 812              	.LVL38:
 813              	.L40:
1071:../Drivers/STM32_ExtMem_Manager/sal/stm32_sal_xspi.c ****       break;
 814              		.loc 1 1071 14 view .LVU308
 815 002e 0120     		movs	r0, #1
1080:../Drivers/STM32_ExtMem_Manager/sal/stm32_sal_xspi.c **** }
 816              		.loc 1 1080 1 view .LVU309
 817 0030 7047     		bx	lr
 818              		.cfi_endproc
 819              	.LFE896:
 821              		.section	.text.SAL_XSPI_Abort,"ax",%progbits
 822              		.align	1
 823              		.global	SAL_XSPI_Abort
 824              		.syntax unified
ARM GAS  /tmp/ccuJg0Ev.s 			page 38


 825              		.thumb
 826              		.thumb_func
 828              	SAL_XSPI_Abort:
 829              	.LVL39:
 830              	.LFB897:
1081:../Drivers/STM32_ExtMem_Manager/sal/stm32_sal_xspi.c **** 
1082:../Drivers/STM32_ExtMem_Manager/sal/stm32_sal_xspi.c **** HAL_StatusTypeDef SAL_XSPI_Abort(SAL_XSPI_ObjectTypeDef *SalXspi)
1083:../Drivers/STM32_ExtMem_Manager/sal/stm32_sal_xspi.c **** {
 831              		.loc 1 1083 1 is_stmt 1 view -0
 832              		.cfi_startproc
 833              		@ args = 0, pretend = 0, frame = 0
 834              		@ frame_needed = 0, uses_anonymous_args = 0
 835              		.loc 1 1083 1 is_stmt 0 view .LVU311
 836 0000 08B5     		push	{r3, lr}
 837              	.LCFI10:
 838              		.cfi_def_cfa_offset 8
 839              		.cfi_offset 3, -8
 840              		.cfi_offset 14, -4
1084:../Drivers/STM32_ExtMem_Manager/sal/stm32_sal_xspi.c ****   return HAL_XSPI_Abort(SalXspi->hxspi);
 841              		.loc 1 1084 3 is_stmt 1 view .LVU312
 842              		.loc 1 1084 10 is_stmt 0 view .LVU313
 843 0002 0068     		ldr	r0, [r0]
 844              	.LVL40:
 845              		.loc 1 1084 10 view .LVU314
 846 0004 FFF7FEFF 		bl	HAL_XSPI_Abort
 847              	.LVL41:
1085:../Drivers/STM32_ExtMem_Manager/sal/stm32_sal_xspi.c **** }
 848              		.loc 1 1085 1 view .LVU315
 849 0008 08BD     		pop	{r3, pc}
 850              		.cfi_endproc
 851              	.LFE897:
 853              		.section	.text.XSPI_FormatCommand,"ax",%progbits
 854              		.align	1
 855              		.global	XSPI_FormatCommand
 856              		.syntax unified
 857              		.thumb
 858              		.thumb_func
 860              	XSPI_FormatCommand:
 861              	.LVL42:
 862              	.LFB898:
1086:../Drivers/STM32_ExtMem_Manager/sal/stm32_sal_xspi.c **** 
1087:../Drivers/STM32_ExtMem_Manager/sal/stm32_sal_xspi.c **** /**
1088:../Drivers/STM32_ExtMem_Manager/sal/stm32_sal_xspi.c ****   * @}
1089:../Drivers/STM32_ExtMem_Manager/sal/stm32_sal_xspi.c ****   */
1090:../Drivers/STM32_ExtMem_Manager/sal/stm32_sal_xspi.c **** 
1091:../Drivers/STM32_ExtMem_Manager/sal/stm32_sal_xspi.c **** /** @defgroup SAL_XSPI_Private_Functions SAL XSP Private Functions
1092:../Drivers/STM32_ExtMem_Manager/sal/stm32_sal_xspi.c ****   * @{
1093:../Drivers/STM32_ExtMem_Manager/sal/stm32_sal_xspi.c ****   */
1094:../Drivers/STM32_ExtMem_Manager/sal/stm32_sal_xspi.c **** /**
1095:../Drivers/STM32_ExtMem_Manager/sal/stm32_sal_xspi.c ****   * @brief This function return a formatted command
1096:../Drivers/STM32_ExtMem_Manager/sal/stm32_sal_xspi.c ****   *
1097:../Drivers/STM32_ExtMem_Manager/sal/stm32_sal_xspi.c ****   * @param CommandExtension Type of the command extension 0: the complement  1 : the same
1098:../Drivers/STM32_ExtMem_Manager/sal/stm32_sal_xspi.c ****   * @param InstructionWidth Instruction width
1099:../Drivers/STM32_ExtMem_Manager/sal/stm32_sal_xspi.c ****   * @param Command Command
1100:../Drivers/STM32_ExtMem_Manager/sal/stm32_sal_xspi.c ****   * @return Formatted command
1101:../Drivers/STM32_ExtMem_Manager/sal/stm32_sal_xspi.c ****   */
1102:../Drivers/STM32_ExtMem_Manager/sal/stm32_sal_xspi.c **** uint16_t XSPI_FormatCommand(uint8_t CommandExtension, uint32_t InstructionWidth, uint8_t Command)
ARM GAS  /tmp/ccuJg0Ev.s 			page 39


1103:../Drivers/STM32_ExtMem_Manager/sal/stm32_sal_xspi.c **** {
 863              		.loc 1 1103 1 is_stmt 1 view -0
 864              		.cfi_startproc
 865              		@ args = 0, pretend = 0, frame = 0
 866              		@ frame_needed = 0, uses_anonymous_args = 0
 867              		@ link register save eliminated.
1104:../Drivers/STM32_ExtMem_Manager/sal/stm32_sal_xspi.c ****   uint16_t retr;
 868              		.loc 1 1104 3 view .LVU317
1105:../Drivers/STM32_ExtMem_Manager/sal/stm32_sal_xspi.c ****   if (InstructionWidth == HAL_XSPI_INSTRUCTION_16_BITS)
 869              		.loc 1 1105 3 view .LVU318
 870              		.loc 1 1105 6 is_stmt 0 view .LVU319
 871 0000 1029     		cmp	r1, #16
 872 0002 01D0     		beq	.L50
1106:../Drivers/STM32_ExtMem_Manager/sal/stm32_sal_xspi.c ****   {
1107:../Drivers/STM32_ExtMem_Manager/sal/stm32_sal_xspi.c ****     /* 0b00 Command Extension is the same as the Command.
1108:../Drivers/STM32_ExtMem_Manager/sal/stm32_sal_xspi.c ****             (Command / Command Extension has the same value for the whole clock period. */
1109:../Drivers/STM32_ExtMem_Manager/sal/stm32_sal_xspi.c ****     /* 0b01 Command Extension is the inverse of the Command.
1110:../Drivers/STM32_ExtMem_Manager/sal/stm32_sal_xspi.c ****             Command Extension acts as a confirmation of the Command */
1111:../Drivers/STM32_ExtMem_Manager/sal/stm32_sal_xspi.c ****     /* 0b11 Command and Command Extension forms a 16 bit command word :: Not yet handled */
1112:../Drivers/STM32_ExtMem_Manager/sal/stm32_sal_xspi.c ****     retr = ((uint16_t)Command << 8u);
1113:../Drivers/STM32_ExtMem_Manager/sal/stm32_sal_xspi.c ****     if (CommandExtension == 1u)
1114:../Drivers/STM32_ExtMem_Manager/sal/stm32_sal_xspi.c ****     {
1115:../Drivers/STM32_ExtMem_Manager/sal/stm32_sal_xspi.c ****       retr |= (uint8_t)(~Command & 0xFFu);
1116:../Drivers/STM32_ExtMem_Manager/sal/stm32_sal_xspi.c ****     }
1117:../Drivers/STM32_ExtMem_Manager/sal/stm32_sal_xspi.c ****     else
1118:../Drivers/STM32_ExtMem_Manager/sal/stm32_sal_xspi.c ****     {
1119:../Drivers/STM32_ExtMem_Manager/sal/stm32_sal_xspi.c ****       retr |= (uint8_t)(Command & 0xFFu);
1120:../Drivers/STM32_ExtMem_Manager/sal/stm32_sal_xspi.c ****     }
1121:../Drivers/STM32_ExtMem_Manager/sal/stm32_sal_xspi.c ****   }
1122:../Drivers/STM32_ExtMem_Manager/sal/stm32_sal_xspi.c ****   else
1123:../Drivers/STM32_ExtMem_Manager/sal/stm32_sal_xspi.c ****   {
1124:../Drivers/STM32_ExtMem_Manager/sal/stm32_sal_xspi.c ****     retr = Command;
 873              		.loc 1 1124 5 is_stmt 1 view .LVU320
 874              		.loc 1 1124 10 is_stmt 0 view .LVU321
 875 0004 1046     		mov	r0, r2
 876              	.LVL43:
1125:../Drivers/STM32_ExtMem_Manager/sal/stm32_sal_xspi.c ****   }
1126:../Drivers/STM32_ExtMem_Manager/sal/stm32_sal_xspi.c **** 
1127:../Drivers/STM32_ExtMem_Manager/sal/stm32_sal_xspi.c ****   return retr;
 877              		.loc 1 1127 3 is_stmt 1 view .LVU322
1128:../Drivers/STM32_ExtMem_Manager/sal/stm32_sal_xspi.c **** }
 878              		.loc 1 1128 1 is_stmt 0 view .LVU323
 879 0006 7047     		bx	lr
 880              	.LVL44:
 881              	.L50:
1112:../Drivers/STM32_ExtMem_Manager/sal/stm32_sal_xspi.c ****     if (CommandExtension == 1u)
 882              		.loc 1 1112 5 is_stmt 1 view .LVU324
1112:../Drivers/STM32_ExtMem_Manager/sal/stm32_sal_xspi.c ****     if (CommandExtension == 1u)
 883              		.loc 1 1112 10 is_stmt 0 view .LVU325
 884 0008 1302     		lsls	r3, r2, #8
 885              	.LVL45:
1113:../Drivers/STM32_ExtMem_Manager/sal/stm32_sal_xspi.c ****     {
 886              		.loc 1 1113 5 is_stmt 1 view .LVU326
1113:../Drivers/STM32_ExtMem_Manager/sal/stm32_sal_xspi.c ****     {
 887              		.loc 1 1113 8 is_stmt 0 view .LVU327
 888 000a 0128     		cmp	r0, #1
 889 000c 02D0     		beq	.L51
ARM GAS  /tmp/ccuJg0Ev.s 			page 40


1119:../Drivers/STM32_ExtMem_Manager/sal/stm32_sal_xspi.c ****     }
 890              		.loc 1 1119 7 is_stmt 1 view .LVU328
1119:../Drivers/STM32_ExtMem_Manager/sal/stm32_sal_xspi.c ****     }
 891              		.loc 1 1119 12 is_stmt 0 view .LVU329
 892 000e 42EA0300 		orr	r0, r2, r3
 893              	.LVL46:
1119:../Drivers/STM32_ExtMem_Manager/sal/stm32_sal_xspi.c ****     }
 894              		.loc 1 1119 12 view .LVU330
 895 0012 7047     		bx	lr
 896              	.LVL47:
 897              	.L51:
1115:../Drivers/STM32_ExtMem_Manager/sal/stm32_sal_xspi.c ****     }
 898              		.loc 1 1115 7 is_stmt 1 view .LVU331
1115:../Drivers/STM32_ExtMem_Manager/sal/stm32_sal_xspi.c ****     }
 899              		.loc 1 1115 15 is_stmt 0 view .LVU332
 900 0014 82F0FF02 		eor	r2, r2, #255
 901              	.LVL48:
1115:../Drivers/STM32_ExtMem_Manager/sal/stm32_sal_xspi.c ****     }
 902              		.loc 1 1115 12 view .LVU333
 903 0018 42EA0300 		orr	r0, r2, r3
 904              	.LVL49:
1115:../Drivers/STM32_ExtMem_Manager/sal/stm32_sal_xspi.c ****     }
 905              		.loc 1 1115 12 view .LVU334
 906 001c 7047     		bx	lr
 907              		.cfi_endproc
 908              	.LFE898:
 910              		.section	.text.SAL_XSPI_GetSFDP,"ax",%progbits
 911              		.align	1
 912              		.global	SAL_XSPI_GetSFDP
 913              		.syntax unified
 914              		.thumb
 915              		.thumb_func
 917              	SAL_XSPI_GetSFDP:
 918              	.LVL50:
 919              	.LFB884:
 467:../Drivers/STM32_ExtMem_Manager/sal/stm32_sal_xspi.c ****   HAL_StatusTypeDef retr;
 920              		.loc 1 467 1 is_stmt 1 view -0
 921              		.cfi_startproc
 922              		@ args = 0, pretend = 0, frame = 80
 923              		@ frame_needed = 0, uses_anonymous_args = 0
 467:../Drivers/STM32_ExtMem_Manager/sal/stm32_sal_xspi.c ****   HAL_StatusTypeDef retr;
 924              		.loc 1 467 1 is_stmt 0 view .LVU336
 925 0000 F0B5     		push	{r4, r5, r6, r7, lr}
 926              	.LCFI11:
 927              		.cfi_def_cfa_offset 20
 928              		.cfi_offset 4, -20
 929              		.cfi_offset 5, -16
 930              		.cfi_offset 6, -12
 931              		.cfi_offset 7, -8
 932              		.cfi_offset 14, -4
 933 0002 95B0     		sub	sp, sp, #84
 934              	.LCFI12:
 935              		.cfi_def_cfa_offset 104
 936 0004 0446     		mov	r4, r0
 937 0006 0E46     		mov	r6, r1
 938 0008 1746     		mov	r7, r2
 939 000a 1D46     		mov	r5, r3
ARM GAS  /tmp/ccuJg0Ev.s 			page 41


 468:../Drivers/STM32_ExtMem_Manager/sal/stm32_sal_xspi.c ****   XSPI_RegularCmdTypeDef s_command = SalXspi->Commandbase;
 940              		.loc 1 468 3 is_stmt 1 view .LVU337
 469:../Drivers/STM32_ExtMem_Manager/sal/stm32_sal_xspi.c **** 
 941              		.loc 1 469 3 view .LVU338
 469:../Drivers/STM32_ExtMem_Manager/sal/stm32_sal_xspi.c **** 
 942              		.loc 1 469 26 is_stmt 0 view .LVU339
 943 000c 4C22     		movs	r2, #76
 944              	.LVL51:
 469:../Drivers/STM32_ExtMem_Manager/sal/stm32_sal_xspi.c **** 
 945              		.loc 1 469 26 view .LVU340
 946 000e 011D     		adds	r1, r0, #4
 947              	.LVL52:
 469:../Drivers/STM32_ExtMem_Manager/sal/stm32_sal_xspi.c **** 
 948              		.loc 1 469 26 view .LVU341
 949 0010 01A8     		add	r0, sp, #4
 950              	.LVL53:
 469:../Drivers/STM32_ExtMem_Manager/sal/stm32_sal_xspi.c **** 
 951              		.loc 1 469 26 view .LVU342
 952 0012 FFF7FEFF 		bl	memcpy
 953              	.LVL54:
 472:../Drivers/STM32_ExtMem_Manager/sal/stm32_sal_xspi.c ****                                              EXTMEM_READ_SFDP_COMMAND);
 954              		.loc 1 472 3 is_stmt 1 view .LVU343
 472:../Drivers/STM32_ExtMem_Manager/sal/stm32_sal_xspi.c ****                                              EXTMEM_READ_SFDP_COMMAND);
 955              		.loc 1 472 27 is_stmt 0 view .LVU344
 956 0016 5A22     		movs	r2, #90
 957 0018 0599     		ldr	r1, [sp, #20]
 958 001a 94F85000 		ldrb	r0, [r4, #80]	@ zero_extendqisi2
 959 001e FFF7FEFF 		bl	XSPI_FormatCommand
 960              	.LVL55:
 472:../Drivers/STM32_ExtMem_Manager/sal/stm32_sal_xspi.c ****                                              EXTMEM_READ_SFDP_COMMAND);
 961              		.loc 1 472 25 discriminator 1 view .LVU345
 962 0022 0390     		str	r0, [sp, #12]
 475:../Drivers/STM32_ExtMem_Manager/sal/stm32_sal_xspi.c ****   s_command.DataLength  = DataSize;
 963              		.loc 1 475 3 is_stmt 1 view .LVU346
 475:../Drivers/STM32_ExtMem_Manager/sal/stm32_sal_xspi.c ****   s_command.DataLength  = DataSize;
 964              		.loc 1 475 25 is_stmt 0 view .LVU347
 965 0024 0796     		str	r6, [sp, #28]
 476:../Drivers/STM32_ExtMem_Manager/sal/stm32_sal_xspi.c ****   s_command.DummyCycles = SalXspi->SFDPDummyCycle;
 966              		.loc 1 476 3 is_stmt 1 view .LVU348
 476:../Drivers/STM32_ExtMem_Manager/sal/stm32_sal_xspi.c ****   s_command.DummyCycles = SalXspi->SFDPDummyCycle;
 967              		.loc 1 476 25 is_stmt 0 view .LVU349
 968 0026 1095     		str	r5, [sp, #64]
 477:../Drivers/STM32_ExtMem_Manager/sal/stm32_sal_xspi.c **** 
 969              		.loc 1 477 3 is_stmt 1 view .LVU350
 477:../Drivers/STM32_ExtMem_Manager/sal/stm32_sal_xspi.c **** 
 970              		.loc 1 477 34 is_stmt 0 view .LVU351
 971 0028 94F85130 		ldrb	r3, [r4, #81]	@ zero_extendqisi2
 477:../Drivers/STM32_ExtMem_Manager/sal/stm32_sal_xspi.c **** 
 972              		.loc 1 477 25 view .LVU352
 973 002c 1293     		str	r3, [sp, #72]
 479:../Drivers/STM32_ExtMem_Manager/sal/stm32_sal_xspi.c ****   {
 974              		.loc 1 479 3 is_stmt 1 view .LVU353
 479:../Drivers/STM32_ExtMem_Manager/sal/stm32_sal_xspi.c ****   {
 975              		.loc 1 479 17 is_stmt 0 view .LVU354
 976 002e 089B     		ldr	r3, [sp, #32]
 479:../Drivers/STM32_ExtMem_Manager/sal/stm32_sal_xspi.c ****   {
 977              		.loc 1 479 6 view .LVU355
ARM GAS  /tmp/ccuJg0Ev.s 			page 42


 978 0030 B3F5807F 		cmp	r3, #256
 979 0034 02D0     		beq	.L53
 479:../Drivers/STM32_ExtMem_Manager/sal/stm32_sal_xspi.c ****   {
 980              		.loc 1 479 58 discriminator 1 view .LVU356
 981 0036 B3F5407F 		cmp	r3, #768
 982 003a 02D1     		bne	.L54
 983              	.L53:
 481:../Drivers/STM32_ExtMem_Manager/sal/stm32_sal_xspi.c ****   }
 984              		.loc 1 481 5 is_stmt 1 view .LVU357
 481:../Drivers/STM32_ExtMem_Manager/sal/stm32_sal_xspi.c ****   }
 985              		.loc 1 481 28 is_stmt 0 view .LVU358
 986 003c 4FF40053 		mov	r3, #8192
 987 0040 0993     		str	r3, [sp, #36]
 988              	.L54:
 484:../Drivers/STM32_ExtMem_Manager/sal/stm32_sal_xspi.c ****   {
 989              		.loc 1 484 3 is_stmt 1 view .LVU359
 484:../Drivers/STM32_ExtMem_Manager/sal/stm32_sal_xspi.c ****   {
 990              		.loc 1 484 16 is_stmt 0 view .LVU360
 991 0042 119B     		ldr	r3, [sp, #68]
 484:../Drivers/STM32_ExtMem_Manager/sal/stm32_sal_xspi.c ****   {
 992              		.loc 1 484 6 view .LVU361
 993 0044 B3F1006F 		cmp	r3, #134217728
 994 0048 0ED0     		beq	.L60
 490:../Drivers/STM32_ExtMem_Manager/sal/stm32_sal_xspi.c ****   }
 995              		.loc 1 490 5 is_stmt 1 view .LVU362
 490:../Drivers/STM32_ExtMem_Manager/sal/stm32_sal_xspi.c ****   }
 996              		.loc 1 490 23 is_stmt 0 view .LVU363
 997 004a 0023     		movs	r3, #0
 998 004c 1393     		str	r3, [sp, #76]
 999              	.L56:
 494:../Drivers/STM32_ExtMem_Manager/sal/stm32_sal_xspi.c ****   if (retr  != HAL_OK)
 1000              		.loc 1 494 3 is_stmt 1 view .LVU364
 494:../Drivers/STM32_ExtMem_Manager/sal/stm32_sal_xspi.c ****   if (retr  != HAL_OK)
 1001              		.loc 1 494 10 is_stmt 0 view .LVU365
 1002 004e 6422     		movs	r2, #100
 1003 0050 01A9     		add	r1, sp, #4
 1004 0052 2068     		ldr	r0, [r4]
 1005 0054 FFF7FEFF 		bl	HAL_XSPI_Command
 1006              	.LVL56:
 495:../Drivers/STM32_ExtMem_Manager/sal/stm32_sal_xspi.c ****   {
 1007              		.loc 1 495 3 is_stmt 1 view .LVU366
 495:../Drivers/STM32_ExtMem_Manager/sal/stm32_sal_xspi.c ****   {
 1008              		.loc 1 495 6 is_stmt 0 view .LVU367
 1009 0058 0546     		mov	r5, r0
 1010              	.LVL57:
 495:../Drivers/STM32_ExtMem_Manager/sal/stm32_sal_xspi.c ****   {
 1011              		.loc 1 495 6 view .LVU368
 1012 005a 48B1     		cbz	r0, .L61
 1013              	.L57:
 1014              	.LVL58:
 507:../Drivers/STM32_ExtMem_Manager/sal/stm32_sal_xspi.c ****   }
 1015              		.loc 1 507 5 is_stmt 1 view .LVU369
 507:../Drivers/STM32_ExtMem_Manager/sal/stm32_sal_xspi.c ****   }
 1016              		.loc 1 507 11 is_stmt 0 view .LVU370
 1017 005c 2068     		ldr	r0, [r4]
 1018 005e FFF7FEFF 		bl	HAL_XSPI_Abort
 1019              	.LVL59:
ARM GAS  /tmp/ccuJg0Ev.s 			page 43


 1020              	.L58:
 509:../Drivers/STM32_ExtMem_Manager/sal/stm32_sal_xspi.c **** }
 1021              		.loc 1 509 3 is_stmt 1 view .LVU371
 510:../Drivers/STM32_ExtMem_Manager/sal/stm32_sal_xspi.c **** 
 1022              		.loc 1 510 1 is_stmt 0 view .LVU372
 1023 0062 2846     		mov	r0, r5
 1024 0064 15B0     		add	sp, sp, #84
 1025              	.LCFI13:
 1026              		.cfi_remember_state
 1027              		.cfi_def_cfa_offset 20
 1028              		@ sp needed
 1029 0066 F0BD     		pop	{r4, r5, r6, r7, pc}
 1030              	.LVL60:
 1031              	.L60:
 1032              	.LCFI14:
 1033              		.cfi_restore_state
 486:../Drivers/STM32_ExtMem_Manager/sal/stm32_sal_xspi.c ****   }
 1034              		.loc 1 486 5 is_stmt 1 view .LVU373
 486:../Drivers/STM32_ExtMem_Manager/sal/stm32_sal_xspi.c ****   }
 1035              		.loc 1 486 23 is_stmt 0 view .LVU374
 1036 0068 4FF00053 		mov	r3, #536870912
 1037 006c 1393     		str	r3, [sp, #76]
 1038 006e EEE7     		b	.L56
 1039              	.LVL61:
 1040              	.L61:
 501:../Drivers/STM32_ExtMem_Manager/sal/stm32_sal_xspi.c **** 
 1041              		.loc 1 501 3 is_stmt 1 view .LVU375
 501:../Drivers/STM32_ExtMem_Manager/sal/stm32_sal_xspi.c **** 
 1042              		.loc 1 501 10 is_stmt 0 view .LVU376
 1043 0070 6422     		movs	r2, #100
 1044 0072 3946     		mov	r1, r7
 1045 0074 2068     		ldr	r0, [r4]
 1046              	.LVL62:
 501:../Drivers/STM32_ExtMem_Manager/sal/stm32_sal_xspi.c **** 
 1047              		.loc 1 501 10 view .LVU377
 1048 0076 FFF7FEFF 		bl	HAL_XSPI_Receive
 1049              	.LVL63:
 1050              	.LDL1:
 504:../Drivers/STM32_ExtMem_Manager/sal/stm32_sal_xspi.c ****   {
 1051              		.loc 1 504 3 is_stmt 1 view .LVU378
 504:../Drivers/STM32_ExtMem_Manager/sal/stm32_sal_xspi.c ****   {
 1052              		.loc 1 504 6 is_stmt 0 view .LVU379
 1053 007a 0546     		mov	r5, r0
 1054 007c 0028     		cmp	r0, #0
 1055 007e F0D0     		beq	.L58
 1056 0080 ECE7     		b	.L57
 1057              		.cfi_endproc
 1058              	.LFE884:
 1060              		.section	.text.SAL_XSPI_GetId,"ax",%progbits
 1061              		.align	1
 1062              		.global	SAL_XSPI_GetId
 1063              		.syntax unified
 1064              		.thumb
 1065              		.thumb_func
 1067              	SAL_XSPI_GetId:
 1068              	.LVL64:
 1069              	.LFB885:
ARM GAS  /tmp/ccuJg0Ev.s 			page 44


 520:../Drivers/STM32_ExtMem_Manager/sal/stm32_sal_xspi.c ****   HAL_StatusTypeDef retr;
 1070              		.loc 1 520 1 is_stmt 1 view -0
 1071              		.cfi_startproc
 1072              		@ args = 0, pretend = 0, frame = 80
 1073              		@ frame_needed = 0, uses_anonymous_args = 0
 520:../Drivers/STM32_ExtMem_Manager/sal/stm32_sal_xspi.c ****   HAL_StatusTypeDef retr;
 1074              		.loc 1 520 1 is_stmt 0 view .LVU381
 1075 0000 70B5     		push	{r4, r5, r6, lr}
 1076              	.LCFI15:
 1077              		.cfi_def_cfa_offset 16
 1078              		.cfi_offset 4, -16
 1079              		.cfi_offset 5, -12
 1080              		.cfi_offset 6, -8
 1081              		.cfi_offset 14, -4
 1082 0002 94B0     		sub	sp, sp, #80
 1083              	.LCFI16:
 1084              		.cfi_def_cfa_offset 96
 1085 0004 0446     		mov	r4, r0
 1086 0006 0E46     		mov	r6, r1
 1087 0008 1546     		mov	r5, r2
 521:../Drivers/STM32_ExtMem_Manager/sal/stm32_sal_xspi.c ****   XSPI_RegularCmdTypeDef s_command = SalXspi->Commandbase;
 1088              		.loc 1 521 3 is_stmt 1 view .LVU382
 522:../Drivers/STM32_ExtMem_Manager/sal/stm32_sal_xspi.c **** 
 1089              		.loc 1 522 3 view .LVU383
 522:../Drivers/STM32_ExtMem_Manager/sal/stm32_sal_xspi.c **** 
 1090              		.loc 1 522 26 is_stmt 0 view .LVU384
 1091 000a 4C22     		movs	r2, #76
 1092              	.LVL65:
 522:../Drivers/STM32_ExtMem_Manager/sal/stm32_sal_xspi.c **** 
 1093              		.loc 1 522 26 view .LVU385
 1094 000c 011D     		adds	r1, r0, #4
 1095              	.LVL66:
 522:../Drivers/STM32_ExtMem_Manager/sal/stm32_sal_xspi.c **** 
 1096              		.loc 1 522 26 view .LVU386
 1097 000e 01A8     		add	r0, sp, #4
 1098              	.LVL67:
 522:../Drivers/STM32_ExtMem_Manager/sal/stm32_sal_xspi.c **** 
 1099              		.loc 1 522 26 view .LVU387
 1100 0010 FFF7FEFF 		bl	memcpy
 1101              	.LVL68:
 525:../Drivers/STM32_ExtMem_Manager/sal/stm32_sal_xspi.c ****                                              EXTMEM_READ_JEDEC_ID_SPI_COMMAND);
 1102              		.loc 1 525 3 is_stmt 1 view .LVU388
 525:../Drivers/STM32_ExtMem_Manager/sal/stm32_sal_xspi.c ****                                              EXTMEM_READ_JEDEC_ID_SPI_COMMAND);
 1103              		.loc 1 525 27 is_stmt 0 view .LVU389
 1104 0014 9F22     		movs	r2, #159
 1105 0016 0599     		ldr	r1, [sp, #20]
 1106 0018 94F85000 		ldrb	r0, [r4, #80]	@ zero_extendqisi2
 1107 001c FFF7FEFF 		bl	XSPI_FormatCommand
 1108              	.LVL69:
 525:../Drivers/STM32_ExtMem_Manager/sal/stm32_sal_xspi.c ****                                              EXTMEM_READ_JEDEC_ID_SPI_COMMAND);
 1109              		.loc 1 525 25 discriminator 1 view .LVU390
 1110 0020 0390     		str	r0, [sp, #12]
 528:../Drivers/STM32_ExtMem_Manager/sal/stm32_sal_xspi.c **** 
 1111              		.loc 1 528 3 is_stmt 1 view .LVU391
 528:../Drivers/STM32_ExtMem_Manager/sal/stm32_sal_xspi.c **** 
 1112              		.loc 1 528 25 is_stmt 0 view .LVU392
 1113 0022 1095     		str	r5, [sp, #64]
ARM GAS  /tmp/ccuJg0Ev.s 			page 45


 530:../Drivers/STM32_ExtMem_Manager/sal/stm32_sal_xspi.c ****   {
 1114              		.loc 1 530 3 is_stmt 1 view .LVU393
 530:../Drivers/STM32_ExtMem_Manager/sal/stm32_sal_xspi.c ****   {
 1115              		.loc 1 530 16 is_stmt 0 view .LVU394
 1116 0024 049B     		ldr	r3, [sp, #16]
 530:../Drivers/STM32_ExtMem_Manager/sal/stm32_sal_xspi.c ****   {
 1117              		.loc 1 530 6 view .LVU395
 1118 0026 012B     		cmp	r3, #1
 1119 0028 08D0     		beq	.L72
 537:../Drivers/STM32_ExtMem_Manager/sal/stm32_sal_xspi.c ****   {
 1120              		.loc 1 537 8 is_stmt 1 view .LVU396
 537:../Drivers/STM32_ExtMem_Manager/sal/stm32_sal_xspi.c ****   {
 1121              		.loc 1 537 11 is_stmt 0 view .LVU397
 1122 002a 032B     		cmp	r3, #3
 1123 002c 19D0     		beq	.L73
 544:../Drivers/STM32_ExtMem_Manager/sal/stm32_sal_xspi.c ****   {
 1124              		.loc 1 544 8 is_stmt 1 view .LVU398
 544:../Drivers/STM32_ExtMem_Manager/sal/stm32_sal_xspi.c ****   {
 1125              		.loc 1 544 11 is_stmt 0 view .LVU399
 1126 002e 042B     		cmp	r3, #4
 1127 0030 1ED0     		beq	.L74
 568:../Drivers/STM32_ExtMem_Manager/sal/stm32_sal_xspi.c ****     s_command.DummyCycles = 8;
 1128              		.loc 1 568 5 is_stmt 1 view .LVU400
 568:../Drivers/STM32_ExtMem_Manager/sal/stm32_sal_xspi.c ****     s_command.DummyCycles = 8;
 1129              		.loc 1 568 23 is_stmt 0 view .LVU401
 1130 0032 0023     		movs	r3, #0
 1131 0034 0793     		str	r3, [sp, #28]
 569:../Drivers/STM32_ExtMem_Manager/sal/stm32_sal_xspi.c ****   }
 1132              		.loc 1 569 5 is_stmt 1 view .LVU402
 569:../Drivers/STM32_ExtMem_Manager/sal/stm32_sal_xspi.c ****   }
 1133              		.loc 1 569 27 is_stmt 0 view .LVU403
 1134 0036 0823     		movs	r3, #8
 1135 0038 1293     		str	r3, [sp, #72]
 1136 003a 05E0     		b	.L64
 1137              	.L72:
 532:../Drivers/STM32_ExtMem_Manager/sal/stm32_sal_xspi.c ****     s_command.DummyCycles       = 0;
 1138              		.loc 1 532 5 is_stmt 1 view .LVU404
 532:../Drivers/STM32_ExtMem_Manager/sal/stm32_sal_xspi.c ****     s_command.DummyCycles       = 0;
 1139              		.loc 1 532 33 is_stmt 0 view .LVU405
 1140 003c 0023     		movs	r3, #0
 1141 003e 0893     		str	r3, [sp, #32]
 533:../Drivers/STM32_ExtMem_Manager/sal/stm32_sal_xspi.c ****     /* This behavior is linked with micron memory to read ID in 1S8S8S */
 1142              		.loc 1 533 5 is_stmt 1 view .LVU406
 533:../Drivers/STM32_ExtMem_Manager/sal/stm32_sal_xspi.c ****     /* This behavior is linked with micron memory to read ID in 1S8S8S */
 1143              		.loc 1 533 33 is_stmt 0 view .LVU407
 1144 0040 1293     		str	r3, [sp, #72]
 535:../Drivers/STM32_ExtMem_Manager/sal/stm32_sal_xspi.c ****   }
 1145              		.loc 1 535 5 is_stmt 1 view .LVU408
 535:../Drivers/STM32_ExtMem_Manager/sal/stm32_sal_xspi.c ****   }
 1146              		.loc 1 535 24 is_stmt 0 view .LVU409
 1147 0042 4FF08073 		mov	r3, #16777216
 1148 0046 0F93     		str	r3, [sp, #60]
 1149              	.L64:
 573:../Drivers/STM32_ExtMem_Manager/sal/stm32_sal_xspi.c ****   if (retr  != HAL_OK)
 1150              		.loc 1 573 3 is_stmt 1 view .LVU410
 573:../Drivers/STM32_ExtMem_Manager/sal/stm32_sal_xspi.c ****   if (retr  != HAL_OK)
 1151              		.loc 1 573 10 is_stmt 0 view .LVU411
ARM GAS  /tmp/ccuJg0Ev.s 			page 46


 1152 0048 6422     		movs	r2, #100
 1153 004a 01A9     		add	r1, sp, #4
 1154 004c 2068     		ldr	r0, [r4]
 1155 004e FFF7FEFF 		bl	HAL_XSPI_Command
 1156              	.LVL70:
 574:../Drivers/STM32_ExtMem_Manager/sal/stm32_sal_xspi.c ****   {
 1157              		.loc 1 574 3 is_stmt 1 view .LVU412
 574:../Drivers/STM32_ExtMem_Manager/sal/stm32_sal_xspi.c ****   {
 1158              		.loc 1 574 6 is_stmt 0 view .LVU413
 1159 0052 0546     		mov	r5, r0
 1160              	.LVL71:
 574:../Drivers/STM32_ExtMem_Manager/sal/stm32_sal_xspi.c ****   {
 1161              		.loc 1 574 6 view .LVU414
 1162 0054 40B3     		cbz	r0, .L75
 1163              	.L69:
 1164              	.LVL72:
 586:../Drivers/STM32_ExtMem_Manager/sal/stm32_sal_xspi.c ****   }
 1165              		.loc 1 586 5 is_stmt 1 view .LVU415
 586:../Drivers/STM32_ExtMem_Manager/sal/stm32_sal_xspi.c ****   }
 1166              		.loc 1 586 11 is_stmt 0 view .LVU416
 1167 0056 2068     		ldr	r0, [r4]
 1168 0058 FFF7FEFF 		bl	HAL_XSPI_Abort
 1169              	.LVL73:
 1170              	.L70:
 588:../Drivers/STM32_ExtMem_Manager/sal/stm32_sal_xspi.c **** }
 1171              		.loc 1 588 3 is_stmt 1 view .LVU417
 589:../Drivers/STM32_ExtMem_Manager/sal/stm32_sal_xspi.c **** 
 1172              		.loc 1 589 1 is_stmt 0 view .LVU418
 1173 005c 2846     		mov	r0, r5
 1174 005e 14B0     		add	sp, sp, #80
 1175              	.LCFI17:
 1176              		.cfi_remember_state
 1177              		.cfi_def_cfa_offset 16
 1178              		@ sp needed
 1179 0060 70BD     		pop	{r4, r5, r6, pc}
 1180              	.LVL74:
 1181              	.L73:
 1182              	.LCFI18:
 1183              		.cfi_restore_state
 539:../Drivers/STM32_ExtMem_Manager/sal/stm32_sal_xspi.c ****     s_command.DummyCycles       = 0;
 1184              		.loc 1 539 5 is_stmt 1 view .LVU419
 539:../Drivers/STM32_ExtMem_Manager/sal/stm32_sal_xspi.c ****     s_command.DummyCycles       = 0;
 1185              		.loc 1 539 33 is_stmt 0 view .LVU420
 1186 0062 0023     		movs	r3, #0
 1187 0064 0893     		str	r3, [sp, #32]
 540:../Drivers/STM32_ExtMem_Manager/sal/stm32_sal_xspi.c ****     /* This behavior is linked with ISSI memory to read ID in 4S4S4S */
 1188              		.loc 1 540 5 is_stmt 1 view .LVU421
 540:../Drivers/STM32_ExtMem_Manager/sal/stm32_sal_xspi.c ****     /* This behavior is linked with ISSI memory to read ID in 4S4S4S */
 1189              		.loc 1 540 33 is_stmt 0 view .LVU422
 1190 0066 1293     		str	r3, [sp, #72]
 542:../Drivers/STM32_ExtMem_Manager/sal/stm32_sal_xspi.c ****   }
 1191              		.loc 1 542 5 is_stmt 1 view .LVU423
 542:../Drivers/STM32_ExtMem_Manager/sal/stm32_sal_xspi.c ****   }
 1192              		.loc 1 542 33 is_stmt 0 view .LVU424
 1193 0068 4FF04073 		mov	r3, #50331648
 1194 006c 0F93     		str	r3, [sp, #60]
 1195 006e EBE7     		b	.L64
ARM GAS  /tmp/ccuJg0Ev.s 			page 47


 1196              	.L74:
 546:../Drivers/STM32_ExtMem_Manager/sal/stm32_sal_xspi.c **** 
 1197              		.loc 1 546 5 is_stmt 1 view .LVU425
 546:../Drivers/STM32_ExtMem_Manager/sal/stm32_sal_xspi.c **** 
 1198              		.loc 1 546 23 is_stmt 0 view .LVU426
 1199 0070 0023     		movs	r3, #0
 1200 0072 0793     		str	r3, [sp, #28]
 549:../Drivers/STM32_ExtMem_Manager/sal/stm32_sal_xspi.c ****     {
 1201              		.loc 1 549 5 is_stmt 1 view .LVU427
 549:../Drivers/STM32_ExtMem_Manager/sal/stm32_sal_xspi.c ****     {
 1202              		.loc 1 549 14 is_stmt 0 view .LVU428
 1203 0074 3378     		ldrb	r3, [r6]	@ zero_extendqisi2
 549:../Drivers/STM32_ExtMem_Manager/sal/stm32_sal_xspi.c ****     {
 1204              		.loc 1 549 8 view .LVU429
 1205 0076 C22B     		cmp	r3, #194
 1206 0078 04D0     		beq	.L76
 1207              	.L67:
 555:../Drivers/STM32_ExtMem_Manager/sal/stm32_sal_xspi.c ****     {
 1208              		.loc 1 555 10 is_stmt 1 view .LVU430
 555:../Drivers/STM32_ExtMem_Manager/sal/stm32_sal_xspi.c ****     {
 1209              		.loc 1 555 13 is_stmt 0 view .LVU431
 1210 007a C82B     		cmp	r3, #200
 1211 007c 0BD0     		beq	.L77
 1212              	.L68:
 562:../Drivers/STM32_ExtMem_Manager/sal/stm32_sal_xspi.c ****     }
 1213              		.loc 1 562 7 is_stmt 1 view .LVU432
 562:../Drivers/STM32_ExtMem_Manager/sal/stm32_sal_xspi.c ****     }
 1214              		.loc 1 562 29 is_stmt 0 view .LVU433
 1215 007e 0823     		movs	r3, #8
 1216 0080 1293     		str	r3, [sp, #72]
 1217 0082 E1E7     		b	.L64
 1218              	.L76:
 549:../Drivers/STM32_ExtMem_Manager/sal/stm32_sal_xspi.c ****     {
 1219              		.loc 1 549 40 discriminator 1 view .LVU434
 1220 0084 119A     		ldr	r2, [sp, #68]
 549:../Drivers/STM32_ExtMem_Manager/sal/stm32_sal_xspi.c ****     {
 1221              		.loc 1 549 27 discriminator 1 view .LVU435
 1222 0086 B2F1006F 		cmp	r2, #134217728
 1223 008a F6D1     		bne	.L67
 551:../Drivers/STM32_ExtMem_Manager/sal/stm32_sal_xspi.c ****       s_command.DataDTRMode       = HAL_XSPI_DATA_DTR_DISABLE;
 1224              		.loc 1 551 7 is_stmt 1 view .LVU436
 551:../Drivers/STM32_ExtMem_Manager/sal/stm32_sal_xspi.c ****       s_command.DataDTRMode       = HAL_XSPI_DATA_DTR_DISABLE;
 1225              		.loc 1 551 35 is_stmt 0 view .LVU437
 1226 008c 0423     		movs	r3, #4
 1227 008e 1293     		str	r3, [sp, #72]
 552:../Drivers/STM32_ExtMem_Manager/sal/stm32_sal_xspi.c ****     }
 1228              		.loc 1 552 7 is_stmt 1 view .LVU438
 552:../Drivers/STM32_ExtMem_Manager/sal/stm32_sal_xspi.c ****     }
 1229              		.loc 1 552 35 is_stmt 0 view .LVU439
 1230 0090 0023     		movs	r3, #0
 1231 0092 1193     		str	r3, [sp, #68]
 1232 0094 D8E7     		b	.L64
 1233              	.L77:
 555:../Drivers/STM32_ExtMem_Manager/sal/stm32_sal_xspi.c ****     {
 1234              		.loc 1 555 45 discriminator 1 view .LVU440
 1235 0096 119B     		ldr	r3, [sp, #68]
 555:../Drivers/STM32_ExtMem_Manager/sal/stm32_sal_xspi.c ****     {
ARM GAS  /tmp/ccuJg0Ev.s 			page 48


 1236              		.loc 1 555 32 discriminator 1 view .LVU441
 1237 0098 B3F1006F 		cmp	r3, #134217728
 1238 009c EFD1     		bne	.L68
 557:../Drivers/STM32_ExtMem_Manager/sal/stm32_sal_xspi.c ****       s_command.AddressMode       = HAL_XSPI_ADDRESS_NONE;
 1239              		.loc 1 557 7 is_stmt 1 view .LVU442
 557:../Drivers/STM32_ExtMem_Manager/sal/stm32_sal_xspi.c ****       s_command.AddressMode       = HAL_XSPI_ADDRESS_NONE;
 1240              		.loc 1 557 35 is_stmt 0 view .LVU443
 1241 009e 0823     		movs	r3, #8
 1242 00a0 1293     		str	r3, [sp, #72]
 558:../Drivers/STM32_ExtMem_Manager/sal/stm32_sal_xspi.c ****     }
 1243              		.loc 1 558 7 is_stmt 1 view .LVU444
 558:../Drivers/STM32_ExtMem_Manager/sal/stm32_sal_xspi.c ****     }
 1244              		.loc 1 558 35 is_stmt 0 view .LVU445
 1245 00a2 0023     		movs	r3, #0
 1246 00a4 0893     		str	r3, [sp, #32]
 1247 00a6 CFE7     		b	.L64
 1248              	.LVL75:
 1249              	.L75:
 580:../Drivers/STM32_ExtMem_Manager/sal/stm32_sal_xspi.c **** 
 1250              		.loc 1 580 3 is_stmt 1 view .LVU446
 580:../Drivers/STM32_ExtMem_Manager/sal/stm32_sal_xspi.c **** 
 1251              		.loc 1 580 10 is_stmt 0 view .LVU447
 1252 00a8 6422     		movs	r2, #100
 1253 00aa 3146     		mov	r1, r6
 1254 00ac 2068     		ldr	r0, [r4]
 1255              	.LVL76:
 580:../Drivers/STM32_ExtMem_Manager/sal/stm32_sal_xspi.c **** 
 1256              		.loc 1 580 10 view .LVU448
 1257 00ae FFF7FEFF 		bl	HAL_XSPI_Receive
 1258              	.LVL77:
 1259              	.LDL2:
 583:../Drivers/STM32_ExtMem_Manager/sal/stm32_sal_xspi.c ****   {
 1260              		.loc 1 583 3 is_stmt 1 view .LVU449
 583:../Drivers/STM32_ExtMem_Manager/sal/stm32_sal_xspi.c ****   {
 1261              		.loc 1 583 6 is_stmt 0 view .LVU450
 1262 00b2 0546     		mov	r5, r0
 1263 00b4 0028     		cmp	r0, #0
 1264 00b6 D1D0     		beq	.L70
 1265 00b8 CDE7     		b	.L69
 1266              		.cfi_endproc
 1267              	.LFE885:
 1269              		.section	.text.SAL_XSPI_CommandSendAddress,"ax",%progbits
 1270              		.align	1
 1271              		.global	SAL_XSPI_CommandSendAddress
 1272              		.syntax unified
 1273              		.thumb
 1274              		.thumb_func
 1276              	SAL_XSPI_CommandSendAddress:
 1277              	.LVL78:
 1278              	.LFB888:
 705:../Drivers/STM32_ExtMem_Manager/sal/stm32_sal_xspi.c ****   HAL_StatusTypeDef retr;
 1279              		.loc 1 705 1 is_stmt 1 view -0
 1280              		.cfi_startproc
 1281              		@ args = 0, pretend = 0, frame = 80
 1282              		@ frame_needed = 0, uses_anonymous_args = 0
 705:../Drivers/STM32_ExtMem_Manager/sal/stm32_sal_xspi.c ****   HAL_StatusTypeDef retr;
 1283              		.loc 1 705 1 is_stmt 0 view .LVU452
ARM GAS  /tmp/ccuJg0Ev.s 			page 49


 1284 0000 70B5     		push	{r4, r5, r6, lr}
 1285              	.LCFI19:
 1286              		.cfi_def_cfa_offset 16
 1287              		.cfi_offset 4, -16
 1288              		.cfi_offset 5, -12
 1289              		.cfi_offset 6, -8
 1290              		.cfi_offset 14, -4
 1291 0002 94B0     		sub	sp, sp, #80
 1292              	.LCFI20:
 1293              		.cfi_def_cfa_offset 96
 1294 0004 0446     		mov	r4, r0
 1295 0006 0D46     		mov	r5, r1
 1296 0008 1646     		mov	r6, r2
 706:../Drivers/STM32_ExtMem_Manager/sal/stm32_sal_xspi.c ****   XSPI_RegularCmdTypeDef s_command = SalXspi->Commandbase;
 1297              		.loc 1 706 3 is_stmt 1 view .LVU453
 707:../Drivers/STM32_ExtMem_Manager/sal/stm32_sal_xspi.c **** 
 1298              		.loc 1 707 3 view .LVU454
 707:../Drivers/STM32_ExtMem_Manager/sal/stm32_sal_xspi.c **** 
 1299              		.loc 1 707 26 is_stmt 0 view .LVU455
 1300 000a 4C22     		movs	r2, #76
 1301              	.LVL79:
 707:../Drivers/STM32_ExtMem_Manager/sal/stm32_sal_xspi.c **** 
 1302              		.loc 1 707 26 view .LVU456
 1303 000c 011D     		adds	r1, r0, #4
 1304              	.LVL80:
 707:../Drivers/STM32_ExtMem_Manager/sal/stm32_sal_xspi.c **** 
 1305              		.loc 1 707 26 view .LVU457
 1306 000e 01A8     		add	r0, sp, #4
 1307              	.LVL81:
 707:../Drivers/STM32_ExtMem_Manager/sal/stm32_sal_xspi.c **** 
 1308              		.loc 1 707 26 view .LVU458
 1309 0010 FFF7FEFF 		bl	memcpy
 1310              	.LVL82:
 710:../Drivers/STM32_ExtMem_Manager/sal/stm32_sal_xspi.c **** 
 1311              		.loc 1 710 3 is_stmt 1 view .LVU459
 710:../Drivers/STM32_ExtMem_Manager/sal/stm32_sal_xspi.c **** 
 1312              		.loc 1 710 27 is_stmt 0 view .LVU460
 1313 0014 2A46     		mov	r2, r5
 1314 0016 0599     		ldr	r1, [sp, #20]
 1315 0018 94F85000 		ldrb	r0, [r4, #80]	@ zero_extendqisi2
 1316 001c FFF7FEFF 		bl	XSPI_FormatCommand
 1317              	.LVL83:
 710:../Drivers/STM32_ExtMem_Manager/sal/stm32_sal_xspi.c **** 
 1318              		.loc 1 710 25 discriminator 1 view .LVU461
 1319 0020 0390     		str	r0, [sp, #12]
 712:../Drivers/STM32_ExtMem_Manager/sal/stm32_sal_xspi.c ****   {
 1320              		.loc 1 712 3 is_stmt 1 view .LVU462
 712:../Drivers/STM32_ExtMem_Manager/sal/stm32_sal_xspi.c ****   {
 1321              		.loc 1 712 16 is_stmt 0 view .LVU463
 1322 0022 049B     		ldr	r3, [sp, #16]
 712:../Drivers/STM32_ExtMem_Manager/sal/stm32_sal_xspi.c ****   {
 1323              		.loc 1 712 6 view .LVU464
 1324 0024 012B     		cmp	r3, #1
 1325 0026 0ED0     		beq	.L82
 1326              	.L79:
 717:../Drivers/STM32_ExtMem_Manager/sal/stm32_sal_xspi.c ****   s_command.DummyCycles       = 0U;
 1327              		.loc 1 717 3 is_stmt 1 view .LVU465
ARM GAS  /tmp/ccuJg0Ev.s 			page 50


 717:../Drivers/STM32_ExtMem_Manager/sal/stm32_sal_xspi.c ****   s_command.DummyCycles       = 0U;
 1328              		.loc 1 717 31 is_stmt 0 view .LVU466
 1329 0028 0796     		str	r6, [sp, #28]
 718:../Drivers/STM32_ExtMem_Manager/sal/stm32_sal_xspi.c ****   s_command.DataMode          = HAL_XSPI_DATA_NONE;
 1330              		.loc 1 718 3 is_stmt 1 view .LVU467
 718:../Drivers/STM32_ExtMem_Manager/sal/stm32_sal_xspi.c ****   s_command.DataMode          = HAL_XSPI_DATA_NONE;
 1331              		.loc 1 718 31 is_stmt 0 view .LVU468
 1332 002a 0023     		movs	r3, #0
 1333 002c 1293     		str	r3, [sp, #72]
 719:../Drivers/STM32_ExtMem_Manager/sal/stm32_sal_xspi.c ****   s_command.DQSMode           = HAL_XSPI_DQS_DISABLE;
 1334              		.loc 1 719 3 is_stmt 1 view .LVU469
 719:../Drivers/STM32_ExtMem_Manager/sal/stm32_sal_xspi.c ****   s_command.DQSMode           = HAL_XSPI_DQS_DISABLE;
 1335              		.loc 1 719 31 is_stmt 0 view .LVU470
 1336 002e 0F93     		str	r3, [sp, #60]
 720:../Drivers/STM32_ExtMem_Manager/sal/stm32_sal_xspi.c **** 
 1337              		.loc 1 720 3 is_stmt 1 view .LVU471
 720:../Drivers/STM32_ExtMem_Manager/sal/stm32_sal_xspi.c **** 
 1338              		.loc 1 720 31 is_stmt 0 view .LVU472
 1339 0030 1393     		str	r3, [sp, #76]
 723:../Drivers/STM32_ExtMem_Manager/sal/stm32_sal_xspi.c ****   if (retr != HAL_OK)
 1340              		.loc 1 723 3 is_stmt 1 view .LVU473
 723:../Drivers/STM32_ExtMem_Manager/sal/stm32_sal_xspi.c ****   if (retr != HAL_OK)
 1341              		.loc 1 723 10 is_stmt 0 view .LVU474
 1342 0032 6422     		movs	r2, #100
 1343 0034 01A9     		add	r1, sp, #4
 1344 0036 2068     		ldr	r0, [r4]
 1345 0038 FFF7FEFF 		bl	HAL_XSPI_Command
 1346              	.LVL84:
 724:../Drivers/STM32_ExtMem_Manager/sal/stm32_sal_xspi.c ****   {
 1347              		.loc 1 724 3 is_stmt 1 view .LVU475
 724:../Drivers/STM32_ExtMem_Manager/sal/stm32_sal_xspi.c ****   {
 1348              		.loc 1 724 6 is_stmt 0 view .LVU476
 1349 003c 0546     		mov	r5, r0
 1350              	.LVL85:
 724:../Drivers/STM32_ExtMem_Manager/sal/stm32_sal_xspi.c ****   {
 1351              		.loc 1 724 6 view .LVU477
 1352 003e 30B9     		cbnz	r0, .L83
 1353              	.LVL86:
 1354              	.L80:
 729:../Drivers/STM32_ExtMem_Manager/sal/stm32_sal_xspi.c **** }
 1355              		.loc 1 729 3 is_stmt 1 view .LVU478
 730:../Drivers/STM32_ExtMem_Manager/sal/stm32_sal_xspi.c **** 
 1356              		.loc 1 730 1 is_stmt 0 view .LVU479
 1357 0040 2846     		mov	r0, r5
 1358 0042 14B0     		add	sp, sp, #80
 1359              	.LCFI21:
 1360              		.cfi_remember_state
 1361              		.cfi_def_cfa_offset 16
 1362              		@ sp needed
 1363 0044 70BD     		pop	{r4, r5, r6, pc}
 1364              	.LVL87:
 1365              	.L82:
 1366              	.LCFI22:
 1367              		.cfi_restore_state
 714:../Drivers/STM32_ExtMem_Manager/sal/stm32_sal_xspi.c ****   }
 1368              		.loc 1 714 5 is_stmt 1 view .LVU480
 714:../Drivers/STM32_ExtMem_Manager/sal/stm32_sal_xspi.c ****   }
ARM GAS  /tmp/ccuJg0Ev.s 			page 51


 1369              		.loc 1 714 27 is_stmt 0 view .LVU481
 1370 0046 4FF48073 		mov	r3, #256
 1371 004a 0893     		str	r3, [sp, #32]
 1372 004c ECE7     		b	.L79
 1373              	.LVL88:
 1374              	.L83:
 727:../Drivers/STM32_ExtMem_Manager/sal/stm32_sal_xspi.c ****   }
 1375              		.loc 1 727 5 is_stmt 1 view .LVU482
 727:../Drivers/STM32_ExtMem_Manager/sal/stm32_sal_xspi.c ****   }
 1376              		.loc 1 727 11 is_stmt 0 view .LVU483
 1377 004e 2068     		ldr	r0, [r4]
 1378              	.LVL89:
 727:../Drivers/STM32_ExtMem_Manager/sal/stm32_sal_xspi.c ****   }
 1379              		.loc 1 727 11 view .LVU484
 1380 0050 FFF7FEFF 		bl	HAL_XSPI_Abort
 1381              	.LVL90:
 1382 0054 F4E7     		b	.L80
 1383              		.cfi_endproc
 1384              	.LFE888:
 1386              		.section	.text.SAL_XSPI_CommandSendData,"ax",%progbits
 1387              		.align	1
 1388              		.global	SAL_XSPI_CommandSendData
 1389              		.syntax unified
 1390              		.thumb
 1391              		.thumb_func
 1393              	SAL_XSPI_CommandSendData:
 1394              	.LVL91:
 1395              	.LFB889:
 742:../Drivers/STM32_ExtMem_Manager/sal/stm32_sal_xspi.c ****   XSPI_RegularCmdTypeDef   s_command = SalXspi->Commandbase;
 1396              		.loc 1 742 1 is_stmt 1 view -0
 1397              		.cfi_startproc
 1398              		@ args = 0, pretend = 0, frame = 80
 1399              		@ frame_needed = 0, uses_anonymous_args = 0
 742:../Drivers/STM32_ExtMem_Manager/sal/stm32_sal_xspi.c ****   XSPI_RegularCmdTypeDef   s_command = SalXspi->Commandbase;
 1400              		.loc 1 742 1 is_stmt 0 view .LVU486
 1401 0000 F0B5     		push	{r4, r5, r6, r7, lr}
 1402              	.LCFI23:
 1403              		.cfi_def_cfa_offset 20
 1404              		.cfi_offset 4, -20
 1405              		.cfi_offset 5, -16
 1406              		.cfi_offset 6, -12
 1407              		.cfi_offset 7, -8
 1408              		.cfi_offset 14, -4
 1409 0002 95B0     		sub	sp, sp, #84
 1410              	.LCFI24:
 1411              		.cfi_def_cfa_offset 104
 1412 0004 0446     		mov	r4, r0
 1413 0006 0E46     		mov	r6, r1
 1414 0008 1746     		mov	r7, r2
 1415 000a 1D46     		mov	r5, r3
 743:../Drivers/STM32_ExtMem_Manager/sal/stm32_sal_xspi.c ****   HAL_StatusTypeDef retr;
 1416              		.loc 1 743 3 is_stmt 1 view .LVU487
 743:../Drivers/STM32_ExtMem_Manager/sal/stm32_sal_xspi.c ****   HAL_StatusTypeDef retr;
 1417              		.loc 1 743 28 is_stmt 0 view .LVU488
 1418 000c 4C22     		movs	r2, #76
 1419              	.LVL92:
 743:../Drivers/STM32_ExtMem_Manager/sal/stm32_sal_xspi.c ****   HAL_StatusTypeDef retr;
ARM GAS  /tmp/ccuJg0Ev.s 			page 52


 1420              		.loc 1 743 28 view .LVU489
 1421 000e 011D     		adds	r1, r0, #4
 1422              	.LVL93:
 743:../Drivers/STM32_ExtMem_Manager/sal/stm32_sal_xspi.c ****   HAL_StatusTypeDef retr;
 1423              		.loc 1 743 28 view .LVU490
 1424 0010 01A8     		add	r0, sp, #4
 1425              	.LVL94:
 743:../Drivers/STM32_ExtMem_Manager/sal/stm32_sal_xspi.c ****   HAL_StatusTypeDef retr;
 1426              		.loc 1 743 28 view .LVU491
 1427 0012 FFF7FEFF 		bl	memcpy
 1428              	.LVL95:
 744:../Drivers/STM32_ExtMem_Manager/sal/stm32_sal_xspi.c **** 
 1429              		.loc 1 744 3 is_stmt 1 view .LVU492
 747:../Drivers/STM32_ExtMem_Manager/sal/stm32_sal_xspi.c **** 
 1430              		.loc 1 747 3 view .LVU493
 747:../Drivers/STM32_ExtMem_Manager/sal/stm32_sal_xspi.c **** 
 1431              		.loc 1 747 27 is_stmt 0 view .LVU494
 1432 0016 3246     		mov	r2, r6
 1433 0018 0599     		ldr	r1, [sp, #20]
 1434 001a 94F85000 		ldrb	r0, [r4, #80]	@ zero_extendqisi2
 1435 001e FFF7FEFF 		bl	XSPI_FormatCommand
 1436              	.LVL96:
 747:../Drivers/STM32_ExtMem_Manager/sal/stm32_sal_xspi.c **** 
 1437              		.loc 1 747 25 discriminator 1 view .LVU495
 1438 0022 0390     		str	r0, [sp, #12]
 749:../Drivers/STM32_ExtMem_Manager/sal/stm32_sal_xspi.c ****   s_command.DummyCycles        = 0U;
 1439              		.loc 1 749 3 is_stmt 1 view .LVU496
 749:../Drivers/STM32_ExtMem_Manager/sal/stm32_sal_xspi.c ****   s_command.DummyCycles        = 0U;
 1440              		.loc 1 749 32 is_stmt 0 view .LVU497
 1441 0024 0023     		movs	r3, #0
 1442 0026 0893     		str	r3, [sp, #32]
 750:../Drivers/STM32_ExtMem_Manager/sal/stm32_sal_xspi.c ****   s_command.DataLength         = DataSize;
 1443              		.loc 1 750 3 is_stmt 1 view .LVU498
 750:../Drivers/STM32_ExtMem_Manager/sal/stm32_sal_xspi.c ****   s_command.DataLength         = DataSize;
 1444              		.loc 1 750 32 is_stmt 0 view .LVU499
 1445 0028 1293     		str	r3, [sp, #72]
 751:../Drivers/STM32_ExtMem_Manager/sal/stm32_sal_xspi.c ****   s_command.DQSMode            = HAL_XSPI_DQS_DISABLE;
 1446              		.loc 1 751 3 is_stmt 1 view .LVU500
 751:../Drivers/STM32_ExtMem_Manager/sal/stm32_sal_xspi.c ****   s_command.DQSMode            = HAL_XSPI_DQS_DISABLE;
 1447              		.loc 1 751 32 is_stmt 0 view .LVU501
 1448 002a 1095     		str	r5, [sp, #64]
 752:../Drivers/STM32_ExtMem_Manager/sal/stm32_sal_xspi.c **** 
 1449              		.loc 1 752 3 is_stmt 1 view .LVU502
 752:../Drivers/STM32_ExtMem_Manager/sal/stm32_sal_xspi.c **** 
 1450              		.loc 1 752 32 is_stmt 0 view .LVU503
 1451 002c 1393     		str	r3, [sp, #76]
 754:../Drivers/STM32_ExtMem_Manager/sal/stm32_sal_xspi.c ****   {
 1452              		.loc 1 754 3 is_stmt 1 view .LVU504
 754:../Drivers/STM32_ExtMem_Manager/sal/stm32_sal_xspi.c ****   {
 1453              		.loc 1 754 6 is_stmt 0 view .LVU505
 1454 002e 05B9     		cbnz	r5, .L85
 756:../Drivers/STM32_ExtMem_Manager/sal/stm32_sal_xspi.c ****   }
 1455              		.loc 1 756 5 is_stmt 1 view .LVU506
 756:../Drivers/STM32_ExtMem_Manager/sal/stm32_sal_xspi.c ****   }
 1456              		.loc 1 756 32 is_stmt 0 view .LVU507
 1457 0030 0F95     		str	r5, [sp, #60]
 1458              	.L85:
ARM GAS  /tmp/ccuJg0Ev.s 			page 53


 760:../Drivers/STM32_ExtMem_Manager/sal/stm32_sal_xspi.c **** 
 1459              		.loc 1 760 3 is_stmt 1 view .LVU508
 760:../Drivers/STM32_ExtMem_Manager/sal/stm32_sal_xspi.c **** 
 1460              		.loc 1 760 10 is_stmt 0 view .LVU509
 1461 0032 6422     		movs	r2, #100
 1462 0034 01A9     		add	r1, sp, #4
 1463 0036 2068     		ldr	r0, [r4]
 1464 0038 FFF7FEFF 		bl	HAL_XSPI_Command
 1465              	.LVL97:
 762:../Drivers/STM32_ExtMem_Manager/sal/stm32_sal_xspi.c ****   {
 1466              		.loc 1 762 3 is_stmt 1 view .LVU510
 762:../Drivers/STM32_ExtMem_Manager/sal/stm32_sal_xspi.c ****   {
 1467              		.loc 1 762 6 is_stmt 0 view .LVU511
 1468 003c 0646     		mov	r6, r0
 1469              	.LVL98:
 762:../Drivers/STM32_ExtMem_Manager/sal/stm32_sal_xspi.c ****   {
 1470              		.loc 1 762 6 view .LVU512
 1471 003e 08B9     		cbnz	r0, .L86
 762:../Drivers/STM32_ExtMem_Manager/sal/stm32_sal_xspi.c ****   {
 1472              		.loc 1 762 24 discriminator 1 view .LVU513
 1473 0040 35B9     		cbnz	r5, .L90
 1474              	.LVL99:
 1475              	.L87:
 767:../Drivers/STM32_ExtMem_Manager/sal/stm32_sal_xspi.c ****   {
 1476              		.loc 1 767 3 is_stmt 1 view .LVU514
 767:../Drivers/STM32_ExtMem_Manager/sal/stm32_sal_xspi.c ****   {
 1477              		.loc 1 767 6 is_stmt 0 view .LVU515
 1478 0042 16B1     		cbz	r6, .L88
 1479              	.LVL100:
 1480              	.L86:
 770:../Drivers/STM32_ExtMem_Manager/sal/stm32_sal_xspi.c ****   }
 1481              		.loc 1 770 5 is_stmt 1 view .LVU516
 770:../Drivers/STM32_ExtMem_Manager/sal/stm32_sal_xspi.c ****   }
 1482              		.loc 1 770 11 is_stmt 0 view .LVU517
 1483 0044 2068     		ldr	r0, [r4]
 1484 0046 FFF7FEFF 		bl	HAL_XSPI_Abort
 1485              	.LVL101:
 1486              	.L88:
 772:../Drivers/STM32_ExtMem_Manager/sal/stm32_sal_xspi.c **** }
 1487              		.loc 1 772 3 is_stmt 1 view .LVU518
 773:../Drivers/STM32_ExtMem_Manager/sal/stm32_sal_xspi.c **** 
 1488              		.loc 1 773 1 is_stmt 0 view .LVU519
 1489 004a 3046     		mov	r0, r6
 1490 004c 15B0     		add	sp, sp, #84
 1491              	.LCFI25:
 1492              		.cfi_remember_state
 1493              		.cfi_def_cfa_offset 20
 1494              		@ sp needed
 1495 004e F0BD     		pop	{r4, r5, r6, r7, pc}
 1496              	.LVL102:
 1497              	.L90:
 1498              	.LCFI26:
 1499              		.cfi_restore_state
 764:../Drivers/STM32_ExtMem_Manager/sal/stm32_sal_xspi.c ****   }
 1500              		.loc 1 764 5 is_stmt 1 view .LVU520
 764:../Drivers/STM32_ExtMem_Manager/sal/stm32_sal_xspi.c ****   }
 1501              		.loc 1 764 12 is_stmt 0 view .LVU521
ARM GAS  /tmp/ccuJg0Ev.s 			page 54


 1502 0050 6422     		movs	r2, #100
 1503 0052 3946     		mov	r1, r7
 1504 0054 2068     		ldr	r0, [r4]
 1505              	.LVL103:
 764:../Drivers/STM32_ExtMem_Manager/sal/stm32_sal_xspi.c ****   }
 1506              		.loc 1 764 12 view .LVU522
 1507 0056 FFF7FEFF 		bl	HAL_XSPI_Transmit
 1508              	.LVL104:
 1509 005a 0646     		mov	r6, r0
 1510              	.LVL105:
 764:../Drivers/STM32_ExtMem_Manager/sal/stm32_sal_xspi.c ****   }
 1511              		.loc 1 764 12 view .LVU523
 1512 005c F1E7     		b	.L87
 1513              		.cfi_endproc
 1514              	.LFE889:
 1516              		.section	.text.SAL_XSPI_SendReadCommand,"ax",%progbits
 1517              		.align	1
 1518              		.global	SAL_XSPI_SendReadCommand
 1519              		.syntax unified
 1520              		.thumb
 1521              		.thumb_func
 1523              	SAL_XSPI_SendReadCommand:
 1524              	.LVL106:
 1525              	.LFB890:
 785:../Drivers/STM32_ExtMem_Manager/sal/stm32_sal_xspi.c ****   XSPI_RegularCmdTypeDef   s_command = SalXspi->Commandbase;
 1526              		.loc 1 785 1 is_stmt 1 view -0
 1527              		.cfi_startproc
 1528              		@ args = 0, pretend = 0, frame = 80
 1529              		@ frame_needed = 0, uses_anonymous_args = 0
 785:../Drivers/STM32_ExtMem_Manager/sal/stm32_sal_xspi.c ****   XSPI_RegularCmdTypeDef   s_command = SalXspi->Commandbase;
 1530              		.loc 1 785 1 is_stmt 0 view .LVU525
 1531 0000 F0B5     		push	{r4, r5, r6, r7, lr}
 1532              	.LCFI27:
 1533              		.cfi_def_cfa_offset 20
 1534              		.cfi_offset 4, -20
 1535              		.cfi_offset 5, -16
 1536              		.cfi_offset 6, -12
 1537              		.cfi_offset 7, -8
 1538              		.cfi_offset 14, -4
 1539 0002 95B0     		sub	sp, sp, #84
 1540              	.LCFI28:
 1541              		.cfi_def_cfa_offset 104
 1542 0004 0446     		mov	r4, r0
 1543 0006 0E46     		mov	r6, r1
 1544 0008 1746     		mov	r7, r2
 1545 000a 1D46     		mov	r5, r3
 786:../Drivers/STM32_ExtMem_Manager/sal/stm32_sal_xspi.c ****   HAL_StatusTypeDef retr;
 1546              		.loc 1 786 3 is_stmt 1 view .LVU526
 786:../Drivers/STM32_ExtMem_Manager/sal/stm32_sal_xspi.c ****   HAL_StatusTypeDef retr;
 1547              		.loc 1 786 28 is_stmt 0 view .LVU527
 1548 000c 4C22     		movs	r2, #76
 1549              	.LVL107:
 786:../Drivers/STM32_ExtMem_Manager/sal/stm32_sal_xspi.c ****   HAL_StatusTypeDef retr;
 1550              		.loc 1 786 28 view .LVU528
 1551 000e 011D     		adds	r1, r0, #4
 1552              	.LVL108:
 786:../Drivers/STM32_ExtMem_Manager/sal/stm32_sal_xspi.c ****   HAL_StatusTypeDef retr;
ARM GAS  /tmp/ccuJg0Ev.s 			page 55


 1553              		.loc 1 786 28 view .LVU529
 1554 0010 01A8     		add	r0, sp, #4
 1555              	.LVL109:
 786:../Drivers/STM32_ExtMem_Manager/sal/stm32_sal_xspi.c ****   HAL_StatusTypeDef retr;
 1556              		.loc 1 786 28 view .LVU530
 1557 0012 FFF7FEFF 		bl	memcpy
 1558              	.LVL110:
 787:../Drivers/STM32_ExtMem_Manager/sal/stm32_sal_xspi.c **** 
 1559              		.loc 1 787 3 is_stmt 1 view .LVU531
 790:../Drivers/STM32_ExtMem_Manager/sal/stm32_sal_xspi.c **** 
 1560              		.loc 1 790 3 view .LVU532
 790:../Drivers/STM32_ExtMem_Manager/sal/stm32_sal_xspi.c **** 
 1561              		.loc 1 790 27 is_stmt 0 view .LVU533
 1562 0016 3246     		mov	r2, r6
 1563 0018 0599     		ldr	r1, [sp, #20]
 1564 001a 94F85000 		ldrb	r0, [r4, #80]	@ zero_extendqisi2
 1565 001e FFF7FEFF 		bl	XSPI_FormatCommand
 1566              	.LVL111:
 790:../Drivers/STM32_ExtMem_Manager/sal/stm32_sal_xspi.c **** 
 1567              		.loc 1 790 25 discriminator 1 view .LVU534
 1568 0022 0390     		str	r0, [sp, #12]
 792:../Drivers/STM32_ExtMem_Manager/sal/stm32_sal_xspi.c ****   s_command.DummyCycles        = 0u;
 1569              		.loc 1 792 3 is_stmt 1 view .LVU535
 792:../Drivers/STM32_ExtMem_Manager/sal/stm32_sal_xspi.c ****   s_command.DummyCycles        = 0u;
 1570              		.loc 1 792 32 is_stmt 0 view .LVU536
 1571 0024 0023     		movs	r3, #0
 1572 0026 0893     		str	r3, [sp, #32]
 793:../Drivers/STM32_ExtMem_Manager/sal/stm32_sal_xspi.c ****   s_command.DataLength         = DataSize;
 1573              		.loc 1 793 3 is_stmt 1 view .LVU537
 793:../Drivers/STM32_ExtMem_Manager/sal/stm32_sal_xspi.c ****   s_command.DataLength         = DataSize;
 1574              		.loc 1 793 32 is_stmt 0 view .LVU538
 1575 0028 1293     		str	r3, [sp, #72]
 794:../Drivers/STM32_ExtMem_Manager/sal/stm32_sal_xspi.c ****   s_command.DQSMode            = HAL_XSPI_DQS_DISABLE;
 1576              		.loc 1 794 3 is_stmt 1 view .LVU539
 794:../Drivers/STM32_ExtMem_Manager/sal/stm32_sal_xspi.c ****   s_command.DQSMode            = HAL_XSPI_DQS_DISABLE;
 1577              		.loc 1 794 32 is_stmt 0 view .LVU540
 1578 002a 1095     		str	r5, [sp, #64]
 795:../Drivers/STM32_ExtMem_Manager/sal/stm32_sal_xspi.c **** 
 1579              		.loc 1 795 3 is_stmt 1 view .LVU541
 795:../Drivers/STM32_ExtMem_Manager/sal/stm32_sal_xspi.c **** 
 1580              		.loc 1 795 32 is_stmt 0 view .LVU542
 1581 002c 1393     		str	r3, [sp, #76]
 797:../Drivers/STM32_ExtMem_Manager/sal/stm32_sal_xspi.c ****   {
 1582              		.loc 1 797 3 is_stmt 1 view .LVU543
 797:../Drivers/STM32_ExtMem_Manager/sal/stm32_sal_xspi.c ****   {
 1583              		.loc 1 797 6 is_stmt 0 view .LVU544
 1584 002e 05B9     		cbnz	r5, .L92
 799:../Drivers/STM32_ExtMem_Manager/sal/stm32_sal_xspi.c ****   }
 1585              		.loc 1 799 5 is_stmt 1 view .LVU545
 799:../Drivers/STM32_ExtMem_Manager/sal/stm32_sal_xspi.c ****   }
 1586              		.loc 1 799 32 is_stmt 0 view .LVU546
 1587 0030 0F95     		str	r5, [sp, #60]
 1588              	.L92:
 803:../Drivers/STM32_ExtMem_Manager/sal/stm32_sal_xspi.c **** 
 1589              		.loc 1 803 3 is_stmt 1 view .LVU547
 803:../Drivers/STM32_ExtMem_Manager/sal/stm32_sal_xspi.c **** 
 1590              		.loc 1 803 10 is_stmt 0 view .LVU548
ARM GAS  /tmp/ccuJg0Ev.s 			page 56


 1591 0032 6422     		movs	r2, #100
 1592 0034 01A9     		add	r1, sp, #4
 1593 0036 2068     		ldr	r0, [r4]
 1594 0038 FFF7FEFF 		bl	HAL_XSPI_Command
 1595              	.LVL112:
 805:../Drivers/STM32_ExtMem_Manager/sal/stm32_sal_xspi.c ****   {
 1596              		.loc 1 805 3 is_stmt 1 view .LVU549
 805:../Drivers/STM32_ExtMem_Manager/sal/stm32_sal_xspi.c ****   {
 1597              		.loc 1 805 6 is_stmt 0 view .LVU550
 1598 003c 0646     		mov	r6, r0
 1599              	.LVL113:
 805:../Drivers/STM32_ExtMem_Manager/sal/stm32_sal_xspi.c ****   {
 1600              		.loc 1 805 6 view .LVU551
 1601 003e 08B9     		cbnz	r0, .L93
 805:../Drivers/STM32_ExtMem_Manager/sal/stm32_sal_xspi.c ****   {
 1602              		.loc 1 805 24 discriminator 1 view .LVU552
 1603 0040 35B9     		cbnz	r5, .L97
 1604              	.LVL114:
 1605              	.L94:
 811:../Drivers/STM32_ExtMem_Manager/sal/stm32_sal_xspi.c ****   {
 1606              		.loc 1 811 3 is_stmt 1 view .LVU553
 811:../Drivers/STM32_ExtMem_Manager/sal/stm32_sal_xspi.c ****   {
 1607              		.loc 1 811 6 is_stmt 0 view .LVU554
 1608 0042 16B1     		cbz	r6, .L95
 1609              	.LVL115:
 1610              	.L93:
 814:../Drivers/STM32_ExtMem_Manager/sal/stm32_sal_xspi.c ****   }
 1611              		.loc 1 814 5 is_stmt 1 view .LVU555
 814:../Drivers/STM32_ExtMem_Manager/sal/stm32_sal_xspi.c ****   }
 1612              		.loc 1 814 11 is_stmt 0 view .LVU556
 1613 0044 2068     		ldr	r0, [r4]
 1614 0046 FFF7FEFF 		bl	HAL_XSPI_Abort
 1615              	.LVL116:
 1616              	.L95:
 816:../Drivers/STM32_ExtMem_Manager/sal/stm32_sal_xspi.c **** }
 1617              		.loc 1 816 3 is_stmt 1 view .LVU557
 817:../Drivers/STM32_ExtMem_Manager/sal/stm32_sal_xspi.c **** 
 1618              		.loc 1 817 1 is_stmt 0 view .LVU558
 1619 004a 3046     		mov	r0, r6
 1620 004c 15B0     		add	sp, sp, #84
 1621              	.LCFI29:
 1622              		.cfi_remember_state
 1623              		.cfi_def_cfa_offset 20
 1624              		@ sp needed
 1625 004e F0BD     		pop	{r4, r5, r6, r7, pc}
 1626              	.LVL117:
 1627              	.L97:
 1628              	.LCFI30:
 1629              		.cfi_restore_state
 808:../Drivers/STM32_ExtMem_Manager/sal/stm32_sal_xspi.c ****   }
 1630              		.loc 1 808 5 is_stmt 1 view .LVU559
 808:../Drivers/STM32_ExtMem_Manager/sal/stm32_sal_xspi.c ****   }
 1631              		.loc 1 808 12 is_stmt 0 view .LVU560
 1632 0050 6422     		movs	r2, #100
 1633 0052 3946     		mov	r1, r7
 1634 0054 2068     		ldr	r0, [r4]
 1635              	.LVL118:
ARM GAS  /tmp/ccuJg0Ev.s 			page 57


 808:../Drivers/STM32_ExtMem_Manager/sal/stm32_sal_xspi.c ****   }
 1636              		.loc 1 808 12 view .LVU561
 1637 0056 FFF7FEFF 		bl	HAL_XSPI_Receive
 1638              	.LVL119:
 1639 005a 0646     		mov	r6, r0
 1640              	.LVL120:
 808:../Drivers/STM32_ExtMem_Manager/sal/stm32_sal_xspi.c ****   }
 1641              		.loc 1 808 12 view .LVU562
 1642 005c F1E7     		b	.L94
 1643              		.cfi_endproc
 1644              	.LFE890:
 1646              		.section	.text.SAL_XSPI_CommandSendReadAddress,"ax",%progbits
 1647              		.align	1
 1648              		.global	SAL_XSPI_CommandSendReadAddress
 1649              		.syntax unified
 1650              		.thumb
 1651              		.thumb_func
 1653              	SAL_XSPI_CommandSendReadAddress:
 1654              	.LVL121:
 1655              	.LFB891:
 832:../Drivers/STM32_ExtMem_Manager/sal/stm32_sal_xspi.c ****   XSPI_RegularCmdTypeDef   s_command = SalXspi->Commandbase;
 1656              		.loc 1 832 1 is_stmt 1 view -0
 1657              		.cfi_startproc
 1658              		@ args = 8, pretend = 0, frame = 80
 1659              		@ frame_needed = 0, uses_anonymous_args = 0
 832:../Drivers/STM32_ExtMem_Manager/sal/stm32_sal_xspi.c ****   XSPI_RegularCmdTypeDef   s_command = SalXspi->Commandbase;
 1660              		.loc 1 832 1 is_stmt 0 view .LVU564
 1661 0000 2DE9F041 		push	{r4, r5, r6, r7, r8, lr}
 1662              	.LCFI31:
 1663              		.cfi_def_cfa_offset 24
 1664              		.cfi_offset 4, -24
 1665              		.cfi_offset 5, -20
 1666              		.cfi_offset 6, -16
 1667              		.cfi_offset 7, -12
 1668              		.cfi_offset 8, -8
 1669              		.cfi_offset 14, -4
 1670 0004 94B0     		sub	sp, sp, #80
 1671              	.LCFI32:
 1672              		.cfi_def_cfa_offset 104
 1673 0006 0446     		mov	r4, r0
 1674 0008 0F46     		mov	r7, r1
 1675 000a 1646     		mov	r6, r2
 1676 000c 9846     		mov	r8, r3
 1677 000e 9DF86C50 		ldrb	r5, [sp, #108]	@ zero_extendqisi2
 833:../Drivers/STM32_ExtMem_Manager/sal/stm32_sal_xspi.c ****   HAL_StatusTypeDef retr;
 1678              		.loc 1 833 3 is_stmt 1 view .LVU565
 833:../Drivers/STM32_ExtMem_Manager/sal/stm32_sal_xspi.c ****   HAL_StatusTypeDef retr;
 1679              		.loc 1 833 28 is_stmt 0 view .LVU566
 1680 0012 4C22     		movs	r2, #76
 1681              	.LVL122:
 833:../Drivers/STM32_ExtMem_Manager/sal/stm32_sal_xspi.c ****   HAL_StatusTypeDef retr;
 1682              		.loc 1 833 28 view .LVU567
 1683 0014 011D     		adds	r1, r0, #4
 1684              	.LVL123:
 833:../Drivers/STM32_ExtMem_Manager/sal/stm32_sal_xspi.c ****   HAL_StatusTypeDef retr;
 1685              		.loc 1 833 28 view .LVU568
 1686 0016 01A8     		add	r0, sp, #4
ARM GAS  /tmp/ccuJg0Ev.s 			page 58


 1687              	.LVL124:
 833:../Drivers/STM32_ExtMem_Manager/sal/stm32_sal_xspi.c ****   HAL_StatusTypeDef retr;
 1688              		.loc 1 833 28 view .LVU569
 1689 0018 FFF7FEFF 		bl	memcpy
 1690              	.LVL125:
 834:../Drivers/STM32_ExtMem_Manager/sal/stm32_sal_xspi.c **** 
 1691              		.loc 1 834 3 is_stmt 1 view .LVU570
 837:../Drivers/STM32_ExtMem_Manager/sal/stm32_sal_xspi.c **** 
 1692              		.loc 1 837 3 view .LVU571
 837:../Drivers/STM32_ExtMem_Manager/sal/stm32_sal_xspi.c **** 
 1693              		.loc 1 837 27 is_stmt 0 view .LVU572
 1694 001c 3A46     		mov	r2, r7
 1695 001e 0599     		ldr	r1, [sp, #20]
 1696 0020 94F85000 		ldrb	r0, [r4, #80]	@ zero_extendqisi2
 1697 0024 FFF7FEFF 		bl	XSPI_FormatCommand
 1698              	.LVL126:
 837:../Drivers/STM32_ExtMem_Manager/sal/stm32_sal_xspi.c **** 
 1699              		.loc 1 837 25 discriminator 1 view .LVU573
 1700 0028 0390     		str	r0, [sp, #12]
 839:../Drivers/STM32_ExtMem_Manager/sal/stm32_sal_xspi.c ****   s_command.DummyCycles        = SalXspi->SFDPDummyCycle;
 1701              		.loc 1 839 3 is_stmt 1 view .LVU574
 839:../Drivers/STM32_ExtMem_Manager/sal/stm32_sal_xspi.c ****   s_command.DummyCycles        = SalXspi->SFDPDummyCycle;
 1702              		.loc 1 839 32 is_stmt 0 view .LVU575
 1703 002a 0796     		str	r6, [sp, #28]
 840:../Drivers/STM32_ExtMem_Manager/sal/stm32_sal_xspi.c ****   s_command.DataLength         = DataSize;
 1704              		.loc 1 840 3 is_stmt 1 view .LVU576
 840:../Drivers/STM32_ExtMem_Manager/sal/stm32_sal_xspi.c ****   s_command.DataLength         = DataSize;
 1705              		.loc 1 840 41 is_stmt 0 view .LVU577
 1706 002c 94F85130 		ldrb	r3, [r4, #81]	@ zero_extendqisi2
 840:../Drivers/STM32_ExtMem_Manager/sal/stm32_sal_xspi.c ****   s_command.DataLength         = DataSize;
 1707              		.loc 1 840 32 view .LVU578
 1708 0030 1293     		str	r3, [sp, #72]
 841:../Drivers/STM32_ExtMem_Manager/sal/stm32_sal_xspi.c ****   /* Specific case for Macronix memories : RDID and RDCR are not Data DTR  */
 1709              		.loc 1 841 3 is_stmt 1 view .LVU579
 841:../Drivers/STM32_ExtMem_Manager/sal/stm32_sal_xspi.c ****   /* Specific case for Macronix memories : RDID and RDCR are not Data DTR  */
 1710              		.loc 1 841 32 is_stmt 0 view .LVU580
 1711 0032 BDF86830 		ldrh	r3, [sp, #104]
 1712 0036 1093     		str	r3, [sp, #64]
 843:../Drivers/STM32_ExtMem_Manager/sal/stm32_sal_xspi.c ****   {
 1713              		.loc 1 843 3 is_stmt 1 view .LVU581
 843:../Drivers/STM32_ExtMem_Manager/sal/stm32_sal_xspi.c ****   {
 1714              		.loc 1 843 6 is_stmt 0 view .LVU582
 1715 0038 C22D     		cmp	r5, #194
 1716 003a 18D0     		beq	.L105
 1717              	.L99:
 848:../Drivers/STM32_ExtMem_Manager/sal/stm32_sal_xspi.c ****   {
 1718              		.loc 1 848 8 is_stmt 1 view .LVU583
 848:../Drivers/STM32_ExtMem_Manager/sal/stm32_sal_xspi.c ****   {
 1719              		.loc 1 848 11 is_stmt 0 view .LVU584
 1720 003c C82D     		cmp	r5, #200
 1721 003e 1DD0     		beq	.L106
 1722              	.L101:
 855:../Drivers/STM32_ExtMem_Manager/sal/stm32_sal_xspi.c ****   }
 1723              		.loc 1 855 5 is_stmt 1 view .LVU585
 855:../Drivers/STM32_ExtMem_Manager/sal/stm32_sal_xspi.c ****   }
 1724              		.loc 1 855 32 is_stmt 0 view .LVU586
 1725 0040 0023     		movs	r3, #0
ARM GAS  /tmp/ccuJg0Ev.s 			page 59


 1726 0042 1393     		str	r3, [sp, #76]
 1727              	.L100:
 859:../Drivers/STM32_ExtMem_Manager/sal/stm32_sal_xspi.c **** 
 1728              		.loc 1 859 3 is_stmt 1 view .LVU587
 859:../Drivers/STM32_ExtMem_Manager/sal/stm32_sal_xspi.c **** 
 1729              		.loc 1 859 10 is_stmt 0 view .LVU588
 1730 0044 6422     		movs	r2, #100
 1731 0046 01A9     		add	r1, sp, #4
 1732 0048 2068     		ldr	r0, [r4]
 1733 004a FFF7FEFF 		bl	HAL_XSPI_Command
 1734              	.LVL127:
 861:../Drivers/STM32_ExtMem_Manager/sal/stm32_sal_xspi.c ****   {
 1735              		.loc 1 861 3 is_stmt 1 view .LVU589
 861:../Drivers/STM32_ExtMem_Manager/sal/stm32_sal_xspi.c ****   {
 1736              		.loc 1 861 6 is_stmt 0 view .LVU590
 1737 004e 0546     		mov	r5, r0
 1738 0050 30B9     		cbnz	r0, .L102
 864:../Drivers/STM32_ExtMem_Manager/sal/stm32_sal_xspi.c ****   }
 1739              		.loc 1 864 5 is_stmt 1 view .LVU591
 864:../Drivers/STM32_ExtMem_Manager/sal/stm32_sal_xspi.c ****   }
 1740              		.loc 1 864 12 is_stmt 0 view .LVU592
 1741 0052 6422     		movs	r2, #100
 1742 0054 4146     		mov	r1, r8
 1743 0056 2068     		ldr	r0, [r4]
 1744              	.LVL128:
 864:../Drivers/STM32_ExtMem_Manager/sal/stm32_sal_xspi.c ****   }
 1745              		.loc 1 864 12 view .LVU593
 1746 0058 FFF7FEFF 		bl	HAL_XSPI_Receive
 1747              	.LVL129:
 867:../Drivers/STM32_ExtMem_Manager/sal/stm32_sal_xspi.c ****   {
 1748              		.loc 1 867 3 is_stmt 1 view .LVU594
 867:../Drivers/STM32_ExtMem_Manager/sal/stm32_sal_xspi.c ****   {
 1749              		.loc 1 867 6 is_stmt 0 view .LVU595
 1750 005c 0546     		mov	r5, r0
 1751 005e 10B1     		cbz	r0, .L103
 1752              	.L102:
 1753              	.LVL130:
 870:../Drivers/STM32_ExtMem_Manager/sal/stm32_sal_xspi.c ****   }
 1754              		.loc 1 870 5 is_stmt 1 view .LVU596
 870:../Drivers/STM32_ExtMem_Manager/sal/stm32_sal_xspi.c ****   }
 1755              		.loc 1 870 11 is_stmt 0 view .LVU597
 1756 0060 2068     		ldr	r0, [r4]
 1757 0062 FFF7FEFF 		bl	HAL_XSPI_Abort
 1758              	.LVL131:
 1759              	.L103:
 872:../Drivers/STM32_ExtMem_Manager/sal/stm32_sal_xspi.c **** }
 1760              		.loc 1 872 3 is_stmt 1 view .LVU598
 873:../Drivers/STM32_ExtMem_Manager/sal/stm32_sal_xspi.c **** 
 1761              		.loc 1 873 1 is_stmt 0 view .LVU599
 1762 0066 2846     		mov	r0, r5
 1763 0068 14B0     		add	sp, sp, #80
 1764              	.LCFI33:
 1765              		.cfi_remember_state
 1766              		.cfi_def_cfa_offset 24
 1767              		@ sp needed
 1768 006a BDE8F081 		pop	{r4, r5, r6, r7, r8, pc}
 1769              	.LVL132:
ARM GAS  /tmp/ccuJg0Ev.s 			page 60


 1770              	.L105:
 1771              	.LCFI34:
 1772              		.cfi_restore_state
 843:../Drivers/STM32_ExtMem_Manager/sal/stm32_sal_xspi.c ****   {
 1773              		.loc 1 843 61 discriminator 1 view .LVU600
 1774 006e 119B     		ldr	r3, [sp, #68]
 843:../Drivers/STM32_ExtMem_Manager/sal/stm32_sal_xspi.c ****   {
 1775              		.loc 1 843 48 discriminator 1 view .LVU601
 1776 0070 B3F1006F 		cmp	r3, #134217728
 1777 0074 E2D1     		bne	.L99
 845:../Drivers/STM32_ExtMem_Manager/sal/stm32_sal_xspi.c ****   }
 1778              		.loc 1 845 5 is_stmt 1 view .LVU602
 845:../Drivers/STM32_ExtMem_Manager/sal/stm32_sal_xspi.c ****   }
 1779              		.loc 1 845 32 is_stmt 0 view .LVU603
 1780 0076 0023     		movs	r3, #0
 1781 0078 1193     		str	r3, [sp, #68]
 1782 007a E3E7     		b	.L100
 1783              	.L106:
 848:../Drivers/STM32_ExtMem_Manager/sal/stm32_sal_xspi.c ****   {
 1784              		.loc 1 848 42 discriminator 1 view .LVU604
 1785 007c 119B     		ldr	r3, [sp, #68]
 848:../Drivers/STM32_ExtMem_Manager/sal/stm32_sal_xspi.c ****   {
 1786              		.loc 1 848 29 discriminator 1 view .LVU605
 1787 007e B3F1006F 		cmp	r3, #134217728
 1788 0082 DDD1     		bne	.L101
 850:../Drivers/STM32_ExtMem_Manager/sal/stm32_sal_xspi.c ****     s_command.DQSMode          = HAL_XSPI_DQS_DISABLE;
 1789              		.loc 1 850 5 is_stmt 1 view .LVU606
 850:../Drivers/STM32_ExtMem_Manager/sal/stm32_sal_xspi.c ****     s_command.DQSMode          = HAL_XSPI_DQS_DISABLE;
 1790              		.loc 1 850 32 is_stmt 0 view .LVU607
 1791 0084 0023     		movs	r3, #0
 1792 0086 1193     		str	r3, [sp, #68]
 851:../Drivers/STM32_ExtMem_Manager/sal/stm32_sal_xspi.c ****   }
 1793              		.loc 1 851 5 is_stmt 1 view .LVU608
 851:../Drivers/STM32_ExtMem_Manager/sal/stm32_sal_xspi.c ****   }
 1794              		.loc 1 851 32 is_stmt 0 view .LVU609
 1795 0088 1393     		str	r3, [sp, #76]
 1796 008a DBE7     		b	.L100
 1797              		.cfi_endproc
 1798              	.LFE891:
 1800              		.section	.text.SAL_XSPI_CheckStatusRegister,"ax",%progbits
 1801              		.align	1
 1802              		.global	SAL_XSPI_CheckStatusRegister
 1803              		.syntax unified
 1804              		.thumb
 1805              		.thumb_func
 1807              	SAL_XSPI_CheckStatusRegister:
 1808              	.LVL133:
 1809              	.LFB892:
 889:../Drivers/STM32_ExtMem_Manager/sal/stm32_sal_xspi.c ****   XSPI_RegularCmdTypeDef s_command = SalXspi->Commandbase;
 1810              		.loc 1 889 1 is_stmt 1 view -0
 1811              		.cfi_startproc
 1812              		@ args = 12, pretend = 0, frame = 96
 1813              		@ frame_needed = 0, uses_anonymous_args = 0
 889:../Drivers/STM32_ExtMem_Manager/sal/stm32_sal_xspi.c ****   XSPI_RegularCmdTypeDef s_command = SalXspi->Commandbase;
 1814              		.loc 1 889 1 is_stmt 0 view .LVU611
 1815 0000 F0B5     		push	{r4, r5, r6, r7, lr}
 1816              	.LCFI35:
ARM GAS  /tmp/ccuJg0Ev.s 			page 61


 1817              		.cfi_def_cfa_offset 20
 1818              		.cfi_offset 4, -20
 1819              		.cfi_offset 5, -16
 1820              		.cfi_offset 6, -12
 1821              		.cfi_offset 7, -8
 1822              		.cfi_offset 14, -4
 1823 0002 99B0     		sub	sp, sp, #100
 1824              	.LCFI36:
 1825              		.cfi_def_cfa_offset 120
 1826 0004 0446     		mov	r4, r0
 1827 0006 0E46     		mov	r6, r1
 1828 0008 1746     		mov	r7, r2
 1829 000a 1D46     		mov	r5, r3
 890:../Drivers/STM32_ExtMem_Manager/sal/stm32_sal_xspi.c ****   XSPI_AutoPollingTypeDef  s_config =
 1830              		.loc 1 890 3 is_stmt 1 view .LVU612
 890:../Drivers/STM32_ExtMem_Manager/sal/stm32_sal_xspi.c ****   XSPI_AutoPollingTypeDef  s_config =
 1831              		.loc 1 890 26 is_stmt 0 view .LVU613
 1832 000c 4C22     		movs	r2, #76
 1833              	.LVL134:
 890:../Drivers/STM32_ExtMem_Manager/sal/stm32_sal_xspi.c ****   XSPI_AutoPollingTypeDef  s_config =
 1834              		.loc 1 890 26 view .LVU614
 1835 000e 011D     		adds	r1, r0, #4
 1836              	.LVL135:
 890:../Drivers/STM32_ExtMem_Manager/sal/stm32_sal_xspi.c ****   XSPI_AutoPollingTypeDef  s_config =
 1837              		.loc 1 890 26 view .LVU615
 1838 0010 05A8     		add	r0, sp, #20
 1839              	.LVL136:
 890:../Drivers/STM32_ExtMem_Manager/sal/stm32_sal_xspi.c ****   XSPI_AutoPollingTypeDef  s_config =
 1840              		.loc 1 890 26 view .LVU616
 1841 0012 FFF7FEFF 		bl	memcpy
 1842              	.LVL137:
 891:../Drivers/STM32_ExtMem_Manager/sal/stm32_sal_xspi.c ****   {
 1843              		.loc 1 891 3 is_stmt 1 view .LVU617
 891:../Drivers/STM32_ExtMem_Manager/sal/stm32_sal_xspi.c ****   {
 1844              		.loc 1 891 28 is_stmt 0 view .LVU618
 1845 0016 0095     		str	r5, [sp]
 1846 0018 9DF87830 		ldrb	r3, [sp, #120]	@ zero_extendqisi2
 1847 001c 0193     		str	r3, [sp, #4]
 1848 001e 0025     		movs	r5, #0
 1849              	.LVL138:
 891:../Drivers/STM32_ExtMem_Manager/sal/stm32_sal_xspi.c ****   {
 1850              		.loc 1 891 28 view .LVU619
 1851 0020 0295     		str	r5, [sp, #8]
 1852 0022 4FF48003 		mov	r3, #4194304
 1853 0026 0393     		str	r3, [sp, #12]
 1854 0028 1023     		movs	r3, #16
 1855 002a 0493     		str	r3, [sp, #16]
 899:../Drivers/STM32_ExtMem_Manager/sal/stm32_sal_xspi.c **** 
 1856              		.loc 1 899 3 is_stmt 1 view .LVU620
 902:../Drivers/STM32_ExtMem_Manager/sal/stm32_sal_xspi.c **** 
 1857              		.loc 1 902 3 view .LVU621
 902:../Drivers/STM32_ExtMem_Manager/sal/stm32_sal_xspi.c **** 
 1858              		.loc 1 902 27 is_stmt 0 view .LVU622
 1859 002c 3246     		mov	r2, r6
 1860 002e 0999     		ldr	r1, [sp, #36]
 1861 0030 94F85000 		ldrb	r0, [r4, #80]	@ zero_extendqisi2
 1862 0034 FFF7FEFF 		bl	XSPI_FormatCommand
ARM GAS  /tmp/ccuJg0Ev.s 			page 62


 1863              	.LVL139:
 902:../Drivers/STM32_ExtMem_Manager/sal/stm32_sal_xspi.c **** 
 1864              		.loc 1 902 25 discriminator 1 view .LVU623
 1865 0038 0790     		str	r0, [sp, #28]
 904:../Drivers/STM32_ExtMem_Manager/sal/stm32_sal_xspi.c ****   s_command.DQSMode        = HAL_XSPI_DQS_DISABLE;
 1866              		.loc 1 904 3 is_stmt 1 view .LVU624
 904:../Drivers/STM32_ExtMem_Manager/sal/stm32_sal_xspi.c ****   s_command.DQSMode        = HAL_XSPI_DQS_DISABLE;
 1867              		.loc 1 904 28 is_stmt 0 view .LVU625
 1868 003a 0123     		movs	r3, #1
 1869 003c 1493     		str	r3, [sp, #80]
 905:../Drivers/STM32_ExtMem_Manager/sal/stm32_sal_xspi.c **** 
 1870              		.loc 1 905 3 is_stmt 1 view .LVU626
 905:../Drivers/STM32_ExtMem_Manager/sal/stm32_sal_xspi.c **** 
 1871              		.loc 1 905 28 is_stmt 0 view .LVU627
 1872 003e 1795     		str	r5, [sp, #92]
 907:../Drivers/STM32_ExtMem_Manager/sal/stm32_sal_xspi.c ****   {
 1873              		.loc 1 907 3 is_stmt 1 view .LVU628
 907:../Drivers/STM32_ExtMem_Manager/sal/stm32_sal_xspi.c ****   {
 1874              		.loc 1 907 16 is_stmt 0 view .LVU629
 1875 0040 089B     		ldr	r3, [sp, #32]
 907:../Drivers/STM32_ExtMem_Manager/sal/stm32_sal_xspi.c ****   {
 1876              		.loc 1 907 6 view .LVU630
 1877 0042 012B     		cmp	r3, #1
 1878 0044 17D0     		beq	.L114
 1879              	.L108:
 916:../Drivers/STM32_ExtMem_Manager/sal/stm32_sal_xspi.c ****   {
 1880              		.loc 1 916 3 is_stmt 1 view .LVU631
 916:../Drivers/STM32_ExtMem_Manager/sal/stm32_sal_xspi.c ****   {
 1881              		.loc 1 916 16 is_stmt 0 view .LVU632
 1882 0046 139B     		ldr	r3, [sp, #76]
 916:../Drivers/STM32_ExtMem_Manager/sal/stm32_sal_xspi.c ****   {
 1883              		.loc 1 916 6 view .LVU633
 1884 0048 B3F1806F 		cmp	r3, #67108864
 1885 004c 19D0     		beq	.L115
 1886              	.L109:
 930:../Drivers/STM32_ExtMem_Manager/sal/stm32_sal_xspi.c ****   if (retr == HAL_OK)
 1887              		.loc 1 930 3 is_stmt 1 view .LVU634
 930:../Drivers/STM32_ExtMem_Manager/sal/stm32_sal_xspi.c ****   if (retr == HAL_OK)
 1888              		.loc 1 930 10 is_stmt 0 view .LVU635
 1889 004e 6422     		movs	r2, #100
 1890 0050 05A9     		add	r1, sp, #20
 1891 0052 2068     		ldr	r0, [r4]
 1892 0054 FFF7FEFF 		bl	HAL_XSPI_Command
 1893              	.LVL140:
 931:../Drivers/STM32_ExtMem_Manager/sal/stm32_sal_xspi.c ****   {
 1894              		.loc 1 931 3 is_stmt 1 view .LVU636
 931:../Drivers/STM32_ExtMem_Manager/sal/stm32_sal_xspi.c ****   {
 1895              		.loc 1 931 6 is_stmt 0 view .LVU637
 1896 0058 0546     		mov	r5, r0
 1897 005a 30B9     		cbnz	r0, .L111
 933:../Drivers/STM32_ExtMem_Manager/sal/stm32_sal_xspi.c ****     DEBUG_AUTOPOLLING(SalXspi->hxspi->Instance->DR, s_config.MatchValue, s_config.MatchMask)
 1898              		.loc 1 933 5 is_stmt 1 view .LVU638
 933:../Drivers/STM32_ExtMem_Manager/sal/stm32_sal_xspi.c ****     DEBUG_AUTOPOLLING(SalXspi->hxspi->Instance->DR, s_config.MatchValue, s_config.MatchMask)
 1899              		.loc 1 933 12 is_stmt 0 view .LVU639
 1900 005c 209A     		ldr	r2, [sp, #128]
 1901 005e 6946     		mov	r1, sp
 1902 0060 2068     		ldr	r0, [r4]
ARM GAS  /tmp/ccuJg0Ev.s 			page 63


 1903              	.LVL141:
 933:../Drivers/STM32_ExtMem_Manager/sal/stm32_sal_xspi.c ****     DEBUG_AUTOPOLLING(SalXspi->hxspi->Instance->DR, s_config.MatchValue, s_config.MatchMask)
 1904              		.loc 1 933 12 view .LVU640
 1905 0062 FFF7FEFF 		bl	HAL_XSPI_AutoPolling
 1906              	.LVL142:
 937:../Drivers/STM32_ExtMem_Manager/sal/stm32_sal_xspi.c ****   {
 1907              		.loc 1 937 3 is_stmt 1 view .LVU641
 937:../Drivers/STM32_ExtMem_Manager/sal/stm32_sal_xspi.c ****   {
 1908              		.loc 1 937 6 is_stmt 0 view .LVU642
 1909 0066 0546     		mov	r5, r0
 1910 0068 10B1     		cbz	r0, .L112
 1911              	.L111:
 1912              	.LVL143:
 940:../Drivers/STM32_ExtMem_Manager/sal/stm32_sal_xspi.c ****   }
 1913              		.loc 1 940 5 is_stmt 1 view .LVU643
 940:../Drivers/STM32_ExtMem_Manager/sal/stm32_sal_xspi.c ****   }
 1914              		.loc 1 940 11 is_stmt 0 view .LVU644
 1915 006a 2068     		ldr	r0, [r4]
 1916 006c FFF7FEFF 		bl	HAL_XSPI_Abort
 1917              	.LVL144:
 1918              	.L112:
 942:../Drivers/STM32_ExtMem_Manager/sal/stm32_sal_xspi.c **** }
 1919              		.loc 1 942 3 is_stmt 1 view .LVU645
 943:../Drivers/STM32_ExtMem_Manager/sal/stm32_sal_xspi.c **** 
 1920              		.loc 1 943 1 is_stmt 0 view .LVU646
 1921 0070 2846     		mov	r0, r5
 1922 0072 19B0     		add	sp, sp, #100
 1923              	.LCFI37:
 1924              		.cfi_remember_state
 1925              		.cfi_def_cfa_offset 20
 1926              		@ sp needed
 1927 0074 F0BD     		pop	{r4, r5, r6, r7, pc}
 1928              	.LVL145:
 1929              	.L114:
 1930              	.LCFI38:
 1931              		.cfi_restore_state
 910:../Drivers/STM32_ExtMem_Manager/sal/stm32_sal_xspi.c ****     s_command.AddressMode = HAL_XSPI_DATA_NONE;
 1932              		.loc 1 910 5 is_stmt 1 view .LVU647
 910:../Drivers/STM32_ExtMem_Manager/sal/stm32_sal_xspi.c ****     s_command.AddressMode = HAL_XSPI_DATA_NONE;
 1933              		.loc 1 910 27 is_stmt 0 view .LVU648
 1934 0076 4FF08073 		mov	r3, #16777216
 1935 007a 1393     		str	r3, [sp, #76]
 911:../Drivers/STM32_ExtMem_Manager/sal/stm32_sal_xspi.c ****     s_command.DummyCycles = 0u;
 1936              		.loc 1 911 5 is_stmt 1 view .LVU649
 911:../Drivers/STM32_ExtMem_Manager/sal/stm32_sal_xspi.c ****     s_command.DummyCycles = 0u;
 1937              		.loc 1 911 27 is_stmt 0 view .LVU650
 1938 007c 0C95     		str	r5, [sp, #48]
 912:../Drivers/STM32_ExtMem_Manager/sal/stm32_sal_xspi.c ****   }
 1939              		.loc 1 912 5 is_stmt 1 view .LVU651
 912:../Drivers/STM32_ExtMem_Manager/sal/stm32_sal_xspi.c ****   }
 1940              		.loc 1 912 27 is_stmt 0 view .LVU652
 1941 007e 1695     		str	r5, [sp, #88]
 1942 0080 E1E7     		b	.L108
 1943              	.L115:
 919:../Drivers/STM32_ExtMem_Manager/sal/stm32_sal_xspi.c ****     {
 1944              		.loc 1 919 5 is_stmt 1 view .LVU653
 919:../Drivers/STM32_ExtMem_Manager/sal/stm32_sal_xspi.c ****     {
ARM GAS  /tmp/ccuJg0Ev.s 			page 64


 1945              		.loc 1 919 8 is_stmt 0 view .LVU654
 1946 0082 9DF87C30 		ldrb	r3, [sp, #124]	@ zero_extendqisi2
 1947 0086 C22B     		cmp	r3, #194
 1948 0088 07D0     		beq	.L116
 1949              	.L110:
 924:../Drivers/STM32_ExtMem_Manager/sal/stm32_sal_xspi.c ****     s_command.AddressWidth   = HAL_XSPI_ADDRESS_32_BITS;
 1950              		.loc 1 924 5 is_stmt 1 view .LVU655
 924:../Drivers/STM32_ExtMem_Manager/sal/stm32_sal_xspi.c ****     s_command.AddressWidth   = HAL_XSPI_ADDRESS_32_BITS;
 1951              		.loc 1 924 30 is_stmt 0 view .LVU656
 1952 008a 4FF48063 		mov	r3, #1024
 1953 008e 0C93     		str	r3, [sp, #48]
 925:../Drivers/STM32_ExtMem_Manager/sal/stm32_sal_xspi.c ****     s_command.Address        = Address;
 1954              		.loc 1 925 5 is_stmt 1 view .LVU657
 925:../Drivers/STM32_ExtMem_Manager/sal/stm32_sal_xspi.c ****     s_command.Address        = Address;
 1955              		.loc 1 925 30 is_stmt 0 view .LVU658
 1956 0090 4FF44053 		mov	r3, #12288
 1957 0094 0D93     		str	r3, [sp, #52]
 926:../Drivers/STM32_ExtMem_Manager/sal/stm32_sal_xspi.c ****   }
 1958              		.loc 1 926 5 is_stmt 1 view .LVU659
 926:../Drivers/STM32_ExtMem_Manager/sal/stm32_sal_xspi.c ****   }
 1959              		.loc 1 926 30 is_stmt 0 view .LVU660
 1960 0096 0B97     		str	r7, [sp, #44]
 1961 0098 D9E7     		b	.L109
 1962              	.L116:
 919:../Drivers/STM32_ExtMem_Manager/sal/stm32_sal_xspi.c ****     {
 1963              		.loc 1 919 63 discriminator 1 view .LVU661
 1964 009a 159B     		ldr	r3, [sp, #84]
 919:../Drivers/STM32_ExtMem_Manager/sal/stm32_sal_xspi.c ****     {
 1965              		.loc 1 919 50 discriminator 1 view .LVU662
 1966 009c B3F1006F 		cmp	r3, #134217728
 1967 00a0 F3D1     		bne	.L110
 921:../Drivers/STM32_ExtMem_Manager/sal/stm32_sal_xspi.c ****       s_command.DataDTRMode    = HAL_XSPI_DATA_DTR_DISABLE;
 1968              		.loc 1 921 7 is_stmt 1 view .LVU663
 921:../Drivers/STM32_ExtMem_Manager/sal/stm32_sal_xspi.c ****       s_command.DataDTRMode    = HAL_XSPI_DATA_DTR_DISABLE;
 1969              		.loc 1 921 32 is_stmt 0 view .LVU664
 1970 00a2 4FF00053 		mov	r3, #536870912
 1971 00a6 1793     		str	r3, [sp, #92]
 922:../Drivers/STM32_ExtMem_Manager/sal/stm32_sal_xspi.c ****     }
 1972              		.loc 1 922 7 is_stmt 1 view .LVU665
 922:../Drivers/STM32_ExtMem_Manager/sal/stm32_sal_xspi.c ****     }
 1973              		.loc 1 922 32 is_stmt 0 view .LVU666
 1974 00a8 0023     		movs	r3, #0
 1975 00aa 1593     		str	r3, [sp, #84]
 1976 00ac EDE7     		b	.L110
 1977              		.cfi_endproc
 1978              	.LFE892:
 1980              		.section	.text.SAL_XSPI_ConfigureWrappMode,"ax",%progbits
 1981              		.align	1
 1982              		.global	SAL_XSPI_ConfigureWrappMode
 1983              		.syntax unified
 1984              		.thumb
 1985              		.thumb_func
 1987              	SAL_XSPI_ConfigureWrappMode:
 1988              	.LVL146:
 1989              	.LFB893:
 953:../Drivers/STM32_ExtMem_Manager/sal/stm32_sal_xspi.c ****   HAL_StatusTypeDef retr;
 1990              		.loc 1 953 1 is_stmt 1 view -0
ARM GAS  /tmp/ccuJg0Ev.s 			page 65


 1991              		.cfi_startproc
 1992              		@ args = 0, pretend = 0, frame = 80
 1993              		@ frame_needed = 0, uses_anonymous_args = 0
 953:../Drivers/STM32_ExtMem_Manager/sal/stm32_sal_xspi.c ****   HAL_StatusTypeDef retr;
 1994              		.loc 1 953 1 is_stmt 0 view .LVU668
 1995 0000 F0B5     		push	{r4, r5, r6, r7, lr}
 1996              	.LCFI39:
 1997              		.cfi_def_cfa_offset 20
 1998              		.cfi_offset 4, -20
 1999              		.cfi_offset 5, -16
 2000              		.cfi_offset 6, -12
 2001              		.cfi_offset 7, -8
 2002              		.cfi_offset 14, -4
 2003 0002 95B0     		sub	sp, sp, #84
 2004              	.LCFI40:
 2005              		.cfi_def_cfa_offset 104
 2006 0004 0446     		mov	r4, r0
 2007 0006 0F46     		mov	r7, r1
 2008 0008 1646     		mov	r6, r2
 954:../Drivers/STM32_ExtMem_Manager/sal/stm32_sal_xspi.c ****   XSPI_RegularCmdTypeDef s_command = SalXspi->Commandbase;
 2009              		.loc 1 954 3 is_stmt 1 view .LVU669
 955:../Drivers/STM32_ExtMem_Manager/sal/stm32_sal_xspi.c **** 
 2010              		.loc 1 955 3 view .LVU670
 955:../Drivers/STM32_ExtMem_Manager/sal/stm32_sal_xspi.c **** 
 2011              		.loc 1 955 26 is_stmt 0 view .LVU671
 2012 000a 01AD     		add	r5, sp, #4
 2013 000c 4C22     		movs	r2, #76
 2014              	.LVL147:
 955:../Drivers/STM32_ExtMem_Manager/sal/stm32_sal_xspi.c **** 
 2015              		.loc 1 955 26 view .LVU672
 2016 000e 011D     		adds	r1, r0, #4
 2017              	.LVL148:
 955:../Drivers/STM32_ExtMem_Manager/sal/stm32_sal_xspi.c **** 
 2018              		.loc 1 955 26 view .LVU673
 2019 0010 2846     		mov	r0, r5
 2020              	.LVL149:
 955:../Drivers/STM32_ExtMem_Manager/sal/stm32_sal_xspi.c **** 
 2021              		.loc 1 955 26 view .LVU674
 2022 0012 FFF7FEFF 		bl	memcpy
 2023              	.LVL150:
 958:../Drivers/STM32_ExtMem_Manager/sal/stm32_sal_xspi.c ****   s_command.Instruction = XSPI_FormatCommand(SalXspi->CommandExtension, s_command.InstructionWidth,
 2024              		.loc 1 958 3 is_stmt 1 view .LVU675
 958:../Drivers/STM32_ExtMem_Manager/sal/stm32_sal_xspi.c ****   s_command.Instruction = XSPI_FormatCommand(SalXspi->CommandExtension, s_command.InstructionWidth,
 2025              		.loc 1 958 27 is_stmt 0 view .LVU676
 2026 0016 0323     		movs	r3, #3
 2027 0018 0193     		str	r3, [sp, #4]
 959:../Drivers/STM32_ExtMem_Manager/sal/stm32_sal_xspi.c ****   s_command.DummyCycles = WrapDummy;
 2028              		.loc 1 959 3 is_stmt 1 view .LVU677
 959:../Drivers/STM32_ExtMem_Manager/sal/stm32_sal_xspi.c ****   s_command.DummyCycles = WrapDummy;
 2029              		.loc 1 959 27 is_stmt 0 view .LVU678
 2030 001a 3A46     		mov	r2, r7
 2031 001c 0599     		ldr	r1, [sp, #20]
 2032 001e 94F85000 		ldrb	r0, [r4, #80]	@ zero_extendqisi2
 2033 0022 FFF7FEFF 		bl	XSPI_FormatCommand
 2034              	.LVL151:
 959:../Drivers/STM32_ExtMem_Manager/sal/stm32_sal_xspi.c ****   s_command.DummyCycles = WrapDummy;
 2035              		.loc 1 959 25 discriminator 1 view .LVU679
ARM GAS  /tmp/ccuJg0Ev.s 			page 66


 2036 0026 0390     		str	r0, [sp, #12]
 960:../Drivers/STM32_ExtMem_Manager/sal/stm32_sal_xspi.c ****   /* Configure the read command */
 2037              		.loc 1 960 3 is_stmt 1 view .LVU680
 960:../Drivers/STM32_ExtMem_Manager/sal/stm32_sal_xspi.c ****   /* Configure the read command */
 2038              		.loc 1 960 25 is_stmt 0 view .LVU681
 2039 0028 1296     		str	r6, [sp, #72]
 962:../Drivers/STM32_ExtMem_Manager/sal/stm32_sal_xspi.c ****   if (retr  != HAL_OK)
 2040              		.loc 1 962 3 is_stmt 1 view .LVU682
 962:../Drivers/STM32_ExtMem_Manager/sal/stm32_sal_xspi.c ****   if (retr  != HAL_OK)
 2041              		.loc 1 962 10 is_stmt 0 view .LVU683
 2042 002a 6422     		movs	r2, #100
 2043 002c 2946     		mov	r1, r5
 2044 002e 2068     		ldr	r0, [r4]
 2045 0030 FFF7FEFF 		bl	HAL_XSPI_Command
 2046              	.LVL152:
 963:../Drivers/STM32_ExtMem_Manager/sal/stm32_sal_xspi.c ****   {
 2047              		.loc 1 963 3 is_stmt 1 view .LVU684
 963:../Drivers/STM32_ExtMem_Manager/sal/stm32_sal_xspi.c ****   {
 2048              		.loc 1 963 6 is_stmt 0 view .LVU685
 2049 0034 0546     		mov	r5, r0
 2050 0036 10B9     		cbnz	r0, .L120
 2051              	.LVL153:
 2052              	.L118:
 974:../Drivers/STM32_ExtMem_Manager/sal/stm32_sal_xspi.c **** }
 2053              		.loc 1 974 3 is_stmt 1 view .LVU686
 975:../Drivers/STM32_ExtMem_Manager/sal/stm32_sal_xspi.c **** 
 2054              		.loc 1 975 1 is_stmt 0 view .LVU687
 2055 0038 2846     		mov	r0, r5
 2056 003a 15B0     		add	sp, sp, #84
 2057              	.LCFI41:
 2058              		.cfi_remember_state
 2059              		.cfi_def_cfa_offset 20
 2060              		@ sp needed
 2061 003c F0BD     		pop	{r4, r5, r6, r7, pc}
 2062              	.LVL154:
 2063              	.L120:
 2064              	.LCFI42:
 2065              		.cfi_restore_state
 965:../Drivers/STM32_ExtMem_Manager/sal/stm32_sal_xspi.c ****   }
 2066              		.loc 1 965 5 is_stmt 1 view .LVU688
 969:../Drivers/STM32_ExtMem_Manager/sal/stm32_sal_xspi.c ****   {
 2067              		.loc 1 969 3 view .LVU689
 972:../Drivers/STM32_ExtMem_Manager/sal/stm32_sal_xspi.c ****   }
 2068              		.loc 1 972 5 view .LVU690
 972:../Drivers/STM32_ExtMem_Manager/sal/stm32_sal_xspi.c ****   }
 2069              		.loc 1 972 11 is_stmt 0 view .LVU691
 2070 003e 2068     		ldr	r0, [r4]
 2071              	.LVL155:
 972:../Drivers/STM32_ExtMem_Manager/sal/stm32_sal_xspi.c ****   }
 2072              		.loc 1 972 11 view .LVU692
 2073 0040 FFF7FEFF 		bl	HAL_XSPI_Abort
 2074              	.LVL156:
 2075 0044 F8E7     		b	.L118
 2076              		.cfi_endproc
 2077              	.LFE893:
 2079              		.section	.text.SAL_XSPI_EnableMapMode,"ax",%progbits
 2080              		.align	1
ARM GAS  /tmp/ccuJg0Ev.s 			page 67


 2081              		.global	SAL_XSPI_EnableMapMode
 2082              		.syntax unified
 2083              		.thumb
 2084              		.thumb_func
 2086              	SAL_XSPI_EnableMapMode:
 2087              	.LVL157:
 2088              	.LFB894:
 988:../Drivers/STM32_ExtMem_Manager/sal/stm32_sal_xspi.c ****   HAL_StatusTypeDef retr;
 2089              		.loc 1 988 1 is_stmt 1 view -0
 2090              		.cfi_startproc
 2091              		@ args = 4, pretend = 0, frame = 96
 2092              		@ frame_needed = 0, uses_anonymous_args = 0
 988:../Drivers/STM32_ExtMem_Manager/sal/stm32_sal_xspi.c ****   HAL_StatusTypeDef retr;
 2093              		.loc 1 988 1 is_stmt 0 view .LVU694
 2094 0000 2DE9F041 		push	{r4, r5, r6, r7, r8, lr}
 2095              	.LCFI43:
 2096              		.cfi_def_cfa_offset 24
 2097              		.cfi_offset 4, -24
 2098              		.cfi_offset 5, -20
 2099              		.cfi_offset 6, -16
 2100              		.cfi_offset 7, -12
 2101              		.cfi_offset 8, -8
 2102              		.cfi_offset 14, -4
 2103 0004 98B0     		sub	sp, sp, #96
 2104              	.LCFI44:
 2105              		.cfi_def_cfa_offset 120
 2106 0006 0446     		mov	r4, r0
 2107 0008 0F46     		mov	r7, r1
 2108 000a 1646     		mov	r6, r2
 2109 000c 9846     		mov	r8, r3
 989:../Drivers/STM32_ExtMem_Manager/sal/stm32_sal_xspi.c ****   XSPI_RegularCmdTypeDef s_command = SalXspi->Commandbase;
 2110              		.loc 1 989 3 is_stmt 1 view .LVU695
 990:../Drivers/STM32_ExtMem_Manager/sal/stm32_sal_xspi.c ****   XSPI_MemoryMappedTypeDef sMemMappedCfg = {0};
 2111              		.loc 1 990 3 view .LVU696
 990:../Drivers/STM32_ExtMem_Manager/sal/stm32_sal_xspi.c ****   XSPI_MemoryMappedTypeDef sMemMappedCfg = {0};
 2112              		.loc 1 990 26 is_stmt 0 view .LVU697
 2113 000e 05AD     		add	r5, sp, #20
 2114 0010 4C22     		movs	r2, #76
 2115              	.LVL158:
 990:../Drivers/STM32_ExtMem_Manager/sal/stm32_sal_xspi.c ****   XSPI_MemoryMappedTypeDef sMemMappedCfg = {0};
 2116              		.loc 1 990 26 view .LVU698
 2117 0012 011D     		adds	r1, r0, #4
 2118              	.LVL159:
 990:../Drivers/STM32_ExtMem_Manager/sal/stm32_sal_xspi.c ****   XSPI_MemoryMappedTypeDef sMemMappedCfg = {0};
 2119              		.loc 1 990 26 view .LVU699
 2120 0014 2846     		mov	r0, r5
 2121              	.LVL160:
 990:../Drivers/STM32_ExtMem_Manager/sal/stm32_sal_xspi.c ****   XSPI_MemoryMappedTypeDef sMemMappedCfg = {0};
 2122              		.loc 1 990 26 view .LVU700
 2123 0016 FFF7FEFF 		bl	memcpy
 2124              	.LVL161:
 991:../Drivers/STM32_ExtMem_Manager/sal/stm32_sal_xspi.c **** 
 2125              		.loc 1 991 3 is_stmt 1 view .LVU701
 991:../Drivers/STM32_ExtMem_Manager/sal/stm32_sal_xspi.c **** 
 2126              		.loc 1 991 28 is_stmt 0 view .LVU702
 2127 001a 0020     		movs	r0, #0
 2128 001c 0190     		str	r0, [sp, #4]
ARM GAS  /tmp/ccuJg0Ev.s 			page 68


 2129 001e 0290     		str	r0, [sp, #8]
 2130 0020 0390     		str	r0, [sp, #12]
 2131 0022 0490     		str	r0, [sp, #16]
 994:../Drivers/STM32_ExtMem_Manager/sal/stm32_sal_xspi.c ****   s_command.Instruction = XSPI_FormatCommand(SalXspi->CommandExtension, s_command.InstructionWidth,
 2132              		.loc 1 994 3 is_stmt 1 view .LVU703
 994:../Drivers/STM32_ExtMem_Manager/sal/stm32_sal_xspi.c ****   s_command.Instruction = XSPI_FormatCommand(SalXspi->CommandExtension, s_command.InstructionWidth,
