ARM GAS  /tmp/ccJSd4JG.s 			page 1


   1              		.arch armv8.1-m.main
   2              		.fpu fpv5-d16
   3              		.arch_extension dsp
   4              		.arch_extension fp
   5              		.arch_extension fp.dp
   6              		.arch_extension mve
   7              		.arch_extension mve.fp
   8              		.eabi_attribute 5, "cortex-m55"
   9              		.eabi_attribute 28, 1
  10              		.eabi_attribute 20, 1
  11              		.eabi_attribute 21, 1
  12              		.eabi_attribute 23, 3
  13              		.eabi_attribute 24, 1
  14              		.eabi_attribute 25, 1
  15              		.eabi_attribute 26, 1
  16              		.eabi_attribute 30, 1
  17              		.eabi_attribute 34, 1
  18              		.eabi_attribute 38, 1
  19              		.eabi_attribute 18, 4
  20              		.file	"stm32n6xx_hal_i2c_ex.c"
  21              		.text
  22              	.Ltext0:
  23              		.cfi_sections	.debug_frame
  24              		.file 1 "../Drivers/STM32N6xx_HAL_Driver/Src/stm32n6xx_hal_i2c_ex.c"
  25              		.section	.text.HAL_I2CEx_ConfigAnalogFilter,"ax",%progbits
  26              		.align	1
  27              		.global	HAL_I2CEx_ConfigAnalogFilter
  28              		.syntax unified
  29              		.thumb
  30              		.thumb_func
  32              	HAL_I2CEx_ConfigAnalogFilter:
  33              	.LVL0:
  34              	.LFB881:
   1:../Drivers/STM32N6xx_HAL_Driver/Src/stm32n6xx_hal_i2c_ex.c **** /**
   2:../Drivers/STM32N6xx_HAL_Driver/Src/stm32n6xx_hal_i2c_ex.c ****   ******************************************************************************
   3:../Drivers/STM32N6xx_HAL_Driver/Src/stm32n6xx_hal_i2c_ex.c ****   * @file    stm32n6xx_hal_i2c_ex.c
   4:../Drivers/STM32N6xx_HAL_Driver/Src/stm32n6xx_hal_i2c_ex.c ****   * @author  MCD Application Team
   5:../Drivers/STM32N6xx_HAL_Driver/Src/stm32n6xx_hal_i2c_ex.c ****   * @brief   I2C Extended HAL module driver.
   6:../Drivers/STM32N6xx_HAL_Driver/Src/stm32n6xx_hal_i2c_ex.c ****   *          This file provides firmware functions to manage the following
   7:../Drivers/STM32N6xx_HAL_Driver/Src/stm32n6xx_hal_i2c_ex.c ****   *          functionalities of I2C Extended peripheral:
   8:../Drivers/STM32N6xx_HAL_Driver/Src/stm32n6xx_hal_i2c_ex.c ****   *           + Filter Mode Functions
   9:../Drivers/STM32N6xx_HAL_Driver/Src/stm32n6xx_hal_i2c_ex.c ****   *           + WakeUp Mode Functions
  10:../Drivers/STM32N6xx_HAL_Driver/Src/stm32n6xx_hal_i2c_ex.c ****   *           + FastModePlus Functions
  11:../Drivers/STM32N6xx_HAL_Driver/Src/stm32n6xx_hal_i2c_ex.c ****   *
  12:../Drivers/STM32N6xx_HAL_Driver/Src/stm32n6xx_hal_i2c_ex.c ****   ******************************************************************************
  13:../Drivers/STM32N6xx_HAL_Driver/Src/stm32n6xx_hal_i2c_ex.c ****   * @attention
  14:../Drivers/STM32N6xx_HAL_Driver/Src/stm32n6xx_hal_i2c_ex.c ****   *
  15:../Drivers/STM32N6xx_HAL_Driver/Src/stm32n6xx_hal_i2c_ex.c ****   * Copyright (c) 2023 STMicroelectronics.
  16:../Drivers/STM32N6xx_HAL_Driver/Src/stm32n6xx_hal_i2c_ex.c ****   * All rights reserved.
  17:../Drivers/STM32N6xx_HAL_Driver/Src/stm32n6xx_hal_i2c_ex.c ****   *
  18:../Drivers/STM32N6xx_HAL_Driver/Src/stm32n6xx_hal_i2c_ex.c ****   * This software is licensed under terms that can be found in the LICENSE file
  19:../Drivers/STM32N6xx_HAL_Driver/Src/stm32n6xx_hal_i2c_ex.c ****   * in the root directory of this software component.
  20:../Drivers/STM32N6xx_HAL_Driver/Src/stm32n6xx_hal_i2c_ex.c ****   * If no LICENSE file comes with this software, it is provided AS-IS.
  21:../Drivers/STM32N6xx_HAL_Driver/Src/stm32n6xx_hal_i2c_ex.c ****   *
  22:../Drivers/STM32N6xx_HAL_Driver/Src/stm32n6xx_hal_i2c_ex.c ****   ******************************************************************************
  23:../Drivers/STM32N6xx_HAL_Driver/Src/stm32n6xx_hal_i2c_ex.c ****   @verbatim
  24:../Drivers/STM32N6xx_HAL_Driver/Src/stm32n6xx_hal_i2c_ex.c ****   ==============================================================================
ARM GAS  /tmp/ccJSd4JG.s 			page 2


  25:../Drivers/STM32N6xx_HAL_Driver/Src/stm32n6xx_hal_i2c_ex.c ****                ##### I2C peripheral Extended features  #####
  26:../Drivers/STM32N6xx_HAL_Driver/Src/stm32n6xx_hal_i2c_ex.c ****   ==============================================================================
  27:../Drivers/STM32N6xx_HAL_Driver/Src/stm32n6xx_hal_i2c_ex.c **** 
  28:../Drivers/STM32N6xx_HAL_Driver/Src/stm32n6xx_hal_i2c_ex.c ****   [..] Comparing to other previous devices, the I2C interface for STM32N6xx
  29:../Drivers/STM32N6xx_HAL_Driver/Src/stm32n6xx_hal_i2c_ex.c ****        devices contains the following additional features
  30:../Drivers/STM32N6xx_HAL_Driver/Src/stm32n6xx_hal_i2c_ex.c **** 
  31:../Drivers/STM32N6xx_HAL_Driver/Src/stm32n6xx_hal_i2c_ex.c ****        (+) Possibility to disable or enable Analog Noise Filter
  32:../Drivers/STM32N6xx_HAL_Driver/Src/stm32n6xx_hal_i2c_ex.c ****        (+) Use of a configured Digital Noise Filter
  33:../Drivers/STM32N6xx_HAL_Driver/Src/stm32n6xx_hal_i2c_ex.c ****        (+) Disable or enable wakeup from Stop mode(s)
  34:../Drivers/STM32N6xx_HAL_Driver/Src/stm32n6xx_hal_i2c_ex.c ****        (+) Disable or enable Fast Mode Plus
  35:../Drivers/STM32N6xx_HAL_Driver/Src/stm32n6xx_hal_i2c_ex.c **** 
  36:../Drivers/STM32N6xx_HAL_Driver/Src/stm32n6xx_hal_i2c_ex.c ****                      ##### How to use this driver #####
  37:../Drivers/STM32N6xx_HAL_Driver/Src/stm32n6xx_hal_i2c_ex.c ****   ==============================================================================
  38:../Drivers/STM32N6xx_HAL_Driver/Src/stm32n6xx_hal_i2c_ex.c ****   [..] This driver provides functions to configure Noise Filter and Wake Up Feature
  39:../Drivers/STM32N6xx_HAL_Driver/Src/stm32n6xx_hal_i2c_ex.c ****     (#) Configure I2C Analog noise filter using the function HAL_I2CEx_ConfigAnalogFilter()
  40:../Drivers/STM32N6xx_HAL_Driver/Src/stm32n6xx_hal_i2c_ex.c ****     (#) Configure I2C Digital noise filter using the function HAL_I2CEx_ConfigDigitalFilter()
  41:../Drivers/STM32N6xx_HAL_Driver/Src/stm32n6xx_hal_i2c_ex.c ****     (#) Configure the enable or disable of I2C Wake Up Mode using the functions :
  42:../Drivers/STM32N6xx_HAL_Driver/Src/stm32n6xx_hal_i2c_ex.c ****           (++) HAL_I2CEx_EnableWakeUp()
  43:../Drivers/STM32N6xx_HAL_Driver/Src/stm32n6xx_hal_i2c_ex.c ****           (++) HAL_I2CEx_DisableWakeUp()
  44:../Drivers/STM32N6xx_HAL_Driver/Src/stm32n6xx_hal_i2c_ex.c ****     (#) Configure the enable or disable of fast mode plus driving capability using the functions :
  45:../Drivers/STM32N6xx_HAL_Driver/Src/stm32n6xx_hal_i2c_ex.c ****           (++) HAL_I2CEx_ConfigFastModePlus()
  46:../Drivers/STM32N6xx_HAL_Driver/Src/stm32n6xx_hal_i2c_ex.c ****   @endverbatim
  47:../Drivers/STM32N6xx_HAL_Driver/Src/stm32n6xx_hal_i2c_ex.c ****   */
  48:../Drivers/STM32N6xx_HAL_Driver/Src/stm32n6xx_hal_i2c_ex.c **** 
  49:../Drivers/STM32N6xx_HAL_Driver/Src/stm32n6xx_hal_i2c_ex.c **** /* Includes ------------------------------------------------------------------*/
  50:../Drivers/STM32N6xx_HAL_Driver/Src/stm32n6xx_hal_i2c_ex.c **** #include "stm32n6xx_hal.h"
  51:../Drivers/STM32N6xx_HAL_Driver/Src/stm32n6xx_hal_i2c_ex.c **** 
  52:../Drivers/STM32N6xx_HAL_Driver/Src/stm32n6xx_hal_i2c_ex.c **** /** @addtogroup STM32N6xx_HAL_Driver
  53:../Drivers/STM32N6xx_HAL_Driver/Src/stm32n6xx_hal_i2c_ex.c ****   * @{
  54:../Drivers/STM32N6xx_HAL_Driver/Src/stm32n6xx_hal_i2c_ex.c ****   */
  55:../Drivers/STM32N6xx_HAL_Driver/Src/stm32n6xx_hal_i2c_ex.c **** 
  56:../Drivers/STM32N6xx_HAL_Driver/Src/stm32n6xx_hal_i2c_ex.c **** /** @defgroup I2CEx I2CEx
  57:../Drivers/STM32N6xx_HAL_Driver/Src/stm32n6xx_hal_i2c_ex.c ****   * @brief I2C Extended HAL module driver
  58:../Drivers/STM32N6xx_HAL_Driver/Src/stm32n6xx_hal_i2c_ex.c ****   * @{
  59:../Drivers/STM32N6xx_HAL_Driver/Src/stm32n6xx_hal_i2c_ex.c ****   */
  60:../Drivers/STM32N6xx_HAL_Driver/Src/stm32n6xx_hal_i2c_ex.c **** 
  61:../Drivers/STM32N6xx_HAL_Driver/Src/stm32n6xx_hal_i2c_ex.c **** #ifdef HAL_I2C_MODULE_ENABLED
  62:../Drivers/STM32N6xx_HAL_Driver/Src/stm32n6xx_hal_i2c_ex.c **** 
  63:../Drivers/STM32N6xx_HAL_Driver/Src/stm32n6xx_hal_i2c_ex.c **** /* Private typedef -----------------------------------------------------------*/
  64:../Drivers/STM32N6xx_HAL_Driver/Src/stm32n6xx_hal_i2c_ex.c **** /* Private define ------------------------------------------------------------*/
  65:../Drivers/STM32N6xx_HAL_Driver/Src/stm32n6xx_hal_i2c_ex.c **** /* Private macro -------------------------------------------------------------*/
  66:../Drivers/STM32N6xx_HAL_Driver/Src/stm32n6xx_hal_i2c_ex.c **** /* Private variables ---------------------------------------------------------*/
  67:../Drivers/STM32N6xx_HAL_Driver/Src/stm32n6xx_hal_i2c_ex.c **** /* Private function prototypes -----------------------------------------------*/
  68:../Drivers/STM32N6xx_HAL_Driver/Src/stm32n6xx_hal_i2c_ex.c **** /* Private functions ---------------------------------------------------------*/
  69:../Drivers/STM32N6xx_HAL_Driver/Src/stm32n6xx_hal_i2c_ex.c **** 
  70:../Drivers/STM32N6xx_HAL_Driver/Src/stm32n6xx_hal_i2c_ex.c **** /** @defgroup I2CEx_Exported_Functions I2C Extended Exported Functions
  71:../Drivers/STM32N6xx_HAL_Driver/Src/stm32n6xx_hal_i2c_ex.c ****   * @{
  72:../Drivers/STM32N6xx_HAL_Driver/Src/stm32n6xx_hal_i2c_ex.c ****   */
  73:../Drivers/STM32N6xx_HAL_Driver/Src/stm32n6xx_hal_i2c_ex.c **** 
  74:../Drivers/STM32N6xx_HAL_Driver/Src/stm32n6xx_hal_i2c_ex.c **** /** @defgroup I2CEx_Exported_Functions_Group1 Filter Mode Functions
  75:../Drivers/STM32N6xx_HAL_Driver/Src/stm32n6xx_hal_i2c_ex.c ****   * @brief    Filter Mode Functions
  76:../Drivers/STM32N6xx_HAL_Driver/Src/stm32n6xx_hal_i2c_ex.c ****   *
  77:../Drivers/STM32N6xx_HAL_Driver/Src/stm32n6xx_hal_i2c_ex.c **** @verbatim
  78:../Drivers/STM32N6xx_HAL_Driver/Src/stm32n6xx_hal_i2c_ex.c ****  ===============================================================================
  79:../Drivers/STM32N6xx_HAL_Driver/Src/stm32n6xx_hal_i2c_ex.c ****                       ##### Filter Mode Functions #####
  80:../Drivers/STM32N6xx_HAL_Driver/Src/stm32n6xx_hal_i2c_ex.c ****  ===============================================================================
  81:../Drivers/STM32N6xx_HAL_Driver/Src/stm32n6xx_hal_i2c_ex.c ****     [..] This section provides functions allowing to:
ARM GAS  /tmp/ccJSd4JG.s 			page 3


  82:../Drivers/STM32N6xx_HAL_Driver/Src/stm32n6xx_hal_i2c_ex.c ****       (+) Configure Noise Filters
  83:../Drivers/STM32N6xx_HAL_Driver/Src/stm32n6xx_hal_i2c_ex.c **** 
  84:../Drivers/STM32N6xx_HAL_Driver/Src/stm32n6xx_hal_i2c_ex.c **** @endverbatim
  85:../Drivers/STM32N6xx_HAL_Driver/Src/stm32n6xx_hal_i2c_ex.c ****   * @{
  86:../Drivers/STM32N6xx_HAL_Driver/Src/stm32n6xx_hal_i2c_ex.c ****   */
  87:../Drivers/STM32N6xx_HAL_Driver/Src/stm32n6xx_hal_i2c_ex.c **** 
  88:../Drivers/STM32N6xx_HAL_Driver/Src/stm32n6xx_hal_i2c_ex.c **** /**
  89:../Drivers/STM32N6xx_HAL_Driver/Src/stm32n6xx_hal_i2c_ex.c ****   * @brief  Configure I2C Analog noise filter.
  90:../Drivers/STM32N6xx_HAL_Driver/Src/stm32n6xx_hal_i2c_ex.c ****   * @param  hi2c Pointer to a I2C_HandleTypeDef structure that contains
  91:../Drivers/STM32N6xx_HAL_Driver/Src/stm32n6xx_hal_i2c_ex.c ****   *                the configuration information for the specified I2Cx peripheral.
  92:../Drivers/STM32N6xx_HAL_Driver/Src/stm32n6xx_hal_i2c_ex.c ****   * @param  AnalogFilter New state of the Analog filter.
  93:../Drivers/STM32N6xx_HAL_Driver/Src/stm32n6xx_hal_i2c_ex.c ****   * @retval HAL status
  94:../Drivers/STM32N6xx_HAL_Driver/Src/stm32n6xx_hal_i2c_ex.c ****   */
  95:../Drivers/STM32N6xx_HAL_Driver/Src/stm32n6xx_hal_i2c_ex.c **** HAL_StatusTypeDef HAL_I2CEx_ConfigAnalogFilter(I2C_HandleTypeDef *hi2c, uint32_t AnalogFilter)
  96:../Drivers/STM32N6xx_HAL_Driver/Src/stm32n6xx_hal_i2c_ex.c **** {
  35              		.loc 1 96 1 view -0
  36              		.cfi_startproc
  37              		@ args = 0, pretend = 0, frame = 0
  38              		@ frame_needed = 0, uses_anonymous_args = 0
  39              		@ link register save eliminated.
  40              		.loc 1 96 1 is_stmt 0 view .LVU1
  41 0000 0346     		mov	r3, r0
  97:../Drivers/STM32N6xx_HAL_Driver/Src/stm32n6xx_hal_i2c_ex.c ****   /* Check the parameters */
  98:../Drivers/STM32N6xx_HAL_Driver/Src/stm32n6xx_hal_i2c_ex.c ****   assert_param(IS_I2C_ALL_INSTANCE(hi2c->Instance));
  42              		.loc 1 98 3 is_stmt 1 view .LVU2
  99:../Drivers/STM32N6xx_HAL_Driver/Src/stm32n6xx_hal_i2c_ex.c ****   assert_param(IS_I2C_ANALOG_FILTER(AnalogFilter));
  43              		.loc 1 99 3 view .LVU3
 100:../Drivers/STM32N6xx_HAL_Driver/Src/stm32n6xx_hal_i2c_ex.c **** 
 101:../Drivers/STM32N6xx_HAL_Driver/Src/stm32n6xx_hal_i2c_ex.c ****   if (hi2c->State == HAL_I2C_STATE_READY)
  44              		.loc 1 101 3 view .LVU4
  45              		.loc 1 101 11 is_stmt 0 view .LVU5
  46 0002 90F84120 		ldrb	r2, [r0, #65]	@ zero_extendqisi2
  47              		.loc 1 101 6 view .LVU6
  48 0006 202A     		cmp	r2, #32
  49 0008 23D1     		bne	.L2
 102:../Drivers/STM32N6xx_HAL_Driver/Src/stm32n6xx_hal_i2c_ex.c ****   {
 103:../Drivers/STM32N6xx_HAL_Driver/Src/stm32n6xx_hal_i2c_ex.c ****     /* Process Locked */
 104:../Drivers/STM32N6xx_HAL_Driver/Src/stm32n6xx_hal_i2c_ex.c ****     __HAL_LOCK(hi2c);
  50              		.loc 1 104 5 is_stmt 1 view .LVU7
  51              		.loc 1 104 5 view .LVU8
  52 000a 90F84020 		ldrb	r2, [r0, #64]	@ zero_extendqisi2
  53 000e 012A     		cmp	r2, #1
  54 0010 1FD0     		beq	.L2
  55              		.loc 1 104 5 discriminator 2 view .LVU9
  56 0012 0122     		movs	r2, #1
  57 0014 80F84020 		strb	r2, [r0, #64]
  58              		.loc 1 104 5 discriminator 2 view .LVU10
 105:../Drivers/STM32N6xx_HAL_Driver/Src/stm32n6xx_hal_i2c_ex.c **** 
 106:../Drivers/STM32N6xx_HAL_Driver/Src/stm32n6xx_hal_i2c_ex.c ****     hi2c->State = HAL_I2C_STATE_BUSY;
  59              		.loc 1 106 5 view .LVU11
  60              		.loc 1 106 17 is_stmt 0 view .LVU12
  61 0018 2422     		movs	r2, #36
  62 001a 80F84120 		strb	r2, [r0, #65]
 107:../Drivers/STM32N6xx_HAL_Driver/Src/stm32n6xx_hal_i2c_ex.c **** 
 108:../Drivers/STM32N6xx_HAL_Driver/Src/stm32n6xx_hal_i2c_ex.c ****     /* Disable the selected I2C peripheral */
 109:../Drivers/STM32N6xx_HAL_Driver/Src/stm32n6xx_hal_i2c_ex.c ****     __HAL_I2C_DISABLE(hi2c);
  63              		.loc 1 109 5 is_stmt 1 view .LVU13
ARM GAS  /tmp/ccJSd4JG.s 			page 4


  64 001e 0068     		ldr	r0, [r0]
  65              	.LVL1:
  66              		.loc 1 109 5 is_stmt 0 view .LVU14
  67 0020 0268     		ldr	r2, [r0]
  68 0022 22F00102 		bic	r2, r2, #1
  69 0026 0260     		str	r2, [r0]
 110:../Drivers/STM32N6xx_HAL_Driver/Src/stm32n6xx_hal_i2c_ex.c **** 
 111:../Drivers/STM32N6xx_HAL_Driver/Src/stm32n6xx_hal_i2c_ex.c ****     /* Reset I2Cx ANOFF bit */
 112:../Drivers/STM32N6xx_HAL_Driver/Src/stm32n6xx_hal_i2c_ex.c ****     hi2c->Instance->CR1 &= ~(I2C_CR1_ANFOFF);
  70              		.loc 1 112 5 is_stmt 1 view .LVU15
  71              		.loc 1 112 9 is_stmt 0 view .LVU16
  72 0028 1868     		ldr	r0, [r3]
  73              		.loc 1 112 19 view .LVU17
  74 002a 0268     		ldr	r2, [r0]
  75              		.loc 1 112 25 view .LVU18
  76 002c 22F48052 		bic	r2, r2, #4096
  77 0030 0260     		str	r2, [r0]
 113:../Drivers/STM32N6xx_HAL_Driver/Src/stm32n6xx_hal_i2c_ex.c **** 
 114:../Drivers/STM32N6xx_HAL_Driver/Src/stm32n6xx_hal_i2c_ex.c ****     /* Set analog filter bit*/
 115:../Drivers/STM32N6xx_HAL_Driver/Src/stm32n6xx_hal_i2c_ex.c ****     hi2c->Instance->CR1 |= AnalogFilter;
  78              		.loc 1 115 5 is_stmt 1 view .LVU19
  79              		.loc 1 115 9 is_stmt 0 view .LVU20
  80 0032 1868     		ldr	r0, [r3]
  81              		.loc 1 115 19 view .LVU21
  82 0034 0268     		ldr	r2, [r0]
  83              		.loc 1 115 25 view .LVU22
  84 0036 0A43     		orrs	r2, r2, r1
  85 0038 0260     		str	r2, [r0]
 116:../Drivers/STM32N6xx_HAL_Driver/Src/stm32n6xx_hal_i2c_ex.c **** 
 117:../Drivers/STM32N6xx_HAL_Driver/Src/stm32n6xx_hal_i2c_ex.c ****     __HAL_I2C_ENABLE(hi2c);
  86              		.loc 1 117 5 is_stmt 1 view .LVU23
  87 003a 1968     		ldr	r1, [r3]
  88              	.LVL2:
  89              		.loc 1 117 5 is_stmt 0 view .LVU24
  90 003c 0A68     		ldr	r2, [r1]
  91 003e 42F00102 		orr	r2, r2, #1
  92 0042 0A60     		str	r2, [r1]
 118:../Drivers/STM32N6xx_HAL_Driver/Src/stm32n6xx_hal_i2c_ex.c **** 
 119:../Drivers/STM32N6xx_HAL_Driver/Src/stm32n6xx_hal_i2c_ex.c ****     hi2c->State = HAL_I2C_STATE_READY;
  93              		.loc 1 119 5 is_stmt 1 view .LVU25
  94              		.loc 1 119 17 is_stmt 0 view .LVU26
  95 0044 2022     		movs	r2, #32
  96 0046 83F84120 		strb	r2, [r3, #65]
 120:../Drivers/STM32N6xx_HAL_Driver/Src/stm32n6xx_hal_i2c_ex.c **** 
 121:../Drivers/STM32N6xx_HAL_Driver/Src/stm32n6xx_hal_i2c_ex.c ****     /* Process Unlocked */
 122:../Drivers/STM32N6xx_HAL_Driver/Src/stm32n6xx_hal_i2c_ex.c ****     __HAL_UNLOCK(hi2c);
  97              		.loc 1 122 5 is_stmt 1 view .LVU27
  98              		.loc 1 122 5 view .LVU28
  99 004a 0020     		movs	r0, #0
 100 004c 83F84000 		strb	r0, [r3, #64]
 101              		.loc 1 122 5 view .LVU29
 123:../Drivers/STM32N6xx_HAL_Driver/Src/stm32n6xx_hal_i2c_ex.c **** 
 124:../Drivers/STM32N6xx_HAL_Driver/Src/stm32n6xx_hal_i2c_ex.c ****     return HAL_OK;
 102              		.loc 1 124 5 view .LVU30
 125:../Drivers/STM32N6xx_HAL_Driver/Src/stm32n6xx_hal_i2c_ex.c ****   }
 126:../Drivers/STM32N6xx_HAL_Driver/Src/stm32n6xx_hal_i2c_ex.c ****   else
 127:../Drivers/STM32N6xx_HAL_Driver/Src/stm32n6xx_hal_i2c_ex.c ****   {
ARM GAS  /tmp/ccJSd4JG.s 			page 5


 128:../Drivers/STM32N6xx_HAL_Driver/Src/stm32n6xx_hal_i2c_ex.c ****     return HAL_BUSY;
 129:../Drivers/STM32N6xx_HAL_Driver/Src/stm32n6xx_hal_i2c_ex.c ****   }
 130:../Drivers/STM32N6xx_HAL_Driver/Src/stm32n6xx_hal_i2c_ex.c **** }
 103              		.loc 1 130 1 is_stmt 0 view .LVU31
 104 0050 7047     		bx	lr
 105              	.LVL3:
 106              	.L2:
 104:../Drivers/STM32N6xx_HAL_Driver/Src/stm32n6xx_hal_i2c_ex.c **** 
 107              		.loc 1 104 5 discriminator 1 view .LVU32
 108 0052 0220     		movs	r0, #2
 109              	.LVL4:
 104:../Drivers/STM32N6xx_HAL_Driver/Src/stm32n6xx_hal_i2c_ex.c **** 
 110              		.loc 1 104 5 discriminator 1 view .LVU33
 111 0054 7047     		bx	lr
 112              		.cfi_endproc
 113              	.LFE881:
 115              		.section	.text.HAL_I2CEx_ConfigDigitalFilter,"ax",%progbits
 116              		.align	1
 117              		.global	HAL_I2CEx_ConfigDigitalFilter
 118              		.syntax unified
 119              		.thumb
 120              		.thumb_func
 122              	HAL_I2CEx_ConfigDigitalFilter:
 123              	.LVL5:
 124              	.LFB882:
 131:../Drivers/STM32N6xx_HAL_Driver/Src/stm32n6xx_hal_i2c_ex.c **** 
 132:../Drivers/STM32N6xx_HAL_Driver/Src/stm32n6xx_hal_i2c_ex.c **** /**
 133:../Drivers/STM32N6xx_HAL_Driver/Src/stm32n6xx_hal_i2c_ex.c ****   * @brief  Configure I2C Digital noise filter.
 134:../Drivers/STM32N6xx_HAL_Driver/Src/stm32n6xx_hal_i2c_ex.c ****   * @param  hi2c Pointer to a I2C_HandleTypeDef structure that contains
 135:../Drivers/STM32N6xx_HAL_Driver/Src/stm32n6xx_hal_i2c_ex.c ****   *                the configuration information for the specified I2Cx peripheral.
 136:../Drivers/STM32N6xx_HAL_Driver/Src/stm32n6xx_hal_i2c_ex.c ****   * @param  DigitalFilter Coefficient of digital noise filter between Min_Data=0x00 and Max_Data=0x
 137:../Drivers/STM32N6xx_HAL_Driver/Src/stm32n6xx_hal_i2c_ex.c ****   * @retval HAL status
 138:../Drivers/STM32N6xx_HAL_Driver/Src/stm32n6xx_hal_i2c_ex.c ****   */
 139:../Drivers/STM32N6xx_HAL_Driver/Src/stm32n6xx_hal_i2c_ex.c **** HAL_StatusTypeDef HAL_I2CEx_ConfigDigitalFilter(I2C_HandleTypeDef *hi2c, uint32_t DigitalFilter)
 140:../Drivers/STM32N6xx_HAL_Driver/Src/stm32n6xx_hal_i2c_ex.c **** {
 125              		.loc 1 140 1 is_stmt 1 view -0
 126              		.cfi_startproc
 127              		@ args = 0, pretend = 0, frame = 0
 128              		@ frame_needed = 0, uses_anonymous_args = 0
 129              		@ link register save eliminated.
 130              		.loc 1 140 1 is_stmt 0 view .LVU35
 131 0000 0346     		mov	r3, r0
 141:../Drivers/STM32N6xx_HAL_Driver/Src/stm32n6xx_hal_i2c_ex.c ****   uint32_t tmpreg;
 132              		.loc 1 141 3 is_stmt 1 view .LVU36
 142:../Drivers/STM32N6xx_HAL_Driver/Src/stm32n6xx_hal_i2c_ex.c **** 
 143:../Drivers/STM32N6xx_HAL_Driver/Src/stm32n6xx_hal_i2c_ex.c ****   /* Check the parameters */
 144:../Drivers/STM32N6xx_HAL_Driver/Src/stm32n6xx_hal_i2c_ex.c ****   assert_param(IS_I2C_ALL_INSTANCE(hi2c->Instance));
 133              		.loc 1 144 3 view .LVU37
 145:../Drivers/STM32N6xx_HAL_Driver/Src/stm32n6xx_hal_i2c_ex.c ****   assert_param(IS_I2C_DIGITAL_FILTER(DigitalFilter));
 134              		.loc 1 145 3 view .LVU38
 146:../Drivers/STM32N6xx_HAL_Driver/Src/stm32n6xx_hal_i2c_ex.c **** 
 147:../Drivers/STM32N6xx_HAL_Driver/Src/stm32n6xx_hal_i2c_ex.c ****   if (hi2c->State == HAL_I2C_STATE_READY)
 135              		.loc 1 147 3 view .LVU39
 136              		.loc 1 147 11 is_stmt 0 view .LVU40
 137 0002 90F84120 		ldrb	r2, [r0, #65]	@ zero_extendqisi2
 138              		.loc 1 147 6 view .LVU41
 139 0006 202A     		cmp	r2, #32
ARM GAS  /tmp/ccJSd4JG.s 			page 6


 140 0008 21D1     		bne	.L6
 148:../Drivers/STM32N6xx_HAL_Driver/Src/stm32n6xx_hal_i2c_ex.c ****   {
 149:../Drivers/STM32N6xx_HAL_Driver/Src/stm32n6xx_hal_i2c_ex.c ****     /* Process Locked */
 150:../Drivers/STM32N6xx_HAL_Driver/Src/stm32n6xx_hal_i2c_ex.c ****     __HAL_LOCK(hi2c);
 141              		.loc 1 150 5 is_stmt 1 view .LVU42
 142              		.loc 1 150 5 view .LVU43
 143 000a 90F84020 		ldrb	r2, [r0, #64]	@ zero_extendqisi2
 144 000e 012A     		cmp	r2, #1
 145 0010 1DD0     		beq	.L6
 146              		.loc 1 150 5 discriminator 2 view .LVU44
 147 0012 0122     		movs	r2, #1
 148 0014 80F84020 		strb	r2, [r0, #64]
 149              		.loc 1 150 5 discriminator 2 view .LVU45
 151:../Drivers/STM32N6xx_HAL_Driver/Src/stm32n6xx_hal_i2c_ex.c **** 
 152:../Drivers/STM32N6xx_HAL_Driver/Src/stm32n6xx_hal_i2c_ex.c ****     hi2c->State = HAL_I2C_STATE_BUSY;
 150              		.loc 1 152 5 view .LVU46
 151              		.loc 1 152 17 is_stmt 0 view .LVU47
 152 0018 2422     		movs	r2, #36
 153 001a 80F84120 		strb	r2, [r0, #65]
 153:../Drivers/STM32N6xx_HAL_Driver/Src/stm32n6xx_hal_i2c_ex.c **** 
 154:../Drivers/STM32N6xx_HAL_Driver/Src/stm32n6xx_hal_i2c_ex.c ****     /* Disable the selected I2C peripheral */
 155:../Drivers/STM32N6xx_HAL_Driver/Src/stm32n6xx_hal_i2c_ex.c ****     __HAL_I2C_DISABLE(hi2c);
 154              		.loc 1 155 5 is_stmt 1 view .LVU48
 155 001e 0068     		ldr	r0, [r0]
 156              	.LVL6:
 157              		.loc 1 155 5 is_stmt 0 view .LVU49
 158 0020 0268     		ldr	r2, [r0]
 159 0022 22F00102 		bic	r2, r2, #1
 160 0026 0260     		str	r2, [r0]
 156:../Drivers/STM32N6xx_HAL_Driver/Src/stm32n6xx_hal_i2c_ex.c **** 
 157:../Drivers/STM32N6xx_HAL_Driver/Src/stm32n6xx_hal_i2c_ex.c ****     /* Get the old register value */
 158:../Drivers/STM32N6xx_HAL_Driver/Src/stm32n6xx_hal_i2c_ex.c ****     tmpreg = hi2c->Instance->CR1;
 161              		.loc 1 158 5 is_stmt 1 view .LVU50
 162              		.loc 1 158 18 is_stmt 0 view .LVU51
 163 0028 1868     		ldr	r0, [r3]
 164              		.loc 1 158 12 view .LVU52
 165 002a 0268     		ldr	r2, [r0]
 166              	.LVL7:
 159:../Drivers/STM32N6xx_HAL_Driver/Src/stm32n6xx_hal_i2c_ex.c **** 
 160:../Drivers/STM32N6xx_HAL_Driver/Src/stm32n6xx_hal_i2c_ex.c ****     /* Reset I2Cx DNF bits [11:8] */
 161:../Drivers/STM32N6xx_HAL_Driver/Src/stm32n6xx_hal_i2c_ex.c ****     tmpreg &= ~(I2C_CR1_DNF);
 167              		.loc 1 161 5 is_stmt 1 view .LVU53
 168              		.loc 1 161 12 is_stmt 0 view .LVU54
 169 002c 22F47062 		bic	r2, r2, #3840
 170              	.LVL8:
 162:../Drivers/STM32N6xx_HAL_Driver/Src/stm32n6xx_hal_i2c_ex.c **** 
 163:../Drivers/STM32N6xx_HAL_Driver/Src/stm32n6xx_hal_i2c_ex.c ****     /* Set I2Cx DNF coefficient */
 164:../Drivers/STM32N6xx_HAL_Driver/Src/stm32n6xx_hal_i2c_ex.c ****     tmpreg |= DigitalFilter << 8U;
 171              		.loc 1 164 5 is_stmt 1 view .LVU55
 172              		.loc 1 164 12 is_stmt 0 view .LVU56
 173 0030 42EA0122 		orr	r2, r2, r1, lsl #8
 174              	.LVL9:
 165:../Drivers/STM32N6xx_HAL_Driver/Src/stm32n6xx_hal_i2c_ex.c **** 
 166:../Drivers/STM32N6xx_HAL_Driver/Src/stm32n6xx_hal_i2c_ex.c ****     /* Store the new register value */
 167:../Drivers/STM32N6xx_HAL_Driver/Src/stm32n6xx_hal_i2c_ex.c ****     hi2c->Instance->CR1 = tmpreg;
 175              		.loc 1 167 5 is_stmt 1 view .LVU57
 176              		.loc 1 167 25 is_stmt 0 view .LVU58
ARM GAS  /tmp/ccJSd4JG.s 			page 7


 177 0034 0260     		str	r2, [r0]
 168:../Drivers/STM32N6xx_HAL_Driver/Src/stm32n6xx_hal_i2c_ex.c **** 
 169:../Drivers/STM32N6xx_HAL_Driver/Src/stm32n6xx_hal_i2c_ex.c ****     __HAL_I2C_ENABLE(hi2c);
 178              		.loc 1 169 5 is_stmt 1 view .LVU59
 179 0036 1968     		ldr	r1, [r3]
 180              	.LVL10:
 181              		.loc 1 169 5 is_stmt 0 view .LVU60
 182 0038 0A68     		ldr	r2, [r1]
 183              	.LVL11:
 184              		.loc 1 169 5 view .LVU61
 185 003a 42F00102 		orr	r2, r2, #1
 186 003e 0A60     		str	r2, [r1]
 187              	.LVL12:
 170:../Drivers/STM32N6xx_HAL_Driver/Src/stm32n6xx_hal_i2c_ex.c **** 
 171:../Drivers/STM32N6xx_HAL_Driver/Src/stm32n6xx_hal_i2c_ex.c ****     hi2c->State = HAL_I2C_STATE_READY;
 188              		.loc 1 171 5 is_stmt 1 view .LVU62
 189              		.loc 1 171 17 is_stmt 0 view .LVU63
 190 0040 2022     		movs	r2, #32
 191 0042 83F84120 		strb	r2, [r3, #65]
 172:../Drivers/STM32N6xx_HAL_Driver/Src/stm32n6xx_hal_i2c_ex.c **** 
 173:../Drivers/STM32N6xx_HAL_Driver/Src/stm32n6xx_hal_i2c_ex.c ****     /* Process Unlocked */
 174:../Drivers/STM32N6xx_HAL_Driver/Src/stm32n6xx_hal_i2c_ex.c ****     __HAL_UNLOCK(hi2c);
 192              		.loc 1 174 5 is_stmt 1 view .LVU64
 193              		.loc 1 174 5 view .LVU65
 194 0046 0020     		movs	r0, #0
 195 0048 83F84000 		strb	r0, [r3, #64]
 196              		.loc 1 174 5 view .LVU66
 175:../Drivers/STM32N6xx_HAL_Driver/Src/stm32n6xx_hal_i2c_ex.c **** 
 176:../Drivers/STM32N6xx_HAL_Driver/Src/stm32n6xx_hal_i2c_ex.c ****     return HAL_OK;
 197              		.loc 1 176 5 view .LVU67
 177:../Drivers/STM32N6xx_HAL_Driver/Src/stm32n6xx_hal_i2c_ex.c ****   }
 178:../Drivers/STM32N6xx_HAL_Driver/Src/stm32n6xx_hal_i2c_ex.c ****   else
 179:../Drivers/STM32N6xx_HAL_Driver/Src/stm32n6xx_hal_i2c_ex.c ****   {
 180:../Drivers/STM32N6xx_HAL_Driver/Src/stm32n6xx_hal_i2c_ex.c ****     return HAL_BUSY;
 181:../Drivers/STM32N6xx_HAL_Driver/Src/stm32n6xx_hal_i2c_ex.c ****   }
 182:../Drivers/STM32N6xx_HAL_Driver/Src/stm32n6xx_hal_i2c_ex.c **** }
 198              		.loc 1 182 1 is_stmt 0 view .LVU68
 199 004c 7047     		bx	lr
 200              	.LVL13:
 201              	.L6:
 150:../Drivers/STM32N6xx_HAL_Driver/Src/stm32n6xx_hal_i2c_ex.c **** 
 202              		.loc 1 150 5 discriminator 1 view .LVU69
 203 004e 0220     		movs	r0, #2
 204              	.LVL14:
 150:../Drivers/STM32N6xx_HAL_Driver/Src/stm32n6xx_hal_i2c_ex.c **** 
 205              		.loc 1 150 5 discriminator 1 view .LVU70
 206 0050 7047     		bx	lr
 207              		.cfi_endproc
 208              	.LFE882:
 210              		.section	.text.HAL_I2CEx_EnableWakeUp,"ax",%progbits
 211              		.align	1
 212              		.global	HAL_I2CEx_EnableWakeUp
 213              		.syntax unified
 214              		.thumb
 215              		.thumb_func
 217              	HAL_I2CEx_EnableWakeUp:
 218              	.LVL15:
ARM GAS  /tmp/ccJSd4JG.s 			page 8


 219              	.LFB883:
 183:../Drivers/STM32N6xx_HAL_Driver/Src/stm32n6xx_hal_i2c_ex.c **** /**
 184:../Drivers/STM32N6xx_HAL_Driver/Src/stm32n6xx_hal_i2c_ex.c ****   * @}
 185:../Drivers/STM32N6xx_HAL_Driver/Src/stm32n6xx_hal_i2c_ex.c ****   */
 186:../Drivers/STM32N6xx_HAL_Driver/Src/stm32n6xx_hal_i2c_ex.c **** 
 187:../Drivers/STM32N6xx_HAL_Driver/Src/stm32n6xx_hal_i2c_ex.c **** /** @defgroup I2CEx_Exported_Functions_Group2 WakeUp Mode Functions
 188:../Drivers/STM32N6xx_HAL_Driver/Src/stm32n6xx_hal_i2c_ex.c ****   * @brief    WakeUp Mode Functions
 189:../Drivers/STM32N6xx_HAL_Driver/Src/stm32n6xx_hal_i2c_ex.c ****   *
 190:../Drivers/STM32N6xx_HAL_Driver/Src/stm32n6xx_hal_i2c_ex.c **** @verbatim
 191:../Drivers/STM32N6xx_HAL_Driver/Src/stm32n6xx_hal_i2c_ex.c ****  ===============================================================================
 192:../Drivers/STM32N6xx_HAL_Driver/Src/stm32n6xx_hal_i2c_ex.c ****                       ##### WakeUp Mode Functions #####
 193:../Drivers/STM32N6xx_HAL_Driver/Src/stm32n6xx_hal_i2c_ex.c ****  ===============================================================================
 194:../Drivers/STM32N6xx_HAL_Driver/Src/stm32n6xx_hal_i2c_ex.c ****     [..] This section provides functions allowing to:
 195:../Drivers/STM32N6xx_HAL_Driver/Src/stm32n6xx_hal_i2c_ex.c ****       (+) Configure Wake Up Feature
 196:../Drivers/STM32N6xx_HAL_Driver/Src/stm32n6xx_hal_i2c_ex.c **** 
 197:../Drivers/STM32N6xx_HAL_Driver/Src/stm32n6xx_hal_i2c_ex.c **** @endverbatim
 198:../Drivers/STM32N6xx_HAL_Driver/Src/stm32n6xx_hal_i2c_ex.c ****   * @{
 199:../Drivers/STM32N6xx_HAL_Driver/Src/stm32n6xx_hal_i2c_ex.c ****   */
 200:../Drivers/STM32N6xx_HAL_Driver/Src/stm32n6xx_hal_i2c_ex.c **** 
 201:../Drivers/STM32N6xx_HAL_Driver/Src/stm32n6xx_hal_i2c_ex.c **** /**
 202:../Drivers/STM32N6xx_HAL_Driver/Src/stm32n6xx_hal_i2c_ex.c ****   * @brief  Enable I2C wakeup from Stop mode(s).
 203:../Drivers/STM32N6xx_HAL_Driver/Src/stm32n6xx_hal_i2c_ex.c ****   * @param  hi2c Pointer to a I2C_HandleTypeDef structure that contains
 204:../Drivers/STM32N6xx_HAL_Driver/Src/stm32n6xx_hal_i2c_ex.c ****   *                the configuration information for the specified I2Cx peripheral.
 205:../Drivers/STM32N6xx_HAL_Driver/Src/stm32n6xx_hal_i2c_ex.c ****   * @retval HAL status
 206:../Drivers/STM32N6xx_HAL_Driver/Src/stm32n6xx_hal_i2c_ex.c ****   */
 207:../Drivers/STM32N6xx_HAL_Driver/Src/stm32n6xx_hal_i2c_ex.c **** HAL_StatusTypeDef HAL_I2CEx_EnableWakeUp(I2C_HandleTypeDef *hi2c)
 208:../Drivers/STM32N6xx_HAL_Driver/Src/stm32n6xx_hal_i2c_ex.c **** {
 220              		.loc 1 208 1 is_stmt 1 view -0
 221              		.cfi_startproc
 222              		@ args = 0, pretend = 0, frame = 0
 223              		@ frame_needed = 0, uses_anonymous_args = 0
 224              		@ link register save eliminated.
 225              		.loc 1 208 1 is_stmt 0 view .LVU72
 226 0000 0346     		mov	r3, r0
 209:../Drivers/STM32N6xx_HAL_Driver/Src/stm32n6xx_hal_i2c_ex.c ****   /* Check the parameters */
 210:../Drivers/STM32N6xx_HAL_Driver/Src/stm32n6xx_hal_i2c_ex.c ****   assert_param(IS_I2C_WAKEUP_FROMSTOP_INSTANCE(hi2c->Instance));
 227              		.loc 1 210 3 is_stmt 1 view .LVU73
 211:../Drivers/STM32N6xx_HAL_Driver/Src/stm32n6xx_hal_i2c_ex.c **** 
 212:../Drivers/STM32N6xx_HAL_Driver/Src/stm32n6xx_hal_i2c_ex.c ****   if (hi2c->State == HAL_I2C_STATE_READY)
 228              		.loc 1 212 3 view .LVU74
 229              		.loc 1 212 11 is_stmt 0 view .LVU75
 230 0002 90F84120 		ldrb	r2, [r0, #65]	@ zero_extendqisi2
 231              		.loc 1 212 6 view .LVU76
 232 0006 202A     		cmp	r2, #32
 233 0008 1FD1     		bne	.L10
 213:../Drivers/STM32N6xx_HAL_Driver/Src/stm32n6xx_hal_i2c_ex.c ****   {
 214:../Drivers/STM32N6xx_HAL_Driver/Src/stm32n6xx_hal_i2c_ex.c ****     /* Process Locked */
 215:../Drivers/STM32N6xx_HAL_Driver/Src/stm32n6xx_hal_i2c_ex.c ****     __HAL_LOCK(hi2c);
 234              		.loc 1 215 5 is_stmt 1 view .LVU77
 235              		.loc 1 215 5 view .LVU78
 236 000a 90F84020 		ldrb	r2, [r0, #64]	@ zero_extendqisi2
 237 000e 012A     		cmp	r2, #1
 238 0010 1BD0     		beq	.L10
 239              		.loc 1 215 5 discriminator 2 view .LVU79
 240 0012 0122     		movs	r2, #1
 241 0014 80F84020 		strb	r2, [r0, #64]
 242              		.loc 1 215 5 discriminator 2 view .LVU80
ARM GAS  /tmp/ccJSd4JG.s 			page 9


 216:../Drivers/STM32N6xx_HAL_Driver/Src/stm32n6xx_hal_i2c_ex.c **** 
 217:../Drivers/STM32N6xx_HAL_Driver/Src/stm32n6xx_hal_i2c_ex.c ****     hi2c->State = HAL_I2C_STATE_BUSY;
 243              		.loc 1 217 5 view .LVU81
 244              		.loc 1 217 17 is_stmt 0 view .LVU82
 245 0018 2422     		movs	r2, #36
 246 001a 80F84120 		strb	r2, [r0, #65]
 218:../Drivers/STM32N6xx_HAL_Driver/Src/stm32n6xx_hal_i2c_ex.c **** 
 219:../Drivers/STM32N6xx_HAL_Driver/Src/stm32n6xx_hal_i2c_ex.c ****     /* Disable the selected I2C peripheral */
 220:../Drivers/STM32N6xx_HAL_Driver/Src/stm32n6xx_hal_i2c_ex.c ****     __HAL_I2C_DISABLE(hi2c);
 247              		.loc 1 220 5 is_stmt 1 view .LVU83
 248 001e 0168     		ldr	r1, [r0]
 249 0020 0A68     		ldr	r2, [r1]
 250 0022 22F00102 		bic	r2, r2, #1
 251 0026 0A60     		str	r2, [r1]
 221:../Drivers/STM32N6xx_HAL_Driver/Src/stm32n6xx_hal_i2c_ex.c **** 
 222:../Drivers/STM32N6xx_HAL_Driver/Src/stm32n6xx_hal_i2c_ex.c ****     /* Enable wakeup from stop mode */
 223:../Drivers/STM32N6xx_HAL_Driver/Src/stm32n6xx_hal_i2c_ex.c ****     hi2c->Instance->CR1 |= I2C_CR1_WUPEN;
 252              		.loc 1 223 5 view .LVU84
 253              		.loc 1 223 9 is_stmt 0 view .LVU85
 254 0028 0168     		ldr	r1, [r0]
 255              		.loc 1 223 19 view .LVU86
 256 002a 0A68     		ldr	r2, [r1]
 257              		.loc 1 223 25 view .LVU87
 258 002c 42F48022 		orr	r2, r2, #262144
 259 0030 0A60     		str	r2, [r1]
 224:../Drivers/STM32N6xx_HAL_Driver/Src/stm32n6xx_hal_i2c_ex.c **** 
 225:../Drivers/STM32N6xx_HAL_Driver/Src/stm32n6xx_hal_i2c_ex.c ****     __HAL_I2C_ENABLE(hi2c);
 260              		.loc 1 225 5 is_stmt 1 view .LVU88
 261 0032 0168     		ldr	r1, [r0]
 262 0034 0A68     		ldr	r2, [r1]
 263 0036 42F00102 		orr	r2, r2, #1
 264 003a 0A60     		str	r2, [r1]
 226:../Drivers/STM32N6xx_HAL_Driver/Src/stm32n6xx_hal_i2c_ex.c **** 
 227:../Drivers/STM32N6xx_HAL_Driver/Src/stm32n6xx_hal_i2c_ex.c ****     hi2c->State = HAL_I2C_STATE_READY;
 265              		.loc 1 227 5 view .LVU89
 266              		.loc 1 227 17 is_stmt 0 view .LVU90
 267 003c 2022     		movs	r2, #32
 268 003e 80F84120 		strb	r2, [r0, #65]
 228:../Drivers/STM32N6xx_HAL_Driver/Src/stm32n6xx_hal_i2c_ex.c **** 
 229:../Drivers/STM32N6xx_HAL_Driver/Src/stm32n6xx_hal_i2c_ex.c ****     /* Process Unlocked */
 230:../Drivers/STM32N6xx_HAL_Driver/Src/stm32n6xx_hal_i2c_ex.c ****     __HAL_UNLOCK(hi2c);
 269              		.loc 1 230 5 is_stmt 1 view .LVU91
 270              		.loc 1 230 5 view .LVU92
 271 0042 0020     		movs	r0, #0
 272              	.LVL16:
 273              		.loc 1 230 5 is_stmt 0 view .LVU93
 274 0044 83F84000 		strb	r0, [r3, #64]
 275              		.loc 1 230 5 is_stmt 1 view .LVU94
 231:../Drivers/STM32N6xx_HAL_Driver/Src/stm32n6xx_hal_i2c_ex.c **** 
 232:../Drivers/STM32N6xx_HAL_Driver/Src/stm32n6xx_hal_i2c_ex.c ****     return HAL_OK;
 276              		.loc 1 232 5 view .LVU95
 233:../Drivers/STM32N6xx_HAL_Driver/Src/stm32n6xx_hal_i2c_ex.c ****   }
 234:../Drivers/STM32N6xx_HAL_Driver/Src/stm32n6xx_hal_i2c_ex.c ****   else
 235:../Drivers/STM32N6xx_HAL_Driver/Src/stm32n6xx_hal_i2c_ex.c ****   {
 236:../Drivers/STM32N6xx_HAL_Driver/Src/stm32n6xx_hal_i2c_ex.c ****     return HAL_BUSY;
 237:../Drivers/STM32N6xx_HAL_Driver/Src/stm32n6xx_hal_i2c_ex.c ****   }
 238:../Drivers/STM32N6xx_HAL_Driver/Src/stm32n6xx_hal_i2c_ex.c **** }
ARM GAS  /tmp/ccJSd4JG.s 			page 10


 277              		.loc 1 238 1 is_stmt 0 view .LVU96
 278 0048 7047     		bx	lr
 279              	.LVL17:
 280              	.L10:
 215:../Drivers/STM32N6xx_HAL_Driver/Src/stm32n6xx_hal_i2c_ex.c **** 
 281              		.loc 1 215 5 discriminator 1 view .LVU97
 282 004a 0220     		movs	r0, #2
 283              	.LVL18:
 215:../Drivers/STM32N6xx_HAL_Driver/Src/stm32n6xx_hal_i2c_ex.c **** 
 284              		.loc 1 215 5 discriminator 1 view .LVU98
 285 004c 7047     		bx	lr
 286              		.cfi_endproc
 287              	.LFE883:
 289              		.section	.text.HAL_I2CEx_DisableWakeUp,"ax",%progbits
 290              		.align	1
 291              		.global	HAL_I2CEx_DisableWakeUp
 292              		.syntax unified
 293              		.thumb
 294              		.thumb_func
 296              	HAL_I2CEx_DisableWakeUp:
 297              	.LVL19:
 298              	.LFB884:
 239:../Drivers/STM32N6xx_HAL_Driver/Src/stm32n6xx_hal_i2c_ex.c **** 
 240:../Drivers/STM32N6xx_HAL_Driver/Src/stm32n6xx_hal_i2c_ex.c **** /**
 241:../Drivers/STM32N6xx_HAL_Driver/Src/stm32n6xx_hal_i2c_ex.c ****   * @brief  Disable I2C wakeup from Stop mode(s).
 242:../Drivers/STM32N6xx_HAL_Driver/Src/stm32n6xx_hal_i2c_ex.c ****   * @param  hi2c Pointer to a I2C_HandleTypeDef structure that contains
 243:../Drivers/STM32N6xx_HAL_Driver/Src/stm32n6xx_hal_i2c_ex.c ****   *                the configuration information for the specified I2Cx peripheral.
 244:../Drivers/STM32N6xx_HAL_Driver/Src/stm32n6xx_hal_i2c_ex.c ****   * @retval HAL status
 245:../Drivers/STM32N6xx_HAL_Driver/Src/stm32n6xx_hal_i2c_ex.c ****   */
 246:../Drivers/STM32N6xx_HAL_Driver/Src/stm32n6xx_hal_i2c_ex.c **** HAL_StatusTypeDef HAL_I2CEx_DisableWakeUp(I2C_HandleTypeDef *hi2c)
 247:../Drivers/STM32N6xx_HAL_Driver/Src/stm32n6xx_hal_i2c_ex.c **** {
 299              		.loc 1 247 1 is_stmt 1 view -0
 300              		.cfi_startproc
 301              		@ args = 0, pretend = 0, frame = 0
 302              		@ frame_needed = 0, uses_anonymous_args = 0
 303              		@ link register save eliminated.
 304              		.loc 1 247 1 is_stmt 0 view .LVU100
 305 0000 0346     		mov	r3, r0
 248:../Drivers/STM32N6xx_HAL_Driver/Src/stm32n6xx_hal_i2c_ex.c ****   /* Check the parameters */
 249:../Drivers/STM32N6xx_HAL_Driver/Src/stm32n6xx_hal_i2c_ex.c ****   assert_param(IS_I2C_WAKEUP_FROMSTOP_INSTANCE(hi2c->Instance));
 306              		.loc 1 249 3 is_stmt 1 view .LVU101
 250:../Drivers/STM32N6xx_HAL_Driver/Src/stm32n6xx_hal_i2c_ex.c **** 
 251:../Drivers/STM32N6xx_HAL_Driver/Src/stm32n6xx_hal_i2c_ex.c ****   if (hi2c->State == HAL_I2C_STATE_READY)
 307              		.loc 1 251 3 view .LVU102
 308              		.loc 1 251 11 is_stmt 0 view .LVU103
 309 0002 90F84120 		ldrb	r2, [r0, #65]	@ zero_extendqisi2
 310              		.loc 1 251 6 view .LVU104
 311 0006 202A     		cmp	r2, #32
 312 0008 1FD1     		bne	.L14
 252:../Drivers/STM32N6xx_HAL_Driver/Src/stm32n6xx_hal_i2c_ex.c ****   {
 253:../Drivers/STM32N6xx_HAL_Driver/Src/stm32n6xx_hal_i2c_ex.c ****     /* Process Locked */
 254:../Drivers/STM32N6xx_HAL_Driver/Src/stm32n6xx_hal_i2c_ex.c ****     __HAL_LOCK(hi2c);
 313              		.loc 1 254 5 is_stmt 1 view .LVU105
 314              		.loc 1 254 5 view .LVU106
 315 000a 90F84020 		ldrb	r2, [r0, #64]	@ zero_extendqisi2
 316 000e 012A     		cmp	r2, #1
 317 0010 1BD0     		beq	.L14
ARM GAS  /tmp/ccJSd4JG.s 			page 11


 318              		.loc 1 254 5 discriminator 2 view .LVU107
 319 0012 0122     		movs	r2, #1
 320 0014 80F84020 		strb	r2, [r0, #64]
 321              		.loc 1 254 5 discriminator 2 view .LVU108
 255:../Drivers/STM32N6xx_HAL_Driver/Src/stm32n6xx_hal_i2c_ex.c **** 
 256:../Drivers/STM32N6xx_HAL_Driver/Src/stm32n6xx_hal_i2c_ex.c ****     hi2c->State = HAL_I2C_STATE_BUSY;
 322              		.loc 1 256 5 view .LVU109
 323              		.loc 1 256 17 is_stmt 0 view .LVU110
 324 0018 2422     		movs	r2, #36
 325 001a 80F84120 		strb	r2, [r0, #65]
 257:../Drivers/STM32N6xx_HAL_Driver/Src/stm32n6xx_hal_i2c_ex.c **** 
 258:../Drivers/STM32N6xx_HAL_Driver/Src/stm32n6xx_hal_i2c_ex.c ****     /* Disable the selected I2C peripheral */
 259:../Drivers/STM32N6xx_HAL_Driver/Src/stm32n6xx_hal_i2c_ex.c ****     __HAL_I2C_DISABLE(hi2c);
 326              		.loc 1 259 5 is_stmt 1 view .LVU111
 327 001e 0168     		ldr	r1, [r0]
 328 0020 0A68     		ldr	r2, [r1]
 329 0022 22F00102 		bic	r2, r2, #1
 330 0026 0A60     		str	r2, [r1]
 260:../Drivers/STM32N6xx_HAL_Driver/Src/stm32n6xx_hal_i2c_ex.c **** 
 261:../Drivers/STM32N6xx_HAL_Driver/Src/stm32n6xx_hal_i2c_ex.c ****     /* Enable wakeup from stop mode */
 262:../Drivers/STM32N6xx_HAL_Driver/Src/stm32n6xx_hal_i2c_ex.c ****     hi2c->Instance->CR1 &= ~(I2C_CR1_WUPEN);
 331              		.loc 1 262 5 view .LVU112
 332              		.loc 1 262 9 is_stmt 0 view .LVU113
 333 0028 0168     		ldr	r1, [r0]
 334              		.loc 1 262 19 view .LVU114
 335 002a 0A68     		ldr	r2, [r1]
 336              		.loc 1 262 25 view .LVU115
 337 002c 22F48022 		bic	r2, r2, #262144
 338 0030 0A60     		str	r2, [r1]
 263:../Drivers/STM32N6xx_HAL_Driver/Src/stm32n6xx_hal_i2c_ex.c **** 
 264:../Drivers/STM32N6xx_HAL_Driver/Src/stm32n6xx_hal_i2c_ex.c ****     __HAL_I2C_ENABLE(hi2c);
 339              		.loc 1 264 5 is_stmt 1 view .LVU116
 340 0032 0168     		ldr	r1, [r0]
 341 0034 0A68     		ldr	r2, [r1]
 342 0036 42F00102 		orr	r2, r2, #1
 343 003a 0A60     		str	r2, [r1]
 265:../Drivers/STM32N6xx_HAL_Driver/Src/stm32n6xx_hal_i2c_ex.c **** 
 266:../Drivers/STM32N6xx_HAL_Driver/Src/stm32n6xx_hal_i2c_ex.c ****     hi2c->State = HAL_I2C_STATE_READY;
 344              		.loc 1 266 5 view .LVU117
 345              		.loc 1 266 17 is_stmt 0 view .LVU118
 346 003c 2022     		movs	r2, #32
 347 003e 80F84120 		strb	r2, [r0, #65]
 267:../Drivers/STM32N6xx_HAL_Driver/Src/stm32n6xx_hal_i2c_ex.c **** 
 268:../Drivers/STM32N6xx_HAL_Driver/Src/stm32n6xx_hal_i2c_ex.c ****     /* Process Unlocked */
 269:../Drivers/STM32N6xx_HAL_Driver/Src/stm32n6xx_hal_i2c_ex.c ****     __HAL_UNLOCK(hi2c);
 348              		.loc 1 269 5 is_stmt 1 view .LVU119
 349              		.loc 1 269 5 view .LVU120
 350 0042 0020     		movs	r0, #0
 351              	.LVL20:
 352              		.loc 1 269 5 is_stmt 0 view .LVU121
 353 0044 83F84000 		strb	r0, [r3, #64]
 354              		.loc 1 269 5 is_stmt 1 view .LVU122
 270:../Drivers/STM32N6xx_HAL_Driver/Src/stm32n6xx_hal_i2c_ex.c **** 
 271:../Drivers/STM32N6xx_HAL_Driver/Src/stm32n6xx_hal_i2c_ex.c ****     return HAL_OK;
 355              		.loc 1 271 5 view .LVU123
 272:../Drivers/STM32N6xx_HAL_Driver/Src/stm32n6xx_hal_i2c_ex.c ****   }
 273:../Drivers/STM32N6xx_HAL_Driver/Src/stm32n6xx_hal_i2c_ex.c ****   else
ARM GAS  /tmp/ccJSd4JG.s 			page 12


 274:../Drivers/STM32N6xx_HAL_Driver/Src/stm32n6xx_hal_i2c_ex.c ****   {
 275:../Drivers/STM32N6xx_HAL_Driver/Src/stm32n6xx_hal_i2c_ex.c ****     return HAL_BUSY;
 276:../Drivers/STM32N6xx_HAL_Driver/Src/stm32n6xx_hal_i2c_ex.c ****   }
 277:../Drivers/STM32N6xx_HAL_Driver/Src/stm32n6xx_hal_i2c_ex.c **** }
 356              		.loc 1 277 1 is_stmt 0 view .LVU124
 357 0048 7047     		bx	lr
 358              	.LVL21:
 359              	.L14:
 254:../Drivers/STM32N6xx_HAL_Driver/Src/stm32n6xx_hal_i2c_ex.c **** 
 360              		.loc 1 254 5 discriminator 1 view .LVU125
 361 004a 0220     		movs	r0, #2
 362              	.LVL22:
 254:../Drivers/STM32N6xx_HAL_Driver/Src/stm32n6xx_hal_i2c_ex.c **** 
 363              		.loc 1 254 5 discriminator 1 view .LVU126
 364 004c 7047     		bx	lr
 365              		.cfi_endproc
 366              	.LFE884:
 368              		.section	.text.HAL_I2CEx_ConfigFastModePlus,"ax",%progbits
 369              		.align	1
 370              		.global	HAL_I2CEx_ConfigFastModePlus
 371              		.syntax unified
 372              		.thumb
 373              		.thumb_func
 375              	HAL_I2CEx_ConfigFastModePlus:
 376              	.LVL23:
 377              	.LFB885:
 278:../Drivers/STM32N6xx_HAL_Driver/Src/stm32n6xx_hal_i2c_ex.c **** /**
 279:../Drivers/STM32N6xx_HAL_Driver/Src/stm32n6xx_hal_i2c_ex.c ****   * @}
 280:../Drivers/STM32N6xx_HAL_Driver/Src/stm32n6xx_hal_i2c_ex.c ****   */
 281:../Drivers/STM32N6xx_HAL_Driver/Src/stm32n6xx_hal_i2c_ex.c **** 
 282:../Drivers/STM32N6xx_HAL_Driver/Src/stm32n6xx_hal_i2c_ex.c **** /** @defgroup I2CEx_Exported_Functions_Group3 Fast Mode Plus Functions
 283:../Drivers/STM32N6xx_HAL_Driver/Src/stm32n6xx_hal_i2c_ex.c ****   * @brief    Fast Mode Plus Functions
 284:../Drivers/STM32N6xx_HAL_Driver/Src/stm32n6xx_hal_i2c_ex.c ****   *
 285:../Drivers/STM32N6xx_HAL_Driver/Src/stm32n6xx_hal_i2c_ex.c **** @verbatim
 286:../Drivers/STM32N6xx_HAL_Driver/Src/stm32n6xx_hal_i2c_ex.c ****  ===============================================================================
 287:../Drivers/STM32N6xx_HAL_Driver/Src/stm32n6xx_hal_i2c_ex.c ****                       ##### Fast Mode Plus Functions #####
 288:../Drivers/STM32N6xx_HAL_Driver/Src/stm32n6xx_hal_i2c_ex.c ****  ===============================================================================
 289:../Drivers/STM32N6xx_HAL_Driver/Src/stm32n6xx_hal_i2c_ex.c ****     [..] This section provides functions allowing to:
 290:../Drivers/STM32N6xx_HAL_Driver/Src/stm32n6xx_hal_i2c_ex.c ****       (+) Configure Fast Mode Plus
 291:../Drivers/STM32N6xx_HAL_Driver/Src/stm32n6xx_hal_i2c_ex.c **** 
 292:../Drivers/STM32N6xx_HAL_Driver/Src/stm32n6xx_hal_i2c_ex.c **** @endverbatim
 293:../Drivers/STM32N6xx_HAL_Driver/Src/stm32n6xx_hal_i2c_ex.c ****   * @{
 294:../Drivers/STM32N6xx_HAL_Driver/Src/stm32n6xx_hal_i2c_ex.c ****   */
 295:../Drivers/STM32N6xx_HAL_Driver/Src/stm32n6xx_hal_i2c_ex.c **** 
 296:../Drivers/STM32N6xx_HAL_Driver/Src/stm32n6xx_hal_i2c_ex.c **** /**
 297:../Drivers/STM32N6xx_HAL_Driver/Src/stm32n6xx_hal_i2c_ex.c ****   * @brief  Configure I2C Fast Mode Plus.
 298:../Drivers/STM32N6xx_HAL_Driver/Src/stm32n6xx_hal_i2c_ex.c ****   * @param  hi2c Pointer to a I2C_HandleTypeDef structure that contains
 299:../Drivers/STM32N6xx_HAL_Driver/Src/stm32n6xx_hal_i2c_ex.c ****   *                the configuration information for the specified I2Cx peripheral.
 300:../Drivers/STM32N6xx_HAL_Driver/Src/stm32n6xx_hal_i2c_ex.c ****   * @param  FastModePlus New state of the Fast Mode Plus.
 301:../Drivers/STM32N6xx_HAL_Driver/Src/stm32n6xx_hal_i2c_ex.c ****   * @retval HAL status
 302:../Drivers/STM32N6xx_HAL_Driver/Src/stm32n6xx_hal_i2c_ex.c ****   */
 303:../Drivers/STM32N6xx_HAL_Driver/Src/stm32n6xx_hal_i2c_ex.c **** HAL_StatusTypeDef HAL_I2CEx_ConfigFastModePlus(I2C_HandleTypeDef *hi2c, uint32_t FastModePlus)
 304:../Drivers/STM32N6xx_HAL_Driver/Src/stm32n6xx_hal_i2c_ex.c **** {
 378              		.loc 1 304 1 is_stmt 1 view -0
 379              		.cfi_startproc
 380              		@ args = 0, pretend = 0, frame = 0
 381              		@ frame_needed = 0, uses_anonymous_args = 0
ARM GAS  /tmp/ccJSd4JG.s 			page 13


 382              		@ link register save eliminated.
 383              		.loc 1 304 1 is_stmt 0 view .LVU128
 384 0000 0346     		mov	r3, r0
 305:../Drivers/STM32N6xx_HAL_Driver/Src/stm32n6xx_hal_i2c_ex.c ****   /* Check the parameters */
 306:../Drivers/STM32N6xx_HAL_Driver/Src/stm32n6xx_hal_i2c_ex.c ****   assert_param(IS_I2C_ALL_INSTANCE(hi2c->Instance));
 385              		.loc 1 306 3 is_stmt 1 view .LVU129
 307:../Drivers/STM32N6xx_HAL_Driver/Src/stm32n6xx_hal_i2c_ex.c ****   assert_param(IS_I2C_FASTMODEPLUS(FastModePlus));
 386              		.loc 1 307 3 view .LVU130
 308:../Drivers/STM32N6xx_HAL_Driver/Src/stm32n6xx_hal_i2c_ex.c **** 
 309:../Drivers/STM32N6xx_HAL_Driver/Src/stm32n6xx_hal_i2c_ex.c ****   if (hi2c->State == HAL_I2C_STATE_READY)
 387              		.loc 1 309 3 view .LVU131
 388              		.loc 1 309 11 is_stmt 0 view .LVU132
 389 0002 90F84120 		ldrb	r2, [r0, #65]	@ zero_extendqisi2
 390              		.loc 1 309 6 view .LVU133
 391 0006 202A     		cmp	r2, #32
 392 0008 20D1     		bne	.L18
 310:../Drivers/STM32N6xx_HAL_Driver/Src/stm32n6xx_hal_i2c_ex.c ****   {
 311:../Drivers/STM32N6xx_HAL_Driver/Src/stm32n6xx_hal_i2c_ex.c ****     /* Process Locked */
 312:../Drivers/STM32N6xx_HAL_Driver/Src/stm32n6xx_hal_i2c_ex.c ****     __HAL_LOCK(hi2c);
 393              		.loc 1 312 5 is_stmt 1 view .LVU134
 394              		.loc 1 312 5 view .LVU135
 395 000a 90F84020 		ldrb	r2, [r0, #64]	@ zero_extendqisi2
 396 000e 012A     		cmp	r2, #1
 397 0010 1CD0     		beq	.L18
 398              		.loc 1 312 5 discriminator 2 view .LVU136
 399 0012 0122     		movs	r2, #1
 400 0014 80F84020 		strb	r2, [r0, #64]
 401              		.loc 1 312 5 discriminator 2 view .LVU137
 313:../Drivers/STM32N6xx_HAL_Driver/Src/stm32n6xx_hal_i2c_ex.c **** 
 314:../Drivers/STM32N6xx_HAL_Driver/Src/stm32n6xx_hal_i2c_ex.c ****     hi2c->State = HAL_I2C_STATE_BUSY;
 402              		.loc 1 314 5 view .LVU138
 403              		.loc 1 314 17 is_stmt 0 view .LVU139
 404 0018 2422     		movs	r2, #36
 405 001a 80F84120 		strb	r2, [r0, #65]
 315:../Drivers/STM32N6xx_HAL_Driver/Src/stm32n6xx_hal_i2c_ex.c **** 
 316:../Drivers/STM32N6xx_HAL_Driver/Src/stm32n6xx_hal_i2c_ex.c ****     /* Disable the selected I2C peripheral */
 317:../Drivers/STM32N6xx_HAL_Driver/Src/stm32n6xx_hal_i2c_ex.c ****     __HAL_I2C_DISABLE(hi2c);
 406              		.loc 1 317 5 is_stmt 1 view .LVU140
 407 001e 0068     		ldr	r0, [r0]
 408              	.LVL24:
 409              		.loc 1 317 5 is_stmt 0 view .LVU141
 410 0020 0268     		ldr	r2, [r0]
 411 0022 22F00102 		bic	r2, r2, #1
 412 0026 0260     		str	r2, [r0]
 318:../Drivers/STM32N6xx_HAL_Driver/Src/stm32n6xx_hal_i2c_ex.c **** 
 319:../Drivers/STM32N6xx_HAL_Driver/Src/stm32n6xx_hal_i2c_ex.c ****     if (FastModePlus == I2C_FASTMODEPLUS_ENABLE)
 413              		.loc 1 319 5 is_stmt 1 view .LVU142
 414              		.loc 1 319 8 is_stmt 0 view .LVU143
 415 0028 91B9     		cbnz	r1, .L21
 320:../Drivers/STM32N6xx_HAL_Driver/Src/stm32n6xx_hal_i2c_ex.c ****     {
 321:../Drivers/STM32N6xx_HAL_Driver/Src/stm32n6xx_hal_i2c_ex.c ****       /* Set I2Cx FMP bit */
 322:../Drivers/STM32N6xx_HAL_Driver/Src/stm32n6xx_hal_i2c_ex.c ****       hi2c->Instance->CR1 |= (I2C_CR1_FMP);
 416              		.loc 1 322 7 is_stmt 1 view .LVU144
 417              		.loc 1 322 11 is_stmt 0 view .LVU145
 418 002a 1968     		ldr	r1, [r3]
 419              	.LVL25:
 420              		.loc 1 322 21 view .LVU146
ARM GAS  /tmp/ccJSd4JG.s 			page 14


 421 002c 0A68     		ldr	r2, [r1]
 422              		.loc 1 322 27 view .LVU147
 423 002e 42F08072 		orr	r2, r2, #16777216
 424 0032 0A60     		str	r2, [r1]
 425              	.L22:
 323:../Drivers/STM32N6xx_HAL_Driver/Src/stm32n6xx_hal_i2c_ex.c ****     }
 324:../Drivers/STM32N6xx_HAL_Driver/Src/stm32n6xx_hal_i2c_ex.c ****     else
 325:../Drivers/STM32N6xx_HAL_Driver/Src/stm32n6xx_hal_i2c_ex.c ****     {
 326:../Drivers/STM32N6xx_HAL_Driver/Src/stm32n6xx_hal_i2c_ex.c ****       /* Reset I2Cx FMP bit */
 327:../Drivers/STM32N6xx_HAL_Driver/Src/stm32n6xx_hal_i2c_ex.c ****       hi2c->Instance->CR1 &= ~(I2C_CR1_FMP);
 328:../Drivers/STM32N6xx_HAL_Driver/Src/stm32n6xx_hal_i2c_ex.c ****     }
 329:../Drivers/STM32N6xx_HAL_Driver/Src/stm32n6xx_hal_i2c_ex.c **** 
 330:../Drivers/STM32N6xx_HAL_Driver/Src/stm32n6xx_hal_i2c_ex.c ****     __HAL_I2C_ENABLE(hi2c);
 426              		.loc 1 330 5 is_stmt 1 view .LVU148
 427 0034 1968     		ldr	r1, [r3]
 428 0036 0A68     		ldr	r2, [r1]
 429 0038 42F00102 		orr	r2, r2, #1
 430 003c 0A60     		str	r2, [r1]
 331:../Drivers/STM32N6xx_HAL_Driver/Src/stm32n6xx_hal_i2c_ex.c **** 
 332:../Drivers/STM32N6xx_HAL_Driver/Src/stm32n6xx_hal_i2c_ex.c ****     hi2c->State = HAL_I2C_STATE_READY;
 431              		.loc 1 332 5 view .LVU149
 432              		.loc 1 332 17 is_stmt 0 view .LVU150
 433 003e 2022     		movs	r2, #32
 434 0040 83F84120 		strb	r2, [r3, #65]
 333:../Drivers/STM32N6xx_HAL_Driver/Src/stm32n6xx_hal_i2c_ex.c **** 
 334:../Drivers/STM32N6xx_HAL_Driver/Src/stm32n6xx_hal_i2c_ex.c ****     /* Process Unlocked */
 335:../Drivers/STM32N6xx_HAL_Driver/Src/stm32n6xx_hal_i2c_ex.c ****     __HAL_UNLOCK(hi2c);
 435              		.loc 1 335 5 is_stmt 1 view .LVU151
 436              		.loc 1 335 5 view .LVU152
 437 0044 0020     		movs	r0, #0
 438 0046 83F84000 		strb	r0, [r3, #64]
 439              		.loc 1 335 5 view .LVU153
 336:../Drivers/STM32N6xx_HAL_Driver/Src/stm32n6xx_hal_i2c_ex.c **** 
 337:../Drivers/STM32N6xx_HAL_Driver/Src/stm32n6xx_hal_i2c_ex.c ****     return HAL_OK;
 440              		.loc 1 337 5 view .LVU154
 338:../Drivers/STM32N6xx_HAL_Driver/Src/stm32n6xx_hal_i2c_ex.c ****   }
 339:../Drivers/STM32N6xx_HAL_Driver/Src/stm32n6xx_hal_i2c_ex.c ****   else
 340:../Drivers/STM32N6xx_HAL_Driver/Src/stm32n6xx_hal_i2c_ex.c ****   {
 341:../Drivers/STM32N6xx_HAL_Driver/Src/stm32n6xx_hal_i2c_ex.c ****     return HAL_BUSY;
 342:../Drivers/STM32N6xx_HAL_Driver/Src/stm32n6xx_hal_i2c_ex.c ****   }
 343:../Drivers/STM32N6xx_HAL_Driver/Src/stm32n6xx_hal_i2c_ex.c **** }
 441              		.loc 1 343 1 is_stmt 0 view .LVU155
 442 004a 7047     		bx	lr
 443              	.LVL26:
 444              	.L18:
 312:../Drivers/STM32N6xx_HAL_Driver/Src/stm32n6xx_hal_i2c_ex.c **** 
 445              		.loc 1 312 5 discriminator 1 view .LVU156
 446 004c 0220     		movs	r0, #2
 447              	.LVL27:
 312:../Drivers/STM32N6xx_HAL_Driver/Src/stm32n6xx_hal_i2c_ex.c **** 
 448              		.loc 1 312 5 discriminator 1 view .LVU157
 449 004e 7047     		bx	lr
 450              	.L21:
 327:../Drivers/STM32N6xx_HAL_Driver/Src/stm32n6xx_hal_i2c_ex.c ****     }
 451              		.loc 1 327 7 is_stmt 1 view .LVU158
 327:../Drivers/STM32N6xx_HAL_Driver/Src/stm32n6xx_hal_i2c_ex.c ****     }
 452              		.loc 1 327 11 is_stmt 0 view .LVU159
ARM GAS  /tmp/ccJSd4JG.s 			page 15


 453 0050 1968     		ldr	r1, [r3]
 454              	.LVL28:
 327:../Drivers/STM32N6xx_HAL_Driver/Src/stm32n6xx_hal_i2c_ex.c ****     }
 455              		.loc 1 327 21 view .LVU160
 456 0052 0A68     		ldr	r2, [r1]
 327:../Drivers/STM32N6xx_HAL_Driver/Src/stm32n6xx_hal_i2c_ex.c ****     }
 457              		.loc 1 327 27 view .LVU161
 458 0054 22F08072 		bic	r2, r2, #16777216
 459 0058 0A60     		str	r2, [r1]
 460 005a EBE7     		b	.L22
 461              		.cfi_endproc
 462              	.LFE885:
 464              		.text
 465              	.Letext0:
 466              		.file 2 "/usr/arm-none-eabi/include/machine/_default_types.h"
 467              		.file 3 "/usr/arm-none-eabi/include/sys/_stdint.h"
 468              		.file 4 "../Drivers/CMSIS/Device/ST/STM32N6xx/Include/stm32n657xx.h"
 469              		.file 5 "../Drivers/STM32N6xx_HAL_Driver/Inc/stm32n6xx_hal_def.h"
 470              		.file 6 "../Drivers/STM32N6xx_HAL_Driver/Inc/stm32n6xx_hal_dma.h"
 471              		.file 7 "../Drivers/STM32N6xx_HAL_Driver/Inc/stm32n6xx_hal_dma_ex.h"
 472              		.file 8 "../Drivers/STM32N6xx_HAL_Driver/Inc/stm32n6xx_hal_i2c.h"
ARM GAS  /tmp/ccJSd4JG.s 			page 16

