ARM GAS  /tmp/ccFnPEzn.s 			page 1


   1              		.arch armv8.1-m.main
   2              		.fpu fpv5-d16
   3              		.arch_extension dsp
   4              		.arch_extension fp
   5              		.arch_extension fp.dp
   6              		.arch_extension mve
   7              		.arch_extension mve.fp
   8              		.eabi_attribute 5, "cortex-m55"
   9              		.eabi_attribute 28, 1
  10              		.eabi_attribute 20, 1
  11              		.eabi_attribute 21, 1
  12              		.eabi_attribute 23, 3
  13              		.eabi_attribute 24, 1
  14              		.eabi_attribute 25, 1
  15              		.eabi_attribute 26, 1
  16              		.eabi_attribute 30, 1
  17              		.eabi_attribute 34, 1
  18              		.eabi_attribute 38, 1
  19              		.eabi_attribute 18, 4
  20              		.file	"stm32n6xx_nucleo_bus.c"
  21              		.text
  22              	.Ltext0:
  23              		.cfi_sections	.debug_frame
  24              		.file 1 "../Drivers/stm32n6xx_nucleo_bus.c"
  25              		.section	.text.I2C_Compute_PRESC_SCLDEL_SDADEL,"ax",%progbits
  26              		.align	1
  27              		.syntax unified
  28              		.thumb
  29              		.thumb_func
  31              	I2C_Compute_PRESC_SCLDEL_SDADEL:
  32              	.LVL0:
  33              	.LFB891:
   1:../Drivers/stm32n6xx_nucleo_bus.c **** /**
   2:../Drivers/stm32n6xx_nucleo_bus.c ****   ******************************************************************************
   3:../Drivers/stm32n6xx_nucleo_bus.c ****   * @file    stm32n6xx_nucleo_bus.c
   4:../Drivers/stm32n6xx_nucleo_bus.c ****   * @author  MCD Application Team
   5:../Drivers/stm32n6xx_nucleo_bus.c ****   * @brief   This file provides a set of firmware functions to communicate
   6:../Drivers/stm32n6xx_nucleo_bus.c ****   *          with devices available on STM32N6570-Nucleo board (MB1940) from
   7:../Drivers/stm32n6xx_nucleo_bus.c ****   *          STMicroelectronics
   8:../Drivers/stm32n6xx_nucleo_bus.c ****   ******************************************************************************
   9:../Drivers/stm32n6xx_nucleo_bus.c ****   * @attention
  10:../Drivers/stm32n6xx_nucleo_bus.c ****   *
  11:../Drivers/stm32n6xx_nucleo_bus.c ****   * Copyright (c) 2024 STMicroelectronics.
  12:../Drivers/stm32n6xx_nucleo_bus.c ****   * All rights reserved.
  13:../Drivers/stm32n6xx_nucleo_bus.c ****   *
  14:../Drivers/stm32n6xx_nucleo_bus.c ****   * This software is licensed under terms that can be found in the LICENSE file
  15:../Drivers/stm32n6xx_nucleo_bus.c ****   * in the root directory of this software component.
  16:../Drivers/stm32n6xx_nucleo_bus.c ****   * If no LICENSE file comes with this software, it is provided AS-IS.
  17:../Drivers/stm32n6xx_nucleo_bus.c ****   *
  18:../Drivers/stm32n6xx_nucleo_bus.c ****   ******************************************************************************
  19:../Drivers/stm32n6xx_nucleo_bus.c ****   */
  20:../Drivers/stm32n6xx_nucleo_bus.c **** 
  21:../Drivers/stm32n6xx_nucleo_bus.c **** /* Includes ------------------------------------------------------------------*/
  22:../Drivers/stm32n6xx_nucleo_bus.c **** #include "stm32n6xx_nucleo_bus.h"
  23:../Drivers/stm32n6xx_nucleo_bus.c **** 
  24:../Drivers/stm32n6xx_nucleo_bus.c **** /** @addtogroup BSP
  25:../Drivers/stm32n6xx_nucleo_bus.c ****   * @{
ARM GAS  /tmp/ccFnPEzn.s 			page 2


  26:../Drivers/stm32n6xx_nucleo_bus.c ****   */
  27:../Drivers/stm32n6xx_nucleo_bus.c **** 
  28:../Drivers/stm32n6xx_nucleo_bus.c **** /** @addtogroup STM32N6XX_NUCLEO
  29:../Drivers/stm32n6xx_nucleo_bus.c ****   * @{
  30:../Drivers/stm32n6xx_nucleo_bus.c ****   */
  31:../Drivers/stm32n6xx_nucleo_bus.c **** 
  32:../Drivers/stm32n6xx_nucleo_bus.c **** /** @defgroup STM32N6XX_NUCLEO_BUS BUS
  33:../Drivers/stm32n6xx_nucleo_bus.c ****   * @{
  34:../Drivers/stm32n6xx_nucleo_bus.c ****   */
  35:../Drivers/stm32n6xx_nucleo_bus.c **** 
  36:../Drivers/stm32n6xx_nucleo_bus.c **** /** @defgroup STM32N6XX_NUCLEO_BUS_Private_Constants Private Constants
  37:../Drivers/stm32n6xx_nucleo_bus.c ****   * @{
  38:../Drivers/stm32n6xx_nucleo_bus.c ****   */
  39:../Drivers/stm32n6xx_nucleo_bus.c **** #ifndef I2C_VALID_TIMING_NBR
  40:../Drivers/stm32n6xx_nucleo_bus.c **** #define I2C_VALID_TIMING_NBR                 128U
  41:../Drivers/stm32n6xx_nucleo_bus.c **** #endif /* I2C_VALID_TIMING_NBR */
  42:../Drivers/stm32n6xx_nucleo_bus.c **** #define I2C_SPEED_FREQ_STANDARD                0U    /* 100 kHz */
  43:../Drivers/stm32n6xx_nucleo_bus.c **** #define I2C_SPEED_FREQ_FAST                    1U    /* 400 kHz */
  44:../Drivers/stm32n6xx_nucleo_bus.c **** #define I2C_SPEED_FREQ_FAST_PLUS               2U    /* 1 MHz */
  45:../Drivers/stm32n6xx_nucleo_bus.c **** #define I2C_ANALOG_FILTER_DELAY_MIN            50U   /* ns */
  46:../Drivers/stm32n6xx_nucleo_bus.c **** #define I2C_ANALOG_FILTER_DELAY_MAX            260U  /* ns */
  47:../Drivers/stm32n6xx_nucleo_bus.c **** #define I2C_USE_ANALOG_FILTER                  1U
  48:../Drivers/stm32n6xx_nucleo_bus.c **** #define I2C_DIGITAL_FILTER_COEF                0U
  49:../Drivers/stm32n6xx_nucleo_bus.c **** #define I2C_PRESC_MAX                          16U
  50:../Drivers/stm32n6xx_nucleo_bus.c **** #define I2C_SCLDEL_MAX                         16U
  51:../Drivers/stm32n6xx_nucleo_bus.c **** #define I2C_SDADEL_MAX                         16U
  52:../Drivers/stm32n6xx_nucleo_bus.c **** #define I2C_SCLH_MAX                           256U
  53:../Drivers/stm32n6xx_nucleo_bus.c **** #define I2C_SCLL_MAX                           256U
  54:../Drivers/stm32n6xx_nucleo_bus.c **** #define SEC2NSEC                               1000000000UL
  55:../Drivers/stm32n6xx_nucleo_bus.c **** /**
  56:../Drivers/stm32n6xx_nucleo_bus.c ****   * @}
  57:../Drivers/stm32n6xx_nucleo_bus.c ****   */
  58:../Drivers/stm32n6xx_nucleo_bus.c **** 
  59:../Drivers/stm32n6xx_nucleo_bus.c **** /** @defgroup STM32N6XX_NUCLEO_BUS_Private_Types Private Types
  60:../Drivers/stm32n6xx_nucleo_bus.c ****   * @{
  61:../Drivers/stm32n6xx_nucleo_bus.c ****   */
  62:../Drivers/stm32n6xx_nucleo_bus.c **** typedef struct
  63:../Drivers/stm32n6xx_nucleo_bus.c **** {
  64:../Drivers/stm32n6xx_nucleo_bus.c ****   uint32_t freq;       /* Frequency in Hz */
  65:../Drivers/stm32n6xx_nucleo_bus.c ****   uint32_t freq_min;   /* Minimum frequency in Hz */
  66:../Drivers/stm32n6xx_nucleo_bus.c ****   uint32_t freq_max;   /* Maximum frequency in Hz */
  67:../Drivers/stm32n6xx_nucleo_bus.c ****   uint32_t hddat_min;  /* Minimum data hold time in ns */
  68:../Drivers/stm32n6xx_nucleo_bus.c ****   uint32_t vddat_max;  /* Maximum data valid time in ns */
  69:../Drivers/stm32n6xx_nucleo_bus.c ****   uint32_t sudat_min;  /* Minimum data setup time in ns */
  70:../Drivers/stm32n6xx_nucleo_bus.c ****   uint32_t lscl_min;   /* Minimum low period of the SCL clock in ns */
  71:../Drivers/stm32n6xx_nucleo_bus.c ****   uint32_t hscl_min;   /* Minimum high period of SCL clock in ns */
  72:../Drivers/stm32n6xx_nucleo_bus.c ****   uint32_t trise;      /* Rise time in ns */
  73:../Drivers/stm32n6xx_nucleo_bus.c ****   uint32_t tfall;      /* Fall time in ns */
  74:../Drivers/stm32n6xx_nucleo_bus.c ****   uint32_t dnf;        /* Digital noise filter coefficient */
  75:../Drivers/stm32n6xx_nucleo_bus.c **** } I2C_Charac_t;
  76:../Drivers/stm32n6xx_nucleo_bus.c **** 
  77:../Drivers/stm32n6xx_nucleo_bus.c **** typedef struct
  78:../Drivers/stm32n6xx_nucleo_bus.c **** {
  79:../Drivers/stm32n6xx_nucleo_bus.c ****   uint32_t presc;      /* Timing prescaler */
  80:../Drivers/stm32n6xx_nucleo_bus.c ****   uint32_t tscldel;    /* SCL delay */
  81:../Drivers/stm32n6xx_nucleo_bus.c ****   uint32_t tsdadel;    /* SDA delay */
  82:../Drivers/stm32n6xx_nucleo_bus.c ****   uint32_t sclh;       /* SCL high period */
ARM GAS  /tmp/ccFnPEzn.s 			page 3


  83:../Drivers/stm32n6xx_nucleo_bus.c ****   uint32_t scll;       /* SCL low period */
  84:../Drivers/stm32n6xx_nucleo_bus.c **** } I2C_Timings_t;
  85:../Drivers/stm32n6xx_nucleo_bus.c **** /**
  86:../Drivers/stm32n6xx_nucleo_bus.c ****   * @}
  87:../Drivers/stm32n6xx_nucleo_bus.c ****   */
  88:../Drivers/stm32n6xx_nucleo_bus.c **** 
  89:../Drivers/stm32n6xx_nucleo_bus.c **** /** @addtogroup STM32N6XX_NUCLEO_BUS_Private_Constants
  90:../Drivers/stm32n6xx_nucleo_bus.c ****   * @{
  91:../Drivers/stm32n6xx_nucleo_bus.c ****   */
  92:../Drivers/stm32n6xx_nucleo_bus.c **** static const I2C_Charac_t I2C_Charac[] =
  93:../Drivers/stm32n6xx_nucleo_bus.c **** {
  94:../Drivers/stm32n6xx_nucleo_bus.c ****   [I2C_SPEED_FREQ_STANDARD] =
  95:../Drivers/stm32n6xx_nucleo_bus.c ****   {
  96:../Drivers/stm32n6xx_nucleo_bus.c ****     .freq = 100000,
  97:../Drivers/stm32n6xx_nucleo_bus.c ****     .freq_min = 80000,
  98:../Drivers/stm32n6xx_nucleo_bus.c ****     .freq_max = 120000,
  99:../Drivers/stm32n6xx_nucleo_bus.c ****     .hddat_min = 0,
 100:../Drivers/stm32n6xx_nucleo_bus.c ****     .vddat_max = 3450,
 101:../Drivers/stm32n6xx_nucleo_bus.c ****     .sudat_min = 250,
 102:../Drivers/stm32n6xx_nucleo_bus.c ****     .lscl_min = 4700,
 103:../Drivers/stm32n6xx_nucleo_bus.c ****     .hscl_min = 4000,
 104:../Drivers/stm32n6xx_nucleo_bus.c ****     .trise = 640,
 105:../Drivers/stm32n6xx_nucleo_bus.c ****     .tfall = 20,
 106:../Drivers/stm32n6xx_nucleo_bus.c ****     .dnf = I2C_DIGITAL_FILTER_COEF,
 107:../Drivers/stm32n6xx_nucleo_bus.c ****   },
 108:../Drivers/stm32n6xx_nucleo_bus.c ****   [I2C_SPEED_FREQ_FAST] =
 109:../Drivers/stm32n6xx_nucleo_bus.c ****   {
 110:../Drivers/stm32n6xx_nucleo_bus.c ****     .freq = 400000,
 111:../Drivers/stm32n6xx_nucleo_bus.c ****     .freq_min = 320000,
 112:../Drivers/stm32n6xx_nucleo_bus.c ****     .freq_max = 480000,
 113:../Drivers/stm32n6xx_nucleo_bus.c ****     .hddat_min = 0,
 114:../Drivers/stm32n6xx_nucleo_bus.c ****     .vddat_max = 900,
 115:../Drivers/stm32n6xx_nucleo_bus.c ****     .sudat_min = 100,
 116:../Drivers/stm32n6xx_nucleo_bus.c ****     .lscl_min = 1300,
 117:../Drivers/stm32n6xx_nucleo_bus.c ****     .hscl_min = 600,
 118:../Drivers/stm32n6xx_nucleo_bus.c ****     .trise = 250,
 119:../Drivers/stm32n6xx_nucleo_bus.c ****     .tfall = 100,
 120:../Drivers/stm32n6xx_nucleo_bus.c ****     .dnf = I2C_DIGITAL_FILTER_COEF,
 121:../Drivers/stm32n6xx_nucleo_bus.c ****   },
 122:../Drivers/stm32n6xx_nucleo_bus.c ****   [I2C_SPEED_FREQ_FAST_PLUS] =
 123:../Drivers/stm32n6xx_nucleo_bus.c ****   {
 124:../Drivers/stm32n6xx_nucleo_bus.c ****     .freq = 1000000,
 125:../Drivers/stm32n6xx_nucleo_bus.c ****     .freq_min = 800000,
 126:../Drivers/stm32n6xx_nucleo_bus.c ****     .freq_max = 1200000,
 127:../Drivers/stm32n6xx_nucleo_bus.c ****     .hddat_min = 0,
 128:../Drivers/stm32n6xx_nucleo_bus.c ****     .vddat_max = 450,
 129:../Drivers/stm32n6xx_nucleo_bus.c ****     .sudat_min = 50,
 130:../Drivers/stm32n6xx_nucleo_bus.c ****     .lscl_min = 500,
 131:../Drivers/stm32n6xx_nucleo_bus.c ****     .hscl_min = 260,
 132:../Drivers/stm32n6xx_nucleo_bus.c ****     .trise = 60,
 133:../Drivers/stm32n6xx_nucleo_bus.c ****     .tfall = 100,
 134:../Drivers/stm32n6xx_nucleo_bus.c ****     .dnf = I2C_DIGITAL_FILTER_COEF,
 135:../Drivers/stm32n6xx_nucleo_bus.c ****   },
 136:../Drivers/stm32n6xx_nucleo_bus.c **** };
 137:../Drivers/stm32n6xx_nucleo_bus.c **** /**
 138:../Drivers/stm32n6xx_nucleo_bus.c ****   * @}
 139:../Drivers/stm32n6xx_nucleo_bus.c ****   */
ARM GAS  /tmp/ccFnPEzn.s 			page 4


 140:../Drivers/stm32n6xx_nucleo_bus.c **** 
 141:../Drivers/stm32n6xx_nucleo_bus.c **** /** @defgroup STM32N6XX_NUCLEO_BUS_Private_Variables Private Variables
 142:../Drivers/stm32n6xx_nucleo_bus.c ****   * @{
 143:../Drivers/stm32n6xx_nucleo_bus.c ****   */
 144:../Drivers/stm32n6xx_nucleo_bus.c **** #if (USE_HAL_I2C_REGISTER_CALLBACKS == 1)
 145:../Drivers/stm32n6xx_nucleo_bus.c **** static uint32_t IsI2c2MspCbValid = 0;
 146:../Drivers/stm32n6xx_nucleo_bus.c **** #endif /* (USE_HAL_I2C_REGISTER_CALLBACKS == 1) */
 147:../Drivers/stm32n6xx_nucleo_bus.c **** static uint32_t I2c2InitCounter = 0;
 148:../Drivers/stm32n6xx_nucleo_bus.c **** static I2C_Timings_t I2c_valid_timing[I2C_VALID_TIMING_NBR];
 149:../Drivers/stm32n6xx_nucleo_bus.c **** static uint32_t      I2c_valid_timing_nbr = 0;
 150:../Drivers/stm32n6xx_nucleo_bus.c **** #if defined(BSP_USE_CMSIS_OS)
 151:../Drivers/stm32n6xx_nucleo_bus.c **** static osSemaphoreId BspI2cSemaphore = 0;
 152:../Drivers/stm32n6xx_nucleo_bus.c **** #endif /* BSP_USE_CMSIS_OS */
 153:../Drivers/stm32n6xx_nucleo_bus.c **** /**
 154:../Drivers/stm32n6xx_nucleo_bus.c ****   * @}
 155:../Drivers/stm32n6xx_nucleo_bus.c ****   */
 156:../Drivers/stm32n6xx_nucleo_bus.c **** 
 157:../Drivers/stm32n6xx_nucleo_bus.c **** /** @defgroup STM32N6XX_NUCLEO_BUS_Exported_Variables Exported Variables
 158:../Drivers/stm32n6xx_nucleo_bus.c ****   * @{
 159:../Drivers/stm32n6xx_nucleo_bus.c ****   */
 160:../Drivers/stm32n6xx_nucleo_bus.c **** I2C_HandleTypeDef hbus_i2c2;
 161:../Drivers/stm32n6xx_nucleo_bus.c **** /**
 162:../Drivers/stm32n6xx_nucleo_bus.c ****   * @}
 163:../Drivers/stm32n6xx_nucleo_bus.c ****   */
 164:../Drivers/stm32n6xx_nucleo_bus.c **** 
 165:../Drivers/stm32n6xx_nucleo_bus.c **** /** @defgroup STM32N6XX_NUCLEO_BUS_Private_FunctionPrototypes BUS Private FunctionPrototypes
 166:../Drivers/stm32n6xx_nucleo_bus.c ****   * @{
 167:../Drivers/stm32n6xx_nucleo_bus.c ****   */
 168:../Drivers/stm32n6xx_nucleo_bus.c **** static void I2C2_MspInit(const I2C_HandleTypeDef *phi2c);
 169:../Drivers/stm32n6xx_nucleo_bus.c **** static void I2C2_MspDeInit(const I2C_HandleTypeDef *phi2c);
 170:../Drivers/stm32n6xx_nucleo_bus.c **** static int32_t I2C2_WriteReg(uint16_t DevAddr, uint16_t MemAddSize, uint16_t Reg, uint8_t *pData, u
 171:../Drivers/stm32n6xx_nucleo_bus.c **** static int32_t I2C2_ReadReg(uint16_t DevAddr, uint16_t MemAddSize, uint16_t Reg, uint8_t *pData, ui
 172:../Drivers/stm32n6xx_nucleo_bus.c **** static uint32_t I2C_GetTiming(uint32_t clock_src_freq, uint32_t i2c_freq);
 173:../Drivers/stm32n6xx_nucleo_bus.c **** static uint32_t I2C_Compute_SCLL_SCLH(uint32_t clock_src_freq, uint32_t I2C_speed);
 174:../Drivers/stm32n6xx_nucleo_bus.c **** static void     I2C_Compute_PRESC_SCLDEL_SDADEL(uint32_t clock_src_freq, uint32_t I2C_speed);
 175:../Drivers/stm32n6xx_nucleo_bus.c **** /**
 176:../Drivers/stm32n6xx_nucleo_bus.c ****   * @}
 177:../Drivers/stm32n6xx_nucleo_bus.c ****   */
 178:../Drivers/stm32n6xx_nucleo_bus.c **** 
 179:../Drivers/stm32n6xx_nucleo_bus.c **** /** @defgroup STM32N6XX_NUCLEO_BUS_Exported_Functions Exported Functions
 180:../Drivers/stm32n6xx_nucleo_bus.c ****   * @{
 181:../Drivers/stm32n6xx_nucleo_bus.c ****   */
 182:../Drivers/stm32n6xx_nucleo_bus.c **** 
 183:../Drivers/stm32n6xx_nucleo_bus.c **** /**
 184:../Drivers/stm32n6xx_nucleo_bus.c ****   * @brief  Initializes I2C HAL.
 185:../Drivers/stm32n6xx_nucleo_bus.c ****   * @retval BSP status
 186:../Drivers/stm32n6xx_nucleo_bus.c ****   */
 187:../Drivers/stm32n6xx_nucleo_bus.c **** int32_t BSP_I2C2_Init(void)
 188:../Drivers/stm32n6xx_nucleo_bus.c **** {
 189:../Drivers/stm32n6xx_nucleo_bus.c ****   int32_t ret = BSP_ERROR_NONE;
 190:../Drivers/stm32n6xx_nucleo_bus.c **** 
 191:../Drivers/stm32n6xx_nucleo_bus.c ****   hbus_i2c2.Instance = BUS_I2C2;
 192:../Drivers/stm32n6xx_nucleo_bus.c **** 
 193:../Drivers/stm32n6xx_nucleo_bus.c ****   if (I2c2InitCounter == 0U)
 194:../Drivers/stm32n6xx_nucleo_bus.c ****   {
 195:../Drivers/stm32n6xx_nucleo_bus.c ****     I2c2InitCounter++;
 196:../Drivers/stm32n6xx_nucleo_bus.c **** 
ARM GAS  /tmp/ccFnPEzn.s 			page 5


 197:../Drivers/stm32n6xx_nucleo_bus.c ****     if (HAL_I2C_GetState(&hbus_i2c2) == HAL_I2C_STATE_RESET)
 198:../Drivers/stm32n6xx_nucleo_bus.c ****     {
 199:../Drivers/stm32n6xx_nucleo_bus.c **** #if defined(BSP_USE_CMSIS_OS)
 200:../Drivers/stm32n6xx_nucleo_bus.c ****       if(BspI2cSemaphore == NULL)
 201:../Drivers/stm32n6xx_nucleo_bus.c ****       {
 202:../Drivers/stm32n6xx_nucleo_bus.c ****         /* Create semaphore to prevent multiple I2C access */
 203:../Drivers/stm32n6xx_nucleo_bus.c ****         osSemaphoreDef(BSP_I2C_SEM);
 204:../Drivers/stm32n6xx_nucleo_bus.c ****         BspI2cSemaphore = osSemaphoreCreate(osSemaphore(BSP_I2C_SEM), 1);
 205:../Drivers/stm32n6xx_nucleo_bus.c ****       }
 206:../Drivers/stm32n6xx_nucleo_bus.c **** #endif /* BSP_USE_CMSIS_OS */
 207:../Drivers/stm32n6xx_nucleo_bus.c **** #if (USE_HAL_I2C_REGISTER_CALLBACKS == 0)
 208:../Drivers/stm32n6xx_nucleo_bus.c ****       /* Init the I2C2 Msp */
 209:../Drivers/stm32n6xx_nucleo_bus.c ****       I2C2_MspInit(&hbus_i2c2);
 210:../Drivers/stm32n6xx_nucleo_bus.c **** #else
 211:../Drivers/stm32n6xx_nucleo_bus.c ****       if (IsI2c2MspCbValid == 0U)
 212:../Drivers/stm32n6xx_nucleo_bus.c ****       {
 213:../Drivers/stm32n6xx_nucleo_bus.c ****         if (BSP_I2C2_RegisterDefaultMspCallbacks() != BSP_ERROR_NONE)
 214:../Drivers/stm32n6xx_nucleo_bus.c ****         {
 215:../Drivers/stm32n6xx_nucleo_bus.c ****           ret = BSP_ERROR_MSP_FAILURE;
 216:../Drivers/stm32n6xx_nucleo_bus.c ****         }
 217:../Drivers/stm32n6xx_nucleo_bus.c ****       }
 218:../Drivers/stm32n6xx_nucleo_bus.c ****       if (ret == BSP_ERROR_NONE)
 219:../Drivers/stm32n6xx_nucleo_bus.c ****       {
 220:../Drivers/stm32n6xx_nucleo_bus.c **** #endif /* (USE_HAL_I2C_REGISTER_CALLBACKS == 0) */
 221:../Drivers/stm32n6xx_nucleo_bus.c ****         if (MX_I2C2_Init(&hbus_i2c2, I2C_GetTiming(HAL_RCC_GetPCLK1Freq(), BUS_I2C2_FREQUENCY)) != 
 222:../Drivers/stm32n6xx_nucleo_bus.c ****         {
 223:../Drivers/stm32n6xx_nucleo_bus.c ****           ret = BSP_ERROR_BUS_FAILURE;
 224:../Drivers/stm32n6xx_nucleo_bus.c ****         }
 225:../Drivers/stm32n6xx_nucleo_bus.c **** #if (USE_HAL_I2C_REGISTER_CALLBACKS == 1)
 226:../Drivers/stm32n6xx_nucleo_bus.c ****       }
 227:../Drivers/stm32n6xx_nucleo_bus.c **** #endif /* (USE_HAL_I2C_REGISTER_CALLBACKS == 1) */
 228:../Drivers/stm32n6xx_nucleo_bus.c ****     }
 229:../Drivers/stm32n6xx_nucleo_bus.c ****   }
 230:../Drivers/stm32n6xx_nucleo_bus.c **** 
 231:../Drivers/stm32n6xx_nucleo_bus.c ****   return ret;
 232:../Drivers/stm32n6xx_nucleo_bus.c **** }
 233:../Drivers/stm32n6xx_nucleo_bus.c **** 
 234:../Drivers/stm32n6xx_nucleo_bus.c **** /**
 235:../Drivers/stm32n6xx_nucleo_bus.c ****   * @brief  DeInitializes I2C HAL.
 236:../Drivers/stm32n6xx_nucleo_bus.c ****   * @retval BSP status
 237:../Drivers/stm32n6xx_nucleo_bus.c ****   */
 238:../Drivers/stm32n6xx_nucleo_bus.c **** int32_t BSP_I2C2_DeInit(void)
 239:../Drivers/stm32n6xx_nucleo_bus.c **** {
 240:../Drivers/stm32n6xx_nucleo_bus.c ****   int32_t ret  = BSP_ERROR_NONE;
 241:../Drivers/stm32n6xx_nucleo_bus.c **** 
 242:../Drivers/stm32n6xx_nucleo_bus.c ****   I2c2InitCounter--;
 243:../Drivers/stm32n6xx_nucleo_bus.c **** 
 244:../Drivers/stm32n6xx_nucleo_bus.c ****   if (I2c2InitCounter == 0U)
 245:../Drivers/stm32n6xx_nucleo_bus.c ****   {
 246:../Drivers/stm32n6xx_nucleo_bus.c **** #if (USE_HAL_I2C_REGISTER_CALLBACKS == 0)
 247:../Drivers/stm32n6xx_nucleo_bus.c ****     I2C2_MspDeInit(&hbus_i2c2);
 248:../Drivers/stm32n6xx_nucleo_bus.c **** #endif /* (USE_HAL_I2C_REGISTER_CALLBACKS == 0) */
 249:../Drivers/stm32n6xx_nucleo_bus.c **** 
 250:../Drivers/stm32n6xx_nucleo_bus.c ****     /* Init the I2C */
 251:../Drivers/stm32n6xx_nucleo_bus.c ****     if (HAL_I2C_DeInit(&hbus_i2c2) != HAL_OK)
 252:../Drivers/stm32n6xx_nucleo_bus.c ****     {
 253:../Drivers/stm32n6xx_nucleo_bus.c ****       ret = BSP_ERROR_BUS_FAILURE;
ARM GAS  /tmp/ccFnPEzn.s 			page 6


 254:../Drivers/stm32n6xx_nucleo_bus.c ****     }
 255:../Drivers/stm32n6xx_nucleo_bus.c ****   }
 256:../Drivers/stm32n6xx_nucleo_bus.c **** 
 257:../Drivers/stm32n6xx_nucleo_bus.c ****   return ret;
 258:../Drivers/stm32n6xx_nucleo_bus.c **** }
 259:../Drivers/stm32n6xx_nucleo_bus.c **** 
 260:../Drivers/stm32n6xx_nucleo_bus.c **** /**
 261:../Drivers/stm32n6xx_nucleo_bus.c ****   * @brief  MX I2C2 initialization.
 262:../Drivers/stm32n6xx_nucleo_bus.c ****   * @param  hI2c I2C handle
 263:../Drivers/stm32n6xx_nucleo_bus.c ****   * @param  timing I2C timing
 264:../Drivers/stm32n6xx_nucleo_bus.c ****   * @retval HAL status
 265:../Drivers/stm32n6xx_nucleo_bus.c ****   */
 266:../Drivers/stm32n6xx_nucleo_bus.c **** __weak HAL_StatusTypeDef MX_I2C2_Init(I2C_HandleTypeDef *hI2c, uint32_t timing)
 267:../Drivers/stm32n6xx_nucleo_bus.c **** {
 268:../Drivers/stm32n6xx_nucleo_bus.c ****   HAL_StatusTypeDef status = HAL_OK;
 269:../Drivers/stm32n6xx_nucleo_bus.c **** 
 270:../Drivers/stm32n6xx_nucleo_bus.c ****   hI2c->Init.Timing           = timing;
 271:../Drivers/stm32n6xx_nucleo_bus.c ****   hI2c->Init.OwnAddress1      = 0;
 272:../Drivers/stm32n6xx_nucleo_bus.c ****   hI2c->Init.AddressingMode   = I2C_ADDRESSINGMODE_7BIT;
 273:../Drivers/stm32n6xx_nucleo_bus.c ****   hI2c->Init.DualAddressMode  = I2C_DUALADDRESS_DISABLE;
 274:../Drivers/stm32n6xx_nucleo_bus.c ****   hI2c->Init.OwnAddress2      = 0;
 275:../Drivers/stm32n6xx_nucleo_bus.c ****   hI2c->Init.OwnAddress2Masks = I2C_OA2_NOMASK;
 276:../Drivers/stm32n6xx_nucleo_bus.c ****   hI2c->Init.GeneralCallMode  = I2C_GENERALCALL_DISABLE;
 277:../Drivers/stm32n6xx_nucleo_bus.c ****   hI2c->Init.NoStretchMode    = I2C_NOSTRETCH_DISABLE;
 278:../Drivers/stm32n6xx_nucleo_bus.c **** 
 279:../Drivers/stm32n6xx_nucleo_bus.c ****   if (HAL_I2C_Init(hI2c) != HAL_OK)
 280:../Drivers/stm32n6xx_nucleo_bus.c ****   {
 281:../Drivers/stm32n6xx_nucleo_bus.c ****     status = HAL_ERROR;
 282:../Drivers/stm32n6xx_nucleo_bus.c ****   }
 283:../Drivers/stm32n6xx_nucleo_bus.c ****   else
 284:../Drivers/stm32n6xx_nucleo_bus.c ****   {
 285:../Drivers/stm32n6xx_nucleo_bus.c ****     uint32_t analog_filter;
 286:../Drivers/stm32n6xx_nucleo_bus.c **** 
 287:../Drivers/stm32n6xx_nucleo_bus.c ****     analog_filter = I2C_ANALOGFILTER_ENABLE;
 288:../Drivers/stm32n6xx_nucleo_bus.c ****     if (HAL_I2CEx_ConfigAnalogFilter(hI2c, analog_filter) != HAL_OK)
 289:../Drivers/stm32n6xx_nucleo_bus.c ****     {
 290:../Drivers/stm32n6xx_nucleo_bus.c ****       status = HAL_ERROR;
 291:../Drivers/stm32n6xx_nucleo_bus.c ****     }
 292:../Drivers/stm32n6xx_nucleo_bus.c ****     else
 293:../Drivers/stm32n6xx_nucleo_bus.c ****     {
 294:../Drivers/stm32n6xx_nucleo_bus.c ****       if (HAL_I2CEx_ConfigDigitalFilter(hI2c, I2C_DIGITAL_FILTER_COEF) != HAL_OK)
 295:../Drivers/stm32n6xx_nucleo_bus.c ****       {
 296:../Drivers/stm32n6xx_nucleo_bus.c ****         status = HAL_ERROR;
 297:../Drivers/stm32n6xx_nucleo_bus.c ****       }
 298:../Drivers/stm32n6xx_nucleo_bus.c ****     }
 299:../Drivers/stm32n6xx_nucleo_bus.c ****   }
 300:../Drivers/stm32n6xx_nucleo_bus.c **** 
 301:../Drivers/stm32n6xx_nucleo_bus.c ****   return status;
 302:../Drivers/stm32n6xx_nucleo_bus.c **** }
 303:../Drivers/stm32n6xx_nucleo_bus.c **** 
 304:../Drivers/stm32n6xx_nucleo_bus.c **** /**
 305:../Drivers/stm32n6xx_nucleo_bus.c ****   * @brief  Write a 8bit value in a register of the device through BUS.
 306:../Drivers/stm32n6xx_nucleo_bus.c ****   * @param  DevAddr Device address on Bus.
 307:../Drivers/stm32n6xx_nucleo_bus.c ****   * @param  Reg    The target register address to write
 308:../Drivers/stm32n6xx_nucleo_bus.c ****   * @param  pData  The target register value to be written
 309:../Drivers/stm32n6xx_nucleo_bus.c ****   * @param  Length buffer size to be written
 310:../Drivers/stm32n6xx_nucleo_bus.c ****   * @retval BSP status
ARM GAS  /tmp/ccFnPEzn.s 			page 7


 311:../Drivers/stm32n6xx_nucleo_bus.c ****   */
 312:../Drivers/stm32n6xx_nucleo_bus.c **** int32_t BSP_I2C2_WriteReg(uint16_t DevAddr, uint16_t Reg, uint8_t *pData, uint16_t Length)
 313:../Drivers/stm32n6xx_nucleo_bus.c **** {
 314:../Drivers/stm32n6xx_nucleo_bus.c ****   int32_t ret;
 315:../Drivers/stm32n6xx_nucleo_bus.c **** #if defined(BSP_USE_CMSIS_OS)
 316:../Drivers/stm32n6xx_nucleo_bus.c ****   /* Get semaphore to prevent multiple I2C access */
 317:../Drivers/stm32n6xx_nucleo_bus.c ****   osSemaphoreWait(BspI2cSemaphore, osWaitForever);
 318:../Drivers/stm32n6xx_nucleo_bus.c **** #endif /* BSP_USE_CMSIS_OS */
 319:../Drivers/stm32n6xx_nucleo_bus.c ****   if(I2C2_WriteReg(DevAddr, Reg, I2C_MEMADD_SIZE_8BIT, pData, Length) == 0)
 320:../Drivers/stm32n6xx_nucleo_bus.c ****   {
 321:../Drivers/stm32n6xx_nucleo_bus.c ****     ret = BSP_ERROR_NONE;
 322:../Drivers/stm32n6xx_nucleo_bus.c ****   }
 323:../Drivers/stm32n6xx_nucleo_bus.c ****   else
 324:../Drivers/stm32n6xx_nucleo_bus.c ****   {
 325:../Drivers/stm32n6xx_nucleo_bus.c ****     if( HAL_I2C_GetError(&hbus_i2c2) == HAL_I2C_ERROR_AF)
 326:../Drivers/stm32n6xx_nucleo_bus.c ****     {
 327:../Drivers/stm32n6xx_nucleo_bus.c ****       ret = BSP_ERROR_BUS_ACKNOWLEDGE_FAILURE;
 328:../Drivers/stm32n6xx_nucleo_bus.c ****     }
 329:../Drivers/stm32n6xx_nucleo_bus.c ****     else
 330:../Drivers/stm32n6xx_nucleo_bus.c ****     {
 331:../Drivers/stm32n6xx_nucleo_bus.c ****       ret = BSP_ERROR_PERIPH_FAILURE;
 332:../Drivers/stm32n6xx_nucleo_bus.c ****     }
 333:../Drivers/stm32n6xx_nucleo_bus.c ****   }
 334:../Drivers/stm32n6xx_nucleo_bus.c **** #if defined(BSP_USE_CMSIS_OS)
 335:../Drivers/stm32n6xx_nucleo_bus.c ****   /* Release semaphore to prevent multiple I2C access */
 336:../Drivers/stm32n6xx_nucleo_bus.c ****   osSemaphoreRelease(BspI2cSemaphore);
 337:../Drivers/stm32n6xx_nucleo_bus.c **** #endif /* BSP_USE_CMSIS_OS */
 338:../Drivers/stm32n6xx_nucleo_bus.c ****   return ret;
 339:../Drivers/stm32n6xx_nucleo_bus.c **** }
 340:../Drivers/stm32n6xx_nucleo_bus.c **** 
 341:../Drivers/stm32n6xx_nucleo_bus.c **** /**
 342:../Drivers/stm32n6xx_nucleo_bus.c ****   * @brief  Read a 8bit register of the device through BUS
 343:../Drivers/stm32n6xx_nucleo_bus.c ****   * @param  DevAddr Device address on BUS
 344:../Drivers/stm32n6xx_nucleo_bus.c ****   * @param  Reg     The target register address to read
 345:../Drivers/stm32n6xx_nucleo_bus.c ****   * @param  pData   Pointer to data buffer
 346:../Drivers/stm32n6xx_nucleo_bus.c ****   * @param  Length  Length of the data
 347:../Drivers/stm32n6xx_nucleo_bus.c ****   * @retval BSP status
 348:../Drivers/stm32n6xx_nucleo_bus.c ****   */
 349:../Drivers/stm32n6xx_nucleo_bus.c **** int32_t BSP_I2C2_ReadReg(uint16_t DevAddr, uint16_t Reg, uint8_t *pData, uint16_t Length)
 350:../Drivers/stm32n6xx_nucleo_bus.c **** {
 351:../Drivers/stm32n6xx_nucleo_bus.c ****   int32_t ret;
 352:../Drivers/stm32n6xx_nucleo_bus.c **** #if defined(BSP_USE_CMSIS_OS)
 353:../Drivers/stm32n6xx_nucleo_bus.c ****   /* Get semaphore to prevent multiple I2C access */
 354:../Drivers/stm32n6xx_nucleo_bus.c ****   osSemaphoreWait(BspI2cSemaphore, osWaitForever);
 355:../Drivers/stm32n6xx_nucleo_bus.c **** #endif /* BSP_USE_CMSIS_OS */
 356:../Drivers/stm32n6xx_nucleo_bus.c ****   if(I2C2_ReadReg(DevAddr, Reg, I2C_MEMADD_SIZE_8BIT, pData, Length) == 0)
 357:../Drivers/stm32n6xx_nucleo_bus.c ****   {
 358:../Drivers/stm32n6xx_nucleo_bus.c ****     ret = BSP_ERROR_NONE;
 359:../Drivers/stm32n6xx_nucleo_bus.c ****   }
 360:../Drivers/stm32n6xx_nucleo_bus.c ****   else
 361:../Drivers/stm32n6xx_nucleo_bus.c ****   {
 362:../Drivers/stm32n6xx_nucleo_bus.c ****     if( HAL_I2C_GetError(&hbus_i2c2) == HAL_I2C_ERROR_AF)
 363:../Drivers/stm32n6xx_nucleo_bus.c ****     {
 364:../Drivers/stm32n6xx_nucleo_bus.c ****       ret = BSP_ERROR_BUS_ACKNOWLEDGE_FAILURE;
 365:../Drivers/stm32n6xx_nucleo_bus.c ****     }
 366:../Drivers/stm32n6xx_nucleo_bus.c ****     else
 367:../Drivers/stm32n6xx_nucleo_bus.c ****     {
ARM GAS  /tmp/ccFnPEzn.s 			page 8


 368:../Drivers/stm32n6xx_nucleo_bus.c ****       ret = BSP_ERROR_PERIPH_FAILURE;
 369:../Drivers/stm32n6xx_nucleo_bus.c ****     }
 370:../Drivers/stm32n6xx_nucleo_bus.c ****   }
 371:../Drivers/stm32n6xx_nucleo_bus.c **** #if defined(BSP_USE_CMSIS_OS)
 372:../Drivers/stm32n6xx_nucleo_bus.c ****   /* Release semaphore to prevent multiple I2C access */
 373:../Drivers/stm32n6xx_nucleo_bus.c ****   osSemaphoreRelease(BspI2cSemaphore);
 374:../Drivers/stm32n6xx_nucleo_bus.c **** #endif /* BSP_USE_CMSIS_OS */
 375:../Drivers/stm32n6xx_nucleo_bus.c ****   return ret;
 376:../Drivers/stm32n6xx_nucleo_bus.c **** }
 377:../Drivers/stm32n6xx_nucleo_bus.c **** 
 378:../Drivers/stm32n6xx_nucleo_bus.c **** /**
 379:../Drivers/stm32n6xx_nucleo_bus.c ****   * @brief  Write a 16bit value in a register of the device through BUS.
 380:../Drivers/stm32n6xx_nucleo_bus.c ****   * @param  DevAddr Device address on Bus.
 381:../Drivers/stm32n6xx_nucleo_bus.c ****   * @param  Reg    The target register address to write
 382:../Drivers/stm32n6xx_nucleo_bus.c ****   * @param  pData  The target register value to be written
 383:../Drivers/stm32n6xx_nucleo_bus.c ****   * @param  Length buffer size to be written
 384:../Drivers/stm32n6xx_nucleo_bus.c ****   * @retval BSP status
 385:../Drivers/stm32n6xx_nucleo_bus.c ****   */
 386:../Drivers/stm32n6xx_nucleo_bus.c **** int32_t BSP_I2C2_WriteReg16(uint16_t DevAddr, uint16_t Reg, uint8_t *pData, uint16_t Length)
 387:../Drivers/stm32n6xx_nucleo_bus.c **** {
 388:../Drivers/stm32n6xx_nucleo_bus.c ****   int32_t ret;
 389:../Drivers/stm32n6xx_nucleo_bus.c **** #if defined(BSP_USE_CMSIS_OS)
 390:../Drivers/stm32n6xx_nucleo_bus.c ****   /* Get semaphore to prevent multiple I2C access */
 391:../Drivers/stm32n6xx_nucleo_bus.c ****   osSemaphoreWait(BspI2cSemaphore, osWaitForever);
 392:../Drivers/stm32n6xx_nucleo_bus.c **** #endif /* BSP_USE_CMSIS_OS */
 393:../Drivers/stm32n6xx_nucleo_bus.c ****   if(I2C2_WriteReg(DevAddr, Reg, I2C_MEMADD_SIZE_16BIT, pData, Length) == 0)
 394:../Drivers/stm32n6xx_nucleo_bus.c ****   {
 395:../Drivers/stm32n6xx_nucleo_bus.c ****     ret = BSP_ERROR_NONE;
 396:../Drivers/stm32n6xx_nucleo_bus.c ****   }
 397:../Drivers/stm32n6xx_nucleo_bus.c ****   else
 398:../Drivers/stm32n6xx_nucleo_bus.c ****   {
 399:../Drivers/stm32n6xx_nucleo_bus.c ****     if( HAL_I2C_GetError(&hbus_i2c2) == HAL_I2C_ERROR_AF)
 400:../Drivers/stm32n6xx_nucleo_bus.c ****     {
 401:../Drivers/stm32n6xx_nucleo_bus.c ****       ret = BSP_ERROR_BUS_ACKNOWLEDGE_FAILURE;
 402:../Drivers/stm32n6xx_nucleo_bus.c ****     }
 403:../Drivers/stm32n6xx_nucleo_bus.c ****     else
 404:../Drivers/stm32n6xx_nucleo_bus.c ****     {
 405:../Drivers/stm32n6xx_nucleo_bus.c ****       ret = BSP_ERROR_PERIPH_FAILURE;
 406:../Drivers/stm32n6xx_nucleo_bus.c ****     }
 407:../Drivers/stm32n6xx_nucleo_bus.c ****   }
 408:../Drivers/stm32n6xx_nucleo_bus.c **** #if defined(BSP_USE_CMSIS_OS)
 409:../Drivers/stm32n6xx_nucleo_bus.c ****   /* Release semaphore to prevent multiple I2C access */
 410:../Drivers/stm32n6xx_nucleo_bus.c ****   osSemaphoreRelease(BspI2cSemaphore);
 411:../Drivers/stm32n6xx_nucleo_bus.c **** #endif /* BSP_USE_CMSIS_OS */
 412:../Drivers/stm32n6xx_nucleo_bus.c ****   return ret;
 413:../Drivers/stm32n6xx_nucleo_bus.c **** }
 414:../Drivers/stm32n6xx_nucleo_bus.c **** 
 415:../Drivers/stm32n6xx_nucleo_bus.c **** /**
 416:../Drivers/stm32n6xx_nucleo_bus.c ****   * @brief  Read a 16bit register of the device through BUS
 417:../Drivers/stm32n6xx_nucleo_bus.c ****   * @param  DevAddr Device address on BUS
 418:../Drivers/stm32n6xx_nucleo_bus.c ****   * @param  Reg     The target register address to read
 419:../Drivers/stm32n6xx_nucleo_bus.c ****   * @param  pData   Pointer to data buffer
 420:../Drivers/stm32n6xx_nucleo_bus.c ****   * @param  Length  Length of the data
 421:../Drivers/stm32n6xx_nucleo_bus.c ****   * @retval BSP status
 422:../Drivers/stm32n6xx_nucleo_bus.c ****   */
 423:../Drivers/stm32n6xx_nucleo_bus.c **** int32_t BSP_I2C2_ReadReg16(uint16_t DevAddr, uint16_t Reg, uint8_t *pData, uint16_t Length)
 424:../Drivers/stm32n6xx_nucleo_bus.c **** {
ARM GAS  /tmp/ccFnPEzn.s 			page 9


 425:../Drivers/stm32n6xx_nucleo_bus.c ****   int32_t ret;
 426:../Drivers/stm32n6xx_nucleo_bus.c **** #if defined(BSP_USE_CMSIS_OS)
 427:../Drivers/stm32n6xx_nucleo_bus.c ****   /* Get semaphore to prevent multiple I2C access */
 428:../Drivers/stm32n6xx_nucleo_bus.c ****   osSemaphoreWait(BspI2cSemaphore, osWaitForever);
 429:../Drivers/stm32n6xx_nucleo_bus.c **** #endif /* BSP_USE_CMSIS_OS */
 430:../Drivers/stm32n6xx_nucleo_bus.c ****   if(I2C2_ReadReg(DevAddr, Reg, I2C_MEMADD_SIZE_16BIT, pData, Length) == 0)
 431:../Drivers/stm32n6xx_nucleo_bus.c ****   {
 432:../Drivers/stm32n6xx_nucleo_bus.c ****     ret = BSP_ERROR_NONE;
 433:../Drivers/stm32n6xx_nucleo_bus.c ****   }
 434:../Drivers/stm32n6xx_nucleo_bus.c ****   else
 435:../Drivers/stm32n6xx_nucleo_bus.c ****   {
 436:../Drivers/stm32n6xx_nucleo_bus.c ****     if( HAL_I2C_GetError(&hbus_i2c2) == HAL_I2C_ERROR_AF)
 437:../Drivers/stm32n6xx_nucleo_bus.c ****     {
 438:../Drivers/stm32n6xx_nucleo_bus.c ****       ret = BSP_ERROR_BUS_ACKNOWLEDGE_FAILURE;
 439:../Drivers/stm32n6xx_nucleo_bus.c ****     }
 440:../Drivers/stm32n6xx_nucleo_bus.c ****     else
 441:../Drivers/stm32n6xx_nucleo_bus.c ****     {
 442:../Drivers/stm32n6xx_nucleo_bus.c ****       ret = BSP_ERROR_PERIPH_FAILURE;
 443:../Drivers/stm32n6xx_nucleo_bus.c ****     }
 444:../Drivers/stm32n6xx_nucleo_bus.c ****   }
 445:../Drivers/stm32n6xx_nucleo_bus.c **** #if defined(BSP_USE_CMSIS_OS)
 446:../Drivers/stm32n6xx_nucleo_bus.c ****   /* Release semaphore to prevent multiple I2C access */
 447:../Drivers/stm32n6xx_nucleo_bus.c ****   osSemaphoreRelease(BspI2cSemaphore);
 448:../Drivers/stm32n6xx_nucleo_bus.c **** #endif /* BSP_USE_CMSIS_OS */
 449:../Drivers/stm32n6xx_nucleo_bus.c ****   return ret;
 450:../Drivers/stm32n6xx_nucleo_bus.c **** }
 451:../Drivers/stm32n6xx_nucleo_bus.c **** 
 452:../Drivers/stm32n6xx_nucleo_bus.c **** /**
 453:../Drivers/stm32n6xx_nucleo_bus.c ****   * @brief  Checks if target device is ready for communication.
 454:../Drivers/stm32n6xx_nucleo_bus.c ****   * @note   This function is used with Memory devices
 455:../Drivers/stm32n6xx_nucleo_bus.c ****   * @param  DevAddr  Target device address
 456:../Drivers/stm32n6xx_nucleo_bus.c ****   * @param  Trials      Number of trials
 457:../Drivers/stm32n6xx_nucleo_bus.c ****   * @retval BSP status
 458:../Drivers/stm32n6xx_nucleo_bus.c ****   */
 459:../Drivers/stm32n6xx_nucleo_bus.c **** int32_t BSP_I2C2_IsReady(uint16_t DevAddr, uint32_t Trials)
 460:../Drivers/stm32n6xx_nucleo_bus.c **** {
 461:../Drivers/stm32n6xx_nucleo_bus.c ****   int32_t ret = BSP_ERROR_NONE;
 462:../Drivers/stm32n6xx_nucleo_bus.c **** #if defined(BSP_USE_CMSIS_OS)
 463:../Drivers/stm32n6xx_nucleo_bus.c ****   /* Get semaphore to prevent multiple I2C access */
 464:../Drivers/stm32n6xx_nucleo_bus.c ****   osSemaphoreWait(BspI2cSemaphore, osWaitForever);
 465:../Drivers/stm32n6xx_nucleo_bus.c **** #endif /* BSP_USE_CMSIS_OS */
 466:../Drivers/stm32n6xx_nucleo_bus.c ****   if(HAL_I2C_IsDeviceReady(&hbus_i2c2, DevAddr, Trials, 1000) != HAL_OK)
 467:../Drivers/stm32n6xx_nucleo_bus.c ****   {
 468:../Drivers/stm32n6xx_nucleo_bus.c ****     ret = BSP_ERROR_BUSY;
 469:../Drivers/stm32n6xx_nucleo_bus.c ****   }
 470:../Drivers/stm32n6xx_nucleo_bus.c **** #if defined(BSP_USE_CMSIS_OS)
 471:../Drivers/stm32n6xx_nucleo_bus.c ****   /* Release semaphore to prevent multiple I2C access */
 472:../Drivers/stm32n6xx_nucleo_bus.c ****   osSemaphoreRelease(BspI2cSemaphore);
 473:../Drivers/stm32n6xx_nucleo_bus.c **** #endif /* BSP_USE_CMSIS_OS */
 474:../Drivers/stm32n6xx_nucleo_bus.c ****   return ret;
 475:../Drivers/stm32n6xx_nucleo_bus.c **** }
 476:../Drivers/stm32n6xx_nucleo_bus.c **** 
 477:../Drivers/stm32n6xx_nucleo_bus.c **** /**
 478:../Drivers/stm32n6xx_nucleo_bus.c ****   * @brief  Delay function
 479:../Drivers/stm32n6xx_nucleo_bus.c ****   * @retval Tick value
 480:../Drivers/stm32n6xx_nucleo_bus.c ****   */
 481:../Drivers/stm32n6xx_nucleo_bus.c **** int32_t BSP_GetTick(void)
ARM GAS  /tmp/ccFnPEzn.s 			page 10


 482:../Drivers/stm32n6xx_nucleo_bus.c **** {
 483:../Drivers/stm32n6xx_nucleo_bus.c ****   return (int32_t)HAL_GetTick();
 484:../Drivers/stm32n6xx_nucleo_bus.c **** }
 485:../Drivers/stm32n6xx_nucleo_bus.c **** 
 486:../Drivers/stm32n6xx_nucleo_bus.c **** #if (USE_HAL_I2C_REGISTER_CALLBACKS == 1)
 487:../Drivers/stm32n6xx_nucleo_bus.c **** /**
 488:../Drivers/stm32n6xx_nucleo_bus.c ****   * @brief Register Default I2C2 Bus Msp Callbacks
 489:../Drivers/stm32n6xx_nucleo_bus.c ****   * @retval BSP status
 490:../Drivers/stm32n6xx_nucleo_bus.c ****   */
 491:../Drivers/stm32n6xx_nucleo_bus.c **** int32_t BSP_I2C2_RegisterDefaultMspCallbacks (void)
 492:../Drivers/stm32n6xx_nucleo_bus.c **** {
 493:../Drivers/stm32n6xx_nucleo_bus.c ****   int32_t ret = BSP_ERROR_NONE;
 494:../Drivers/stm32n6xx_nucleo_bus.c **** #if defined(BSP_USE_CMSIS_OS)
 495:../Drivers/stm32n6xx_nucleo_bus.c ****   /* Get semaphore to prevent multiple I2C access */
 496:../Drivers/stm32n6xx_nucleo_bus.c ****   osSemaphoreWait(BspI2cSemaphore, osWaitForever);
 497:../Drivers/stm32n6xx_nucleo_bus.c **** #endif /* BSP_USE_CMSIS_OS */
 498:../Drivers/stm32n6xx_nucleo_bus.c ****   __HAL_I2C_RESET_HANDLE_STATE(&hbus_i2c2);
 499:../Drivers/stm32n6xx_nucleo_bus.c **** 
 500:../Drivers/stm32n6xx_nucleo_bus.c ****   /* Register default MspInit/MspDeInit Callback */
 501:../Drivers/stm32n6xx_nucleo_bus.c ****   if(HAL_I2C_RegisterCallback(&hbus_i2c2, HAL_I2C_MSPINIT_CB_ID, I2C2_MspInit) != HAL_OK)
 502:../Drivers/stm32n6xx_nucleo_bus.c ****   {
 503:../Drivers/stm32n6xx_nucleo_bus.c ****     ret = BSP_ERROR_PERIPH_FAILURE;
 504:../Drivers/stm32n6xx_nucleo_bus.c ****   }
 505:../Drivers/stm32n6xx_nucleo_bus.c ****   else if(HAL_I2C_RegisterCallback(&hbus_i2c2, HAL_I2C_MSPDEINIT_CB_ID, I2C2_MspDeInit) != HAL_OK)
 506:../Drivers/stm32n6xx_nucleo_bus.c ****   {
 507:../Drivers/stm32n6xx_nucleo_bus.c ****     ret = BSP_ERROR_PERIPH_FAILURE;
 508:../Drivers/stm32n6xx_nucleo_bus.c ****   }
 509:../Drivers/stm32n6xx_nucleo_bus.c ****   else
 510:../Drivers/stm32n6xx_nucleo_bus.c ****   {
 511:../Drivers/stm32n6xx_nucleo_bus.c ****     IsI2c2MspCbValid = 1U;
 512:../Drivers/stm32n6xx_nucleo_bus.c ****   }
 513:../Drivers/stm32n6xx_nucleo_bus.c **** #if defined(BSP_USE_CMSIS_OS)
 514:../Drivers/stm32n6xx_nucleo_bus.c ****   /* Release semaphore to prevent multiple I2C access */
 515:../Drivers/stm32n6xx_nucleo_bus.c ****   osSemaphoreRelease(BspI2cSemaphore);
 516:../Drivers/stm32n6xx_nucleo_bus.c **** #endif /* BSP_USE_CMSIS_OS */
 517:../Drivers/stm32n6xx_nucleo_bus.c ****   /* BSP status */
 518:../Drivers/stm32n6xx_nucleo_bus.c ****   return ret;
 519:../Drivers/stm32n6xx_nucleo_bus.c **** }
 520:../Drivers/stm32n6xx_nucleo_bus.c **** 
 521:../Drivers/stm32n6xx_nucleo_bus.c **** /**
 522:../Drivers/stm32n6xx_nucleo_bus.c ****   * @brief Register I2C2 Bus Msp Callback registering
 523:../Drivers/stm32n6xx_nucleo_bus.c ****   * @param Callbacks     pointer to I2C2 MspInit/MspDeInit callback functions
 524:../Drivers/stm32n6xx_nucleo_bus.c ****   * @retval BSP status
 525:../Drivers/stm32n6xx_nucleo_bus.c ****   */
 526:../Drivers/stm32n6xx_nucleo_bus.c **** int32_t BSP_I2C2_RegisterMspCallbacks (BSP_I2C_Cb_t *Callback)
 527:../Drivers/stm32n6xx_nucleo_bus.c **** {
 528:../Drivers/stm32n6xx_nucleo_bus.c ****   int32_t ret = BSP_ERROR_NONE;
 529:../Drivers/stm32n6xx_nucleo_bus.c **** #if defined(BSP_USE_CMSIS_OS)
 530:../Drivers/stm32n6xx_nucleo_bus.c ****   /* Get semaphore to prevent multiple I2C access */
 531:../Drivers/stm32n6xx_nucleo_bus.c ****   osSemaphoreWait(BspI2cSemaphore, osWaitForever);
 532:../Drivers/stm32n6xx_nucleo_bus.c **** #endif /* BSP_USE_CMSIS_OS */
 533:../Drivers/stm32n6xx_nucleo_bus.c ****   __HAL_I2C_RESET_HANDLE_STATE(&hbus_i2c2);
 534:../Drivers/stm32n6xx_nucleo_bus.c **** 
 535:../Drivers/stm32n6xx_nucleo_bus.c ****   /* Register MspInit/MspDeInit Callbacks */
 536:../Drivers/stm32n6xx_nucleo_bus.c ****   if(HAL_I2C_RegisterCallback(&hbus_i2c2, HAL_I2C_MSPINIT_CB_ID, Callback->MspInitCallback) != HAL_
 537:../Drivers/stm32n6xx_nucleo_bus.c ****   {
 538:../Drivers/stm32n6xx_nucleo_bus.c ****     ret = BSP_ERROR_PERIPH_FAILURE;
ARM GAS  /tmp/ccFnPEzn.s 			page 11


 539:../Drivers/stm32n6xx_nucleo_bus.c ****   }
 540:../Drivers/stm32n6xx_nucleo_bus.c ****   else if(HAL_I2C_RegisterCallback(&hbus_i2c2, HAL_I2C_MSPDEINIT_CB_ID, Callback->MspDeInitCallback
 541:../Drivers/stm32n6xx_nucleo_bus.c ****   {
 542:../Drivers/stm32n6xx_nucleo_bus.c ****     ret = BSP_ERROR_PERIPH_FAILURE;
 543:../Drivers/stm32n6xx_nucleo_bus.c ****   }
 544:../Drivers/stm32n6xx_nucleo_bus.c ****   else
 545:../Drivers/stm32n6xx_nucleo_bus.c ****   {
 546:../Drivers/stm32n6xx_nucleo_bus.c ****     IsI2c2MspCbValid = 1U;
 547:../Drivers/stm32n6xx_nucleo_bus.c ****   }
 548:../Drivers/stm32n6xx_nucleo_bus.c **** #if defined(BSP_USE_CMSIS_OS)
 549:../Drivers/stm32n6xx_nucleo_bus.c ****   /* Release semaphore to prevent multiple I2C access */
 550:../Drivers/stm32n6xx_nucleo_bus.c ****   osSemaphoreRelease(BspI2cSemaphore);
 551:../Drivers/stm32n6xx_nucleo_bus.c **** #endif /* BSP_USE_CMSIS_OS */
 552:../Drivers/stm32n6xx_nucleo_bus.c ****   /* BSP status */
 553:../Drivers/stm32n6xx_nucleo_bus.c ****   return ret;
 554:../Drivers/stm32n6xx_nucleo_bus.c **** }
 555:../Drivers/stm32n6xx_nucleo_bus.c **** #endif /* USE_HAL_I2C_REGISTER_CALLBACKS */
 556:../Drivers/stm32n6xx_nucleo_bus.c **** /**
 557:../Drivers/stm32n6xx_nucleo_bus.c ****   * @}
 558:../Drivers/stm32n6xx_nucleo_bus.c ****   */
 559:../Drivers/stm32n6xx_nucleo_bus.c **** 
 560:../Drivers/stm32n6xx_nucleo_bus.c **** /** @defgroup STM32N6XX_NUCLEO_BUS_Private_Functions Private Functions
 561:../Drivers/stm32n6xx_nucleo_bus.c ****   * @{
 562:../Drivers/stm32n6xx_nucleo_bus.c ****   */
 563:../Drivers/stm32n6xx_nucleo_bus.c **** /**
 564:../Drivers/stm32n6xx_nucleo_bus.c ****   * @brief  Compute I2C timing according current I2C clock source and required I2C clock.
 565:../Drivers/stm32n6xx_nucleo_bus.c ****   * @param  clock_src_freq I2C clock source in Hz.
 566:../Drivers/stm32n6xx_nucleo_bus.c ****   * @param  i2c_freq Required I2C clock in Hz.
 567:../Drivers/stm32n6xx_nucleo_bus.c ****   * @retval I2C timing or 0 in case of error.
 568:../Drivers/stm32n6xx_nucleo_bus.c ****   */
 569:../Drivers/stm32n6xx_nucleo_bus.c **** static uint32_t I2C_GetTiming(uint32_t clock_src_freq, uint32_t i2c_freq)
 570:../Drivers/stm32n6xx_nucleo_bus.c **** {
 571:../Drivers/stm32n6xx_nucleo_bus.c ****   uint32_t ret = 0;
 572:../Drivers/stm32n6xx_nucleo_bus.c ****   uint32_t speed;
 573:../Drivers/stm32n6xx_nucleo_bus.c ****   uint32_t idx;
 574:../Drivers/stm32n6xx_nucleo_bus.c **** 
 575:../Drivers/stm32n6xx_nucleo_bus.c ****   if((clock_src_freq != 0U) && (i2c_freq != 0U))
 576:../Drivers/stm32n6xx_nucleo_bus.c ****   {
 577:../Drivers/stm32n6xx_nucleo_bus.c ****     for ( speed = 0 ; speed <=  (uint32_t)I2C_SPEED_FREQ_FAST_PLUS ; speed++)
 578:../Drivers/stm32n6xx_nucleo_bus.c ****     {
 579:../Drivers/stm32n6xx_nucleo_bus.c ****       if ((i2c_freq >= I2C_Charac[speed].freq_min) &&
 580:../Drivers/stm32n6xx_nucleo_bus.c ****           (i2c_freq <= I2C_Charac[speed].freq_max))
 581:../Drivers/stm32n6xx_nucleo_bus.c ****       {
 582:../Drivers/stm32n6xx_nucleo_bus.c ****         I2C_Compute_PRESC_SCLDEL_SDADEL(clock_src_freq, speed);
 583:../Drivers/stm32n6xx_nucleo_bus.c ****         idx = I2C_Compute_SCLL_SCLH(clock_src_freq, speed);
 584:../Drivers/stm32n6xx_nucleo_bus.c **** 
 585:../Drivers/stm32n6xx_nucleo_bus.c ****         if (idx < I2C_VALID_TIMING_NBR)
 586:../Drivers/stm32n6xx_nucleo_bus.c ****         {
 587:../Drivers/stm32n6xx_nucleo_bus.c ****           ret = ((I2c_valid_timing[idx].presc  & 0x0FU) << 28) |\
 588:../Drivers/stm32n6xx_nucleo_bus.c ****                 ((I2c_valid_timing[idx].tscldel & 0x0FU) << 20) |\
 589:../Drivers/stm32n6xx_nucleo_bus.c ****                 ((I2c_valid_timing[idx].tsdadel & 0x0FU) << 16) |\
 590:../Drivers/stm32n6xx_nucleo_bus.c ****                 ((I2c_valid_timing[idx].sclh & 0xFFU) << 8) |\
 591:../Drivers/stm32n6xx_nucleo_bus.c ****                 ((I2c_valid_timing[idx].scll & 0xFFU) << 0);
 592:../Drivers/stm32n6xx_nucleo_bus.c ****         }
 593:../Drivers/stm32n6xx_nucleo_bus.c ****         break;
 594:../Drivers/stm32n6xx_nucleo_bus.c ****       }
 595:../Drivers/stm32n6xx_nucleo_bus.c ****     }
ARM GAS  /tmp/ccFnPEzn.s 			page 12


 596:../Drivers/stm32n6xx_nucleo_bus.c ****   }
 597:../Drivers/stm32n6xx_nucleo_bus.c **** 
 598:../Drivers/stm32n6xx_nucleo_bus.c ****   return ret;
 599:../Drivers/stm32n6xx_nucleo_bus.c **** }
 600:../Drivers/stm32n6xx_nucleo_bus.c **** 
 601:../Drivers/stm32n6xx_nucleo_bus.c **** /**
 602:../Drivers/stm32n6xx_nucleo_bus.c ****   * @brief  Compute PRESC, SCLDEL and SDADEL.
 603:../Drivers/stm32n6xx_nucleo_bus.c ****   * @param  clock_src_freq I2C source clock in HZ.
 604:../Drivers/stm32n6xx_nucleo_bus.c ****   * @param  I2C_speed I2C frequency (index).
 605:../Drivers/stm32n6xx_nucleo_bus.c ****   * @retval None.
 606:../Drivers/stm32n6xx_nucleo_bus.c ****   */
 607:../Drivers/stm32n6xx_nucleo_bus.c **** static void I2C_Compute_PRESC_SCLDEL_SDADEL(uint32_t clock_src_freq, uint32_t I2C_speed)
 608:../Drivers/stm32n6xx_nucleo_bus.c **** {
  34              		.loc 1 608 1 view -0
  35              		.cfi_startproc
  36              		@ args = 0, pretend = 0, frame = 0
  37              		@ frame_needed = 0, uses_anonymous_args = 0
  38              		.loc 1 608 1 is_stmt 0 view .LVU1
  39 0000 2DE9F04F 		push	{r4, r5, r6, r7, r8, r9, r10, fp, lr}
  40              	.LCFI0:
  41              		.cfi_def_cfa_offset 36
  42              		.cfi_offset 4, -36
  43              		.cfi_offset 5, -32
  44              		.cfi_offset 6, -28
  45              		.cfi_offset 7, -24
  46              		.cfi_offset 8, -20
  47              		.cfi_offset 9, -16
  48              		.cfi_offset 10, -12
  49              		.cfi_offset 11, -8
  50              		.cfi_offset 14, -4
 609:../Drivers/stm32n6xx_nucleo_bus.c ****   uint32_t prev_presc = I2C_PRESC_MAX;
  51              		.loc 1 609 3 is_stmt 1 view .LVU2
  52              	.LVL1:
 610:../Drivers/stm32n6xx_nucleo_bus.c ****   uint32_t ti2cclk;
  53              		.loc 1 610 3 view .LVU3
 611:../Drivers/stm32n6xx_nucleo_bus.c ****   int32_t  tsdadel_min;
  54              		.loc 1 611 3 view .LVU4
 612:../Drivers/stm32n6xx_nucleo_bus.c ****   int32_t  tsdadel_max;
  55              		.loc 1 612 3 view .LVU5
 613:../Drivers/stm32n6xx_nucleo_bus.c ****   int32_t  tscldel_min;
  56              		.loc 1 613 3 view .LVU6
 614:../Drivers/stm32n6xx_nucleo_bus.c ****   uint32_t presc;
  57              		.loc 1 614 3 view .LVU7
 615:../Drivers/stm32n6xx_nucleo_bus.c ****   uint32_t scldel;
  58              		.loc 1 615 3 view .LVU8
 616:../Drivers/stm32n6xx_nucleo_bus.c ****   uint32_t sdadel;
  59              		.loc 1 616 3 view .LVU9
 617:../Drivers/stm32n6xx_nucleo_bus.c ****   uint32_t tafdel_min;
  60              		.loc 1 617 3 view .LVU10
 618:../Drivers/stm32n6xx_nucleo_bus.c ****   uint32_t tafdel_max;
  61              		.loc 1 618 3 view .LVU11
 619:../Drivers/stm32n6xx_nucleo_bus.c **** 
 620:../Drivers/stm32n6xx_nucleo_bus.c ****   ti2cclk   = (SEC2NSEC + (clock_src_freq / 2U))/ clock_src_freq;
  62              		.loc 1 620 3 view .LVU12
  63              		.loc 1 620 25 is_stmt 0 view .LVU13
  64 0004 324B     		ldr	r3, .L22
  65 0006 03EB5003 		add	r3, r3, r0, lsr #1
ARM GAS  /tmp/ccFnPEzn.s 			page 13


  66              		.loc 1 620 13 view .LVU14
  67 000a B3FBF0F0 		udiv	r0, r3, r0
  68              	.LVL2:
 621:../Drivers/stm32n6xx_nucleo_bus.c **** 
 622:../Drivers/stm32n6xx_nucleo_bus.c ****   tafdel_min = I2C_ANALOG_FILTER_DELAY_MIN;
  69              		.loc 1 622 3 is_stmt 1 view .LVU15
 623:../Drivers/stm32n6xx_nucleo_bus.c ****   tafdel_max = I2C_ANALOG_FILTER_DELAY_MAX;
  70              		.loc 1 623 3 view .LVU16
 624:../Drivers/stm32n6xx_nucleo_bus.c **** 
 625:../Drivers/stm32n6xx_nucleo_bus.c ****   /* tDNF = DNF x tI2CCLK
 626:../Drivers/stm32n6xx_nucleo_bus.c ****      tPRESC = (PRESC+1) x tI2CCLK
 627:../Drivers/stm32n6xx_nucleo_bus.c ****      SDADEL >= {tf +tHD;DAT(min) - tAF(min) - tDNF - [3 x tI2CCLK]} / tPRESC
 628:../Drivers/stm32n6xx_nucleo_bus.c ****      SDADEL <= {tVD;DAT(max) - tr - tAF(max) - tDNF- [4 x tI2CCLK]} / tPRESC */
 629:../Drivers/stm32n6xx_nucleo_bus.c **** 
 630:../Drivers/stm32n6xx_nucleo_bus.c ****   tsdadel_min = (int32_t)I2C_Charac[I2C_speed].tfall + (int32_t)I2C_Charac[I2C_speed].hddat_min -
  71              		.loc 1 630 3 view .LVU17
  72              		.loc 1 630 47 is_stmt 0 view .LVU18
  73 000e 314B     		ldr	r3, .L22+4
  74 0010 2C22     		movs	r2, #44
  75 0012 02FB0133 		mla	r3, r2, r1, r3
  76 0016 5A6A     		ldr	r2, [r3, #36]
  77              		.loc 1 630 86 view .LVU19
  78 0018 D968     		ldr	r1, [r3, #12]
  79              	.LVL3:
  80              		.loc 1 630 54 view .LVU20
  81 001a 02EB010C 		add	ip, r2, r1
  82              		.loc 1 630 97 view .LVU21
  83 001e ACF1320C 		sub	ip, ip, #50
 631:../Drivers/stm32n6xx_nucleo_bus.c ****     (int32_t)tafdel_min - (int32_t)(((int32_t)I2C_Charac[I2C_speed].dnf + 3) * (int32_t)ti2cclk);
  84              		.loc 1 631 68 view .LVU22
  85 0022 996A     		ldr	r1, [r3, #40]
  86              		.loc 1 631 73 view .LVU23
  87 0024 CA1C     		adds	r2, r1, #3
 630:../Drivers/stm32n6xx_nucleo_bus.c ****     (int32_t)tafdel_min - (int32_t)(((int32_t)I2C_Charac[I2C_speed].dnf + 3) * (int32_t)ti2cclk);
  88              		.loc 1 630 15 view .LVU24
  89 0026 00FB12CC 		mls	ip, r0, r2, ip
  90              	.LVL4:
 632:../Drivers/stm32n6xx_nucleo_bus.c **** 
 633:../Drivers/stm32n6xx_nucleo_bus.c ****   tsdadel_max = (int32_t)I2C_Charac[I2C_speed].vddat_max - (int32_t)I2C_Charac[I2C_speed].trise -
  91              		.loc 1 633 3 is_stmt 1 view .LVU25
  92              		.loc 1 633 47 is_stmt 0 view .LVU26
  93 002a 1A69     		ldr	r2, [r3, #16]
  94              		.loc 1 633 90 view .LVU27
  95 002c 1F6A     		ldr	r7, [r3, #32]
  96              		.loc 1 633 58 view .LVU28
  97 002e A2EB070E 		sub	lr, r2, r7
  98              		.loc 1 633 97 view .LVU29
  99 0032 AEF5827E 		sub	lr, lr, #260
 634:../Drivers/stm32n6xx_nucleo_bus.c ****     (int32_t)tafdel_max - (int32_t)(((int32_t)I2C_Charac[I2C_speed].dnf + 4) * (int32_t)ti2cclk);
 100              		.loc 1 634 73 view .LVU30
 101 0036 0431     		adds	r1, r1, #4
 633:../Drivers/stm32n6xx_nucleo_bus.c ****     (int32_t)tafdel_max - (int32_t)(((int32_t)I2C_Charac[I2C_speed].dnf + 4) * (int32_t)ti2cclk);
 102              		.loc 1 633 15 view .LVU31
 103 0038 01FB10EE 		mls	lr, r1, r0, lr
 104              	.LVL5:
 635:../Drivers/stm32n6xx_nucleo_bus.c **** 
 636:../Drivers/stm32n6xx_nucleo_bus.c **** 
ARM GAS  /tmp/ccFnPEzn.s 			page 14


 637:../Drivers/stm32n6xx_nucleo_bus.c ****   /* {[tr+ tSU;DAT(min)] / [tPRESC]} - 1 <= SCLDEL */
 638:../Drivers/stm32n6xx_nucleo_bus.c ****   tscldel_min = (int32_t)I2C_Charac[I2C_speed].trise + (int32_t)I2C_Charac[I2C_speed].sudat_min;
 105              		.loc 1 638 3 is_stmt 1 view .LVU32
 106              		.loc 1 638 86 is_stmt 0 view .LVU33
 107 003c 5B69     		ldr	r3, [r3, #20]
 108              		.loc 1 638 15 view .LVU34
 109 003e 1F44     		add	r7, r7, r3
 110              	.LVL6:
 639:../Drivers/stm32n6xx_nucleo_bus.c **** 
 640:../Drivers/stm32n6xx_nucleo_bus.c ****   if (tsdadel_min <= 0)
 111              		.loc 1 640 3 is_stmt 1 view .LVU35
 112              		.loc 1 640 6 is_stmt 0 view .LVU36
 113 0040 BCF1000F 		cmp	ip, #0
 114 0044 06DD     		ble	.L19
 115              	.LVL7:
 116              	.L2:
 641:../Drivers/stm32n6xx_nucleo_bus.c ****   {
 642:../Drivers/stm32n6xx_nucleo_bus.c ****     tsdadel_min = 0;
 643:../Drivers/stm32n6xx_nucleo_bus.c ****   }
 644:../Drivers/stm32n6xx_nucleo_bus.c **** 
 645:../Drivers/stm32n6xx_nucleo_bus.c ****   if (tsdadel_max <= 0)
 117              		.loc 1 645 3 is_stmt 1 view .LVU37
 118              		.loc 1 645 6 is_stmt 0 view .LVU38
 119 0046 BEF1000F 		cmp	lr, #0
 120 004a 06DD     		ble	.L20
 121              	.LVL8:
 122              	.L3:
 646:../Drivers/stm32n6xx_nucleo_bus.c ****   {
 647:../Drivers/stm32n6xx_nucleo_bus.c ****     tsdadel_max = 0;
 648:../Drivers/stm32n6xx_nucleo_bus.c ****   }
 649:../Drivers/stm32n6xx_nucleo_bus.c **** 
 650:../Drivers/stm32n6xx_nucleo_bus.c ****   for (presc = 0; presc < I2C_PRESC_MAX; presc++)
 123              		.loc 1 650 3 is_stmt 1 view .LVU39
 124              		.loc 1 650 14 is_stmt 0 view .LVU40
 125 004c 0025     		movs	r5, #0
 609:../Drivers/stm32n6xx_nucleo_bus.c ****   uint32_t ti2cclk;
 126              		.loc 1 609 12 view .LVU41
 127 004e 4FF01008 		mov	r8, #16
 128              		.loc 1 650 3 view .LVU42
 129 0052 37E0     		b	.L4
 130              	.LVL9:
 131              	.L19:
 642:../Drivers/stm32n6xx_nucleo_bus.c ****   }
 132              		.loc 1 642 17 view .LVU43
 133 0054 4FF0000C 		mov	ip, #0
 134              	.LVL10:
 642:../Drivers/stm32n6xx_nucleo_bus.c ****   }
 135              		.loc 1 642 17 view .LVU44
 136 0058 F5E7     		b	.L2
 137              	.LVL11:
 138              	.L20:
 647:../Drivers/stm32n6xx_nucleo_bus.c ****   }
 139              		.loc 1 647 17 view .LVU45
 140 005a 4FF0000E 		mov	lr, #0
 141              	.LVL12:
 647:../Drivers/stm32n6xx_nucleo_bus.c ****   }
 142              		.loc 1 647 17 view .LVU46
ARM GAS  /tmp/ccFnPEzn.s 			page 15


 143 005e F5E7     		b	.L3
 144              	.LVL13:
 145              	.L8:
 146              	.LBB14:
 651:../Drivers/stm32n6xx_nucleo_bus.c ****   {
 652:../Drivers/stm32n6xx_nucleo_bus.c ****     for (scldel = 0; scldel < I2C_SCLDEL_MAX; scldel++)
 653:../Drivers/stm32n6xx_nucleo_bus.c ****     {
 654:../Drivers/stm32n6xx_nucleo_bus.c ****       /* TSCLDEL = (SCLDEL+1) * (PRESC+1) * TI2CCLK */
 655:../Drivers/stm32n6xx_nucleo_bus.c ****       uint32_t tscldel = (scldel + 1U) * (presc + 1U) * ti2cclk;
 656:../Drivers/stm32n6xx_nucleo_bus.c **** 
 657:../Drivers/stm32n6xx_nucleo_bus.c ****       if (tscldel >= (uint32_t)tscldel_min)
 658:../Drivers/stm32n6xx_nucleo_bus.c ****       {
 659:../Drivers/stm32n6xx_nucleo_bus.c ****         for (sdadel = 0; sdadel < I2C_SDADEL_MAX; sdadel++)
 147              		.loc 1 659 57 is_stmt 1 discriminator 1 view .LVU47
 148 0060 0132     		adds	r2, r2, #1
 149              	.LVL14:
 150              	.L5:
 151              		.loc 1 659 33 discriminator 2 view .LVU48
 152 0062 0F2A     		cmp	r2, #15
 153 0064 20D8     		bhi	.L6
 154              	.LBB15:
 660:../Drivers/stm32n6xx_nucleo_bus.c ****         {
 661:../Drivers/stm32n6xx_nucleo_bus.c ****           /* TSDADEL = SDADEL * (PRESC+1) * TI2CCLK */
 662:../Drivers/stm32n6xx_nucleo_bus.c ****           uint32_t tsdadel = (sdadel * (presc + 1U)) * ti2cclk;
 155              		.loc 1 662 11 view .LVU49
 156              		.loc 1 662 38 is_stmt 0 view .LVU50
 157 0066 02FB01F3 		mul	r3, r2, r1
 158              		.loc 1 662 20 view .LVU51
 159 006a 00FB03F3 		mul	r3, r0, r3
 160              	.LVL15:
 663:../Drivers/stm32n6xx_nucleo_bus.c **** 
 664:../Drivers/stm32n6xx_nucleo_bus.c ****           if ((tsdadel >= (uint32_t)tsdadel_min) && (tsdadel <= (uint32_t)tsdadel_max))
 161              		.loc 1 664 11 is_stmt 1 view .LVU52
 162              		.loc 1 664 14 is_stmt 0 view .LVU53
 163 006e 9C45     		cmp	ip, r3
 164 0070 F6D8     		bhi	.L8
 165              		.loc 1 664 50 discriminator 1 view .LVU54
 166 0072 9E45     		cmp	lr, r3
 167 0074 F4D3     		bcc	.L8
 665:../Drivers/stm32n6xx_nucleo_bus.c ****           {
 666:../Drivers/stm32n6xx_nucleo_bus.c ****             if(presc != prev_presc)
 168              		.loc 1 666 13 is_stmt 1 view .LVU55
 169              		.loc 1 666 15 is_stmt 0 view .LVU56
 170 0076 A845     		cmp	r8, r5
 171 0078 F2D0     		beq	.L8
 667:../Drivers/stm32n6xx_nucleo_bus.c ****             {
 668:../Drivers/stm32n6xx_nucleo_bus.c ****               I2c_valid_timing[I2c_valid_timing_nbr].presc = presc;
 172              		.loc 1 668 15 is_stmt 1 view .LVU57
 173              		.loc 1 668 53 is_stmt 0 view .LVU58
 174 007a DFF85C80 		ldr	r8, .L22+8
 175              	.LVL16:
 176              		.loc 1 668 53 view .LVU59
 177 007e D8F80030 		ldr	r3, [r8]
 178              	.LVL17:
 179              		.loc 1 668 60 view .LVU60
 180 0082 DFF858A0 		ldr	r10, .L22+12
 181 0086 03EB830B 		add	fp, r3, r3, lsl #2
ARM GAS  /tmp/ccFnPEzn.s 			page 16


 182 008a 0AEB8B09 		add	r9, r10, fp, lsl #2
 183 008e 4AF82B50 		str	r5, [r10, fp, lsl #2]
 669:../Drivers/stm32n6xx_nucleo_bus.c ****               I2c_valid_timing[I2c_valid_timing_nbr].tscldel = scldel;
 184              		.loc 1 669 15 is_stmt 1 view .LVU61
 185              		.loc 1 669 62 is_stmt 0 view .LVU62
 186 0092 C9F80440 		str	r4, [r9, #4]
 670:../Drivers/stm32n6xx_nucleo_bus.c ****               I2c_valid_timing[I2c_valid_timing_nbr].tsdadel = sdadel;
 187              		.loc 1 670 15 is_stmt 1 view .LVU63
 188              		.loc 1 670 62 is_stmt 0 view .LVU64
 189 0096 C9F80820 		str	r2, [r9, #8]
 671:../Drivers/stm32n6xx_nucleo_bus.c ****               prev_presc = presc;
 190              		.loc 1 671 15 is_stmt 1 view .LVU65
 191              	.LVL18:
 672:../Drivers/stm32n6xx_nucleo_bus.c ****               I2c_valid_timing_nbr ++;
 192              		.loc 1 672 15 view .LVU66
 193              		.loc 1 672 36 is_stmt 0 view .LVU67
 194 009a 0133     		adds	r3, r3, #1
 195 009c C8F80030 		str	r3, [r8]
 673:../Drivers/stm32n6xx_nucleo_bus.c **** 
 674:../Drivers/stm32n6xx_nucleo_bus.c ****               if(I2c_valid_timing_nbr >= I2C_VALID_TIMING_NBR)
 196              		.loc 1 674 15 is_stmt 1 view .LVU68
 197              		.loc 1 674 17 is_stmt 0 view .LVU69
 198 00a0 7F2B     		cmp	r3, #127
 199 00a2 13D8     		bhi	.L1
 671:../Drivers/stm32n6xx_nucleo_bus.c ****               I2c_valid_timing_nbr ++;
 200              		.loc 1 671 26 view .LVU70
 201 00a4 A846     		mov	r8, r5
 202 00a6 DBE7     		b	.L8
 203              	.LVL19:
 204              	.L6:
 671:../Drivers/stm32n6xx_nucleo_bus.c ****               I2c_valid_timing_nbr ++;
 205              		.loc 1 671 26 view .LVU71
 206              	.LBE15:
 207              	.LBE14:
 652:../Drivers/stm32n6xx_nucleo_bus.c ****     {
 208              		.loc 1 652 53 is_stmt 1 discriminator 1 view .LVU72
 652:../Drivers/stm32n6xx_nucleo_bus.c ****     {
 209              		.loc 1 652 53 is_stmt 0 discriminator 1 view .LVU73
 210 00a8 3446     		mov	r4, r6
 211              	.LVL20:
 212              	.L13:
 652:../Drivers/stm32n6xx_nucleo_bus.c ****     {
 213              		.loc 1 652 29 is_stmt 1 discriminator 2 view .LVU74
 214 00aa 0F2C     		cmp	r4, #15
 215 00ac 09D8     		bhi	.L21
 216              	.LBB16:
 655:../Drivers/stm32n6xx_nucleo_bus.c **** 
 217              		.loc 1 655 7 view .LVU75
 655:../Drivers/stm32n6xx_nucleo_bus.c **** 
 218              		.loc 1 655 34 is_stmt 0 view .LVU76
 219 00ae 661C     		adds	r6, r4, #1
 655:../Drivers/stm32n6xx_nucleo_bus.c **** 
 220              		.loc 1 655 49 view .LVU77
 221 00b0 691C     		adds	r1, r5, #1
 655:../Drivers/stm32n6xx_nucleo_bus.c **** 
 222              		.loc 1 655 40 view .LVU78
 223 00b2 04FB0113 		mla	r3, r4, r1, r1
ARM GAS  /tmp/ccFnPEzn.s 			page 17


 655:../Drivers/stm32n6xx_nucleo_bus.c **** 
 224              		.loc 1 655 16 view .LVU79
 225 00b6 00FB03F3 		mul	r3, r0, r3
 226              	.LVL21:
 657:../Drivers/stm32n6xx_nucleo_bus.c ****       {
 227              		.loc 1 657 7 is_stmt 1 view .LVU80
 657:../Drivers/stm32n6xx_nucleo_bus.c ****       {
 228              		.loc 1 657 10 is_stmt 0 view .LVU81
 229 00ba 9F42     		cmp	r7, r3
 230 00bc F4D8     		bhi	.L6
 659:../Drivers/stm32n6xx_nucleo_bus.c ****         {
 231              		.loc 1 659 21 view .LVU82
 232 00be 0022     		movs	r2, #0
 233 00c0 CFE7     		b	.L5
 234              	.LVL22:
 235              	.L21:
 659:../Drivers/stm32n6xx_nucleo_bus.c ****         {
 236              		.loc 1 659 21 view .LVU83
 237              	.LBE16:
 650:../Drivers/stm32n6xx_nucleo_bus.c ****   {
 238              		.loc 1 650 47 is_stmt 1 discriminator 1 view .LVU84
 239 00c2 0135     		adds	r5, r5, #1
 240              	.LVL23:
 241              	.L4:
 650:../Drivers/stm32n6xx_nucleo_bus.c ****   {
 242              		.loc 1 650 25 discriminator 2 view .LVU85
 243 00c4 0F2D     		cmp	r5, #15
 244 00c6 01D8     		bhi	.L1
 652:../Drivers/stm32n6xx_nucleo_bus.c ****     {
 245              		.loc 1 652 17 is_stmt 0 view .LVU86
 246 00c8 0024     		movs	r4, #0
 247 00ca EEE7     		b	.L13
 248              	.LVL24:
 249              	.L1:
 675:../Drivers/stm32n6xx_nucleo_bus.c ****               {
 676:../Drivers/stm32n6xx_nucleo_bus.c ****                 return;
 677:../Drivers/stm32n6xx_nucleo_bus.c ****               }
 678:../Drivers/stm32n6xx_nucleo_bus.c ****             }
 679:../Drivers/stm32n6xx_nucleo_bus.c ****           }
 680:../Drivers/stm32n6xx_nucleo_bus.c ****         }
 681:../Drivers/stm32n6xx_nucleo_bus.c ****       }
 682:../Drivers/stm32n6xx_nucleo_bus.c ****     }
 683:../Drivers/stm32n6xx_nucleo_bus.c ****   }
 684:../Drivers/stm32n6xx_nucleo_bus.c **** }
 250              		.loc 1 684 1 view .LVU87
 251 00cc BDE8F08F 		pop	{r4, r5, r6, r7, r8, r9, r10, fp, pc}
 252              	.LVL25:
 253              	.L23:
 254              		.loc 1 684 1 view .LVU88
 255              		.align	2
 256              	.L22:
 257 00d0 00CA9A3B 		.word	1000000000
 258 00d4 00000000 		.word	I2C_Charac
 259 00d8 00000000 		.word	I2c_valid_timing_nbr
 260 00dc 00000000 		.word	I2c_valid_timing
 261              		.cfi_endproc
 262              	.LFE891:
ARM GAS  /tmp/ccFnPEzn.s 			page 18


 264              		.section	.text.I2C_Compute_SCLL_SCLH,"ax",%progbits
 265              		.align	1
 266              		.syntax unified
 267              		.thumb
 268              		.thumb_func
 270              	I2C_Compute_SCLL_SCLH:
 271              	.LVL26:
 272              	.LFB892:
 685:../Drivers/stm32n6xx_nucleo_bus.c **** 
 686:../Drivers/stm32n6xx_nucleo_bus.c **** /**
 687:../Drivers/stm32n6xx_nucleo_bus.c ****   * @brief  Calculate SCLL and SCLH and find best configuration.
 688:../Drivers/stm32n6xx_nucleo_bus.c ****   * @param  clock_src_freq I2C source clock in HZ.
 689:../Drivers/stm32n6xx_nucleo_bus.c ****   * @param  I2C_speed I2C frequency (index).
 690:../Drivers/stm32n6xx_nucleo_bus.c ****   * @retval config index (0 to I2C_VALID_TIMING_NBR], 0xFFFFFFFF for no valid config.
 691:../Drivers/stm32n6xx_nucleo_bus.c ****   */
 692:../Drivers/stm32n6xx_nucleo_bus.c **** static uint32_t I2C_Compute_SCLL_SCLH (uint32_t clock_src_freq, uint32_t I2C_speed)
 693:../Drivers/stm32n6xx_nucleo_bus.c **** {
 273              		.loc 1 693 1 is_stmt 1 view -0
 274              		.cfi_startproc
 275              		@ args = 0, pretend = 0, frame = 32
 276              		@ frame_needed = 0, uses_anonymous_args = 0
 277              		.loc 1 693 1 is_stmt 0 view .LVU90
 278 0000 2DE9F04F 		push	{r4, r5, r6, r7, r8, r9, r10, fp, lr}
 279              	.LCFI1:
 280              		.cfi_def_cfa_offset 36
 281              		.cfi_offset 4, -36
 282              		.cfi_offset 5, -32
 283              		.cfi_offset 6, -28
 284              		.cfi_offset 7, -24
 285              		.cfi_offset 8, -20
 286              		.cfi_offset 9, -16
 287              		.cfi_offset 10, -12
 288              		.cfi_offset 11, -8
 289              		.cfi_offset 14, -4
 290 0004 89B0     		sub	sp, sp, #36
 291              	.LCFI2:
 292              		.cfi_def_cfa_offset 72
 293 0006 0D46     		mov	r5, r1
 694:../Drivers/stm32n6xx_nucleo_bus.c ****  uint32_t ret = 0xFFFFFFFFU;
 294              		.loc 1 694 2 is_stmt 1 view .LVU91
 295              	.LVL27:
 695:../Drivers/stm32n6xx_nucleo_bus.c ****   uint32_t ti2cclk;
 296              		.loc 1 695 3 view .LVU92
 696:../Drivers/stm32n6xx_nucleo_bus.c ****   uint32_t ti2cspeed;
 297              		.loc 1 696 3 view .LVU93
 697:../Drivers/stm32n6xx_nucleo_bus.c ****   uint32_t prev_error;
 298              		.loc 1 697 3 view .LVU94
 698:../Drivers/stm32n6xx_nucleo_bus.c ****   uint32_t dnf_delay;
 299              		.loc 1 698 3 view .LVU95
 699:../Drivers/stm32n6xx_nucleo_bus.c ****   uint32_t clk_min;
 300              		.loc 1 699 3 view .LVU96
 700:../Drivers/stm32n6xx_nucleo_bus.c ****   uint32_t clk_max;
 301              		.loc 1 700 3 view .LVU97
 701:../Drivers/stm32n6xx_nucleo_bus.c ****   uint32_t scll;
 302              		.loc 1 701 3 view .LVU98
 702:../Drivers/stm32n6xx_nucleo_bus.c ****   uint32_t sclh;
 303              		.loc 1 702 3 view .LVU99
ARM GAS  /tmp/ccFnPEzn.s 			page 19


 703:../Drivers/stm32n6xx_nucleo_bus.c ****   uint32_t tafdel_min;
 304              		.loc 1 703 3 view .LVU100
 704:../Drivers/stm32n6xx_nucleo_bus.c **** 
 705:../Drivers/stm32n6xx_nucleo_bus.c ****   ti2cclk   = (SEC2NSEC + (clock_src_freq / 2U))/ clock_src_freq;
 305              		.loc 1 705 3 view .LVU101
 306              		.loc 1 705 25 is_stmt 0 view .LVU102
 307 0008 474A     		ldr	r2, .L44
 308 000a 02EB5001 		add	r1, r2, r0, lsr #1
 309              	.LVL28:
 310              		.loc 1 705 13 view .LVU103
 311 000e B1FBF0F9 		udiv	r9, r1, r0
 312              	.LVL29:
 706:../Drivers/stm32n6xx_nucleo_bus.c ****   ti2cspeed   = (SEC2NSEC + (I2C_Charac[I2C_speed].freq / 2U))/ I2C_Charac[I2C_speed].freq;
 313              		.loc 1 706 3 is_stmt 1 view .LVU104
 314              		.loc 1 706 51 is_stmt 0 view .LVU105
 315 0012 4648     		ldr	r0, .L44+4
 316              	.LVL30:
 317              		.loc 1 706 51 view .LVU106
 318 0014 2C23     		movs	r3, #44
 319 0016 05FB03F3 		mul	r3, r5, r3
 320 001a C118     		adds	r1, r0, r3
 321 001c C358     		ldr	r3, [r0, r3]
 322              		.loc 1 706 27 view .LVU107
 323 001e 02EB5300 		add	r0, r2, r3, lsr #1
 324              		.loc 1 706 15 view .LVU108
 325 0022 B0FBF3F4 		udiv	r4, r0, r3
 326 0026 0394     		str	r4, [sp, #12]
 327              	.LVL31:
 707:../Drivers/stm32n6xx_nucleo_bus.c **** 
 708:../Drivers/stm32n6xx_nucleo_bus.c ****   tafdel_min = I2C_ANALOG_FILTER_DELAY_MIN;
 328              		.loc 1 708 3 is_stmt 1 view .LVU109
 709:../Drivers/stm32n6xx_nucleo_bus.c **** 
 710:../Drivers/stm32n6xx_nucleo_bus.c ****   /* tDNF = DNF x tI2CCLK */
 711:../Drivers/stm32n6xx_nucleo_bus.c ****   dnf_delay = I2C_Charac[I2C_speed].dnf * ti2cclk;
 329              		.loc 1 711 3 view .LVU110
 330              		.loc 1 711 36 is_stmt 0 view .LVU111
 331 0028 8B6A     		ldr	r3, [r1, #40]
 332              		.loc 1 711 13 view .LVU112
 333 002a 09FB03F3 		mul	r3, r9, r3
 334              	.LVL32:
 712:../Drivers/stm32n6xx_nucleo_bus.c **** 
 713:../Drivers/stm32n6xx_nucleo_bus.c ****   clk_max = SEC2NSEC / I2C_Charac[I2C_speed].freq_min;
 335              		.loc 1 713 3 is_stmt 1 view .LVU113
 336              		.loc 1 713 45 is_stmt 0 view .LVU114
 337 002e 4868     		ldr	r0, [r1, #4]
 338              		.loc 1 713 11 view .LVU115
 339 0030 B2FBF0FB 		udiv	fp, r2, r0
 340              	.LVL33:
 714:../Drivers/stm32n6xx_nucleo_bus.c ****   clk_min = SEC2NSEC / I2C_Charac[I2C_speed].freq_max;
 341              		.loc 1 714 3 is_stmt 1 view .LVU116
 342              		.loc 1 714 45 is_stmt 0 view .LVU117
 343 0034 8968     		ldr	r1, [r1, #8]
 344              		.loc 1 714 11 view .LVU118
 345 0036 B2FBF1F8 		udiv	r8, r2, r1
 346              	.LVL34:
 715:../Drivers/stm32n6xx_nucleo_bus.c **** 
 716:../Drivers/stm32n6xx_nucleo_bus.c ****   prev_error = ti2cspeed;
ARM GAS  /tmp/ccFnPEzn.s 			page 20


 347              		.loc 1 716 3 is_stmt 1 view .LVU119
 717:../Drivers/stm32n6xx_nucleo_bus.c **** 
 718:../Drivers/stm32n6xx_nucleo_bus.c ****   for (uint32_t count = 0; count < I2c_valid_timing_nbr; count++)
 348              		.loc 1 718 3 view .LVU120
 349              	.LBB17:
 350              		.loc 1 718 8 view .LVU121
 351              		.loc 1 718 8 is_stmt 0 view .LVU122
 352              	.LBE17:
 716:../Drivers/stm32n6xx_nucleo_bus.c **** 
 353              		.loc 1 716 14 view .LVU123
 354 003a 0294     		str	r4, [sp, #8]
 355              	.LBB26:
 356              		.loc 1 718 17 view .LVU124
 357 003c 0022     		movs	r2, #0
 358 003e 0492     		str	r2, [sp, #16]
 359              	.LBE26:
 694:../Drivers/stm32n6xx_nucleo_bus.c ****   uint32_t ti2cclk;
 360              		.loc 1 694 11 view .LVU125
 361 0040 4FF0FF32 		mov	r2, #-1
 362 0044 0592     		str	r2, [sp, #20]
 363 0046 CA46     		mov	r10, r9
 364              	.LBB27:
 365              		.loc 1 718 3 view .LVU126
 366 0048 58E0     		b	.L25
 367              	.LVL35:
 368              	.L41:
 369              	.LBB18:
 370              	.LBB19:
 371              	.LBB20:
 372              	.LBB21:
 719:../Drivers/stm32n6xx_nucleo_bus.c ****   {
 720:../Drivers/stm32n6xx_nucleo_bus.c ****     /* tPRESC = (PRESC+1) x tI2CCLK*/
 721:../Drivers/stm32n6xx_nucleo_bus.c ****     uint32_t tpresc = (I2c_valid_timing[count].presc + 1U) * ti2cclk;
 722:../Drivers/stm32n6xx_nucleo_bus.c **** 
 723:../Drivers/stm32n6xx_nucleo_bus.c ****     for (scll = 0; scll < I2C_SCLL_MAX; scll++)
 724:../Drivers/stm32n6xx_nucleo_bus.c ****     {
 725:../Drivers/stm32n6xx_nucleo_bus.c ****       /* tLOW(min) <= tAF(min) + tDNF + 2 x tI2CCLK + [(SCLL+1) x tPRESC ] */
 726:../Drivers/stm32n6xx_nucleo_bus.c ****       uint32_t tscl_l = tafdel_min + dnf_delay + (2U * ti2cclk) + ((scll + 1U) * tpresc);
 727:../Drivers/stm32n6xx_nucleo_bus.c **** 
 728:../Drivers/stm32n6xx_nucleo_bus.c **** 
 729:../Drivers/stm32n6xx_nucleo_bus.c ****       /* The I2CCLK period tI2CCLK must respect the following conditions:
 730:../Drivers/stm32n6xx_nucleo_bus.c ****       tI2CCLK < (tLOW - tfilters) / 4 and tI2CCLK < tHIGH */
 731:../Drivers/stm32n6xx_nucleo_bus.c ****       if ((tscl_l > I2C_Charac[I2C_speed].lscl_min) && (ti2cclk < ((tscl_l - tafdel_min - dnf_delay
 732:../Drivers/stm32n6xx_nucleo_bus.c ****       {
 733:../Drivers/stm32n6xx_nucleo_bus.c ****         for (sclh = 0; sclh < I2C_SCLH_MAX; sclh++)
 734:../Drivers/stm32n6xx_nucleo_bus.c ****         {
 735:../Drivers/stm32n6xx_nucleo_bus.c ****           /* tHIGH(min) <= tAF(min) + tDNF + 2 x tI2CCLK + [(SCLH+1) x tPRESC] */
 736:../Drivers/stm32n6xx_nucleo_bus.c ****           uint32_t tscl_h = tafdel_min + dnf_delay + (2U * ti2cclk) + ((sclh + 1U) * tpresc);
 737:../Drivers/stm32n6xx_nucleo_bus.c **** 
 738:../Drivers/stm32n6xx_nucleo_bus.c ****           /* tSCL = tf + tLOW + tr + tHIGH */
 739:../Drivers/stm32n6xx_nucleo_bus.c ****           uint32_t tscl = tscl_l + tscl_h + I2C_Charac[I2C_speed].trise + I2C_Charac[I2C_speed].tfa
 740:../Drivers/stm32n6xx_nucleo_bus.c **** 
 741:../Drivers/stm32n6xx_nucleo_bus.c ****           if ((tscl >= clk_min) && (tscl <= clk_max) && (tscl_h >= I2C_Charac[I2C_speed].hscl_min) 
 742:../Drivers/stm32n6xx_nucleo_bus.c ****           {
 743:../Drivers/stm32n6xx_nucleo_bus.c ****             int32_t error = (int32_t)tscl - (int32_t)ti2cspeed;
 744:../Drivers/stm32n6xx_nucleo_bus.c **** 
 745:../Drivers/stm32n6xx_nucleo_bus.c ****             if (error < 0)
ARM GAS  /tmp/ccFnPEzn.s 			page 21


 746:../Drivers/stm32n6xx_nucleo_bus.c ****             {
 747:../Drivers/stm32n6xx_nucleo_bus.c ****               error = -error;
 373              		.loc 1 747 15 is_stmt 1 view .LVU127
 374              		.loc 1 747 21 is_stmt 0 view .LVU128
 375 004a CA1A     		subs	r2, r1, r3
 376              	.LVL36:
 377              		.loc 1 747 21 view .LVU129
 378 004c 21E0     		b	.L34
 379              	.LVL37:
 380              	.L32:
 381              		.loc 1 747 21 view .LVU130
 382              	.LBE21:
 383              	.LBE20:
 733:../Drivers/stm32n6xx_nucleo_bus.c ****         {
 384              		.loc 1 733 49 is_stmt 1 discriminator 1 view .LVU131
 733:../Drivers/stm32n6xx_nucleo_bus.c ****         {
 385              		.loc 1 733 49 is_stmt 0 discriminator 1 view .LVU132
 386 004e 3046     		mov	r0, r6
 387              	.LVL38:
 388              	.L29:
 733:../Drivers/stm32n6xx_nucleo_bus.c ****         {
 389              		.loc 1 733 29 is_stmt 1 discriminator 2 view .LVU133
 390 0050 FF28     		cmp	r0, #255
 391 0052 2DD8     		bhi	.L40
 392              	.LBB23:
 736:../Drivers/stm32n6xx_nucleo_bus.c **** 
 393              		.loc 1 736 11 view .LVU134
 736:../Drivers/stm32n6xx_nucleo_bus.c **** 
 394              		.loc 1 736 78 is_stmt 0 view .LVU135
 395 0054 461C     		adds	r6, r0, #1
 736:../Drivers/stm32n6xx_nucleo_bus.c **** 
 396              		.loc 1 736 84 view .LVU136
 397 0056 00FB0442 		mla	r2, r0, r4, r4
 736:../Drivers/stm32n6xx_nucleo_bus.c **** 
 398              		.loc 1 736 69 view .LVU137
 399 005a 4A44     		add	r2, r2, r9
 736:../Drivers/stm32n6xx_nucleo_bus.c **** 
 400              		.loc 1 736 20 view .LVU138
 401 005c 7244     		add	r2, r2, lr
 402              	.LVL39:
 739:../Drivers/stm32n6xx_nucleo_bus.c **** 
 403              		.loc 1 739 11 is_stmt 1 view .LVU139
 739:../Drivers/stm32n6xx_nucleo_bus.c **** 
 404              		.loc 1 739 34 is_stmt 0 view .LVU140
 405 005e 0CEB0203 		add	r3, ip, r2
 739:../Drivers/stm32n6xx_nucleo_bus.c **** 
 406              		.loc 1 739 66 view .LVU141
 407 0062 3249     		ldr	r1, .L44+4
 408              	.LVL40:
 739:../Drivers/stm32n6xx_nucleo_bus.c **** 
 409              		.loc 1 739 66 view .LVU142
 410 0064 2C27     		movs	r7, #44
 411              	.LVL41:
 739:../Drivers/stm32n6xx_nucleo_bus.c **** 
 412              		.loc 1 739 66 view .LVU143
 413 0066 07FB0511 		mla	r1, r7, r5, r1
 414              	.LVL42:
ARM GAS  /tmp/ccFnPEzn.s 			page 22


 739:../Drivers/stm32n6xx_nucleo_bus.c **** 
 415              		.loc 1 739 66 view .LVU144
 416 006a 0F6A     		ldr	r7, [r1, #32]
 417              	.LVL43:
 739:../Drivers/stm32n6xx_nucleo_bus.c **** 
 418              		.loc 1 739 43 view .LVU145
 419 006c 3B44     		add	r3, r3, r7
 739:../Drivers/stm32n6xx_nucleo_bus.c **** 
 420              		.loc 1 739 96 view .LVU146
 421 006e 496A     		ldr	r1, [r1, #36]
 739:../Drivers/stm32n6xx_nucleo_bus.c **** 
 422              		.loc 1 739 20 view .LVU147
 423 0070 0B44     		add	r3, r3, r1
 424              	.LVL44:
 741:../Drivers/stm32n6xx_nucleo_bus.c ****           {
 425              		.loc 1 741 11 is_stmt 1 view .LVU148
 741:../Drivers/stm32n6xx_nucleo_bus.c ****           {
 426              		.loc 1 741 14 is_stmt 0 view .LVU149
 427 0072 9845     		cmp	r8, r3
 428 0074 EBD8     		bhi	.L32
 741:../Drivers/stm32n6xx_nucleo_bus.c ****           {
 429              		.loc 1 741 33 discriminator 1 view .LVU150
 430 0076 9B45     		cmp	fp, r3
 431 0078 E9D3     		bcc	.L32
 741:../Drivers/stm32n6xx_nucleo_bus.c ****           {
 432              		.loc 1 741 89 discriminator 2 view .LVU151
 433 007a 2C49     		ldr	r1, .L44+4
 434              	.LVL45:
 741:../Drivers/stm32n6xx_nucleo_bus.c ****           {
 435              		.loc 1 741 89 discriminator 2 view .LVU152
 436 007c 2C27     		movs	r7, #44
 437              	.LVL46:
 741:../Drivers/stm32n6xx_nucleo_bus.c ****           {
 438              		.loc 1 741 89 discriminator 2 view .LVU153
 439 007e 07FB0511 		mla	r1, r7, r5, r1
 440              	.LVL47:
 741:../Drivers/stm32n6xx_nucleo_bus.c ****           {
 441              		.loc 1 741 89 discriminator 2 view .LVU154
 442 0082 C969     		ldr	r1, [r1, #28]
 741:../Drivers/stm32n6xx_nucleo_bus.c ****           {
 443              		.loc 1 741 54 discriminator 2 view .LVU155
 444 0084 9142     		cmp	r1, r2
 445 0086 E2D8     		bhi	.L32
 741:../Drivers/stm32n6xx_nucleo_bus.c ****           {
 446              		.loc 1 741 100 discriminator 3 view .LVU156
 447 0088 9245     		cmp	r10, r2
 448 008a E0D2     		bcs	.L32
 449              	.LBB22:
 743:../Drivers/stm32n6xx_nucleo_bus.c **** 
 450              		.loc 1 743 13 is_stmt 1 view .LVU157
 451              	.LVL48:
 745:../Drivers/stm32n6xx_nucleo_bus.c ****             {
 452              		.loc 1 745 13 view .LVU158
 745:../Drivers/stm32n6xx_nucleo_bus.c ****             {
 453              		.loc 1 745 16 is_stmt 0 view .LVU159
 454 008c 0399     		ldr	r1, [sp, #12]
 455 008e 5A1A     		subs	r2, r3, r1
ARM GAS  /tmp/ccFnPEzn.s 			page 23


 456              	.LVL49:
 745:../Drivers/stm32n6xx_nucleo_bus.c ****             {
 457              		.loc 1 745 16 view .LVU160
 458 0090 DBD4     		bmi	.L41
 459              	.LVL50:
 460              	.L34:
 748:../Drivers/stm32n6xx_nucleo_bus.c ****             }
 749:../Drivers/stm32n6xx_nucleo_bus.c **** 
 750:../Drivers/stm32n6xx_nucleo_bus.c ****             /* look for the timings with the lowest clock error */
 751:../Drivers/stm32n6xx_nucleo_bus.c ****             if ((uint32_t)error < prev_error)
 461              		.loc 1 751 13 is_stmt 1 view .LVU161
 462              		.loc 1 751 16 is_stmt 0 view .LVU162
 463 0092 029B     		ldr	r3, [sp, #8]
 464              	.LVL51:
 465              		.loc 1 751 16 view .LVU163
 466 0094 9A42     		cmp	r2, r3
 467 0096 DAD2     		bcs	.L32
 752:../Drivers/stm32n6xx_nucleo_bus.c ****             {
 753:../Drivers/stm32n6xx_nucleo_bus.c ****               prev_error = (uint32_t)error;
 468              		.loc 1 753 15 is_stmt 1 view .LVU164
 469              	.LVL52:
 754:../Drivers/stm32n6xx_nucleo_bus.c ****               I2c_valid_timing[count].scll = scll;
 470              		.loc 1 754 15 view .LVU165
 471              		.loc 1 754 44 is_stmt 0 view .LVU166
 472 0098 049F     		ldr	r7, [sp, #16]
 473              	.LVL53:
 474              		.loc 1 754 44 view .LVU167
 475 009a 07EB8701 		add	r1, r7, r7, lsl #2
 476 009e 244B     		ldr	r3, .L44+8
 477 00a0 03EB8103 		add	r3, r3, r1, lsl #2
 478 00a4 0199     		ldr	r1, [sp, #4]
 479 00a6 1961     		str	r1, [r3, #16]
 755:../Drivers/stm32n6xx_nucleo_bus.c ****               I2c_valid_timing[count].sclh = sclh;
 480              		.loc 1 755 15 is_stmt 1 view .LVU168
 481              		.loc 1 755 44 is_stmt 0 view .LVU169
 482 00a8 D860     		str	r0, [r3, #12]
 756:../Drivers/stm32n6xx_nucleo_bus.c ****               ret = count;
 483              		.loc 1 756 15 is_stmt 1 view .LVU170
 484              	.LVL54:
 753:../Drivers/stm32n6xx_nucleo_bus.c ****               I2c_valid_timing[count].scll = scll;
 485              		.loc 1 753 26 is_stmt 0 view .LVU171
 486 00aa 0292     		str	r2, [sp, #8]
 487              		.loc 1 756 19 view .LVU172
 488 00ac 0597     		str	r7, [sp, #20]
 489 00ae CEE7     		b	.L32
 490              	.LVL55:
 491              	.L40:
 492              		.loc 1 756 19 view .LVU173
 493 00b0 069B     		ldr	r3, [sp, #24]
 494 00b2 0799     		ldr	r1, [sp, #28]
 495              	.LVL56:
 496              	.L28:
 497              		.loc 1 756 19 view .LVU174
 498              	.LBE22:
 499              	.LBE23:
 500              	.LBE19:
 723:../Drivers/stm32n6xx_nucleo_bus.c ****     {
ARM GAS  /tmp/ccFnPEzn.s 			page 24


 501              		.loc 1 723 45 is_stmt 1 discriminator 1 view .LVU175
 723:../Drivers/stm32n6xx_nucleo_bus.c ****     {
 502              		.loc 1 723 45 is_stmt 0 discriminator 1 view .LVU176
 503 00b4 0193     		str	r3, [sp, #4]
 504              	.LVL57:
 505              	.L26:
 723:../Drivers/stm32n6xx_nucleo_bus.c ****     {
 506              		.loc 1 723 25 is_stmt 1 discriminator 2 view .LVU177
 507 00b6 019B     		ldr	r3, [sp, #4]
 508 00b8 FF2B     		cmp	r3, #255
 509 00ba 1BD8     		bhi	.L42
 510              	.LBB24:
 726:../Drivers/stm32n6xx_nucleo_bus.c **** 
 511              		.loc 1 726 7 view .LVU178
 726:../Drivers/stm32n6xx_nucleo_bus.c **** 
 512              		.loc 1 726 36 is_stmt 0 view .LVU179
 513 00bc 01F1320E 		add	lr, r1, #50
 726:../Drivers/stm32n6xx_nucleo_bus.c **** 
 514              		.loc 1 726 74 view .LVU180
 515 00c0 019A     		ldr	r2, [sp, #4]
 516 00c2 531C     		adds	r3, r2, #1
 726:../Drivers/stm32n6xx_nucleo_bus.c **** 
 517              		.loc 1 726 80 view .LVU181
 518 00c4 02FB044C 		mla	ip, r2, r4, r4
 726:../Drivers/stm32n6xx_nucleo_bus.c **** 
 519              		.loc 1 726 54 view .LVU182
 520 00c8 4FEA4A09 		lsl	r9, r10, #1
 726:../Drivers/stm32n6xx_nucleo_bus.c **** 
 521              		.loc 1 726 65 view .LVU183
 522 00cc 0CEB4A0C 		add	ip, ip, r10, lsl #1
 726:../Drivers/stm32n6xx_nucleo_bus.c **** 
 523              		.loc 1 726 16 view .LVU184
 524 00d0 F444     		add	ip, ip, lr
 525              	.LVL58:
 731:../Drivers/stm32n6xx_nucleo_bus.c ****       {
 526              		.loc 1 731 7 is_stmt 1 view .LVU185
 731:../Drivers/stm32n6xx_nucleo_bus.c ****       {
 527              		.loc 1 731 42 is_stmt 0 view .LVU186
 528 00d2 164A     		ldr	r2, .L44+4
 529              	.LVL59:
 731:../Drivers/stm32n6xx_nucleo_bus.c ****       {
 530              		.loc 1 731 42 view .LVU187
 531 00d4 2C20     		movs	r0, #44
 532              	.LVL60:
 731:../Drivers/stm32n6xx_nucleo_bus.c ****       {
 533              		.loc 1 731 42 view .LVU188
 534 00d6 00FB0522 		mla	r2, r0, r5, r2
 535              	.LVL61:
 731:../Drivers/stm32n6xx_nucleo_bus.c ****       {
 536              		.loc 1 731 42 view .LVU189
 537 00da 9269     		ldr	r2, [r2, #24]
 731:../Drivers/stm32n6xx_nucleo_bus.c ****       {
 538              		.loc 1 731 10 view .LVU190
 539 00dc 6245     		cmp	r2, ip
 540 00de E9D2     		bcs	.L28
 731:../Drivers/stm32n6xx_nucleo_bus.c ****       {
 541              		.loc 1 731 76 discriminator 1 view .LVU191
ARM GAS  /tmp/ccFnPEzn.s 			page 25


 542 00e0 ACF13202 		sub	r2, ip, #50
 731:../Drivers/stm32n6xx_nucleo_bus.c ****       {
 543              		.loc 1 731 89 discriminator 1 view .LVU192
 544 00e4 521A     		subs	r2, r2, r1
 731:../Drivers/stm32n6xx_nucleo_bus.c ****       {
 545              		.loc 1 731 53 discriminator 1 view .LVU193
 546 00e6 BAEB920F 		cmp	r10, r2, lsr #2
 547 00ea E3D2     		bcs	.L28
 733:../Drivers/stm32n6xx_nucleo_bus.c ****         {
 548              		.loc 1 733 19 view .LVU194
 549 00ec 0020     		movs	r0, #0
 550              	.LVL62:
 733:../Drivers/stm32n6xx_nucleo_bus.c ****         {
 551              		.loc 1 733 19 view .LVU195
 552 00ee 0693     		str	r3, [sp, #24]
 553 00f0 0791     		str	r1, [sp, #28]
 554 00f2 ADE7     		b	.L29
 555              	.LVL63:
 556              	.L42:
 733:../Drivers/stm32n6xx_nucleo_bus.c ****         {
 557              		.loc 1 733 19 view .LVU196
 558              	.LBE24:
 559              	.LBE18:
 718:../Drivers/stm32n6xx_nucleo_bus.c ****   {
 560              		.loc 1 718 63 discriminator 1 view .LVU197
 561 00f4 0B46     		mov	r3, r1
 562              	.LVL64:
 718:../Drivers/stm32n6xx_nucleo_bus.c ****   {
 563              		.loc 1 718 63 is_stmt 1 discriminator 1 view .LVU198
 564 00f6 049A     		ldr	r2, [sp, #16]
 565 00f8 0132     		adds	r2, r2, #1
 566 00fa 0492     		str	r2, [sp, #16]
 567              	.LVL65:
 568              	.L25:
 718:../Drivers/stm32n6xx_nucleo_bus.c ****   {
 569              		.loc 1 718 34 discriminator 2 view .LVU199
 570 00fc 0D4A     		ldr	r2, .L44+12
 571 00fe 1268     		ldr	r2, [r2]
 572 0100 0499     		ldr	r1, [sp, #16]
 573 0102 8A42     		cmp	r2, r1
 574 0104 0BD9     		bls	.L43
 575              	.LBB25:
 721:../Drivers/stm32n6xx_nucleo_bus.c **** 
 576              		.loc 1 721 5 view .LVU200
 721:../Drivers/stm32n6xx_nucleo_bus.c **** 
 577              		.loc 1 721 47 is_stmt 0 view .LVU201
 578 0106 049A     		ldr	r2, [sp, #16]
 579 0108 02EB8202 		add	r2, r2, r2, lsl #2
 580 010c 0849     		ldr	r1, .L44+8
 581 010e 51F82240 		ldr	r4, [r1, r2, lsl #2]
 721:../Drivers/stm32n6xx_nucleo_bus.c **** 
 582              		.loc 1 721 14 view .LVU202
 583 0112 04FB0AA4 		mla	r4, r4, r10, r10
 584              	.LVL66:
 723:../Drivers/stm32n6xx_nucleo_bus.c ****     {
 585              		.loc 1 723 5 is_stmt 1 view .LVU203
 723:../Drivers/stm32n6xx_nucleo_bus.c ****     {
ARM GAS  /tmp/ccFnPEzn.s 			page 26


 586              		.loc 1 723 15 is_stmt 0 view .LVU204
 587 0116 0022     		movs	r2, #0
 588 0118 0192     		str	r2, [sp, #4]
 589 011a 1946     		mov	r1, r3
 723:../Drivers/stm32n6xx_nucleo_bus.c ****     {
 590              		.loc 1 723 5 view .LVU205
 591 011c CBE7     		b	.L26
 592              	.LVL67:
 593              	.L43:
 723:../Drivers/stm32n6xx_nucleo_bus.c ****     {
 594              		.loc 1 723 5 view .LVU206
 595              	.LBE25:
 596              	.LBE27:
 757:../Drivers/stm32n6xx_nucleo_bus.c ****             }
 758:../Drivers/stm32n6xx_nucleo_bus.c ****           }
 759:../Drivers/stm32n6xx_nucleo_bus.c ****         }
 760:../Drivers/stm32n6xx_nucleo_bus.c ****       }
 761:../Drivers/stm32n6xx_nucleo_bus.c ****     }
 762:../Drivers/stm32n6xx_nucleo_bus.c ****   }
 763:../Drivers/stm32n6xx_nucleo_bus.c **** 
 764:../Drivers/stm32n6xx_nucleo_bus.c ****   return ret;
 597              		.loc 1 764 3 is_stmt 1 view .LVU207
 765:../Drivers/stm32n6xx_nucleo_bus.c **** }
 598              		.loc 1 765 1 is_stmt 0 view .LVU208
 599 011e 0598     		ldr	r0, [sp, #20]
 600 0120 09B0     		add	sp, sp, #36
 601              	.LCFI3:
 602              		.cfi_def_cfa_offset 36
 603              		@ sp needed
 604 0122 BDE8F08F 		pop	{r4, r5, r6, r7, r8, r9, r10, fp, pc}
 605              	.LVL68:
 606              	.L45:
 607              		.loc 1 765 1 view .LVU209
 608 0126 00BF     		.align	2
 609              	.L44:
 610 0128 00CA9A3B 		.word	1000000000
 611 012c 00000000 		.word	I2C_Charac
 612 0130 00000000 		.word	I2c_valid_timing
 613 0134 00000000 		.word	I2c_valid_timing_nbr
 614              		.cfi_endproc
 615              	.LFE892:
 617              		.section	.text.I2C_GetTiming,"ax",%progbits
 618              		.align	1
 619              		.syntax unified
 620              		.thumb
 621              		.thumb_func
 623              	I2C_GetTiming:
 624              	.LVL69:
 625              	.LFB890:
 570:../Drivers/stm32n6xx_nucleo_bus.c ****   uint32_t ret = 0;
 626              		.loc 1 570 1 is_stmt 1 view -0
 627              		.cfi_startproc
 628              		@ args = 0, pretend = 0, frame = 0
 629              		@ frame_needed = 0, uses_anonymous_args = 0
 570:../Drivers/stm32n6xx_nucleo_bus.c ****   uint32_t ret = 0;
 630              		.loc 1 570 1 is_stmt 0 view .LVU211
 631 0000 38B5     		push	{r3, r4, r5, lr}
ARM GAS  /tmp/ccFnPEzn.s 			page 27


 632              	.LCFI4:
 633              		.cfi_def_cfa_offset 16
 634              		.cfi_offset 3, -16
 635              		.cfi_offset 4, -12
 636              		.cfi_offset 5, -8
 637              		.cfi_offset 14, -4
 571:../Drivers/stm32n6xx_nucleo_bus.c ****   uint32_t speed;
 638              		.loc 1 571 3 is_stmt 1 view .LVU212
 639              	.LVL70:
 572:../Drivers/stm32n6xx_nucleo_bus.c ****   uint32_t idx;
 640              		.loc 1 572 3 view .LVU213
 573:../Drivers/stm32n6xx_nucleo_bus.c **** 
 641              		.loc 1 573 3 view .LVU214
 575:../Drivers/stm32n6xx_nucleo_bus.c ****   {
 642              		.loc 1 575 3 view .LVU215
 575:../Drivers/stm32n6xx_nucleo_bus.c ****   {
 643              		.loc 1 575 5 is_stmt 0 view .LVU216
 644 0002 0546     		mov	r5, r0
 645 0004 10B1     		cbz	r0, .L47
 575:../Drivers/stm32n6xx_nucleo_bus.c ****   {
 646              		.loc 1 575 29 discriminator 1 view .LVU217
 647 0006 0029     		cmp	r1, #0
 648 0008 36D1     		bne	.L52
 571:../Drivers/stm32n6xx_nucleo_bus.c ****   uint32_t speed;
 649              		.loc 1 571 12 view .LVU218
 650 000a 0D46     		mov	r5, r1
 651              	.LVL71:
 652              	.L47:
 598:../Drivers/stm32n6xx_nucleo_bus.c **** }
 653              		.loc 1 598 3 is_stmt 1 view .LVU219
 599:../Drivers/stm32n6xx_nucleo_bus.c **** 
 654              		.loc 1 599 1 is_stmt 0 view .LVU220
 655 000c 2846     		mov	r0, r5
 656 000e 38BD     		pop	{r3, r4, r5, pc}
 657              	.LVL72:
 658              	.L49:
 577:../Drivers/stm32n6xx_nucleo_bus.c ****     {
 659              		.loc 1 577 75 is_stmt 1 discriminator 1 view .LVU221
 660 0010 0134     		adds	r4, r4, #1
 661              	.LVL73:
 662              	.L48:
 577:../Drivers/stm32n6xx_nucleo_bus.c ****     {
 663              		.loc 1 577 29 discriminator 2 view .LVU222
 664 0012 022C     		cmp	r4, #2
 665 0014 32D8     		bhi	.L50
 579:../Drivers/stm32n6xx_nucleo_bus.c ****           (i2c_freq <= I2C_Charac[speed].freq_max))
 666              		.loc 1 579 7 view .LVU223
 579:../Drivers/stm32n6xx_nucleo_bus.c ****           (i2c_freq <= I2C_Charac[speed].freq_max))
 667              		.loc 1 579 41 is_stmt 0 view .LVU224
 668 0016 1B4B     		ldr	r3, .L54
 669 0018 2C22     		movs	r2, #44
 670 001a 02FB0433 		mla	r3, r2, r4, r3
 671 001e 5B68     		ldr	r3, [r3, #4]
 579:../Drivers/stm32n6xx_nucleo_bus.c ****           (i2c_freq <= I2C_Charac[speed].freq_max))
 672              		.loc 1 579 10 view .LVU225
 673 0020 8B42     		cmp	r3, r1
 674 0022 F5D8     		bhi	.L49
ARM GAS  /tmp/ccFnPEzn.s 			page 28


 580:../Drivers/stm32n6xx_nucleo_bus.c ****       {
 675              		.loc 1 580 41 view .LVU226
 676 0024 174B     		ldr	r3, .L54
 677 0026 02FB0433 		mla	r3, r2, r4, r3
 678 002a 9B68     		ldr	r3, [r3, #8]
 579:../Drivers/stm32n6xx_nucleo_bus.c ****           (i2c_freq <= I2C_Charac[speed].freq_max))
 679              		.loc 1 579 52 discriminator 1 view .LVU227
 680 002c 8B42     		cmp	r3, r1
 681 002e EFD3     		bcc	.L49
 582:../Drivers/stm32n6xx_nucleo_bus.c ****         idx = I2C_Compute_SCLL_SCLH(clock_src_freq, speed);
 682              		.loc 1 582 9 is_stmt 1 view .LVU228
 683 0030 2146     		mov	r1, r4
 684              	.LVL74:
 582:../Drivers/stm32n6xx_nucleo_bus.c ****         idx = I2C_Compute_SCLL_SCLH(clock_src_freq, speed);
 685              		.loc 1 582 9 is_stmt 0 view .LVU229
 686 0032 2846     		mov	r0, r5
 687              	.LVL75:
 582:../Drivers/stm32n6xx_nucleo_bus.c ****         idx = I2C_Compute_SCLL_SCLH(clock_src_freq, speed);
 688              		.loc 1 582 9 view .LVU230
 689 0034 FFF7FEFF 		bl	I2C_Compute_PRESC_SCLDEL_SDADEL
 690              	.LVL76:
 583:../Drivers/stm32n6xx_nucleo_bus.c **** 
 691              		.loc 1 583 9 is_stmt 1 view .LVU231
 583:../Drivers/stm32n6xx_nucleo_bus.c **** 
 692              		.loc 1 583 15 is_stmt 0 view .LVU232
 693 0038 2146     		mov	r1, r4
 694 003a 2846     		mov	r0, r5
 695 003c FFF7FEFF 		bl	I2C_Compute_SCLL_SCLH
 696              	.LVL77:
 585:../Drivers/stm32n6xx_nucleo_bus.c ****         {
 697              		.loc 1 585 9 is_stmt 1 view .LVU233
 585:../Drivers/stm32n6xx_nucleo_bus.c ****         {
 698              		.loc 1 585 12 is_stmt 0 view .LVU234
 699 0040 7F28     		cmp	r0, #127
 700 0042 1BD8     		bhi	.L50
 587:../Drivers/stm32n6xx_nucleo_bus.c ****                 ((I2c_valid_timing[idx].tscldel & 0x0FU) << 20) |\
 701              		.loc 1 587 11 is_stmt 1 view .LVU235
 587:../Drivers/stm32n6xx_nucleo_bus.c ****                 ((I2c_valid_timing[idx].tscldel & 0x0FU) << 20) |\
 702              		.loc 1 587 40 is_stmt 0 view .LVU236
 703 0044 104A     		ldr	r2, .L54+4
 704 0046 00EB8003 		add	r3, r0, r0, lsl #2
 705 004a 02EB8304 		add	r4, r2, r3, lsl #2
 706              	.LVL78:
 587:../Drivers/stm32n6xx_nucleo_bus.c ****                 ((I2c_valid_timing[idx].tscldel & 0x0FU) << 20) |\
 707              		.loc 1 587 40 view .LVU237
 708 004e 52F82310 		ldr	r1, [r2, r3, lsl #2]
 588:../Drivers/stm32n6xx_nucleo_bus.c ****                 ((I2c_valid_timing[idx].tsdadel & 0x0FU) << 16) |\
 709              		.loc 1 588 40 view .LVU238
 710 0052 6368     		ldr	r3, [r4, #4]
 588:../Drivers/stm32n6xx_nucleo_bus.c ****                 ((I2c_valid_timing[idx].tsdadel & 0x0FU) << 16) |\
 711              		.loc 1 588 58 view .LVU239
 712 0054 1B05     		lsls	r3, r3, #20
 713 0056 03F47003 		and	r3, r3, #15728640
 587:../Drivers/stm32n6xx_nucleo_bus.c ****                 ((I2c_valid_timing[idx].tscldel & 0x0FU) << 20) |\
 714              		.loc 1 587 64 view .LVU240
 715 005a 43EA0173 		orr	r3, r3, r1, lsl #28
 589:../Drivers/stm32n6xx_nucleo_bus.c ****                 ((I2c_valid_timing[idx].sclh & 0xFFU) << 8) |\
ARM GAS  /tmp/ccFnPEzn.s 			page 29


 716              		.loc 1 589 40 view .LVU241
 717 005e A168     		ldr	r1, [r4, #8]
 589:../Drivers/stm32n6xx_nucleo_bus.c ****                 ((I2c_valid_timing[idx].sclh & 0xFFU) << 8) |\
 718              		.loc 1 589 58 view .LVU242
 719 0060 0904     		lsls	r1, r1, #16
 720 0062 01F47021 		and	r1, r1, #983040
 588:../Drivers/stm32n6xx_nucleo_bus.c ****                 ((I2c_valid_timing[idx].tsdadel & 0x0FU) << 16) |\
 721              		.loc 1 588 65 view .LVU243
 722 0066 0B43     		orrs	r3, r3, r1
 590:../Drivers/stm32n6xx_nucleo_bus.c ****                 ((I2c_valid_timing[idx].scll & 0xFFU) << 0);
 723              		.loc 1 590 40 view .LVU244
 724 0068 E168     		ldr	r1, [r4, #12]
 590:../Drivers/stm32n6xx_nucleo_bus.c ****                 ((I2c_valid_timing[idx].scll & 0xFFU) << 0);
 725              		.loc 1 590 55 view .LVU245
 726 006a 0902     		lsls	r1, r1, #8
 727 006c 89B2     		uxth	r1, r1
 589:../Drivers/stm32n6xx_nucleo_bus.c ****                 ((I2c_valid_timing[idx].sclh & 0xFFU) << 8) |\
 728              		.loc 1 589 65 view .LVU246
 729 006e 0B43     		orrs	r3, r3, r1
 591:../Drivers/stm32n6xx_nucleo_bus.c ****         }
 730              		.loc 1 591 55 view .LVU247
 731 0070 227C     		ldrb	r2, [r4, #16]	@ zero_extendqisi2
 587:../Drivers/stm32n6xx_nucleo_bus.c ****                 ((I2c_valid_timing[idx].tscldel & 0x0FU) << 20) |\
 732              		.loc 1 587 15 view .LVU248
 733 0072 1343     		orrs	r3, r3, r2
 734 0074 1D46     		mov	r5, r3
 735              	.LVL79:
 587:../Drivers/stm32n6xx_nucleo_bus.c ****                 ((I2c_valid_timing[idx].tscldel & 0x0FU) << 20) |\
 736              		.loc 1 587 15 view .LVU249
 737 0076 C9E7     		b	.L47
 738              	.LVL80:
 739              	.L52:
 577:../Drivers/stm32n6xx_nucleo_bus.c ****     {
 740              		.loc 1 577 17 view .LVU250
 741 0078 0024     		movs	r4, #0
 742 007a CAE7     		b	.L48
 743              	.LVL81:
 744              	.L50:
 571:../Drivers/stm32n6xx_nucleo_bus.c ****   uint32_t speed;
 745              		.loc 1 571 12 view .LVU251
 746 007c 0023     		movs	r3, #0
 747 007e 1D46     		mov	r5, r3
 748              	.LVL82:
 571:../Drivers/stm32n6xx_nucleo_bus.c ****   uint32_t speed;
 749              		.loc 1 571 12 view .LVU252
 750 0080 C4E7     		b	.L47
 751              	.L55:
 752 0082 00BF     		.align	2
 753              	.L54:
 754 0084 00000000 		.word	I2C_Charac
 755 0088 00000000 		.word	I2c_valid_timing
 756              		.cfi_endproc
 757              	.LFE890:
 759              		.section	.text.I2C2_MspInit,"ax",%progbits
 760              		.align	1
 761              		.syntax unified
 762              		.thumb
ARM GAS  /tmp/ccFnPEzn.s 			page 30


 763              		.thumb_func
 765              	I2C2_MspInit:
 766              	.LVL83:
 767              	.LFB893:
 766:../Drivers/stm32n6xx_nucleo_bus.c **** 
 767:../Drivers/stm32n6xx_nucleo_bus.c **** /**
 768:../Drivers/stm32n6xx_nucleo_bus.c ****   * @brief  Initializes I2C MSP.
 769:../Drivers/stm32n6xx_nucleo_bus.c ****   * @param  phi2c  I2C handler
 770:../Drivers/stm32n6xx_nucleo_bus.c ****   * @retval None
 771:../Drivers/stm32n6xx_nucleo_bus.c ****   */
 772:../Drivers/stm32n6xx_nucleo_bus.c **** static void I2C2_MspInit(const I2C_HandleTypeDef *phi2c)
 773:../Drivers/stm32n6xx_nucleo_bus.c **** {
 768              		.loc 1 773 1 is_stmt 1 view -0
 769              		.cfi_startproc
 770              		@ args = 0, pretend = 0, frame = 32
 771              		@ frame_needed = 0, uses_anonymous_args = 0
 772              		.loc 1 773 1 is_stmt 0 view .LVU254
 773 0000 2DE9F047 		push	{r4, r5, r6, r7, r8, r9, r10, lr}
 774              	.LCFI5:
 775              		.cfi_def_cfa_offset 32
 776              		.cfi_offset 4, -32
 777              		.cfi_offset 5, -28
 778              		.cfi_offset 6, -24
 779              		.cfi_offset 7, -20
 780              		.cfi_offset 8, -16
 781              		.cfi_offset 9, -12
 782              		.cfi_offset 10, -8
 783              		.cfi_offset 14, -4
 784 0004 88B0     		sub	sp, sp, #32
 785              	.LCFI6:
 786              		.cfi_def_cfa_offset 64
 774:../Drivers/stm32n6xx_nucleo_bus.c ****   GPIO_InitTypeDef  gpio_init_structure;
 787              		.loc 1 774 3 is_stmt 1 view .LVU255
 775:../Drivers/stm32n6xx_nucleo_bus.c **** 
 776:../Drivers/stm32n6xx_nucleo_bus.c ****   /* Prevent unused argument(s) compilation warning */
 777:../Drivers/stm32n6xx_nucleo_bus.c ****   UNUSED(phi2c);
 788              		.loc 1 777 3 view .LVU256
 778:../Drivers/stm32n6xx_nucleo_bus.c **** 
 779:../Drivers/stm32n6xx_nucleo_bus.c ****   /*** Configure the GPIOs ***/
 780:../Drivers/stm32n6xx_nucleo_bus.c ****   /* Enable SCL GPIO clock */
 781:../Drivers/stm32n6xx_nucleo_bus.c ****   BUS_I2C2_SCL_GPIO_CLK_ENABLE();
 789              		.loc 1 781 3 view .LVU257
 790              	.LVL84:
 791              	.LBB28:
 792              	.LBI28:
 793              		.file 2 "../Drivers/STM32N6xx_HAL_Driver/Inc/stm32n6xx_ll_bus.h"
   1:../Drivers/STM32N6xx_HAL_Driver/Inc/stm32n6xx_ll_bus.h **** /**
   2:../Drivers/STM32N6xx_HAL_Driver/Inc/stm32n6xx_ll_bus.h ****   ******************************************************************************
   3:../Drivers/STM32N6xx_HAL_Driver/Inc/stm32n6xx_ll_bus.h ****   * @file    stm32n6xx_ll_bus.h
   4:../Drivers/STM32N6xx_HAL_Driver/Inc/stm32n6xx_ll_bus.h ****   * @author  MCD Application Team
   5:../Drivers/STM32N6xx_HAL_Driver/Inc/stm32n6xx_ll_bus.h ****   * @brief   Header file of BUS LL module.
   6:../Drivers/STM32N6xx_HAL_Driver/Inc/stm32n6xx_ll_bus.h ****   ******************************************************************************
   7:../Drivers/STM32N6xx_HAL_Driver/Inc/stm32n6xx_ll_bus.h ****   * @attention
   8:../Drivers/STM32N6xx_HAL_Driver/Inc/stm32n6xx_ll_bus.h ****   *
   9:../Drivers/STM32N6xx_HAL_Driver/Inc/stm32n6xx_ll_bus.h ****   * Copyright (c) 2023 STMicroelectronics.
  10:../Drivers/STM32N6xx_HAL_Driver/Inc/stm32n6xx_ll_bus.h ****   * All rights reserved.
  11:../Drivers/STM32N6xx_HAL_Driver/Inc/stm32n6xx_ll_bus.h ****   *
ARM GAS  /tmp/ccFnPEzn.s 			page 31


  12:../Drivers/STM32N6xx_HAL_Driver/Inc/stm32n6xx_ll_bus.h ****   * This software is licensed under terms that can be found in the LICENSE file
  13:../Drivers/STM32N6xx_HAL_Driver/Inc/stm32n6xx_ll_bus.h ****   * in the root directory of this software component.
  14:../Drivers/STM32N6xx_HAL_Driver/Inc/stm32n6xx_ll_bus.h ****   * If no LICENSE file comes with this software, it is provided AS-IS.
  15:../Drivers/STM32N6xx_HAL_Driver/Inc/stm32n6xx_ll_bus.h ****   *
  16:../Drivers/STM32N6xx_HAL_Driver/Inc/stm32n6xx_ll_bus.h ****   ******************************************************************************
  17:../Drivers/STM32N6xx_HAL_Driver/Inc/stm32n6xx_ll_bus.h ****   @verbatim
  18:../Drivers/STM32N6xx_HAL_Driver/Inc/stm32n6xx_ll_bus.h ****                       ##### RCC Limitations #####
  19:../Drivers/STM32N6xx_HAL_Driver/Inc/stm32n6xx_ll_bus.h ****   ==============================================================================
  20:../Drivers/STM32N6xx_HAL_Driver/Inc/stm32n6xx_ll_bus.h ****     [..]
  21:../Drivers/STM32N6xx_HAL_Driver/Inc/stm32n6xx_ll_bus.h ****       A delay between an RCC peripheral clock enable and the effective peripheral
  22:../Drivers/STM32N6xx_HAL_Driver/Inc/stm32n6xx_ll_bus.h ****       enabling should be taken into account in order to manage the peripheral read/write
  23:../Drivers/STM32N6xx_HAL_Driver/Inc/stm32n6xx_ll_bus.h ****       from/to registers.
  24:../Drivers/STM32N6xx_HAL_Driver/Inc/stm32n6xx_ll_bus.h ****       (+) This delay depends on the peripheral mapping.
  25:../Drivers/STM32N6xx_HAL_Driver/Inc/stm32n6xx_ll_bus.h ****         (++) AHB & APB peripherals, 1 dummy read is necessary
  26:../Drivers/STM32N6xx_HAL_Driver/Inc/stm32n6xx_ll_bus.h **** 
  27:../Drivers/STM32N6xx_HAL_Driver/Inc/stm32n6xx_ll_bus.h ****     [..]
  28:../Drivers/STM32N6xx_HAL_Driver/Inc/stm32n6xx_ll_bus.h ****       Workarounds:
  29:../Drivers/STM32N6xx_HAL_Driver/Inc/stm32n6xx_ll_bus.h ****       (#) For AHB & APB peripherals, a dummy read to the peripheral register has been
  30:../Drivers/STM32N6xx_HAL_Driver/Inc/stm32n6xx_ll_bus.h ****           inserted in each LL_{BUS}_GRP{x}_EnableClock() function.
  31:../Drivers/STM32N6xx_HAL_Driver/Inc/stm32n6xx_ll_bus.h **** 
  32:../Drivers/STM32N6xx_HAL_Driver/Inc/stm32n6xx_ll_bus.h ****   @endverbatim
  33:../Drivers/STM32N6xx_HAL_Driver/Inc/stm32n6xx_ll_bus.h ****   ******************************************************************************
  34:../Drivers/STM32N6xx_HAL_Driver/Inc/stm32n6xx_ll_bus.h ****   */
  35:../Drivers/STM32N6xx_HAL_Driver/Inc/stm32n6xx_ll_bus.h **** 
  36:../Drivers/STM32N6xx_HAL_Driver/Inc/stm32n6xx_ll_bus.h **** /* Define to prevent recursive inclusion -------------------------------------*/
  37:../Drivers/STM32N6xx_HAL_Driver/Inc/stm32n6xx_ll_bus.h **** #ifndef STM32N6xx_LL_BUS_H
  38:../Drivers/STM32N6xx_HAL_Driver/Inc/stm32n6xx_ll_bus.h **** #define STM32N6xx_LL_BUS_H
  39:../Drivers/STM32N6xx_HAL_Driver/Inc/stm32n6xx_ll_bus.h **** 
  40:../Drivers/STM32N6xx_HAL_Driver/Inc/stm32n6xx_ll_bus.h **** #ifdef __cplusplus
  41:../Drivers/STM32N6xx_HAL_Driver/Inc/stm32n6xx_ll_bus.h **** extern "C" {
  42:../Drivers/STM32N6xx_HAL_Driver/Inc/stm32n6xx_ll_bus.h **** #endif
  43:../Drivers/STM32N6xx_HAL_Driver/Inc/stm32n6xx_ll_bus.h **** 
  44:../Drivers/STM32N6xx_HAL_Driver/Inc/stm32n6xx_ll_bus.h **** /* Includes ------------------------------------------------------------------*/
  45:../Drivers/STM32N6xx_HAL_Driver/Inc/stm32n6xx_ll_bus.h **** #include "stm32n6xx.h"
  46:../Drivers/STM32N6xx_HAL_Driver/Inc/stm32n6xx_ll_bus.h **** 
  47:../Drivers/STM32N6xx_HAL_Driver/Inc/stm32n6xx_ll_bus.h **** /** @addtogroup STM32N6xx_LL_Driver
  48:../Drivers/STM32N6xx_HAL_Driver/Inc/stm32n6xx_ll_bus.h ****   * @{
  49:../Drivers/STM32N6xx_HAL_Driver/Inc/stm32n6xx_ll_bus.h ****   */
  50:../Drivers/STM32N6xx_HAL_Driver/Inc/stm32n6xx_ll_bus.h **** #if defined(RCC)
  51:../Drivers/STM32N6xx_HAL_Driver/Inc/stm32n6xx_ll_bus.h **** 
  52:../Drivers/STM32N6xx_HAL_Driver/Inc/stm32n6xx_ll_bus.h **** /** @defgroup BUS_LL BUS
  53:../Drivers/STM32N6xx_HAL_Driver/Inc/stm32n6xx_ll_bus.h ****   * @{
  54:../Drivers/STM32N6xx_HAL_Driver/Inc/stm32n6xx_ll_bus.h ****   */
  55:../Drivers/STM32N6xx_HAL_Driver/Inc/stm32n6xx_ll_bus.h **** 
  56:../Drivers/STM32N6xx_HAL_Driver/Inc/stm32n6xx_ll_bus.h **** /* Private variables ---------------------------------------------------------*/
  57:../Drivers/STM32N6xx_HAL_Driver/Inc/stm32n6xx_ll_bus.h **** 
  58:../Drivers/STM32N6xx_HAL_Driver/Inc/stm32n6xx_ll_bus.h **** /* Private constants ---------------------------------------------------------*/
  59:../Drivers/STM32N6xx_HAL_Driver/Inc/stm32n6xx_ll_bus.h **** 
  60:../Drivers/STM32N6xx_HAL_Driver/Inc/stm32n6xx_ll_bus.h **** /* Private macros ------------------------------------------------------------*/
  61:../Drivers/STM32N6xx_HAL_Driver/Inc/stm32n6xx_ll_bus.h **** 
  62:../Drivers/STM32N6xx_HAL_Driver/Inc/stm32n6xx_ll_bus.h **** /* Exported types ------------------------------------------------------------*/
  63:../Drivers/STM32N6xx_HAL_Driver/Inc/stm32n6xx_ll_bus.h **** 
  64:../Drivers/STM32N6xx_HAL_Driver/Inc/stm32n6xx_ll_bus.h **** /* Exported constants --------------------------------------------------------*/
  65:../Drivers/STM32N6xx_HAL_Driver/Inc/stm32n6xx_ll_bus.h **** /** @defgroup BUS_LL_Exported_Constants BUS Exported Constants
  66:../Drivers/STM32N6xx_HAL_Driver/Inc/stm32n6xx_ll_bus.h ****   * @{
  67:../Drivers/STM32N6xx_HAL_Driver/Inc/stm32n6xx_ll_bus.h ****   */
  68:../Drivers/STM32N6xx_HAL_Driver/Inc/stm32n6xx_ll_bus.h **** 
ARM GAS  /tmp/ccFnPEzn.s 			page 32


  69:../Drivers/STM32N6xx_HAL_Driver/Inc/stm32n6xx_ll_bus.h **** /** @defgroup BUS_LL_EC_AXI  AXI
  70:../Drivers/STM32N6xx_HAL_Driver/Inc/stm32n6xx_ll_bus.h ****   * @{
  71:../Drivers/STM32N6xx_HAL_Driver/Inc/stm32n6xx_ll_bus.h ****   */
  72:../Drivers/STM32N6xx_HAL_Driver/Inc/stm32n6xx_ll_bus.h **** #define LL_ACLKN                           RCC_BUSENR_ACLKNEN
  73:../Drivers/STM32N6xx_HAL_Driver/Inc/stm32n6xx_ll_bus.h **** #define LL_ACLKNC                          RCC_BUSENR_ACLKNCEN
  74:../Drivers/STM32N6xx_HAL_Driver/Inc/stm32n6xx_ll_bus.h **** #define LL_AHBM                            RCC_BUSENR_AHBMEN
  75:../Drivers/STM32N6xx_HAL_Driver/Inc/stm32n6xx_ll_bus.h **** #define LL_AHB1                            RCC_BUSENR_AHB1EN
  76:../Drivers/STM32N6xx_HAL_Driver/Inc/stm32n6xx_ll_bus.h **** #define LL_AHB2                            RCC_BUSENR_AHB2EN
  77:../Drivers/STM32N6xx_HAL_Driver/Inc/stm32n6xx_ll_bus.h **** #define LL_AHB3                            RCC_BUSENR_AHB3EN
  78:../Drivers/STM32N6xx_HAL_Driver/Inc/stm32n6xx_ll_bus.h **** #define LL_AHB4                            RCC_BUSENR_AHB4EN
  79:../Drivers/STM32N6xx_HAL_Driver/Inc/stm32n6xx_ll_bus.h **** #define LL_AHB5                            RCC_BUSENR_AHB5EN
  80:../Drivers/STM32N6xx_HAL_Driver/Inc/stm32n6xx_ll_bus.h **** #define LL_APB1                            RCC_BUSENR_APB1EN
  81:../Drivers/STM32N6xx_HAL_Driver/Inc/stm32n6xx_ll_bus.h **** #define LL_APB2                            RCC_BUSENR_APB2EN
  82:../Drivers/STM32N6xx_HAL_Driver/Inc/stm32n6xx_ll_bus.h **** #define LL_APB3                            RCC_BUSENR_APB3EN
  83:../Drivers/STM32N6xx_HAL_Driver/Inc/stm32n6xx_ll_bus.h **** #define LL_APB4                            RCC_BUSENR_APB4EN
  84:../Drivers/STM32N6xx_HAL_Driver/Inc/stm32n6xx_ll_bus.h **** #define LL_APB5                            RCC_BUSENR_APB5EN
  85:../Drivers/STM32N6xx_HAL_Driver/Inc/stm32n6xx_ll_bus.h **** /**
  86:../Drivers/STM32N6xx_HAL_Driver/Inc/stm32n6xx_ll_bus.h ****   * @}
  87:../Drivers/STM32N6xx_HAL_Driver/Inc/stm32n6xx_ll_bus.h ****   */
  88:../Drivers/STM32N6xx_HAL_Driver/Inc/stm32n6xx_ll_bus.h **** 
  89:../Drivers/STM32N6xx_HAL_Driver/Inc/stm32n6xx_ll_bus.h **** /** @defgroup BUS_LL_EC_MEM  MEM
  90:../Drivers/STM32N6xx_HAL_Driver/Inc/stm32n6xx_ll_bus.h ****   * @{
  91:../Drivers/STM32N6xx_HAL_Driver/Inc/stm32n6xx_ll_bus.h ****   */
  92:../Drivers/STM32N6xx_HAL_Driver/Inc/stm32n6xx_ll_bus.h **** #define LL_MEM_AXISRAM1                    RCC_MEMENR_AXISRAM1EN
  93:../Drivers/STM32N6xx_HAL_Driver/Inc/stm32n6xx_ll_bus.h **** #define LL_MEM_AXISRAM2                    RCC_MEMENR_AXISRAM2EN
  94:../Drivers/STM32N6xx_HAL_Driver/Inc/stm32n6xx_ll_bus.h **** #define LL_MEM_AXISRAM3                    RCC_MEMENR_AXISRAM3EN
  95:../Drivers/STM32N6xx_HAL_Driver/Inc/stm32n6xx_ll_bus.h **** #define LL_MEM_AXISRAM4                    RCC_MEMENR_AXISRAM4EN
  96:../Drivers/STM32N6xx_HAL_Driver/Inc/stm32n6xx_ll_bus.h **** #define LL_MEM_AXISRAM5                    RCC_MEMENR_AXISRAM5EN
  97:../Drivers/STM32N6xx_HAL_Driver/Inc/stm32n6xx_ll_bus.h **** #define LL_MEM_AXISRAM6                    RCC_MEMENR_AXISRAM6EN
  98:../Drivers/STM32N6xx_HAL_Driver/Inc/stm32n6xx_ll_bus.h **** #define LL_MEM_AHBSRAM1                    RCC_MEMENR_AHBSRAM1EN
  99:../Drivers/STM32N6xx_HAL_Driver/Inc/stm32n6xx_ll_bus.h **** #define LL_MEM_AHBSRAM2                    RCC_MEMENR_AHBSRAM2EN
 100:../Drivers/STM32N6xx_HAL_Driver/Inc/stm32n6xx_ll_bus.h **** #define LL_MEM_BKPSRAM                     RCC_MEMENR_BKPSRAMEN
 101:../Drivers/STM32N6xx_HAL_Driver/Inc/stm32n6xx_ll_bus.h **** #define LL_MEM_FLEXRAM                     RCC_MEMENR_FLEXRAMEN
 102:../Drivers/STM32N6xx_HAL_Driver/Inc/stm32n6xx_ll_bus.h **** #define LL_MEM_CACHEAXIRAM                 RCC_MEMENR_CACHEAXIRAMEN
 103:../Drivers/STM32N6xx_HAL_Driver/Inc/stm32n6xx_ll_bus.h **** #define LL_MEM_VENCRAM                     RCC_MEMENR_VENCRAMEN
 104:../Drivers/STM32N6xx_HAL_Driver/Inc/stm32n6xx_ll_bus.h **** #define LL_MEM_BOOTROM                     RCC_MEMENR_BOOTROMEN
 105:../Drivers/STM32N6xx_HAL_Driver/Inc/stm32n6xx_ll_bus.h **** /**
 106:../Drivers/STM32N6xx_HAL_Driver/Inc/stm32n6xx_ll_bus.h ****   * @}
 107:../Drivers/STM32N6xx_HAL_Driver/Inc/stm32n6xx_ll_bus.h ****   */
 108:../Drivers/STM32N6xx_HAL_Driver/Inc/stm32n6xx_ll_bus.h **** 
 109:../Drivers/STM32N6xx_HAL_Driver/Inc/stm32n6xx_ll_bus.h **** /** @defgroup BUS_LL_EC_AHB1_GRP1_PERIPH  AHB1 GRP1 PERIPH
 110:../Drivers/STM32N6xx_HAL_Driver/Inc/stm32n6xx_ll_bus.h ****   * @{
 111:../Drivers/STM32N6xx_HAL_Driver/Inc/stm32n6xx_ll_bus.h ****   */
 112:../Drivers/STM32N6xx_HAL_Driver/Inc/stm32n6xx_ll_bus.h **** #define LL_AHB1_GRP1_PERIPH_ADC12          RCC_AHB1ENR_ADC12EN
 113:../Drivers/STM32N6xx_HAL_Driver/Inc/stm32n6xx_ll_bus.h **** #define LL_AHB1_GRP1_PERIPH_GPDMA1         RCC_AHB1ENR_GPDMA1EN
 114:../Drivers/STM32N6xx_HAL_Driver/Inc/stm32n6xx_ll_bus.h **** #define LL_AHB1_GRP1_PERIPH_ALL            (LL_AHB1_GRP1_PERIPH_ADC12 | LL_AHB1_GRP1_PERIPH_GPDMA1)
 115:../Drivers/STM32N6xx_HAL_Driver/Inc/stm32n6xx_ll_bus.h **** /**
 116:../Drivers/STM32N6xx_HAL_Driver/Inc/stm32n6xx_ll_bus.h ****   * @}
 117:../Drivers/STM32N6xx_HAL_Driver/Inc/stm32n6xx_ll_bus.h ****   */
 118:../Drivers/STM32N6xx_HAL_Driver/Inc/stm32n6xx_ll_bus.h **** 
 119:../Drivers/STM32N6xx_HAL_Driver/Inc/stm32n6xx_ll_bus.h **** /** @defgroup BUS_LL_EC_AHB2_GRP1_PERIPH  AHB2 GRP1 PERIPH
 120:../Drivers/STM32N6xx_HAL_Driver/Inc/stm32n6xx_ll_bus.h ****   * @{
 121:../Drivers/STM32N6xx_HAL_Driver/Inc/stm32n6xx_ll_bus.h ****   */
 122:../Drivers/STM32N6xx_HAL_Driver/Inc/stm32n6xx_ll_bus.h **** #define LL_AHB2_GRP1_PERIPH_ADF1           RCC_AHB2ENR_ADF1EN
 123:../Drivers/STM32N6xx_HAL_Driver/Inc/stm32n6xx_ll_bus.h **** #define LL_AHB2_GRP1_PERIPH_MDF1           RCC_AHB2ENR_MDF1EN
 124:../Drivers/STM32N6xx_HAL_Driver/Inc/stm32n6xx_ll_bus.h **** #define LL_AHB2_GRP1_PERIPH_RAMCFG         RCC_AHB2ENR_RAMCFGEN
 125:../Drivers/STM32N6xx_HAL_Driver/Inc/stm32n6xx_ll_bus.h **** #define LL_AHB2_GRP1_PERIPH_ALL            (LL_AHB2_GRP1_PERIPH_ADF1 | LL_AHB2_GRP1_PERIPH_MDF1 | \
ARM GAS  /tmp/ccFnPEzn.s 			page 33


 126:../Drivers/STM32N6xx_HAL_Driver/Inc/stm32n6xx_ll_bus.h ****                                             LL_AHB2_GRP1_PERIPH_RAMCFG)
 127:../Drivers/STM32N6xx_HAL_Driver/Inc/stm32n6xx_ll_bus.h **** /**
 128:../Drivers/STM32N6xx_HAL_Driver/Inc/stm32n6xx_ll_bus.h ****   * @}
 129:../Drivers/STM32N6xx_HAL_Driver/Inc/stm32n6xx_ll_bus.h ****   */
 130:../Drivers/STM32N6xx_HAL_Driver/Inc/stm32n6xx_ll_bus.h **** 
 131:../Drivers/STM32N6xx_HAL_Driver/Inc/stm32n6xx_ll_bus.h **** /** @defgroup BUS_LL_EC_AHB3_GRP1_PERIPH  AHB3 GRP1 PERIPH
 132:../Drivers/STM32N6xx_HAL_Driver/Inc/stm32n6xx_ll_bus.h ****   * @{
 133:../Drivers/STM32N6xx_HAL_Driver/Inc/stm32n6xx_ll_bus.h ****   */
 134:../Drivers/STM32N6xx_HAL_Driver/Inc/stm32n6xx_ll_bus.h **** #if defined(CRYP)
 135:../Drivers/STM32N6xx_HAL_Driver/Inc/stm32n6xx_ll_bus.h **** #define LL_AHB3_GRP1_PERIPH_CRYP           RCC_AHB3ENR_CRYPEN
 136:../Drivers/STM32N6xx_HAL_Driver/Inc/stm32n6xx_ll_bus.h **** #else
 137:../Drivers/STM32N6xx_HAL_Driver/Inc/stm32n6xx_ll_bus.h **** #define LL_AHB3_GRP1_PERIPH_CRYP
 138:../Drivers/STM32N6xx_HAL_Driver/Inc/stm32n6xx_ll_bus.h **** #endif /* CRYP */
 139:../Drivers/STM32N6xx_HAL_Driver/Inc/stm32n6xx_ll_bus.h **** #define LL_AHB3_GRP1_PERIPH_HASH           RCC_AHB3ENR_HASHEN
 140:../Drivers/STM32N6xx_HAL_Driver/Inc/stm32n6xx_ll_bus.h **** #define LL_AHB3_GRP1_PERIPH_IAC            RCC_AHB3ENR_IACEN
 141:../Drivers/STM32N6xx_HAL_Driver/Inc/stm32n6xx_ll_bus.h **** #if defined(PKA)
 142:../Drivers/STM32N6xx_HAL_Driver/Inc/stm32n6xx_ll_bus.h **** #define LL_AHB3_GRP1_PERIPH_PKA            RCC_AHB3ENR_PKAEN
 143:../Drivers/STM32N6xx_HAL_Driver/Inc/stm32n6xx_ll_bus.h **** #else
 144:../Drivers/STM32N6xx_HAL_Driver/Inc/stm32n6xx_ll_bus.h **** #define LL_AHB3_GRP1_PERIPH_PKA
 145:../Drivers/STM32N6xx_HAL_Driver/Inc/stm32n6xx_ll_bus.h **** #endif /* PKA */
 146:../Drivers/STM32N6xx_HAL_Driver/Inc/stm32n6xx_ll_bus.h **** #define LL_AHB3_GRP1_PERIPH_RIFSC          RCC_AHB3ENR_RIFSCEN
 147:../Drivers/STM32N6xx_HAL_Driver/Inc/stm32n6xx_ll_bus.h **** #define LL_AHB3_GRP1_PERIPH_RISAF          RCC_AHB3ENR_RISAFEN
 148:../Drivers/STM32N6xx_HAL_Driver/Inc/stm32n6xx_ll_bus.h **** #define LL_AHB3_GRP1_PERIPH_RNG            RCC_AHB3ENR_RNGEN
 149:../Drivers/STM32N6xx_HAL_Driver/Inc/stm32n6xx_ll_bus.h **** #if defined(SAES)
 150:../Drivers/STM32N6xx_HAL_Driver/Inc/stm32n6xx_ll_bus.h **** #define LL_AHB3_GRP1_PERIPH_SAES           RCC_AHB3ENR_SAESEN
 151:../Drivers/STM32N6xx_HAL_Driver/Inc/stm32n6xx_ll_bus.h **** #else
 152:../Drivers/STM32N6xx_HAL_Driver/Inc/stm32n6xx_ll_bus.h **** #define LL_AHB3_GRP1_PERIPH_SAES
 153:../Drivers/STM32N6xx_HAL_Driver/Inc/stm32n6xx_ll_bus.h **** #endif /* SAES */
 154:../Drivers/STM32N6xx_HAL_Driver/Inc/stm32n6xx_ll_bus.h **** #define LL_AHB3_GRP1_PERIPH_ALL            (LL_AHB3_GRP1_PERIPH_CRYP  | LL_AHB3_GRP1_PERIPH_HASH  |
 155:../Drivers/STM32N6xx_HAL_Driver/Inc/stm32n6xx_ll_bus.h ****                                             LL_AHB3_GRP1_PERIPH_IAC   | LL_AHB3_GRP1_PERIPH_PKA   |
 156:../Drivers/STM32N6xx_HAL_Driver/Inc/stm32n6xx_ll_bus.h ****                                             LL_AHB3_GRP1_PERIPH_RIFSC | LL_AHB3_GRP1_PERIPH_RISAF |
 157:../Drivers/STM32N6xx_HAL_Driver/Inc/stm32n6xx_ll_bus.h ****                                             LL_AHB3_GRP1_PERIPH_RNG   | LL_AHB3_GRP1_PERIPH_SAES)
 158:../Drivers/STM32N6xx_HAL_Driver/Inc/stm32n6xx_ll_bus.h **** /**
 159:../Drivers/STM32N6xx_HAL_Driver/Inc/stm32n6xx_ll_bus.h ****   * @}
 160:../Drivers/STM32N6xx_HAL_Driver/Inc/stm32n6xx_ll_bus.h ****   */
 161:../Drivers/STM32N6xx_HAL_Driver/Inc/stm32n6xx_ll_bus.h **** 
 162:../Drivers/STM32N6xx_HAL_Driver/Inc/stm32n6xx_ll_bus.h **** /** @defgroup BUS_LL_EC_AHB4_GRP1_PERIPH  AHB4 GRP1 PERIPH
 163:../Drivers/STM32N6xx_HAL_Driver/Inc/stm32n6xx_ll_bus.h ****   * @{
 164:../Drivers/STM32N6xx_HAL_Driver/Inc/stm32n6xx_ll_bus.h ****   */
 165:../Drivers/STM32N6xx_HAL_Driver/Inc/stm32n6xx_ll_bus.h **** #define LL_AHB4_GRP1_PERIPH_CRC            RCC_AHB4ENR_CRCEN
 166:../Drivers/STM32N6xx_HAL_Driver/Inc/stm32n6xx_ll_bus.h **** #define LL_AHB4_GRP1_PERIPH_GPIOA          RCC_AHB4ENR_GPIOAEN
 167:../Drivers/STM32N6xx_HAL_Driver/Inc/stm32n6xx_ll_bus.h **** #define LL_AHB4_GRP1_PERIPH_GPIOB          RCC_AHB4ENR_GPIOBEN
 168:../Drivers/STM32N6xx_HAL_Driver/Inc/stm32n6xx_ll_bus.h **** #define LL_AHB4_GRP1_PERIPH_GPIOC          RCC_AHB4ENR_GPIOCEN
 169:../Drivers/STM32N6xx_HAL_Driver/Inc/stm32n6xx_ll_bus.h **** #define LL_AHB4_GRP1_PERIPH_GPIOD          RCC_AHB4ENR_GPIODEN
 170:../Drivers/STM32N6xx_HAL_Driver/Inc/stm32n6xx_ll_bus.h **** #define LL_AHB4_GRP1_PERIPH_GPIOE          RCC_AHB4ENR_GPIOEEN
 171:../Drivers/STM32N6xx_HAL_Driver/Inc/stm32n6xx_ll_bus.h **** #define LL_AHB4_GRP1_PERIPH_GPIOF          RCC_AHB4ENR_GPIOFEN
 172:../Drivers/STM32N6xx_HAL_Driver/Inc/stm32n6xx_ll_bus.h **** #define LL_AHB4_GRP1_PERIPH_GPIOG          RCC_AHB4ENR_GPIOGEN
 173:../Drivers/STM32N6xx_HAL_Driver/Inc/stm32n6xx_ll_bus.h **** #define LL_AHB4_GRP1_PERIPH_GPIOH          RCC_AHB4ENR_GPIOHEN
 174:../Drivers/STM32N6xx_HAL_Driver/Inc/stm32n6xx_ll_bus.h **** #define LL_AHB4_GRP1_PERIPH_GPION          RCC_AHB4ENR_GPIONEN
 175:../Drivers/STM32N6xx_HAL_Driver/Inc/stm32n6xx_ll_bus.h **** #define LL_AHB4_GRP1_PERIPH_GPIOO          RCC_AHB4ENR_GPIOOEN
 176:../Drivers/STM32N6xx_HAL_Driver/Inc/stm32n6xx_ll_bus.h **** #define LL_AHB4_GRP1_PERIPH_GPIOP          RCC_AHB4ENR_GPIOPEN
 177:../Drivers/STM32N6xx_HAL_Driver/Inc/stm32n6xx_ll_bus.h **** #define LL_AHB4_GRP1_PERIPH_GPIOQ          RCC_AHB4ENR_GPIOQEN
 178:../Drivers/STM32N6xx_HAL_Driver/Inc/stm32n6xx_ll_bus.h **** #define LL_AHB4_GRP1_PERIPH_PWR            RCC_AHB4ENR_PWREN
 179:../Drivers/STM32N6xx_HAL_Driver/Inc/stm32n6xx_ll_bus.h **** #define LL_AHB4_GRP1_PERIPH_ALL            (LL_AHB4_GRP1_PERIPH_CRC   | LL_AHB4_GRP1_PERIPH_GPIOA |
 180:../Drivers/STM32N6xx_HAL_Driver/Inc/stm32n6xx_ll_bus.h ****                                             LL_AHB4_GRP1_PERIPH_GPIOB | LL_AHB4_GRP1_PERIPH_GPIOC |
 181:../Drivers/STM32N6xx_HAL_Driver/Inc/stm32n6xx_ll_bus.h ****                                             LL_AHB4_GRP1_PERIPH_GPIOD | LL_AHB4_GRP1_PERIPH_GPIOE |
 182:../Drivers/STM32N6xx_HAL_Driver/Inc/stm32n6xx_ll_bus.h ****                                             LL_AHB4_GRP1_PERIPH_GPIOF | LL_AHB4_GRP1_PERIPH_GPIOG |
ARM GAS  /tmp/ccFnPEzn.s 			page 34


 183:../Drivers/STM32N6xx_HAL_Driver/Inc/stm32n6xx_ll_bus.h ****                                             LL_AHB4_GRP1_PERIPH_GPIOH | LL_AHB4_GRP1_PERIPH_GPION |
 184:../Drivers/STM32N6xx_HAL_Driver/Inc/stm32n6xx_ll_bus.h ****                                             LL_AHB4_GRP1_PERIPH_GPIOO | LL_AHB4_GRP1_PERIPH_GPIOP |
 185:../Drivers/STM32N6xx_HAL_Driver/Inc/stm32n6xx_ll_bus.h ****                                             LL_AHB4_GRP1_PERIPH_GPIOQ | LL_AHB4_GRP1_PERIPH_PWR)
 186:../Drivers/STM32N6xx_HAL_Driver/Inc/stm32n6xx_ll_bus.h **** /**
 187:../Drivers/STM32N6xx_HAL_Driver/Inc/stm32n6xx_ll_bus.h ****   * @}
 188:../Drivers/STM32N6xx_HAL_Driver/Inc/stm32n6xx_ll_bus.h ****   */
 189:../Drivers/STM32N6xx_HAL_Driver/Inc/stm32n6xx_ll_bus.h **** 
 190:../Drivers/STM32N6xx_HAL_Driver/Inc/stm32n6xx_ll_bus.h **** /** @defgroup BUS_LL_EC_AHB5_GRP1_PERIPH  AHB5 GRP1 PERIPH
 191:../Drivers/STM32N6xx_HAL_Driver/Inc/stm32n6xx_ll_bus.h ****   * @{
 192:../Drivers/STM32N6xx_HAL_Driver/Inc/stm32n6xx_ll_bus.h ****   */
 193:../Drivers/STM32N6xx_HAL_Driver/Inc/stm32n6xx_ll_bus.h **** #define LL_AHB5_GRP1_PERIPH_DMA2D             RCC_AHB5ENR_DMA2DEN
 194:../Drivers/STM32N6xx_HAL_Driver/Inc/stm32n6xx_ll_bus.h **** #define LL_AHB5_GRP1_PERIPH_ETH1              RCC_AHB5ENR_ETH1EN
 195:../Drivers/STM32N6xx_HAL_Driver/Inc/stm32n6xx_ll_bus.h **** #define LL_AHB5_GRP1_PERIPH_ETH1MAC           RCC_AHB5ENR_ETH1MACEN
 196:../Drivers/STM32N6xx_HAL_Driver/Inc/stm32n6xx_ll_bus.h **** #define LL_AHB5_GRP1_PERIPH_ETH1TX            RCC_AHB5ENR_ETH1TXEN
 197:../Drivers/STM32N6xx_HAL_Driver/Inc/stm32n6xx_ll_bus.h **** #define LL_AHB5_GRP1_PERIPH_ETH1RX            RCC_AHB5ENR_ETH1RXEN
 198:../Drivers/STM32N6xx_HAL_Driver/Inc/stm32n6xx_ll_bus.h **** #define LL_AHB5_GRP1_PERIPH_FMC               RCC_AHB5ENR_FMCEN
 199:../Drivers/STM32N6xx_HAL_Driver/Inc/stm32n6xx_ll_bus.h **** #define LL_AHB5_GRP1_PERIPH_GFXMMU            RCC_AHB5ENR_GFXMMUEN
 200:../Drivers/STM32N6xx_HAL_Driver/Inc/stm32n6xx_ll_bus.h **** #define LL_AHB5_GRP1_PERIPH_GPU2D             RCC_AHB5ENR_GPU2DEN
 201:../Drivers/STM32N6xx_HAL_Driver/Inc/stm32n6xx_ll_bus.h **** #define LL_AHB5_GRP1_PERIPH_HPDMA1            RCC_AHB5ENR_HPDMA1EN
 202:../Drivers/STM32N6xx_HAL_Driver/Inc/stm32n6xx_ll_bus.h **** #define LL_AHB5_GRP1_PERIPH_XSPI1             RCC_AHB5ENR_XSPI1EN
 203:../Drivers/STM32N6xx_HAL_Driver/Inc/stm32n6xx_ll_bus.h **** #define LL_AHB5_GRP1_PERIPH_XSPI2             RCC_AHB5ENR_XSPI2EN
 204:../Drivers/STM32N6xx_HAL_Driver/Inc/stm32n6xx_ll_bus.h **** #define LL_AHB5_GRP1_PERIPH_XSPI3             RCC_AHB5ENR_XSPI3EN
 205:../Drivers/STM32N6xx_HAL_Driver/Inc/stm32n6xx_ll_bus.h **** #define LL_AHB5_GRP1_PERIPH_XSPIM             RCC_AHB5ENR_XSPIMEN
 206:../Drivers/STM32N6xx_HAL_Driver/Inc/stm32n6xx_ll_bus.h **** #define LL_AHB5_GRP1_PERIPH_JPEG              RCC_AHB5ENR_JPEGEN
 207:../Drivers/STM32N6xx_HAL_Driver/Inc/stm32n6xx_ll_bus.h **** #define LL_AHB5_GRP1_PERIPH_MCE1              RCC_AHB5ENR_MCE1EN
 208:../Drivers/STM32N6xx_HAL_Driver/Inc/stm32n6xx_ll_bus.h **** #define LL_AHB5_GRP1_PERIPH_MCE2              RCC_AHB5ENR_MCE2EN
 209:../Drivers/STM32N6xx_HAL_Driver/Inc/stm32n6xx_ll_bus.h **** #define LL_AHB5_GRP1_PERIPH_MCE3              RCC_AHB5ENR_MCE3EN
 210:../Drivers/STM32N6xx_HAL_Driver/Inc/stm32n6xx_ll_bus.h **** #define LL_AHB5_GRP1_PERIPH_MCE4              RCC_AHB5ENR_MCE4EN
 211:../Drivers/STM32N6xx_HAL_Driver/Inc/stm32n6xx_ll_bus.h **** #define LL_AHB5_GRP1_PERIPH_CACHEAXI          RCC_AHB5ENR_CACHEAXIEN
 212:../Drivers/STM32N6xx_HAL_Driver/Inc/stm32n6xx_ll_bus.h **** #define LL_AHB5_GRP1_PERIPH_NPU               RCC_AHB5ENR_NPUEN
 213:../Drivers/STM32N6xx_HAL_Driver/Inc/stm32n6xx_ll_bus.h **** #define LL_AHB5_GRP1_PERIPH_OTG1              RCC_AHB5ENR_OTG1EN
 214:../Drivers/STM32N6xx_HAL_Driver/Inc/stm32n6xx_ll_bus.h **** #define LL_AHB5_GRP1_PERIPH_OTG2              RCC_AHB5ENR_OTG2EN
 215:../Drivers/STM32N6xx_HAL_Driver/Inc/stm32n6xx_ll_bus.h **** #define LL_AHB5_GRP1_PERIPH_OTGPHY1           RCC_AHB5ENR_OTGPHY1EN
 216:../Drivers/STM32N6xx_HAL_Driver/Inc/stm32n6xx_ll_bus.h **** #define LL_AHB5_GRP1_PERIPH_OTGPHY2           RCC_AHB5ENR_OTGPHY2EN
 217:../Drivers/STM32N6xx_HAL_Driver/Inc/stm32n6xx_ll_bus.h **** #define LL_AHB5_GRP1_PERIPH_OTG1PHYCTL        RCC_AHB5RSTR_OTG1PHYCTLRST
 218:../Drivers/STM32N6xx_HAL_Driver/Inc/stm32n6xx_ll_bus.h **** #define LL_AHB5_GRP1_PERIPH_OTG2PHYCTL        RCC_AHB5RSTR_OTG2PHYCTLRST
 219:../Drivers/STM32N6xx_HAL_Driver/Inc/stm32n6xx_ll_bus.h **** #define LL_AHB5_GRP1_PERIPH_PSSI              RCC_AHB5ENR_PSSIEN
 220:../Drivers/STM32N6xx_HAL_Driver/Inc/stm32n6xx_ll_bus.h **** #define LL_AHB5_GRP1_PERIPH_SDMMC1            RCC_AHB5ENR_SDMMC1EN
 221:../Drivers/STM32N6xx_HAL_Driver/Inc/stm32n6xx_ll_bus.h **** #define LL_AHB5_GRP1_PERIPH_SDMMC2            RCC_AHB5ENR_SDMMC2EN
 222:../Drivers/STM32N6xx_HAL_Driver/Inc/stm32n6xx_ll_bus.h **** #define LL_AHB5_GRP1_PERIPH_ALL            (LL_AHB5_GRP1_PERIPH_DMA2D    | LL_AHB5_GRP1_PERIPH_ETH1
 223:../Drivers/STM32N6xx_HAL_Driver/Inc/stm32n6xx_ll_bus.h ****                                             LL_AHB5_GRP1_PERIPH_ETH1MAC  | LL_AHB5_GRP1_PERIPH_ETH1
 224:../Drivers/STM32N6xx_HAL_Driver/Inc/stm32n6xx_ll_bus.h ****                                             LL_AHB5_GRP1_PERIPH_ETH1RX   | LL_AHB5_GRP1_PERIPH_FMC 
 225:../Drivers/STM32N6xx_HAL_Driver/Inc/stm32n6xx_ll_bus.h ****                                             LL_AHB5_GRP1_PERIPH_GFXMMU   | LL_AHB5_GRP1_PERIPH_GPU2
 226:../Drivers/STM32N6xx_HAL_Driver/Inc/stm32n6xx_ll_bus.h ****                                             LL_AHB5_GRP1_PERIPH_HPDMA1   | LL_AHB5_GRP1_PERIPH_XSPI
 227:../Drivers/STM32N6xx_HAL_Driver/Inc/stm32n6xx_ll_bus.h ****                                             LL_AHB5_GRP1_PERIPH_XSPI2    | LL_AHB5_GRP1_PERIPH_XSPI
 228:../Drivers/STM32N6xx_HAL_Driver/Inc/stm32n6xx_ll_bus.h ****                                             LL_AHB5_GRP1_PERIPH_XSPIM    | LL_AHB5_GRP1_PERIPH_JPEG
 229:../Drivers/STM32N6xx_HAL_Driver/Inc/stm32n6xx_ll_bus.h ****                                             LL_AHB5_GRP1_PERIPH_MCE1     | LL_AHB5_GRP1_PERIPH_MCE2
 230:../Drivers/STM32N6xx_HAL_Driver/Inc/stm32n6xx_ll_bus.h ****                                             LL_AHB5_GRP1_PERIPH_MCE3     | LL_AHB5_GRP1_PERIPH_MCE4
 231:../Drivers/STM32N6xx_HAL_Driver/Inc/stm32n6xx_ll_bus.h ****                                             LL_AHB5_GRP1_PERIPH_CACHEAXI | LL_AHB5_GRP1_PERIPH_NPU 
 232:../Drivers/STM32N6xx_HAL_Driver/Inc/stm32n6xx_ll_bus.h ****                                             LL_AHB5_GRP1_PERIPH_OTG1     | LL_AHB5_GRP1_PERIPH_OTG2
 233:../Drivers/STM32N6xx_HAL_Driver/Inc/stm32n6xx_ll_bus.h ****                                             LL_AHB5_GRP1_PERIPH_OTGPHY1  | LL_AHB5_GRP1_PERIPH_OTGP
 234:../Drivers/STM32N6xx_HAL_Driver/Inc/stm32n6xx_ll_bus.h ****                                             LL_AHB5_GRP1_PERIPH_PSSI     | LL_AHB5_GRP1_PERIPH_SDMM
 235:../Drivers/STM32N6xx_HAL_Driver/Inc/stm32n6xx_ll_bus.h ****                                             LL_AHB5_GRP1_PERIPH_SDMMC2)
 236:../Drivers/STM32N6xx_HAL_Driver/Inc/stm32n6xx_ll_bus.h **** /**
 237:../Drivers/STM32N6xx_HAL_Driver/Inc/stm32n6xx_ll_bus.h ****   * @}
 238:../Drivers/STM32N6xx_HAL_Driver/Inc/stm32n6xx_ll_bus.h ****   */
 239:../Drivers/STM32N6xx_HAL_Driver/Inc/stm32n6xx_ll_bus.h **** 
ARM GAS  /tmp/ccFnPEzn.s 			page 35


 240:../Drivers/STM32N6xx_HAL_Driver/Inc/stm32n6xx_ll_bus.h **** /** @defgroup BUS_LL_EC_APB1_GRP1_PERIPH  APB1 GRP1 PERIPH
 241:../Drivers/STM32N6xx_HAL_Driver/Inc/stm32n6xx_ll_bus.h ****   * @{
 242:../Drivers/STM32N6xx_HAL_Driver/Inc/stm32n6xx_ll_bus.h ****   */
 243:../Drivers/STM32N6xx_HAL_Driver/Inc/stm32n6xx_ll_bus.h **** #define LL_APB1_GRP1_PERIPH_I2C1           RCC_APB1ENR1_I2C1EN
 244:../Drivers/STM32N6xx_HAL_Driver/Inc/stm32n6xx_ll_bus.h **** #define LL_APB1_GRP1_PERIPH_I2C2           RCC_APB1ENR1_I2C2EN
 245:../Drivers/STM32N6xx_HAL_Driver/Inc/stm32n6xx_ll_bus.h **** #define LL_APB1_GRP1_PERIPH_I2C3           RCC_APB1ENR1_I2C3EN
 246:../Drivers/STM32N6xx_HAL_Driver/Inc/stm32n6xx_ll_bus.h **** #define LL_APB1_GRP1_PERIPH_I3C1           RCC_APB1ENR1_I3C1EN
 247:../Drivers/STM32N6xx_HAL_Driver/Inc/stm32n6xx_ll_bus.h **** #define LL_APB1_GRP1_PERIPH_I3C2           RCC_APB1ENR1_I3C2EN
 248:../Drivers/STM32N6xx_HAL_Driver/Inc/stm32n6xx_ll_bus.h **** #define LL_APB1_GRP1_PERIPH_LPTIM1         RCC_APB1ENR1_LPTIM1EN
 249:../Drivers/STM32N6xx_HAL_Driver/Inc/stm32n6xx_ll_bus.h **** #define LL_APB1_GRP1_PERIPH_SPDIFRX1       RCC_APB1ENR1_SPDIFRX1EN
 250:../Drivers/STM32N6xx_HAL_Driver/Inc/stm32n6xx_ll_bus.h **** #define LL_APB1_GRP1_PERIPH_SPI2           RCC_APB1ENR1_SPI2EN
 251:../Drivers/STM32N6xx_HAL_Driver/Inc/stm32n6xx_ll_bus.h **** #define LL_APB1_GRP1_PERIPH_SPI3           RCC_APB1ENR1_SPI3EN
 252:../Drivers/STM32N6xx_HAL_Driver/Inc/stm32n6xx_ll_bus.h **** #define LL_APB1_GRP1_PERIPH_TIM2           RCC_APB1ENR1_TIM2EN
 253:../Drivers/STM32N6xx_HAL_Driver/Inc/stm32n6xx_ll_bus.h **** #define LL_APB1_GRP1_PERIPH_TIM3           RCC_APB1ENR1_TIM3EN
 254:../Drivers/STM32N6xx_HAL_Driver/Inc/stm32n6xx_ll_bus.h **** #define LL_APB1_GRP1_PERIPH_TIM4           RCC_APB1ENR1_TIM4EN
 255:../Drivers/STM32N6xx_HAL_Driver/Inc/stm32n6xx_ll_bus.h **** #define LL_APB1_GRP1_PERIPH_TIM5           RCC_APB1ENR1_TIM5EN
 256:../Drivers/STM32N6xx_HAL_Driver/Inc/stm32n6xx_ll_bus.h **** #define LL_APB1_GRP1_PERIPH_TIM6           RCC_APB1ENR1_TIM6EN
 257:../Drivers/STM32N6xx_HAL_Driver/Inc/stm32n6xx_ll_bus.h **** #define LL_APB1_GRP1_PERIPH_TIM7           RCC_APB1ENR1_TIM7EN
 258:../Drivers/STM32N6xx_HAL_Driver/Inc/stm32n6xx_ll_bus.h **** #define LL_APB1_GRP1_PERIPH_TIM10          RCC_APB1ENR1_TIM10EN
 259:../Drivers/STM32N6xx_HAL_Driver/Inc/stm32n6xx_ll_bus.h **** #define LL_APB1_GRP1_PERIPH_TIM11          RCC_APB1ENR1_TIM11EN
 260:../Drivers/STM32N6xx_HAL_Driver/Inc/stm32n6xx_ll_bus.h **** #define LL_APB1_GRP1_PERIPH_TIM12          RCC_APB1ENR1_TIM12EN
 261:../Drivers/STM32N6xx_HAL_Driver/Inc/stm32n6xx_ll_bus.h **** #define LL_APB1_GRP1_PERIPH_TIM13          RCC_APB1ENR1_TIM13EN
 262:../Drivers/STM32N6xx_HAL_Driver/Inc/stm32n6xx_ll_bus.h **** #define LL_APB1_GRP1_PERIPH_TIM14          RCC_APB1ENR1_TIM14EN
 263:../Drivers/STM32N6xx_HAL_Driver/Inc/stm32n6xx_ll_bus.h **** #define LL_APB1_GRP1_PERIPH_USART2         RCC_APB1ENR1_USART2EN
 264:../Drivers/STM32N6xx_HAL_Driver/Inc/stm32n6xx_ll_bus.h **** #define LL_APB1_GRP1_PERIPH_USART3         RCC_APB1ENR1_USART3EN
 265:../Drivers/STM32N6xx_HAL_Driver/Inc/stm32n6xx_ll_bus.h **** #define LL_APB1_GRP1_PERIPH_UART4          RCC_APB1ENR1_UART4EN
 266:../Drivers/STM32N6xx_HAL_Driver/Inc/stm32n6xx_ll_bus.h **** #define LL_APB1_GRP1_PERIPH_UART5          RCC_APB1ENR1_UART5EN
 267:../Drivers/STM32N6xx_HAL_Driver/Inc/stm32n6xx_ll_bus.h **** #define LL_APB1_GRP1_PERIPH_UART7          RCC_APB1ENR1_UART7EN
 268:../Drivers/STM32N6xx_HAL_Driver/Inc/stm32n6xx_ll_bus.h **** #define LL_APB1_GRP1_PERIPH_UART8          RCC_APB1ENR1_UART8EN
 269:../Drivers/STM32N6xx_HAL_Driver/Inc/stm32n6xx_ll_bus.h **** #define LL_APB1_GRP1_PERIPH_WWDG           RCC_APB1ENR1_WWDGEN
 270:../Drivers/STM32N6xx_HAL_Driver/Inc/stm32n6xx_ll_bus.h **** #define LL_APB1_GRP1_PERIPH_ALL            (LL_APB1_GRP1_PERIPH_I2C1     | LL_APB1_GRP1_PERIPH_I2C2
 271:../Drivers/STM32N6xx_HAL_Driver/Inc/stm32n6xx_ll_bus.h ****                                             LL_APB1_GRP1_PERIPH_I2C3     | LL_APB1_GRP1_PERIPH_I3C1
 272:../Drivers/STM32N6xx_HAL_Driver/Inc/stm32n6xx_ll_bus.h ****                                             LL_APB1_GRP1_PERIPH_I3C2     | LL_APB1_GRP1_PERIPH_LPTI
 273:../Drivers/STM32N6xx_HAL_Driver/Inc/stm32n6xx_ll_bus.h ****                                             LL_APB1_GRP1_PERIPH_SPDIFRX1 | LL_APB1_GRP1_PERIPH_SPI2
 274:../Drivers/STM32N6xx_HAL_Driver/Inc/stm32n6xx_ll_bus.h ****                                             LL_APB1_GRP1_PERIPH_SPI3     | LL_APB1_GRP1_PERIPH_TIM2
 275:../Drivers/STM32N6xx_HAL_Driver/Inc/stm32n6xx_ll_bus.h ****                                             LL_APB1_GRP1_PERIPH_TIM3     | LL_APB1_GRP1_PERIPH_TIM4
 276:../Drivers/STM32N6xx_HAL_Driver/Inc/stm32n6xx_ll_bus.h ****                                             LL_APB1_GRP1_PERIPH_TIM5     | LL_APB1_GRP1_PERIPH_TIM6
 277:../Drivers/STM32N6xx_HAL_Driver/Inc/stm32n6xx_ll_bus.h ****                                             LL_APB1_GRP1_PERIPH_TIM7     | LL_APB1_GRP1_PERIPH_TIM1
 278:../Drivers/STM32N6xx_HAL_Driver/Inc/stm32n6xx_ll_bus.h ****                                             LL_APB1_GRP1_PERIPH_TIM11    | LL_APB1_GRP1_PERIPH_TIM1
 279:../Drivers/STM32N6xx_HAL_Driver/Inc/stm32n6xx_ll_bus.h ****                                             LL_APB1_GRP1_PERIPH_TIM13    | LL_APB1_GRP1_PERIPH_TIM1
 280:../Drivers/STM32N6xx_HAL_Driver/Inc/stm32n6xx_ll_bus.h ****                                             LL_APB1_GRP1_PERIPH_USART2   | LL_APB1_GRP1_PERIPH_USAR
 281:../Drivers/STM32N6xx_HAL_Driver/Inc/stm32n6xx_ll_bus.h ****                                             LL_APB1_GRP1_PERIPH_UART4    | LL_APB1_GRP1_PERIPH_UART
 282:../Drivers/STM32N6xx_HAL_Driver/Inc/stm32n6xx_ll_bus.h ****                                             LL_APB1_GRP1_PERIPH_UART7    | LL_APB1_GRP1_PERIPH_UART
 283:../Drivers/STM32N6xx_HAL_Driver/Inc/stm32n6xx_ll_bus.h ****                                             LL_APB1_GRP1_PERIPH_WWDG)
 284:../Drivers/STM32N6xx_HAL_Driver/Inc/stm32n6xx_ll_bus.h **** /**
 285:../Drivers/STM32N6xx_HAL_Driver/Inc/stm32n6xx_ll_bus.h ****   * @}
 286:../Drivers/STM32N6xx_HAL_Driver/Inc/stm32n6xx_ll_bus.h ****   */
 287:../Drivers/STM32N6xx_HAL_Driver/Inc/stm32n6xx_ll_bus.h **** 
 288:../Drivers/STM32N6xx_HAL_Driver/Inc/stm32n6xx_ll_bus.h **** /** @defgroup BUS_LL_EC_APB1_GRP2_PERIPH  APB1 GRP2 PERIPH
 289:../Drivers/STM32N6xx_HAL_Driver/Inc/stm32n6xx_ll_bus.h ****   * @{
 290:../Drivers/STM32N6xx_HAL_Driver/Inc/stm32n6xx_ll_bus.h ****   */
 291:../Drivers/STM32N6xx_HAL_Driver/Inc/stm32n6xx_ll_bus.h **** #define LL_APB1_GRP2_PERIPH_FDCAN          RCC_APB1ENR2_FDCANEN
 292:../Drivers/STM32N6xx_HAL_Driver/Inc/stm32n6xx_ll_bus.h **** #define LL_APB1_GRP2_PERIPH_MDIOS          RCC_APB1ENR2_MDIOSEN
 293:../Drivers/STM32N6xx_HAL_Driver/Inc/stm32n6xx_ll_bus.h **** #define LL_APB1_GRP2_PERIPH_UCPD1          RCC_APB1ENR2_UCPD1EN
 294:../Drivers/STM32N6xx_HAL_Driver/Inc/stm32n6xx_ll_bus.h **** #define LL_APB1_GRP2_PERIPH_ALL            (LL_APB1_GRP2_PERIPH_FDCAN | LL_APB1_GRP2_PERIPH_MDIOS |
 295:../Drivers/STM32N6xx_HAL_Driver/Inc/stm32n6xx_ll_bus.h ****                                             LL_APB1_GRP2_PERIPH_UCPD1)
 296:../Drivers/STM32N6xx_HAL_Driver/Inc/stm32n6xx_ll_bus.h **** /**
ARM GAS  /tmp/ccFnPEzn.s 			page 36


 297:../Drivers/STM32N6xx_HAL_Driver/Inc/stm32n6xx_ll_bus.h ****   * @}
 298:../Drivers/STM32N6xx_HAL_Driver/Inc/stm32n6xx_ll_bus.h ****   */
 299:../Drivers/STM32N6xx_HAL_Driver/Inc/stm32n6xx_ll_bus.h **** 
 300:../Drivers/STM32N6xx_HAL_Driver/Inc/stm32n6xx_ll_bus.h **** /** @defgroup BUS_LL_EC_APB2_GRP1_PERIPH  APB2 GRP1 PERIPH
 301:../Drivers/STM32N6xx_HAL_Driver/Inc/stm32n6xx_ll_bus.h ****   * @{
 302:../Drivers/STM32N6xx_HAL_Driver/Inc/stm32n6xx_ll_bus.h ****   */
 303:../Drivers/STM32N6xx_HAL_Driver/Inc/stm32n6xx_ll_bus.h **** #define LL_APB2_GRP1_PERIPH_SAI1           RCC_APB2ENR_SAI1EN
 304:../Drivers/STM32N6xx_HAL_Driver/Inc/stm32n6xx_ll_bus.h **** #define LL_APB2_GRP1_PERIPH_SAI2           RCC_APB2ENR_SAI2EN
 305:../Drivers/STM32N6xx_HAL_Driver/Inc/stm32n6xx_ll_bus.h **** #define LL_APB2_GRP1_PERIPH_SPI1           RCC_APB2ENR_SPI1EN
 306:../Drivers/STM32N6xx_HAL_Driver/Inc/stm32n6xx_ll_bus.h **** #define LL_APB2_GRP1_PERIPH_SPI4           RCC_APB2ENR_SPI4EN
 307:../Drivers/STM32N6xx_HAL_Driver/Inc/stm32n6xx_ll_bus.h **** #define LL_APB2_GRP1_PERIPH_SPI5           RCC_APB2ENR_SPI5EN
 308:../Drivers/STM32N6xx_HAL_Driver/Inc/stm32n6xx_ll_bus.h **** #define LL_APB2_GRP1_PERIPH_TIM1           RCC_APB2ENR_TIM1EN
 309:../Drivers/STM32N6xx_HAL_Driver/Inc/stm32n6xx_ll_bus.h **** #define LL_APB2_GRP1_PERIPH_TIM8           RCC_APB2ENR_TIM8EN
 310:../Drivers/STM32N6xx_HAL_Driver/Inc/stm32n6xx_ll_bus.h **** #define LL_APB2_GRP1_PERIPH_TIM9           RCC_APB2ENR_TIM9EN
 311:../Drivers/STM32N6xx_HAL_Driver/Inc/stm32n6xx_ll_bus.h **** #define LL_APB2_GRP1_PERIPH_TIM15          RCC_APB2ENR_TIM15EN
 312:../Drivers/STM32N6xx_HAL_Driver/Inc/stm32n6xx_ll_bus.h **** #define LL_APB2_GRP1_PERIPH_TIM16          RCC_APB2ENR_TIM16EN
 313:../Drivers/STM32N6xx_HAL_Driver/Inc/stm32n6xx_ll_bus.h **** #define LL_APB2_GRP1_PERIPH_TIM17          RCC_APB2ENR_TIM17EN
 314:../Drivers/STM32N6xx_HAL_Driver/Inc/stm32n6xx_ll_bus.h **** #define LL_APB2_GRP1_PERIPH_TIM18          RCC_APB2ENR_TIM18EN
 315:../Drivers/STM32N6xx_HAL_Driver/Inc/stm32n6xx_ll_bus.h **** #define LL_APB2_GRP1_PERIPH_USART1         RCC_APB2ENR_USART1EN
 316:../Drivers/STM32N6xx_HAL_Driver/Inc/stm32n6xx_ll_bus.h **** #define LL_APB2_GRP1_PERIPH_USART6         RCC_APB2ENR_USART6EN
 317:../Drivers/STM32N6xx_HAL_Driver/Inc/stm32n6xx_ll_bus.h **** #define LL_APB2_GRP1_PERIPH_UART9          RCC_APB2ENR_UART9EN
 318:../Drivers/STM32N6xx_HAL_Driver/Inc/stm32n6xx_ll_bus.h **** #define LL_APB2_GRP1_PERIPH_USART10        RCC_APB2ENR_USART10EN
 319:../Drivers/STM32N6xx_HAL_Driver/Inc/stm32n6xx_ll_bus.h **** #define LL_APB2_GRP1_PERIPH_ALL            (LL_APB2_GRP1_PERIPH_SAI1   | LL_APB2_GRP1_PERIPH_SAI2  
 320:../Drivers/STM32N6xx_HAL_Driver/Inc/stm32n6xx_ll_bus.h ****                                             LL_APB2_GRP1_PERIPH_SPI1   | LL_APB2_GRP1_PERIPH_SPI4  
 321:../Drivers/STM32N6xx_HAL_Driver/Inc/stm32n6xx_ll_bus.h ****                                             LL_APB2_GRP1_PERIPH_SPI5   | LL_APB2_GRP1_PERIPH_TIM1  
 322:../Drivers/STM32N6xx_HAL_Driver/Inc/stm32n6xx_ll_bus.h ****                                             LL_APB2_GRP1_PERIPH_TIM8   | LL_APB2_GRP1_PERIPH_TIM9  
 323:../Drivers/STM32N6xx_HAL_Driver/Inc/stm32n6xx_ll_bus.h ****                                             LL_APB2_GRP1_PERIPH_TIM15  | LL_APB2_GRP1_PERIPH_TIM16 
 324:../Drivers/STM32N6xx_HAL_Driver/Inc/stm32n6xx_ll_bus.h ****                                             LL_APB2_GRP1_PERIPH_TIM17  | LL_APB2_GRP1_PERIPH_TIM18 
 325:../Drivers/STM32N6xx_HAL_Driver/Inc/stm32n6xx_ll_bus.h ****                                             LL_APB2_GRP1_PERIPH_USART1 | LL_APB2_GRP1_PERIPH_USART6
 326:../Drivers/STM32N6xx_HAL_Driver/Inc/stm32n6xx_ll_bus.h ****                                             LL_APB2_GRP1_PERIPH_UART9  | LL_APB2_GRP1_PERIPH_USART1
 327:../Drivers/STM32N6xx_HAL_Driver/Inc/stm32n6xx_ll_bus.h **** /**
 328:../Drivers/STM32N6xx_HAL_Driver/Inc/stm32n6xx_ll_bus.h ****   * @}
 329:../Drivers/STM32N6xx_HAL_Driver/Inc/stm32n6xx_ll_bus.h ****   */
 330:../Drivers/STM32N6xx_HAL_Driver/Inc/stm32n6xx_ll_bus.h **** 
 331:../Drivers/STM32N6xx_HAL_Driver/Inc/stm32n6xx_ll_bus.h **** /** @defgroup BUS_LL_EC_APB4_GRP1_PERIPH  APB4 GRP1 PERIPH
 332:../Drivers/STM32N6xx_HAL_Driver/Inc/stm32n6xx_ll_bus.h ****   * @{
 333:../Drivers/STM32N6xx_HAL_Driver/Inc/stm32n6xx_ll_bus.h ****   */
 334:../Drivers/STM32N6xx_HAL_Driver/Inc/stm32n6xx_ll_bus.h **** #define LL_APB4_GRP1_PERIPH_HDP            RCC_APB4ENR1_HDPEN
 335:../Drivers/STM32N6xx_HAL_Driver/Inc/stm32n6xx_ll_bus.h **** #define LL_APB4_GRP1_PERIPH_I2C4           RCC_APB4ENR1_I2C4EN
 336:../Drivers/STM32N6xx_HAL_Driver/Inc/stm32n6xx_ll_bus.h **** #define LL_APB4_GRP1_PERIPH_LPTIM2         RCC_APB4ENR1_LPTIM2EN
 337:../Drivers/STM32N6xx_HAL_Driver/Inc/stm32n6xx_ll_bus.h **** #define LL_APB4_GRP1_PERIPH_LPTIM3         RCC_APB4ENR1_LPTIM3EN
 338:../Drivers/STM32N6xx_HAL_Driver/Inc/stm32n6xx_ll_bus.h **** #define LL_APB4_GRP1_PERIPH_LPTIM4         RCC_APB4ENR1_LPTIM4EN
 339:../Drivers/STM32N6xx_HAL_Driver/Inc/stm32n6xx_ll_bus.h **** #define LL_APB4_GRP1_PERIPH_LPTIM5         RCC_APB4ENR1_LPTIM5EN
 340:../Drivers/STM32N6xx_HAL_Driver/Inc/stm32n6xx_ll_bus.h **** #define LL_APB4_GRP1_PERIPH_LPUART1        RCC_APB4ENR1_LPUART1EN
 341:../Drivers/STM32N6xx_HAL_Driver/Inc/stm32n6xx_ll_bus.h **** #define LL_APB4_GRP1_PERIPH_RTC            RCC_APB4ENR1_RTCEN
 342:../Drivers/STM32N6xx_HAL_Driver/Inc/stm32n6xx_ll_bus.h **** #define LL_APB4_GRP1_PERIPH_RTCAPB         RCC_APB4ENR1_RTCAPBEN
 343:../Drivers/STM32N6xx_HAL_Driver/Inc/stm32n6xx_ll_bus.h **** #define LL_APB4_GRP1_PERIPH_SPI6           RCC_APB4ENR1_SPI6EN
 344:../Drivers/STM32N6xx_HAL_Driver/Inc/stm32n6xx_ll_bus.h **** #define LL_APB4_GRP1_PERIPH_VREFBUF        RCC_APB4ENR1_VREFBUFEN
 345:../Drivers/STM32N6xx_HAL_Driver/Inc/stm32n6xx_ll_bus.h **** #define LL_APB4_GRP1_PERIPH_ALL            (LL_APB4_GRP1_PERIPH_HDP     | LL_APB4_GRP1_PERIPH_I2C4 
 346:../Drivers/STM32N6xx_HAL_Driver/Inc/stm32n6xx_ll_bus.h ****                                             LL_APB4_GRP1_PERIPH_LPTIM2  | LL_APB4_GRP1_PERIPH_LPTIM
 347:../Drivers/STM32N6xx_HAL_Driver/Inc/stm32n6xx_ll_bus.h ****                                             LL_APB4_GRP1_PERIPH_LPTIM4  | LL_APB4_GRP1_PERIPH_LPTIM
 348:../Drivers/STM32N6xx_HAL_Driver/Inc/stm32n6xx_ll_bus.h ****                                             LL_APB4_GRP1_PERIPH_LPUART1 | LL_APB4_GRP1_PERIPH_RTC  
 349:../Drivers/STM32N6xx_HAL_Driver/Inc/stm32n6xx_ll_bus.h ****                                             LL_APB4_GRP1_PERIPH_RTCAPB  | LL_APB4_GRP1_PERIPH_SPI6 
 350:../Drivers/STM32N6xx_HAL_Driver/Inc/stm32n6xx_ll_bus.h ****                                             LL_APB4_GRP1_PERIPH_VREFBUF)
 351:../Drivers/STM32N6xx_HAL_Driver/Inc/stm32n6xx_ll_bus.h **** /**
 352:../Drivers/STM32N6xx_HAL_Driver/Inc/stm32n6xx_ll_bus.h ****   * @}
 353:../Drivers/STM32N6xx_HAL_Driver/Inc/stm32n6xx_ll_bus.h ****   */
ARM GAS  /tmp/ccFnPEzn.s 			page 37


 354:../Drivers/STM32N6xx_HAL_Driver/Inc/stm32n6xx_ll_bus.h **** 
 355:../Drivers/STM32N6xx_HAL_Driver/Inc/stm32n6xx_ll_bus.h **** /** @defgroup BUS_LL_EC_APB4_GRP2_PERIPH  APB4 GRP2 PERIPH
 356:../Drivers/STM32N6xx_HAL_Driver/Inc/stm32n6xx_ll_bus.h ****   * @{
 357:../Drivers/STM32N6xx_HAL_Driver/Inc/stm32n6xx_ll_bus.h ****   */
 358:../Drivers/STM32N6xx_HAL_Driver/Inc/stm32n6xx_ll_bus.h **** #define LL_APB4_GRP2_PERIPH_BSEC           RCC_APB4ENR2_BSECEN
 359:../Drivers/STM32N6xx_HAL_Driver/Inc/stm32n6xx_ll_bus.h **** #define LL_APB4_GRP2_PERIPH_DTS            RCC_APB4ENR2_DTSEN
 360:../Drivers/STM32N6xx_HAL_Driver/Inc/stm32n6xx_ll_bus.h **** #define LL_APB4_GRP2_PERIPH_SYSCFG         RCC_APB4ENR2_SYSCFGEN
 361:../Drivers/STM32N6xx_HAL_Driver/Inc/stm32n6xx_ll_bus.h **** #define LL_APB4_GRP2_PERIPH_ALL            (LL_APB4_GRP2_PERIPH_BSEC | LL_APB4_GRP2_PERIPH_DTS | \
 362:../Drivers/STM32N6xx_HAL_Driver/Inc/stm32n6xx_ll_bus.h ****                                             LL_APB4_GRP2_PERIPH_SYSCFG)
 363:../Drivers/STM32N6xx_HAL_Driver/Inc/stm32n6xx_ll_bus.h **** /**
 364:../Drivers/STM32N6xx_HAL_Driver/Inc/stm32n6xx_ll_bus.h ****   * @}
 365:../Drivers/STM32N6xx_HAL_Driver/Inc/stm32n6xx_ll_bus.h ****   */
 366:../Drivers/STM32N6xx_HAL_Driver/Inc/stm32n6xx_ll_bus.h **** 
 367:../Drivers/STM32N6xx_HAL_Driver/Inc/stm32n6xx_ll_bus.h **** /** @defgroup BUS_LL_EC_APB5_GRP1_PERIPH  APB5 GRP1 PERIPH
 368:../Drivers/STM32N6xx_HAL_Driver/Inc/stm32n6xx_ll_bus.h ****   * @{
 369:../Drivers/STM32N6xx_HAL_Driver/Inc/stm32n6xx_ll_bus.h ****   */
 370:../Drivers/STM32N6xx_HAL_Driver/Inc/stm32n6xx_ll_bus.h **** #define LL_APB5_GRP1_PERIPH_CSI            RCC_APB5ENR_CSIEN
 371:../Drivers/STM32N6xx_HAL_Driver/Inc/stm32n6xx_ll_bus.h **** #define LL_APB5_GRP1_PERIPH_DCMIPP         RCC_APB5ENR_DCMIPPEN
 372:../Drivers/STM32N6xx_HAL_Driver/Inc/stm32n6xx_ll_bus.h **** #define LL_APB5_GRP1_PERIPH_GFXTIM         RCC_APB5ENR_GFXTIMEN
 373:../Drivers/STM32N6xx_HAL_Driver/Inc/stm32n6xx_ll_bus.h **** #define LL_APB5_GRP1_PERIPH_LTDC           RCC_APB5ENR_LTDCEN
 374:../Drivers/STM32N6xx_HAL_Driver/Inc/stm32n6xx_ll_bus.h **** #if defined(VENC)
 375:../Drivers/STM32N6xx_HAL_Driver/Inc/stm32n6xx_ll_bus.h **** #define LL_APB5_GRP1_PERIPH_VENC           RCC_APB5ENR_VENCEN
 376:../Drivers/STM32N6xx_HAL_Driver/Inc/stm32n6xx_ll_bus.h **** #else
 377:../Drivers/STM32N6xx_HAL_Driver/Inc/stm32n6xx_ll_bus.h **** #define LL_APB5_GRP1_PERIPH_VENC
 378:../Drivers/STM32N6xx_HAL_Driver/Inc/stm32n6xx_ll_bus.h **** #endif /* VENC */
 379:../Drivers/STM32N6xx_HAL_Driver/Inc/stm32n6xx_ll_bus.h **** #define LL_APB5_GRP1_PERIPH_ALL            (LL_APB5_GRP1_PERIPH_CSI    | LL_APB5_GRP1_PERIPH_DCMIPP
 380:../Drivers/STM32N6xx_HAL_Driver/Inc/stm32n6xx_ll_bus.h ****                                             LL_APB5_GRP1_PERIPH_GFXTIM | LL_APB5_GRP1_PERIPH_LTDC  
 381:../Drivers/STM32N6xx_HAL_Driver/Inc/stm32n6xx_ll_bus.h ****                                             LL_APB5_GRP1_PERIPH_VENC)
 382:../Drivers/STM32N6xx_HAL_Driver/Inc/stm32n6xx_ll_bus.h **** /**
 383:../Drivers/STM32N6xx_HAL_Driver/Inc/stm32n6xx_ll_bus.h ****   * @}
 384:../Drivers/STM32N6xx_HAL_Driver/Inc/stm32n6xx_ll_bus.h ****   */
 385:../Drivers/STM32N6xx_HAL_Driver/Inc/stm32n6xx_ll_bus.h **** 
 386:../Drivers/STM32N6xx_HAL_Driver/Inc/stm32n6xx_ll_bus.h **** /** @defgroup BUS_LL_EC_MISC  MISC
 387:../Drivers/STM32N6xx_HAL_Driver/Inc/stm32n6xx_ll_bus.h ****   * @{
 388:../Drivers/STM32N6xx_HAL_Driver/Inc/stm32n6xx_ll_bus.h ****   */
 389:../Drivers/STM32N6xx_HAL_Driver/Inc/stm32n6xx_ll_bus.h **** #define LL_DBG                             RCC_MISCENR_DBGEN
 390:../Drivers/STM32N6xx_HAL_Driver/Inc/stm32n6xx_ll_bus.h **** #define LL_MCO1                            RCC_MISCENR_MCO1EN
 391:../Drivers/STM32N6xx_HAL_Driver/Inc/stm32n6xx_ll_bus.h **** #define LL_MCO2                            RCC_MISCENR_MCO2EN
 392:../Drivers/STM32N6xx_HAL_Driver/Inc/stm32n6xx_ll_bus.h **** #define LL_XSPIPHYCOMP                     RCC_MISCENR_XSPIPHYCOMPEN
 393:../Drivers/STM32N6xx_HAL_Driver/Inc/stm32n6xx_ll_bus.h **** #define LL_XSPIPHY1                        RCC_MISCRSTR_XSPIPHY1RST
 394:../Drivers/STM32N6xx_HAL_Driver/Inc/stm32n6xx_ll_bus.h **** #define LL_XSPIPHY2                        RCC_MISCRSTR_XSPIPHY2RST
 395:../Drivers/STM32N6xx_HAL_Driver/Inc/stm32n6xx_ll_bus.h **** #define LL_PER                             RCC_MISCENR_PEREN
 396:../Drivers/STM32N6xx_HAL_Driver/Inc/stm32n6xx_ll_bus.h **** #define LL_SDMMC1DLL                       RCC_MISCRSTR_SDMMC1DLLRST
 397:../Drivers/STM32N6xx_HAL_Driver/Inc/stm32n6xx_ll_bus.h **** #define LL_SDMMC2DLL                       RCC_MISCRSTR_SDMMC2DLLRST
 398:../Drivers/STM32N6xx_HAL_Driver/Inc/stm32n6xx_ll_bus.h **** /**
 399:../Drivers/STM32N6xx_HAL_Driver/Inc/stm32n6xx_ll_bus.h ****   * @}
 400:../Drivers/STM32N6xx_HAL_Driver/Inc/stm32n6xx_ll_bus.h ****   */
 401:../Drivers/STM32N6xx_HAL_Driver/Inc/stm32n6xx_ll_bus.h **** 
 402:../Drivers/STM32N6xx_HAL_Driver/Inc/stm32n6xx_ll_bus.h **** /**
 403:../Drivers/STM32N6xx_HAL_Driver/Inc/stm32n6xx_ll_bus.h ****   * @}
 404:../Drivers/STM32N6xx_HAL_Driver/Inc/stm32n6xx_ll_bus.h ****   */
 405:../Drivers/STM32N6xx_HAL_Driver/Inc/stm32n6xx_ll_bus.h **** 
 406:../Drivers/STM32N6xx_HAL_Driver/Inc/stm32n6xx_ll_bus.h **** /* Exported macros -----------------------------------------------------------*/
 407:../Drivers/STM32N6xx_HAL_Driver/Inc/stm32n6xx_ll_bus.h **** 
 408:../Drivers/STM32N6xx_HAL_Driver/Inc/stm32n6xx_ll_bus.h **** /* Exported functions --------------------------------------------------------*/
 409:../Drivers/STM32N6xx_HAL_Driver/Inc/stm32n6xx_ll_bus.h **** 
 410:../Drivers/STM32N6xx_HAL_Driver/Inc/stm32n6xx_ll_bus.h **** /** @defgroup BUS_LL_Exported_Functions BUS Exported Functions
ARM GAS  /tmp/ccFnPEzn.s 			page 38


 411:../Drivers/STM32N6xx_HAL_Driver/Inc/stm32n6xx_ll_bus.h ****   * @{
 412:../Drivers/STM32N6xx_HAL_Driver/Inc/stm32n6xx_ll_bus.h ****   */
 413:../Drivers/STM32N6xx_HAL_Driver/Inc/stm32n6xx_ll_bus.h **** 
 414:../Drivers/STM32N6xx_HAL_Driver/Inc/stm32n6xx_ll_bus.h **** /** @defgroup BUS_LL_EF_BUS BUS
 415:../Drivers/STM32N6xx_HAL_Driver/Inc/stm32n6xx_ll_bus.h ****   * @{
 416:../Drivers/STM32N6xx_HAL_Driver/Inc/stm32n6xx_ll_bus.h ****   */
 417:../Drivers/STM32N6xx_HAL_Driver/Inc/stm32n6xx_ll_bus.h **** 
 418:../Drivers/STM32N6xx_HAL_Driver/Inc/stm32n6xx_ll_bus.h **** /**
 419:../Drivers/STM32N6xx_HAL_Driver/Inc/stm32n6xx_ll_bus.h ****   * @brief  Enable AXI bus clock.
 420:../Drivers/STM32N6xx_HAL_Driver/Inc/stm32n6xx_ll_bus.h ****   * @rmtoll BUSENSR      ACLKNENS      LL_BUS_EnableClock\n
 421:../Drivers/STM32N6xx_HAL_Driver/Inc/stm32n6xx_ll_bus.h ****   *         BUSENSR      ACLKNCENS     LL_BUS_EnableClock\n
 422:../Drivers/STM32N6xx_HAL_Driver/Inc/stm32n6xx_ll_bus.h ****   *         BUSENSR      AHBMENS       LL_BUS_EnableClock\n
 423:../Drivers/STM32N6xx_HAL_Driver/Inc/stm32n6xx_ll_bus.h ****   *         BUSENSR      AHB1ENS       LL_BUS_EnableClock\n
 424:../Drivers/STM32N6xx_HAL_Driver/Inc/stm32n6xx_ll_bus.h ****   *         BUSENSR      AHB2ENS       LL_BUS_EnableClock\n
 425:../Drivers/STM32N6xx_HAL_Driver/Inc/stm32n6xx_ll_bus.h ****   *         BUSENSR      AHB3ENS       LL_BUS_EnableClock\n
 426:../Drivers/STM32N6xx_HAL_Driver/Inc/stm32n6xx_ll_bus.h ****   *         BUSENSR      AHB4ENS       LL_BUS_EnableClock\n
 427:../Drivers/STM32N6xx_HAL_Driver/Inc/stm32n6xx_ll_bus.h ****   *         BUSENSR      AHB5ENS       LL_BUS_EnableClock\n
 428:../Drivers/STM32N6xx_HAL_Driver/Inc/stm32n6xx_ll_bus.h ****   *         BUSENSR      APB1ENS       LL_BUS_EnableClock\n
 429:../Drivers/STM32N6xx_HAL_Driver/Inc/stm32n6xx_ll_bus.h ****   *         BUSENSR      APB2ENS       LL_BUS_EnableClock\n
 430:../Drivers/STM32N6xx_HAL_Driver/Inc/stm32n6xx_ll_bus.h ****   *         BUSENSR      APB3ENS       LL_BUS_EnableClock\n
 431:../Drivers/STM32N6xx_HAL_Driver/Inc/stm32n6xx_ll_bus.h ****   *         BUSENSR      APB4ENS       LL_BUS_EnableClock\n
 432:../Drivers/STM32N6xx_HAL_Driver/Inc/stm32n6xx_ll_bus.h ****   *         BUSENSR      APB5ENS       LL_BUS_EnableClock
 433:../Drivers/STM32N6xx_HAL_Driver/Inc/stm32n6xx_ll_bus.h ****   * @param  Bus This parameter can be a combination of the following values:
 434:../Drivers/STM32N6xx_HAL_Driver/Inc/stm32n6xx_ll_bus.h ****   *         @arg @ref LL_ACLKN
 435:../Drivers/STM32N6xx_HAL_Driver/Inc/stm32n6xx_ll_bus.h ****   *         @arg @ref LL_ACLKNC
 436:../Drivers/STM32N6xx_HAL_Driver/Inc/stm32n6xx_ll_bus.h ****   *         @arg @ref LL_AHBM
 437:../Drivers/STM32N6xx_HAL_Driver/Inc/stm32n6xx_ll_bus.h ****   *         @arg @ref LL_AHB1
 438:../Drivers/STM32N6xx_HAL_Driver/Inc/stm32n6xx_ll_bus.h ****   *         @arg @ref LL_AHB2
 439:../Drivers/STM32N6xx_HAL_Driver/Inc/stm32n6xx_ll_bus.h ****   *         @arg @ref LL_AHB3
 440:../Drivers/STM32N6xx_HAL_Driver/Inc/stm32n6xx_ll_bus.h ****   *         @arg @ref LL_AHB4
 441:../Drivers/STM32N6xx_HAL_Driver/Inc/stm32n6xx_ll_bus.h ****   *         @arg @ref LL_AHB5
 442:../Drivers/STM32N6xx_HAL_Driver/Inc/stm32n6xx_ll_bus.h ****   *         @arg @ref LL_APB1
 443:../Drivers/STM32N6xx_HAL_Driver/Inc/stm32n6xx_ll_bus.h ****   *         @arg @ref LL_APB2
 444:../Drivers/STM32N6xx_HAL_Driver/Inc/stm32n6xx_ll_bus.h ****   *         @arg @ref LL_APB3
 445:../Drivers/STM32N6xx_HAL_Driver/Inc/stm32n6xx_ll_bus.h ****   *         @arg @ref LL_APB4
 446:../Drivers/STM32N6xx_HAL_Driver/Inc/stm32n6xx_ll_bus.h ****   *         @arg @ref LL_APB5
 447:../Drivers/STM32N6xx_HAL_Driver/Inc/stm32n6xx_ll_bus.h ****   * @retval None
 448:../Drivers/STM32N6xx_HAL_Driver/Inc/stm32n6xx_ll_bus.h ****   */
 449:../Drivers/STM32N6xx_HAL_Driver/Inc/stm32n6xx_ll_bus.h **** __STATIC_INLINE void LL_BUS_EnableClock(uint32_t Bus)
 450:../Drivers/STM32N6xx_HAL_Driver/Inc/stm32n6xx_ll_bus.h **** {
 451:../Drivers/STM32N6xx_HAL_Driver/Inc/stm32n6xx_ll_bus.h ****   __IO uint32_t tmpreg;
 452:../Drivers/STM32N6xx_HAL_Driver/Inc/stm32n6xx_ll_bus.h ****   WRITE_REG(RCC->BUSENSR, Bus);
 453:../Drivers/STM32N6xx_HAL_Driver/Inc/stm32n6xx_ll_bus.h ****   /* Delay after an RCC bus clock enabling */
 454:../Drivers/STM32N6xx_HAL_Driver/Inc/stm32n6xx_ll_bus.h ****   tmpreg = READ_REG(RCC->BUSENR);
 455:../Drivers/STM32N6xx_HAL_Driver/Inc/stm32n6xx_ll_bus.h ****   (void)tmpreg;
 456:../Drivers/STM32N6xx_HAL_Driver/Inc/stm32n6xx_ll_bus.h **** }
 457:../Drivers/STM32N6xx_HAL_Driver/Inc/stm32n6xx_ll_bus.h **** 
 458:../Drivers/STM32N6xx_HAL_Driver/Inc/stm32n6xx_ll_bus.h **** /**
 459:../Drivers/STM32N6xx_HAL_Driver/Inc/stm32n6xx_ll_bus.h ****   * @brief  Check if AXI bus clock is enabled or not
 460:../Drivers/STM32N6xx_HAL_Driver/Inc/stm32n6xx_ll_bus.h ****   * @rmtoll BUSENR       ACLKNEN       LL_BUS_IsEnabledClock\n
 461:../Drivers/STM32N6xx_HAL_Driver/Inc/stm32n6xx_ll_bus.h ****   *         BUSENR       ACLKNCEN      LL_BUS_IsEnabledClock\n
 462:../Drivers/STM32N6xx_HAL_Driver/Inc/stm32n6xx_ll_bus.h ****   *         BUSENR       AHBMEN        LL_BUS_IsEnabledClock\n
 463:../Drivers/STM32N6xx_HAL_Driver/Inc/stm32n6xx_ll_bus.h ****   *         BUSENR       AHB1EN        LL_BUS_IsEnabledClock\n
 464:../Drivers/STM32N6xx_HAL_Driver/Inc/stm32n6xx_ll_bus.h ****   *         BUSENR       AHB2EN        LL_BUS_IsEnabledClock\n
 465:../Drivers/STM32N6xx_HAL_Driver/Inc/stm32n6xx_ll_bus.h ****   *         BUSENR       AHB3EN        LL_BUS_IsEnabledClock\n
 466:../Drivers/STM32N6xx_HAL_Driver/Inc/stm32n6xx_ll_bus.h ****   *         BUSENR       AHB4EN        LL_BUS_IsEnabledClock\n
 467:../Drivers/STM32N6xx_HAL_Driver/Inc/stm32n6xx_ll_bus.h ****   *         BUSENR       AHB5EN        LL_BUS_IsEnabledClock\n
ARM GAS  /tmp/ccFnPEzn.s 			page 39


 468:../Drivers/STM32N6xx_HAL_Driver/Inc/stm32n6xx_ll_bus.h ****   *         BUSENR       APB1EN        LL_BUS_IsEnabledClock\n
 469:../Drivers/STM32N6xx_HAL_Driver/Inc/stm32n6xx_ll_bus.h ****   *         BUSENR       APB2EN        LL_BUS_IsEnabledClock\n
 470:../Drivers/STM32N6xx_HAL_Driver/Inc/stm32n6xx_ll_bus.h ****   *         BUSENR       APB3EN        LL_BUS_IsEnabledClock\n
 471:../Drivers/STM32N6xx_HAL_Driver/Inc/stm32n6xx_ll_bus.h ****   *         BUSENR       APB4EN        LL_BUS_IsEnabledClock\n
 472:../Drivers/STM32N6xx_HAL_Driver/Inc/stm32n6xx_ll_bus.h ****   *         BUSENR       APB5EN        LL_BUS_IsEnabledClock
 473:../Drivers/STM32N6xx_HAL_Driver/Inc/stm32n6xx_ll_bus.h ****   * @param  Bus This parameter can be a combination of the following values:
 474:../Drivers/STM32N6xx_HAL_Driver/Inc/stm32n6xx_ll_bus.h ****   *         @arg @ref LL_ACLKN
 475:../Drivers/STM32N6xx_HAL_Driver/Inc/stm32n6xx_ll_bus.h ****   *         @arg @ref LL_ACLKNC
 476:../Drivers/STM32N6xx_HAL_Driver/Inc/stm32n6xx_ll_bus.h ****   *         @arg @ref LL_AHBM
 477:../Drivers/STM32N6xx_HAL_Driver/Inc/stm32n6xx_ll_bus.h ****   *         @arg @ref LL_AHB1
 478:../Drivers/STM32N6xx_HAL_Driver/Inc/stm32n6xx_ll_bus.h ****   *         @arg @ref LL_AHB2
 479:../Drivers/STM32N6xx_HAL_Driver/Inc/stm32n6xx_ll_bus.h ****   *         @arg @ref LL_AHB3
 480:../Drivers/STM32N6xx_HAL_Driver/Inc/stm32n6xx_ll_bus.h ****   *         @arg @ref LL_AHB4
 481:../Drivers/STM32N6xx_HAL_Driver/Inc/stm32n6xx_ll_bus.h ****   *         @arg @ref LL_AHB5
 482:../Drivers/STM32N6xx_HAL_Driver/Inc/stm32n6xx_ll_bus.h ****   *         @arg @ref LL_APB1
 483:../Drivers/STM32N6xx_HAL_Driver/Inc/stm32n6xx_ll_bus.h ****   *         @arg @ref LL_APB2
 484:../Drivers/STM32N6xx_HAL_Driver/Inc/stm32n6xx_ll_bus.h ****   *         @arg @ref LL_APB3
 485:../Drivers/STM32N6xx_HAL_Driver/Inc/stm32n6xx_ll_bus.h ****   *         @arg @ref LL_APB4
 486:../Drivers/STM32N6xx_HAL_Driver/Inc/stm32n6xx_ll_bus.h ****   *         @arg @ref LL_APB5
 487:../Drivers/STM32N6xx_HAL_Driver/Inc/stm32n6xx_ll_bus.h ****   * @retval uint32_t
 488:../Drivers/STM32N6xx_HAL_Driver/Inc/stm32n6xx_ll_bus.h ****   */
 489:../Drivers/STM32N6xx_HAL_Driver/Inc/stm32n6xx_ll_bus.h **** __STATIC_INLINE uint32_t LL_BUS_IsEnabledClock(uint32_t Bus)
 490:../Drivers/STM32N6xx_HAL_Driver/Inc/stm32n6xx_ll_bus.h **** {
 491:../Drivers/STM32N6xx_HAL_Driver/Inc/stm32n6xx_ll_bus.h ****   return ((READ_BIT(RCC->BUSENR, Bus) == Bus) ? 1UL : 0UL);
 492:../Drivers/STM32N6xx_HAL_Driver/Inc/stm32n6xx_ll_bus.h **** }
 493:../Drivers/STM32N6xx_HAL_Driver/Inc/stm32n6xx_ll_bus.h **** 
 494:../Drivers/STM32N6xx_HAL_Driver/Inc/stm32n6xx_ll_bus.h **** /**
 495:../Drivers/STM32N6xx_HAL_Driver/Inc/stm32n6xx_ll_bus.h ****   * @brief  Disable AXI bus clock.
 496:../Drivers/STM32N6xx_HAL_Driver/Inc/stm32n6xx_ll_bus.h ****   * @rmtoll BUSENCR      ACLKNENC      LL_BUS_DisableClock\n
 497:../Drivers/STM32N6xx_HAL_Driver/Inc/stm32n6xx_ll_bus.h ****   *         BUSENCR      ACLKNCENC     LL_BUS_DisableClock\n
 498:../Drivers/STM32N6xx_HAL_Driver/Inc/stm32n6xx_ll_bus.h ****   *         BUSENCR      AHBMENC       LL_BUS_DisableClock\n
 499:../Drivers/STM32N6xx_HAL_Driver/Inc/stm32n6xx_ll_bus.h ****   *         BUSENCR      AHB1ENC       LL_BUS_DisableClock\n
 500:../Drivers/STM32N6xx_HAL_Driver/Inc/stm32n6xx_ll_bus.h ****   *         BUSENCR      AHB2ENC       LL_BUS_DisableClock\n
 501:../Drivers/STM32N6xx_HAL_Driver/Inc/stm32n6xx_ll_bus.h ****   *         BUSENCR      AHB3ENC       LL_BUS_DisableClock\n
 502:../Drivers/STM32N6xx_HAL_Driver/Inc/stm32n6xx_ll_bus.h ****   *         BUSENCR      AHB4ENC       LL_BUS_DisableClock\n
 503:../Drivers/STM32N6xx_HAL_Driver/Inc/stm32n6xx_ll_bus.h ****   *         BUSENCR      AHB5ENC       LL_BUS_DisableClock\n
 504:../Drivers/STM32N6xx_HAL_Driver/Inc/stm32n6xx_ll_bus.h ****   *         BUSENCR      APB1ENC       LL_BUS_DisableClock\n
 505:../Drivers/STM32N6xx_HAL_Driver/Inc/stm32n6xx_ll_bus.h ****   *         BUSENCR      APB2ENC       LL_BUS_DisableClock\n
 506:../Drivers/STM32N6xx_HAL_Driver/Inc/stm32n6xx_ll_bus.h ****   *         BUSENCR      APB3ENC       LL_BUS_DisableClock\n
 507:../Drivers/STM32N6xx_HAL_Driver/Inc/stm32n6xx_ll_bus.h ****   *         BUSENCR      APB4ENC       LL_BUS_DisableClock\n
 508:../Drivers/STM32N6xx_HAL_Driver/Inc/stm32n6xx_ll_bus.h ****   *         BUSENCR      APB5ENC       LL_BUS_DisableClock
 509:../Drivers/STM32N6xx_HAL_Driver/Inc/stm32n6xx_ll_bus.h ****   * @param  Bus This parameter can be a combination of the following values:
 510:../Drivers/STM32N6xx_HAL_Driver/Inc/stm32n6xx_ll_bus.h ****   *         @arg @ref LL_ACLKN
 511:../Drivers/STM32N6xx_HAL_Driver/Inc/stm32n6xx_ll_bus.h ****   *         @arg @ref LL_ACLKNC
 512:../Drivers/STM32N6xx_HAL_Driver/Inc/stm32n6xx_ll_bus.h ****   *         @arg @ref LL_AHBM
 513:../Drivers/STM32N6xx_HAL_Driver/Inc/stm32n6xx_ll_bus.h ****   *         @arg @ref LL_AHB1
 514:../Drivers/STM32N6xx_HAL_Driver/Inc/stm32n6xx_ll_bus.h ****   *         @arg @ref LL_AHB2
 515:../Drivers/STM32N6xx_HAL_Driver/Inc/stm32n6xx_ll_bus.h ****   *         @arg @ref LL_AHB3
 516:../Drivers/STM32N6xx_HAL_Driver/Inc/stm32n6xx_ll_bus.h ****   *         @arg @ref LL_AHB4
 517:../Drivers/STM32N6xx_HAL_Driver/Inc/stm32n6xx_ll_bus.h ****   *         @arg @ref LL_AHB5
 518:../Drivers/STM32N6xx_HAL_Driver/Inc/stm32n6xx_ll_bus.h ****   *         @arg @ref LL_APB1
 519:../Drivers/STM32N6xx_HAL_Driver/Inc/stm32n6xx_ll_bus.h ****   *         @arg @ref LL_APB2
 520:../Drivers/STM32N6xx_HAL_Driver/Inc/stm32n6xx_ll_bus.h ****   *         @arg @ref LL_APB3
 521:../Drivers/STM32N6xx_HAL_Driver/Inc/stm32n6xx_ll_bus.h ****   *         @arg @ref LL_APB4
 522:../Drivers/STM32N6xx_HAL_Driver/Inc/stm32n6xx_ll_bus.h ****   *         @arg @ref LL_APB5
 523:../Drivers/STM32N6xx_HAL_Driver/Inc/stm32n6xx_ll_bus.h ****   * @retval None
 524:../Drivers/STM32N6xx_HAL_Driver/Inc/stm32n6xx_ll_bus.h ****   */
ARM GAS  /tmp/ccFnPEzn.s 			page 40


 525:../Drivers/STM32N6xx_HAL_Driver/Inc/stm32n6xx_ll_bus.h **** __STATIC_INLINE void LL_BUS_DisableClock(uint32_t Bus)
 526:../Drivers/STM32N6xx_HAL_Driver/Inc/stm32n6xx_ll_bus.h **** {
 527:../Drivers/STM32N6xx_HAL_Driver/Inc/stm32n6xx_ll_bus.h ****   WRITE_REG(RCC->BUSENCR, Bus);
 528:../Drivers/STM32N6xx_HAL_Driver/Inc/stm32n6xx_ll_bus.h **** }
 529:../Drivers/STM32N6xx_HAL_Driver/Inc/stm32n6xx_ll_bus.h **** 
 530:../Drivers/STM32N6xx_HAL_Driver/Inc/stm32n6xx_ll_bus.h **** /**
 531:../Drivers/STM32N6xx_HAL_Driver/Inc/stm32n6xx_ll_bus.h ****   * @brief  Enable AXI bus clock during Low Power mode.
 532:../Drivers/STM32N6xx_HAL_Driver/Inc/stm32n6xx_ll_bus.h ****   * @rmtoll BUSLPENSR    ACLKNLPENS    LL_BUS_EnableClockLowPower\n
 533:../Drivers/STM32N6xx_HAL_Driver/Inc/stm32n6xx_ll_bus.h ****   *         BUSLPENSR    ACLKNCLPENS   LL_BUS_EnableClockLowPower\n
 534:../Drivers/STM32N6xx_HAL_Driver/Inc/stm32n6xx_ll_bus.h ****   *         BUSLPENSR    AHBMLPENS     LL_BUS_EnableClockLowPower\n
 535:../Drivers/STM32N6xx_HAL_Driver/Inc/stm32n6xx_ll_bus.h ****   *         BUSLPENSR    AHB1LPENS     LL_BUS_EnableClockLowPower\n
 536:../Drivers/STM32N6xx_HAL_Driver/Inc/stm32n6xx_ll_bus.h ****   *         BUSLPENSR    AHB2LPENS     LL_BUS_EnableClockLowPower\n
 537:../Drivers/STM32N6xx_HAL_Driver/Inc/stm32n6xx_ll_bus.h ****   *         BUSLPENSR    AHB3LPENS     LL_BUS_EnableClockLowPower\n
 538:../Drivers/STM32N6xx_HAL_Driver/Inc/stm32n6xx_ll_bus.h ****   *         BUSLPENSR    AHB4LPENS     LL_BUS_EnableClockLowPower\n
 539:../Drivers/STM32N6xx_HAL_Driver/Inc/stm32n6xx_ll_bus.h ****   *         BUSLPENSR    AHB5LPENS     LL_BUS_EnableClockLowPower\n
 540:../Drivers/STM32N6xx_HAL_Driver/Inc/stm32n6xx_ll_bus.h ****   *         BUSLPENSR    APB1LPENS     LL_BUS_EnableClockLowPower\n
 541:../Drivers/STM32N6xx_HAL_Driver/Inc/stm32n6xx_ll_bus.h ****   *         BUSLPENSR    APB2LPENS     LL_BUS_EnableClockLowPower\n
 542:../Drivers/STM32N6xx_HAL_Driver/Inc/stm32n6xx_ll_bus.h ****   *         BUSLPENSR    APB3LPENS     LL_BUS_EnableClockLowPower\n
 543:../Drivers/STM32N6xx_HAL_Driver/Inc/stm32n6xx_ll_bus.h ****   *         BUSLPENSR    APB4LPENS     LL_BUS_EnableClockLowPower\n
 544:../Drivers/STM32N6xx_HAL_Driver/Inc/stm32n6xx_ll_bus.h ****   *         BUSLPENSR    APB5LPENS     LL_BUS_EnableClockLowPower
 545:../Drivers/STM32N6xx_HAL_Driver/Inc/stm32n6xx_ll_bus.h ****   * @param  Bus This parameter can be a combination of the following values:
 546:../Drivers/STM32N6xx_HAL_Driver/Inc/stm32n6xx_ll_bus.h ****   *         @arg @ref LL_ACLKN
 547:../Drivers/STM32N6xx_HAL_Driver/Inc/stm32n6xx_ll_bus.h ****   *         @arg @ref LL_ACLKNC
 548:../Drivers/STM32N6xx_HAL_Driver/Inc/stm32n6xx_ll_bus.h ****   *         @arg @ref LL_AHBM
 549:../Drivers/STM32N6xx_HAL_Driver/Inc/stm32n6xx_ll_bus.h ****   *         @arg @ref LL_AHB1
 550:../Drivers/STM32N6xx_HAL_Driver/Inc/stm32n6xx_ll_bus.h ****   *         @arg @ref LL_AHB2
 551:../Drivers/STM32N6xx_HAL_Driver/Inc/stm32n6xx_ll_bus.h ****   *         @arg @ref LL_AHB3
 552:../Drivers/STM32N6xx_HAL_Driver/Inc/stm32n6xx_ll_bus.h ****   *         @arg @ref LL_AHB4
 553:../Drivers/STM32N6xx_HAL_Driver/Inc/stm32n6xx_ll_bus.h ****   *         @arg @ref LL_AHB5
 554:../Drivers/STM32N6xx_HAL_Driver/Inc/stm32n6xx_ll_bus.h ****   *         @arg @ref LL_APB1
 555:../Drivers/STM32N6xx_HAL_Driver/Inc/stm32n6xx_ll_bus.h ****   *         @arg @ref LL_APB2
 556:../Drivers/STM32N6xx_HAL_Driver/Inc/stm32n6xx_ll_bus.h ****   *         @arg @ref LL_APB3
 557:../Drivers/STM32N6xx_HAL_Driver/Inc/stm32n6xx_ll_bus.h ****   *         @arg @ref LL_APB4
 558:../Drivers/STM32N6xx_HAL_Driver/Inc/stm32n6xx_ll_bus.h ****   *         @arg @ref LL_APB5
 559:../Drivers/STM32N6xx_HAL_Driver/Inc/stm32n6xx_ll_bus.h ****   * @retval None
 560:../Drivers/STM32N6xx_HAL_Driver/Inc/stm32n6xx_ll_bus.h ****   */
 561:../Drivers/STM32N6xx_HAL_Driver/Inc/stm32n6xx_ll_bus.h **** __STATIC_INLINE void LL_BUS_EnableClockLowPower(uint32_t Bus)
 562:../Drivers/STM32N6xx_HAL_Driver/Inc/stm32n6xx_ll_bus.h **** {
 563:../Drivers/STM32N6xx_HAL_Driver/Inc/stm32n6xx_ll_bus.h ****   __IO uint32_t tmpreg;
 564:../Drivers/STM32N6xx_HAL_Driver/Inc/stm32n6xx_ll_bus.h ****   WRITE_REG(RCC->BUSLPENSR, Bus);
 565:../Drivers/STM32N6xx_HAL_Driver/Inc/stm32n6xx_ll_bus.h ****   /* Delay after an RCC bus clock enabling */
 566:../Drivers/STM32N6xx_HAL_Driver/Inc/stm32n6xx_ll_bus.h ****   tmpreg = READ_REG(RCC->BUSLPENR);
 567:../Drivers/STM32N6xx_HAL_Driver/Inc/stm32n6xx_ll_bus.h ****   (void)tmpreg;
 568:../Drivers/STM32N6xx_HAL_Driver/Inc/stm32n6xx_ll_bus.h **** }
 569:../Drivers/STM32N6xx_HAL_Driver/Inc/stm32n6xx_ll_bus.h **** 
 570:../Drivers/STM32N6xx_HAL_Driver/Inc/stm32n6xx_ll_bus.h **** /**
 571:../Drivers/STM32N6xx_HAL_Driver/Inc/stm32n6xx_ll_bus.h ****   * @brief  Check if AXI bus clock during Low Power mode is enabled or not
 572:../Drivers/STM32N6xx_HAL_Driver/Inc/stm32n6xx_ll_bus.h ****   * @rmtoll BUSLPENR       ACLKNLPEN       LL_BUS_IsEnabledClockLowPower\n
 573:../Drivers/STM32N6xx_HAL_Driver/Inc/stm32n6xx_ll_bus.h ****   *         BUSLPENR       ACLKNCLPEN      LL_BUS_IsEnabledClockLowPower\n
 574:../Drivers/STM32N6xx_HAL_Driver/Inc/stm32n6xx_ll_bus.h ****   *         BUSLPENR       AHBMLPEN        LL_BUS_IsEnabledClockLowPower\n
 575:../Drivers/STM32N6xx_HAL_Driver/Inc/stm32n6xx_ll_bus.h ****   *         BUSLPENR       AHB1LPEN        LL_BUS_IsEnabledClockLowPower\n
 576:../Drivers/STM32N6xx_HAL_Driver/Inc/stm32n6xx_ll_bus.h ****   *         BUSLPENR       AHB2LPEN        LL_BUS_IsEnabledClockLowPower\n
 577:../Drivers/STM32N6xx_HAL_Driver/Inc/stm32n6xx_ll_bus.h ****   *         BUSLPENR       AHB3LPEN        LL_BUS_IsEnabledClockLowPower\n
 578:../Drivers/STM32N6xx_HAL_Driver/Inc/stm32n6xx_ll_bus.h ****   *         BUSLPENR       AHB4LPEN        LL_BUS_IsEnabledClockLowPower\n
 579:../Drivers/STM32N6xx_HAL_Driver/Inc/stm32n6xx_ll_bus.h ****   *         BUSLPENR       AHB5LPEN        LL_BUS_IsEnabledClockLowPower\n
 580:../Drivers/STM32N6xx_HAL_Driver/Inc/stm32n6xx_ll_bus.h ****   *         BUSLPENR       APB1LPEN        LL_BUS_IsEnabledClockLowPower\n
 581:../Drivers/STM32N6xx_HAL_Driver/Inc/stm32n6xx_ll_bus.h ****   *         BUSLPENR       APB2LPEN        LL_BUS_IsEnabledClockLowPower\n
ARM GAS  /tmp/ccFnPEzn.s 			page 41


 582:../Drivers/STM32N6xx_HAL_Driver/Inc/stm32n6xx_ll_bus.h ****   *         BUSLPENR       APB3LPEN        LL_BUS_IsEnabledClockLowPower\n
 583:../Drivers/STM32N6xx_HAL_Driver/Inc/stm32n6xx_ll_bus.h ****   *         BUSLPENR       APB4LPEN        LL_BUS_IsEnabledClockLowPower\n
 584:../Drivers/STM32N6xx_HAL_Driver/Inc/stm32n6xx_ll_bus.h ****   *         BUSLPENR       APB5LPEN        LL_BUS_IsEnabledClockLowPower
 585:../Drivers/STM32N6xx_HAL_Driver/Inc/stm32n6xx_ll_bus.h ****   * @param  Bus This parameter can be a combination of the following values:
 586:../Drivers/STM32N6xx_HAL_Driver/Inc/stm32n6xx_ll_bus.h ****   *         @arg @ref LL_ACLKN
 587:../Drivers/STM32N6xx_HAL_Driver/Inc/stm32n6xx_ll_bus.h ****   *         @arg @ref LL_ACLKNC
 588:../Drivers/STM32N6xx_HAL_Driver/Inc/stm32n6xx_ll_bus.h ****   *         @arg @ref LL_AHBM
 589:../Drivers/STM32N6xx_HAL_Driver/Inc/stm32n6xx_ll_bus.h ****   *         @arg @ref LL_AHB1
 590:../Drivers/STM32N6xx_HAL_Driver/Inc/stm32n6xx_ll_bus.h ****   *         @arg @ref LL_AHB2
 591:../Drivers/STM32N6xx_HAL_Driver/Inc/stm32n6xx_ll_bus.h ****   *         @arg @ref LL_AHB3
 592:../Drivers/STM32N6xx_HAL_Driver/Inc/stm32n6xx_ll_bus.h ****   *         @arg @ref LL_AHB4
 593:../Drivers/STM32N6xx_HAL_Driver/Inc/stm32n6xx_ll_bus.h ****   *         @arg @ref LL_AHB5
 594:../Drivers/STM32N6xx_HAL_Driver/Inc/stm32n6xx_ll_bus.h ****   *         @arg @ref LL_APB1
 595:../Drivers/STM32N6xx_HAL_Driver/Inc/stm32n6xx_ll_bus.h ****   *         @arg @ref LL_APB2
 596:../Drivers/STM32N6xx_HAL_Driver/Inc/stm32n6xx_ll_bus.h ****   *         @arg @ref LL_APB3
 597:../Drivers/STM32N6xx_HAL_Driver/Inc/stm32n6xx_ll_bus.h ****   *         @arg @ref LL_APB4
 598:../Drivers/STM32N6xx_HAL_Driver/Inc/stm32n6xx_ll_bus.h ****   *         @arg @ref LL_APB5
 599:../Drivers/STM32N6xx_HAL_Driver/Inc/stm32n6xx_ll_bus.h ****   * @retval uint32_t
 600:../Drivers/STM32N6xx_HAL_Driver/Inc/stm32n6xx_ll_bus.h ****   */
 601:../Drivers/STM32N6xx_HAL_Driver/Inc/stm32n6xx_ll_bus.h **** __STATIC_INLINE uint32_t LL_BUS_IsEnabledClockLowPower(uint32_t Bus)
 602:../Drivers/STM32N6xx_HAL_Driver/Inc/stm32n6xx_ll_bus.h **** {
 603:../Drivers/STM32N6xx_HAL_Driver/Inc/stm32n6xx_ll_bus.h ****   return ((READ_BIT(RCC->BUSLPENR, Bus) == Bus) ? 1UL : 0UL);
 604:../Drivers/STM32N6xx_HAL_Driver/Inc/stm32n6xx_ll_bus.h **** }
 605:../Drivers/STM32N6xx_HAL_Driver/Inc/stm32n6xx_ll_bus.h **** 
 606:../Drivers/STM32N6xx_HAL_Driver/Inc/stm32n6xx_ll_bus.h **** /**
 607:../Drivers/STM32N6xx_HAL_Driver/Inc/stm32n6xx_ll_bus.h ****   * @brief  Disable AXI bus clock during Low Power mode.
 608:../Drivers/STM32N6xx_HAL_Driver/Inc/stm32n6xx_ll_bus.h ****   * @rmtoll BUSLPENCR    ACLKNLPENC    LL_BUS_DisableClockLowPower\n
 609:../Drivers/STM32N6xx_HAL_Driver/Inc/stm32n6xx_ll_bus.h ****   *         BUSLPENCR    ACLKNCLPENC   LL_BUS_DisableClockLowPower\n
 610:../Drivers/STM32N6xx_HAL_Driver/Inc/stm32n6xx_ll_bus.h ****   *         BUSLPENCR    AHBMLPENC     LL_BUS_DisableClockLowPower\n
 611:../Drivers/STM32N6xx_HAL_Driver/Inc/stm32n6xx_ll_bus.h ****   *         BUSLPENCR    AHB1LPENC     LL_BUS_DisableClockLowPower\n
 612:../Drivers/STM32N6xx_HAL_Driver/Inc/stm32n6xx_ll_bus.h ****   *         BUSLPENCR    AHB2LPENC     LL_BUS_DisableClockLowPower\n
 613:../Drivers/STM32N6xx_HAL_Driver/Inc/stm32n6xx_ll_bus.h ****   *         BUSLPENCR    AHB3LPENC     LL_BUS_DisableClockLowPower\n
 614:../Drivers/STM32N6xx_HAL_Driver/Inc/stm32n6xx_ll_bus.h ****   *         BUSLPENCR    AHB4LPENC     LL_BUS_DisableClockLowPower\n
 615:../Drivers/STM32N6xx_HAL_Driver/Inc/stm32n6xx_ll_bus.h ****   *         BUSLPENCR    AHB5LPENC     LL_BUS_DisableClockLowPower\n
 616:../Drivers/STM32N6xx_HAL_Driver/Inc/stm32n6xx_ll_bus.h ****   *         BUSLPENCR    APB1LPENC     LL_BUS_DisableClockLowPower\n
 617:../Drivers/STM32N6xx_HAL_Driver/Inc/stm32n6xx_ll_bus.h ****   *         BUSLPENCR    APB2LPENC     LL_BUS_DisableClockLowPower\n
 618:../Drivers/STM32N6xx_HAL_Driver/Inc/stm32n6xx_ll_bus.h ****   *         BUSLPENCR    APB3LPENC     LL_BUS_DisableClockLowPower\n
 619:../Drivers/STM32N6xx_HAL_Driver/Inc/stm32n6xx_ll_bus.h ****   *         BUSLPENCR    APB4LPENC     LL_BUS_DisableClockLowPower\n
 620:../Drivers/STM32N6xx_HAL_Driver/Inc/stm32n6xx_ll_bus.h ****   *         BUSLPENCR    APB5LPENC     LL_BUS_DisableClockLowPower
 621:../Drivers/STM32N6xx_HAL_Driver/Inc/stm32n6xx_ll_bus.h ****   * @param  Bus This parameter can be a combination of the following values:
 622:../Drivers/STM32N6xx_HAL_Driver/Inc/stm32n6xx_ll_bus.h ****   *         @arg @ref LL_ACLKN
 623:../Drivers/STM32N6xx_HAL_Driver/Inc/stm32n6xx_ll_bus.h ****   *         @arg @ref LL_ACLKNC
 624:../Drivers/STM32N6xx_HAL_Driver/Inc/stm32n6xx_ll_bus.h ****   *         @arg @ref LL_AHBM
 625:../Drivers/STM32N6xx_HAL_Driver/Inc/stm32n6xx_ll_bus.h ****   *         @arg @ref LL_AHB1
 626:../Drivers/STM32N6xx_HAL_Driver/Inc/stm32n6xx_ll_bus.h ****   *         @arg @ref LL_AHB2
 627:../Drivers/STM32N6xx_HAL_Driver/Inc/stm32n6xx_ll_bus.h ****   *         @arg @ref LL_AHB3
 628:../Drivers/STM32N6xx_HAL_Driver/Inc/stm32n6xx_ll_bus.h ****   *         @arg @ref LL_AHB4
 629:../Drivers/STM32N6xx_HAL_Driver/Inc/stm32n6xx_ll_bus.h ****   *         @arg @ref LL_AHB5
 630:../Drivers/STM32N6xx_HAL_Driver/Inc/stm32n6xx_ll_bus.h ****   *         @arg @ref LL_APB1
 631:../Drivers/STM32N6xx_HAL_Driver/Inc/stm32n6xx_ll_bus.h ****   *         @arg @ref LL_APB2
 632:../Drivers/STM32N6xx_HAL_Driver/Inc/stm32n6xx_ll_bus.h ****   *         @arg @ref LL_APB3
 633:../Drivers/STM32N6xx_HAL_Driver/Inc/stm32n6xx_ll_bus.h ****   *         @arg @ref LL_APB4
 634:../Drivers/STM32N6xx_HAL_Driver/Inc/stm32n6xx_ll_bus.h ****   *         @arg @ref LL_APB5
 635:../Drivers/STM32N6xx_HAL_Driver/Inc/stm32n6xx_ll_bus.h ****   * @retval None
 636:../Drivers/STM32N6xx_HAL_Driver/Inc/stm32n6xx_ll_bus.h ****   */
 637:../Drivers/STM32N6xx_HAL_Driver/Inc/stm32n6xx_ll_bus.h **** __STATIC_INLINE void LL_BUS_DisableClockLowPower(uint32_t Bus)
 638:../Drivers/STM32N6xx_HAL_Driver/Inc/stm32n6xx_ll_bus.h **** {
ARM GAS  /tmp/ccFnPEzn.s 			page 42


 639:../Drivers/STM32N6xx_HAL_Driver/Inc/stm32n6xx_ll_bus.h ****   WRITE_REG(RCC->BUSLPENCR, Bus);
 640:../Drivers/STM32N6xx_HAL_Driver/Inc/stm32n6xx_ll_bus.h **** }
 641:../Drivers/STM32N6xx_HAL_Driver/Inc/stm32n6xx_ll_bus.h **** 
 642:../Drivers/STM32N6xx_HAL_Driver/Inc/stm32n6xx_ll_bus.h **** /**
 643:../Drivers/STM32N6xx_HAL_Driver/Inc/stm32n6xx_ll_bus.h ****   * @}
 644:../Drivers/STM32N6xx_HAL_Driver/Inc/stm32n6xx_ll_bus.h ****   */
 645:../Drivers/STM32N6xx_HAL_Driver/Inc/stm32n6xx_ll_bus.h **** 
 646:../Drivers/STM32N6xx_HAL_Driver/Inc/stm32n6xx_ll_bus.h **** /** @defgroup BUS_LL_EF_MEM MEM
 647:../Drivers/STM32N6xx_HAL_Driver/Inc/stm32n6xx_ll_bus.h ****   * @{
 648:../Drivers/STM32N6xx_HAL_Driver/Inc/stm32n6xx_ll_bus.h ****   */
 649:../Drivers/STM32N6xx_HAL_Driver/Inc/stm32n6xx_ll_bus.h **** 
 650:../Drivers/STM32N6xx_HAL_Driver/Inc/stm32n6xx_ll_bus.h **** /**
 651:../Drivers/STM32N6xx_HAL_Driver/Inc/stm32n6xx_ll_bus.h ****   * @brief  Enable memories clock.
 652:../Drivers/STM32N6xx_HAL_Driver/Inc/stm32n6xx_ll_bus.h ****   * @rmtoll MEMENSR      AXISRAM1ENS   LL_MEM_EnableClock\n
 653:../Drivers/STM32N6xx_HAL_Driver/Inc/stm32n6xx_ll_bus.h ****   *         MEMENSR      AXISRAM2ENS   LL_MEM_EnableClock\n
 654:../Drivers/STM32N6xx_HAL_Driver/Inc/stm32n6xx_ll_bus.h ****   *         MEMENSR      AXISRAM3ENS   LL_MEM_EnableClock\n
 655:../Drivers/STM32N6xx_HAL_Driver/Inc/stm32n6xx_ll_bus.h ****   *         MEMENSR      AXISRAM4ENS   LL_MEM_EnableClock\n
 656:../Drivers/STM32N6xx_HAL_Driver/Inc/stm32n6xx_ll_bus.h ****   *         MEMENSR      AXISRAM5ENS   LL_MEM_EnableClock\n
 657:../Drivers/STM32N6xx_HAL_Driver/Inc/stm32n6xx_ll_bus.h ****   *         MEMENSR      AXISRAM6ENS   LL_MEM_EnableClock\n
 658:../Drivers/STM32N6xx_HAL_Driver/Inc/stm32n6xx_ll_bus.h ****   *         MEMENSR      AHBSRAM1ENS   LL_MEM_EnableClock\n
 659:../Drivers/STM32N6xx_HAL_Driver/Inc/stm32n6xx_ll_bus.h ****   *         MEMENSR      AHBSRAM2ENS   LL_MEM_EnableClock\n
 660:../Drivers/STM32N6xx_HAL_Driver/Inc/stm32n6xx_ll_bus.h ****   *         MEMENSR      BKPSRAMENS    LL_MEM_EnableClock\n
 661:../Drivers/STM32N6xx_HAL_Driver/Inc/stm32n6xx_ll_bus.h ****   *         MEMENSR      FLEXRAMENS    LL_MEM_EnableClock\n
 662:../Drivers/STM32N6xx_HAL_Driver/Inc/stm32n6xx_ll_bus.h ****   *         MEMENSR      CACHEAXIRAMENS LL_MEM_EnableClock\n
 663:../Drivers/STM32N6xx_HAL_Driver/Inc/stm32n6xx_ll_bus.h ****   *         MEMENSR      VENCRAMENS    LL_MEM_EnableClock
 664:../Drivers/STM32N6xx_HAL_Driver/Inc/stm32n6xx_ll_bus.h ****   * @param  Memories This parameter can be a combination of the following values:
 665:../Drivers/STM32N6xx_HAL_Driver/Inc/stm32n6xx_ll_bus.h ****   *         @arg @ref LL_MEM_AXISRAM1
 666:../Drivers/STM32N6xx_HAL_Driver/Inc/stm32n6xx_ll_bus.h ****   *         @arg @ref LL_MEM_AXISRAM2
 667:../Drivers/STM32N6xx_HAL_Driver/Inc/stm32n6xx_ll_bus.h ****   *         @arg @ref LL_MEM_AXISRAM3
 668:../Drivers/STM32N6xx_HAL_Driver/Inc/stm32n6xx_ll_bus.h ****   *         @arg @ref LL_MEM_AXISRAM4
 669:../Drivers/STM32N6xx_HAL_Driver/Inc/stm32n6xx_ll_bus.h ****   *         @arg @ref LL_MEM_AXISRAM5
 670:../Drivers/STM32N6xx_HAL_Driver/Inc/stm32n6xx_ll_bus.h ****   *         @arg @ref LL_MEM_AXISRAM6
 671:../Drivers/STM32N6xx_HAL_Driver/Inc/stm32n6xx_ll_bus.h ****   *         @arg @ref LL_MEM_AHBSRAM1
 672:../Drivers/STM32N6xx_HAL_Driver/Inc/stm32n6xx_ll_bus.h ****   *         @arg @ref LL_MEM_AHBSRAM2
 673:../Drivers/STM32N6xx_HAL_Driver/Inc/stm32n6xx_ll_bus.h ****   *         @arg @ref LL_MEM_BKPSRAM
 674:../Drivers/STM32N6xx_HAL_Driver/Inc/stm32n6xx_ll_bus.h ****   *         @arg @ref LL_MEM_FLEXRAM
 675:../Drivers/STM32N6xx_HAL_Driver/Inc/stm32n6xx_ll_bus.h ****   *         @arg @ref LL_MEM_CACHEAXIRAM
 676:../Drivers/STM32N6xx_HAL_Driver/Inc/stm32n6xx_ll_bus.h ****   *         @arg @ref LL_MEM_VENCRAM
 677:../Drivers/STM32N6xx_HAL_Driver/Inc/stm32n6xx_ll_bus.h ****   * @retval None
 678:../Drivers/STM32N6xx_HAL_Driver/Inc/stm32n6xx_ll_bus.h ****   */
 679:../Drivers/STM32N6xx_HAL_Driver/Inc/stm32n6xx_ll_bus.h **** __STATIC_INLINE void LL_MEM_EnableClock(uint32_t Memories)
 680:../Drivers/STM32N6xx_HAL_Driver/Inc/stm32n6xx_ll_bus.h **** {
 681:../Drivers/STM32N6xx_HAL_Driver/Inc/stm32n6xx_ll_bus.h ****   __IO uint32_t tmpreg;
 682:../Drivers/STM32N6xx_HAL_Driver/Inc/stm32n6xx_ll_bus.h ****   WRITE_REG(RCC->MEMENSR, Memories);
 683:../Drivers/STM32N6xx_HAL_Driver/Inc/stm32n6xx_ll_bus.h ****   /* Delay after an RCC memories clock enabling */
 684:../Drivers/STM32N6xx_HAL_Driver/Inc/stm32n6xx_ll_bus.h ****   tmpreg = READ_REG(RCC->MEMENR);
 685:../Drivers/STM32N6xx_HAL_Driver/Inc/stm32n6xx_ll_bus.h ****   (void)tmpreg;
 686:../Drivers/STM32N6xx_HAL_Driver/Inc/stm32n6xx_ll_bus.h **** }
 687:../Drivers/STM32N6xx_HAL_Driver/Inc/stm32n6xx_ll_bus.h **** 
 688:../Drivers/STM32N6xx_HAL_Driver/Inc/stm32n6xx_ll_bus.h **** /**
 689:../Drivers/STM32N6xx_HAL_Driver/Inc/stm32n6xx_ll_bus.h ****   * @brief  Check if memory clock is enabled or not
 690:../Drivers/STM32N6xx_HAL_Driver/Inc/stm32n6xx_ll_bus.h ****   * @rmtoll MEMENR       AXISRAM1EN    LL_MEM_IsEnabledClock\n
 691:../Drivers/STM32N6xx_HAL_Driver/Inc/stm32n6xx_ll_bus.h ****   *         MEMENR       AXISRAM2EN    LL_MEM_IsEnabledClock\n
 692:../Drivers/STM32N6xx_HAL_Driver/Inc/stm32n6xx_ll_bus.h ****   *         MEMENR       AXISRAM3EN    LL_MEM_IsEnabledClock\n
 693:../Drivers/STM32N6xx_HAL_Driver/Inc/stm32n6xx_ll_bus.h ****   *         MEMENR       AXISRAM4EN    LL_MEM_IsEnabledClock\n
 694:../Drivers/STM32N6xx_HAL_Driver/Inc/stm32n6xx_ll_bus.h ****   *         MEMENR       AXISRAM5EN    LL_MEM_IsEnabledClock\n
 695:../Drivers/STM32N6xx_HAL_Driver/Inc/stm32n6xx_ll_bus.h ****   *         MEMENR       AXISRAM6EN    LL_MEM_IsEnabledClock\n
ARM GAS  /tmp/ccFnPEzn.s 			page 43


 696:../Drivers/STM32N6xx_HAL_Driver/Inc/stm32n6xx_ll_bus.h ****   *         MEMENR       AHBSRAM1EN    LL_MEM_IsEnabledClock\n
 697:../Drivers/STM32N6xx_HAL_Driver/Inc/stm32n6xx_ll_bus.h ****   *         MEMENR       AHBSRAM2EN    LL_MEM_IsEnabledClock\n
 698:../Drivers/STM32N6xx_HAL_Driver/Inc/stm32n6xx_ll_bus.h ****   *         MEMENR       BKPSRAMEN     LL_MEM_IsEnabledClock\n
 699:../Drivers/STM32N6xx_HAL_Driver/Inc/stm32n6xx_ll_bus.h ****   *         MEMENR       FLEXRAMEN     LL_MEM_IsEnabledClock\n
 700:../Drivers/STM32N6xx_HAL_Driver/Inc/stm32n6xx_ll_bus.h ****   *         MEMENR       CACHEAXIRAMEN LL_MEM_IsEnabledClock\n
 701:../Drivers/STM32N6xx_HAL_Driver/Inc/stm32n6xx_ll_bus.h ****   *         MEMENR       VENCRAMEN     LL_MEM_IsEnabledClock
 702:../Drivers/STM32N6xx_HAL_Driver/Inc/stm32n6xx_ll_bus.h ****   * @param  Memories This parameter can be a combination of the following values:
 703:../Drivers/STM32N6xx_HAL_Driver/Inc/stm32n6xx_ll_bus.h ****   *         @arg @ref LL_MEM_AXISRAM1
 704:../Drivers/STM32N6xx_HAL_Driver/Inc/stm32n6xx_ll_bus.h ****   *         @arg @ref LL_MEM_AXISRAM2
 705:../Drivers/STM32N6xx_HAL_Driver/Inc/stm32n6xx_ll_bus.h ****   *         @arg @ref LL_MEM_AXISRAM3
 706:../Drivers/STM32N6xx_HAL_Driver/Inc/stm32n6xx_ll_bus.h ****   *         @arg @ref LL_MEM_AXISRAM4
 707:../Drivers/STM32N6xx_HAL_Driver/Inc/stm32n6xx_ll_bus.h ****   *         @arg @ref LL_MEM_AXISRAM5
 708:../Drivers/STM32N6xx_HAL_Driver/Inc/stm32n6xx_ll_bus.h ****   *         @arg @ref LL_MEM_AXISRAM6
 709:../Drivers/STM32N6xx_HAL_Driver/Inc/stm32n6xx_ll_bus.h ****   *         @arg @ref LL_MEM_AHBSRAM1
 710:../Drivers/STM32N6xx_HAL_Driver/Inc/stm32n6xx_ll_bus.h ****   *         @arg @ref LL_MEM_AHBSRAM2
 711:../Drivers/STM32N6xx_HAL_Driver/Inc/stm32n6xx_ll_bus.h ****   *         @arg @ref LL_MEM_BKPSRAM
 712:../Drivers/STM32N6xx_HAL_Driver/Inc/stm32n6xx_ll_bus.h ****   *         @arg @ref LL_MEM_FLEXRAM
 713:../Drivers/STM32N6xx_HAL_Driver/Inc/stm32n6xx_ll_bus.h ****   *         @arg @ref LL_MEM_CACHEAXIRAM
 714:../Drivers/STM32N6xx_HAL_Driver/Inc/stm32n6xx_ll_bus.h ****   *         @arg @ref LL_MEM_VENCRAM
 715:../Drivers/STM32N6xx_HAL_Driver/Inc/stm32n6xx_ll_bus.h ****   * @retval uint32_t
 716:../Drivers/STM32N6xx_HAL_Driver/Inc/stm32n6xx_ll_bus.h ****   */
 717:../Drivers/STM32N6xx_HAL_Driver/Inc/stm32n6xx_ll_bus.h **** __STATIC_INLINE uint32_t LL_MEM_IsEnabledClock(uint32_t Memories)
 718:../Drivers/STM32N6xx_HAL_Driver/Inc/stm32n6xx_ll_bus.h **** {
 719:../Drivers/STM32N6xx_HAL_Driver/Inc/stm32n6xx_ll_bus.h ****   return ((READ_BIT(RCC->MEMENR, Memories) == Memories) ? 1UL : 0UL);
 720:../Drivers/STM32N6xx_HAL_Driver/Inc/stm32n6xx_ll_bus.h **** }
 721:../Drivers/STM32N6xx_HAL_Driver/Inc/stm32n6xx_ll_bus.h **** 
 722:../Drivers/STM32N6xx_HAL_Driver/Inc/stm32n6xx_ll_bus.h **** /**
 723:../Drivers/STM32N6xx_HAL_Driver/Inc/stm32n6xx_ll_bus.h ****   * @brief  Disable memories clock.
 724:../Drivers/STM32N6xx_HAL_Driver/Inc/stm32n6xx_ll_bus.h ****   * @rmtoll MEMENCR      AXISRAM1ENC   LL_MEM_DisableClock\n
 725:../Drivers/STM32N6xx_HAL_Driver/Inc/stm32n6xx_ll_bus.h ****   *         MEMENCR      AXISRAM2ENC   LL_MEM_DisableClock\n
 726:../Drivers/STM32N6xx_HAL_Driver/Inc/stm32n6xx_ll_bus.h ****   *         MEMENCR      AXISRAM3ENC   LL_MEM_DisableClock\n
 727:../Drivers/STM32N6xx_HAL_Driver/Inc/stm32n6xx_ll_bus.h ****   *         MEMENCR      AXISRAM4ENC   LL_MEM_DisableClock\n
 728:../Drivers/STM32N6xx_HAL_Driver/Inc/stm32n6xx_ll_bus.h ****   *         MEMENCR      AXISRAM5ENC   LL_MEM_DisableClock\n
 729:../Drivers/STM32N6xx_HAL_Driver/Inc/stm32n6xx_ll_bus.h ****   *         MEMENCR      AXISRAM6ENC   LL_MEM_DisableClock\n
 730:../Drivers/STM32N6xx_HAL_Driver/Inc/stm32n6xx_ll_bus.h ****   *         MEMENCR      AHBSRAM1ENC   LL_MEM_DisableClock\n
 731:../Drivers/STM32N6xx_HAL_Driver/Inc/stm32n6xx_ll_bus.h ****   *         MEMENCR      AHBSRAM2ENC   LL_MEM_DisableClock\n
 732:../Drivers/STM32N6xx_HAL_Driver/Inc/stm32n6xx_ll_bus.h ****   *         MEMENCR      BKPSRAMENC    LL_MEM_DisableClock\n
 733:../Drivers/STM32N6xx_HAL_Driver/Inc/stm32n6xx_ll_bus.h ****   *         MEMENCR      FLEXRAMENC    LL_MEM_DisableClock\n
 734:../Drivers/STM32N6xx_HAL_Driver/Inc/stm32n6xx_ll_bus.h ****   *         MEMENCR      CACHEAXIRAMENC LL_MEM_DisableClock\n
 735:../Drivers/STM32N6xx_HAL_Driver/Inc/stm32n6xx_ll_bus.h ****   *         MEMENCR      VENCRAMENC    LL_MEM_DisableClock
 736:../Drivers/STM32N6xx_HAL_Driver/Inc/stm32n6xx_ll_bus.h ****   * @param  Memories This parameter can be a combination of the following values:
 737:../Drivers/STM32N6xx_HAL_Driver/Inc/stm32n6xx_ll_bus.h ****   *         @arg @ref LL_MEM_AXISRAM1
 738:../Drivers/STM32N6xx_HAL_Driver/Inc/stm32n6xx_ll_bus.h ****   *         @arg @ref LL_MEM_AXISRAM2
 739:../Drivers/STM32N6xx_HAL_Driver/Inc/stm32n6xx_ll_bus.h ****   *         @arg @ref LL_MEM_AXISRAM3
 740:../Drivers/STM32N6xx_HAL_Driver/Inc/stm32n6xx_ll_bus.h ****   *         @arg @ref LL_MEM_AXISRAM4
 741:../Drivers/STM32N6xx_HAL_Driver/Inc/stm32n6xx_ll_bus.h ****   *         @arg @ref LL_MEM_AXISRAM5
 742:../Drivers/STM32N6xx_HAL_Driver/Inc/stm32n6xx_ll_bus.h ****   *         @arg @ref LL_MEM_AXISRAM6
 743:../Drivers/STM32N6xx_HAL_Driver/Inc/stm32n6xx_ll_bus.h ****   *         @arg @ref LL_MEM_AHBSRAM1
 744:../Drivers/STM32N6xx_HAL_Driver/Inc/stm32n6xx_ll_bus.h ****   *         @arg @ref LL_MEM_AHBSRAM2
 745:../Drivers/STM32N6xx_HAL_Driver/Inc/stm32n6xx_ll_bus.h ****   *         @arg @ref LL_MEM_BKPSRAM
 746:../Drivers/STM32N6xx_HAL_Driver/Inc/stm32n6xx_ll_bus.h ****   *         @arg @ref LL_MEM_FLEXRAM
 747:../Drivers/STM32N6xx_HAL_Driver/Inc/stm32n6xx_ll_bus.h ****   *         @arg @ref LL_MEM_CACHEAXIRAM
 748:../Drivers/STM32N6xx_HAL_Driver/Inc/stm32n6xx_ll_bus.h ****   *         @arg @ref LL_MEM_VENCRAM
 749:../Drivers/STM32N6xx_HAL_Driver/Inc/stm32n6xx_ll_bus.h ****   * @retval None
 750:../Drivers/STM32N6xx_HAL_Driver/Inc/stm32n6xx_ll_bus.h ****   */
 751:../Drivers/STM32N6xx_HAL_Driver/Inc/stm32n6xx_ll_bus.h **** __STATIC_INLINE void LL_MEM_DisableClock(uint32_t Memories)
 752:../Drivers/STM32N6xx_HAL_Driver/Inc/stm32n6xx_ll_bus.h **** {
ARM GAS  /tmp/ccFnPEzn.s 			page 44


 753:../Drivers/STM32N6xx_HAL_Driver/Inc/stm32n6xx_ll_bus.h ****   WRITE_REG(RCC->MEMENCR, Memories);
 754:../Drivers/STM32N6xx_HAL_Driver/Inc/stm32n6xx_ll_bus.h **** }
 755:../Drivers/STM32N6xx_HAL_Driver/Inc/stm32n6xx_ll_bus.h **** 
 756:../Drivers/STM32N6xx_HAL_Driver/Inc/stm32n6xx_ll_bus.h **** /**
 757:../Drivers/STM32N6xx_HAL_Driver/Inc/stm32n6xx_ll_bus.h ****   * @brief  Enable memories clock during Low Power mode.
 758:../Drivers/STM32N6xx_HAL_Driver/Inc/stm32n6xx_ll_bus.h ****   * @rmtoll MEMLPENSR    AXISRAM1LPENS LL_MEM_EnableClockLowPower\n
 759:../Drivers/STM32N6xx_HAL_Driver/Inc/stm32n6xx_ll_bus.h ****   *         MEMLPENSR    AXISRAM2LPENS LL_MEM_EnableClockLowPower\n
 760:../Drivers/STM32N6xx_HAL_Driver/Inc/stm32n6xx_ll_bus.h ****   *         MEMLPENSR    AXISRAM3LPENS LL_MEM_EnableClockLowPower\n
 761:../Drivers/STM32N6xx_HAL_Driver/Inc/stm32n6xx_ll_bus.h ****   *         MEMLPENSR    AXISRAM4LPENS LL_MEM_EnableClockLowPower\n
 762:../Drivers/STM32N6xx_HAL_Driver/Inc/stm32n6xx_ll_bus.h ****   *         MEMLPENSR    AXISRAM5LPENS LL_MEM_EnableClockLowPower\n
 763:../Drivers/STM32N6xx_HAL_Driver/Inc/stm32n6xx_ll_bus.h ****   *         MEMLPENSR    AXISRAM6LPENS LL_MEM_EnableClockLowPower\n
 764:../Drivers/STM32N6xx_HAL_Driver/Inc/stm32n6xx_ll_bus.h ****   *         MEMLPENSR    AHBSRAM1LPENS LL_MEM_EnableClockLowPower\n
 765:../Drivers/STM32N6xx_HAL_Driver/Inc/stm32n6xx_ll_bus.h ****   *         MEMLPENSR    AHBSRAM2LPENS LL_MEM_EnableClockLowPower\n
 766:../Drivers/STM32N6xx_HAL_Driver/Inc/stm32n6xx_ll_bus.h ****   *         MEMLPENSR    BKPSRAMLPENS  LL_MEM_EnableClockLowPower\n
 767:../Drivers/STM32N6xx_HAL_Driver/Inc/stm32n6xx_ll_bus.h ****   *         MEMLPENSR    FLEXRAMLPENS  LL_MEM_EnableClockLowPower\n
 768:../Drivers/STM32N6xx_HAL_Driver/Inc/stm32n6xx_ll_bus.h ****   *         MEMLPENSR    CACHEAXIRAMLPENS LL_MEM_EnableClockLowPower\n
 769:../Drivers/STM32N6xx_HAL_Driver/Inc/stm32n6xx_ll_bus.h ****   *         MEMLPENSR    VENCRAMLPENS  LL_MEM_EnableClockLowPower
 770:../Drivers/STM32N6xx_HAL_Driver/Inc/stm32n6xx_ll_bus.h ****   * @param  Memories This parameter can be a combination of the following values:
 771:../Drivers/STM32N6xx_HAL_Driver/Inc/stm32n6xx_ll_bus.h ****   *         @arg @ref LL_MEM_AXISRAM1
 772:../Drivers/STM32N6xx_HAL_Driver/Inc/stm32n6xx_ll_bus.h ****   *         @arg @ref LL_MEM_AXISRAM2
 773:../Drivers/STM32N6xx_HAL_Driver/Inc/stm32n6xx_ll_bus.h ****   *         @arg @ref LL_MEM_AXISRAM3
 774:../Drivers/STM32N6xx_HAL_Driver/Inc/stm32n6xx_ll_bus.h ****   *         @arg @ref LL_MEM_AXISRAM4
 775:../Drivers/STM32N6xx_HAL_Driver/Inc/stm32n6xx_ll_bus.h ****   *         @arg @ref LL_MEM_AXISRAM5
 776:../Drivers/STM32N6xx_HAL_Driver/Inc/stm32n6xx_ll_bus.h ****   *         @arg @ref LL_MEM_AXISRAM6
 777:../Drivers/STM32N6xx_HAL_Driver/Inc/stm32n6xx_ll_bus.h ****   *         @arg @ref LL_MEM_AHBSRAM1
 778:../Drivers/STM32N6xx_HAL_Driver/Inc/stm32n6xx_ll_bus.h ****   *         @arg @ref LL_MEM_AHBSRAM2
 779:../Drivers/STM32N6xx_HAL_Driver/Inc/stm32n6xx_ll_bus.h ****   *         @arg @ref LL_MEM_BKPSRAM
 780:../Drivers/STM32N6xx_HAL_Driver/Inc/stm32n6xx_ll_bus.h ****   *         @arg @ref LL_MEM_FLEXRAM
 781:../Drivers/STM32N6xx_HAL_Driver/Inc/stm32n6xx_ll_bus.h ****   *         @arg @ref LL_MEM_CACHEAXIRAM
 782:../Drivers/STM32N6xx_HAL_Driver/Inc/stm32n6xx_ll_bus.h ****   *         @arg @ref LL_MEM_VENCRAM
 783:../Drivers/STM32N6xx_HAL_Driver/Inc/stm32n6xx_ll_bus.h ****   * @retval None
 784:../Drivers/STM32N6xx_HAL_Driver/Inc/stm32n6xx_ll_bus.h ****   */
 785:../Drivers/STM32N6xx_HAL_Driver/Inc/stm32n6xx_ll_bus.h **** __STATIC_INLINE void LL_MEM_EnableClockLowPower(uint32_t Memories)
 786:../Drivers/STM32N6xx_HAL_Driver/Inc/stm32n6xx_ll_bus.h **** {
 787:../Drivers/STM32N6xx_HAL_Driver/Inc/stm32n6xx_ll_bus.h ****   __IO uint32_t tmpreg;
 788:../Drivers/STM32N6xx_HAL_Driver/Inc/stm32n6xx_ll_bus.h ****   WRITE_REG(RCC->MEMLPENSR, Memories);
 789:../Drivers/STM32N6xx_HAL_Driver/Inc/stm32n6xx_ll_bus.h ****   /* Delay after an RCC memories clock enabling */
 790:../Drivers/STM32N6xx_HAL_Driver/Inc/stm32n6xx_ll_bus.h ****   tmpreg = READ_REG(RCC->MEMLPENR);
 791:../Drivers/STM32N6xx_HAL_Driver/Inc/stm32n6xx_ll_bus.h ****   (void)tmpreg;
 792:../Drivers/STM32N6xx_HAL_Driver/Inc/stm32n6xx_ll_bus.h **** }
 793:../Drivers/STM32N6xx_HAL_Driver/Inc/stm32n6xx_ll_bus.h **** 
 794:../Drivers/STM32N6xx_HAL_Driver/Inc/stm32n6xx_ll_bus.h **** /**
 795:../Drivers/STM32N6xx_HAL_Driver/Inc/stm32n6xx_ll_bus.h ****   * @brief  Check if memories clock during Low Power mode is enabled or not .
 796:../Drivers/STM32N6xx_HAL_Driver/Inc/stm32n6xx_ll_bus.h ****   * @rmtoll MEMLPENR      AXISRAM1LPEN    LL_MEM_IsEnabledClockLowPower\n
 797:../Drivers/STM32N6xx_HAL_Driver/Inc/stm32n6xx_ll_bus.h ****   *         MEMLPENR      AXISRAM2LPEN    LL_MEM_IsEnabledClockLowPower\n
 798:../Drivers/STM32N6xx_HAL_Driver/Inc/stm32n6xx_ll_bus.h ****   *         MEMLPENR      AXISRAM3LPEN    LL_MEM_IsEnabledClockLowPower\n
 799:../Drivers/STM32N6xx_HAL_Driver/Inc/stm32n6xx_ll_bus.h ****   *         MEMLPENR      AXISRAM4LPEN    LL_MEM_IsEnabledClockLowPower\n
 800:../Drivers/STM32N6xx_HAL_Driver/Inc/stm32n6xx_ll_bus.h ****   *         MEMLPENR      AXISRAM5LPEN    LL_MEM_IsEnabledClockLowPower\n
 801:../Drivers/STM32N6xx_HAL_Driver/Inc/stm32n6xx_ll_bus.h ****   *         MEMLPENR      AXISRAM6LPEN    LL_MEM_IsEnabledClockLowPower\n
 802:../Drivers/STM32N6xx_HAL_Driver/Inc/stm32n6xx_ll_bus.h ****   *         MEMLPENR      AHBSRAM1LPEN    LL_MEM_IsEnabledClockLowPower\n
 803:../Drivers/STM32N6xx_HAL_Driver/Inc/stm32n6xx_ll_bus.h ****   *         MEMLPENR      AHBSRAM2LPEN    LL_MEM_IsEnabledClockLowPower\n
 804:../Drivers/STM32N6xx_HAL_Driver/Inc/stm32n6xx_ll_bus.h ****   *         MEMLPENR      BKPSRAMLPEN     LL_MEM_IsEnabledClockLowPower\n
 805:../Drivers/STM32N6xx_HAL_Driver/Inc/stm32n6xx_ll_bus.h ****   *         MEMLPENR      FLEXRAMLPEN     LL_MEM_IsEnabledClockLowPower\n
 806:../Drivers/STM32N6xx_HAL_Driver/Inc/stm32n6xx_ll_bus.h ****   *         MEMLPENR      CACHEAXIRAMLPEN LL_MEM_IsEnabledClockLowPower\n
 807:../Drivers/STM32N6xx_HAL_Driver/Inc/stm32n6xx_ll_bus.h ****   *         MEMLPENR      VENCRAMLPEN     LL_MEM_IsEnabledClockLowPower
 808:../Drivers/STM32N6xx_HAL_Driver/Inc/stm32n6xx_ll_bus.h ****   * @param  Memories This parameter can be a combination of the following values:
 809:../Drivers/STM32N6xx_HAL_Driver/Inc/stm32n6xx_ll_bus.h ****   *         @arg @ref LL_MEM_AXISRAM1
ARM GAS  /tmp/ccFnPEzn.s 			page 45


 810:../Drivers/STM32N6xx_HAL_Driver/Inc/stm32n6xx_ll_bus.h ****   *         @arg @ref LL_MEM_AXISRAM2
 811:../Drivers/STM32N6xx_HAL_Driver/Inc/stm32n6xx_ll_bus.h ****   *         @arg @ref LL_MEM_AXISRAM3
 812:../Drivers/STM32N6xx_HAL_Driver/Inc/stm32n6xx_ll_bus.h ****   *         @arg @ref LL_MEM_AXISRAM4
 813:../Drivers/STM32N6xx_HAL_Driver/Inc/stm32n6xx_ll_bus.h ****   *         @arg @ref LL_MEM_AXISRAM5
 814:../Drivers/STM32N6xx_HAL_Driver/Inc/stm32n6xx_ll_bus.h ****   *         @arg @ref LL_MEM_AXISRAM6
 815:../Drivers/STM32N6xx_HAL_Driver/Inc/stm32n6xx_ll_bus.h ****   *         @arg @ref LL_MEM_AHBSRAM1
 816:../Drivers/STM32N6xx_HAL_Driver/Inc/stm32n6xx_ll_bus.h ****   *         @arg @ref LL_MEM_AHBSRAM2
 817:../Drivers/STM32N6xx_HAL_Driver/Inc/stm32n6xx_ll_bus.h ****   *         @arg @ref LL_MEM_BKPSRAM
 818:../Drivers/STM32N6xx_HAL_Driver/Inc/stm32n6xx_ll_bus.h ****   *         @arg @ref LL_MEM_FLEXRAM
 819:../Drivers/STM32N6xx_HAL_Driver/Inc/stm32n6xx_ll_bus.h ****   *         @arg @ref LL_MEM_CACHEAXIRAM
 820:../Drivers/STM32N6xx_HAL_Driver/Inc/stm32n6xx_ll_bus.h ****   *         @arg @ref LL_MEM_VENCRAM
 821:../Drivers/STM32N6xx_HAL_Driver/Inc/stm32n6xx_ll_bus.h ****   * @retval None
 822:../Drivers/STM32N6xx_HAL_Driver/Inc/stm32n6xx_ll_bus.h ****   */
 823:../Drivers/STM32N6xx_HAL_Driver/Inc/stm32n6xx_ll_bus.h **** __STATIC_INLINE uint32_t LL_MEM_IsEnabledClockLowPower(uint32_t Memories)
 824:../Drivers/STM32N6xx_HAL_Driver/Inc/stm32n6xx_ll_bus.h **** {
 825:../Drivers/STM32N6xx_HAL_Driver/Inc/stm32n6xx_ll_bus.h ****   return ((READ_BIT(RCC->MEMLPENR, Memories) == Memories) ? 1UL : 0UL);
 826:../Drivers/STM32N6xx_HAL_Driver/Inc/stm32n6xx_ll_bus.h **** }
 827:../Drivers/STM32N6xx_HAL_Driver/Inc/stm32n6xx_ll_bus.h **** 
 828:../Drivers/STM32N6xx_HAL_Driver/Inc/stm32n6xx_ll_bus.h **** /**
 829:../Drivers/STM32N6xx_HAL_Driver/Inc/stm32n6xx_ll_bus.h ****   * @brief  Disable memories clock during Low Power mode.
 830:../Drivers/STM32N6xx_HAL_Driver/Inc/stm32n6xx_ll_bus.h ****   * @rmtoll MEMLPENCR    AXISRAM1LPENC LL_MEM_DisableClockLowPower\n
 831:../Drivers/STM32N6xx_HAL_Driver/Inc/stm32n6xx_ll_bus.h ****   *         MEMLPENCR    AXISRAM2LPENC LL_MEM_DisableClockLowPower\n
 832:../Drivers/STM32N6xx_HAL_Driver/Inc/stm32n6xx_ll_bus.h ****   *         MEMLPENCR    AXISRAM3LPENC LL_MEM_DisableClockLowPower\n
 833:../Drivers/STM32N6xx_HAL_Driver/Inc/stm32n6xx_ll_bus.h ****   *         MEMLPENCR    AXISRAM4LPENC LL_MEM_DisableClockLowPower\n
 834:../Drivers/STM32N6xx_HAL_Driver/Inc/stm32n6xx_ll_bus.h ****   *         MEMLPENCR    AXISRAM5LPENC LL_MEM_DisableClockLowPower\n
 835:../Drivers/STM32N6xx_HAL_Driver/Inc/stm32n6xx_ll_bus.h ****   *         MEMLPENCR    AXISRAM6LPENC LL_MEM_DisableClockLowPower\n
 836:../Drivers/STM32N6xx_HAL_Driver/Inc/stm32n6xx_ll_bus.h ****   *         MEMLPENCR    AHBSRAM1LPENC LL_MEM_DisableClockLowPower\n
 837:../Drivers/STM32N6xx_HAL_Driver/Inc/stm32n6xx_ll_bus.h ****   *         MEMLPENCR    AHBSRAM2LPENC LL_MEM_DisableClockLowPower\n
 838:../Drivers/STM32N6xx_HAL_Driver/Inc/stm32n6xx_ll_bus.h ****   *         MEMLPENCR    BKPSRAMLPENC  LL_MEM_DisableClockLowPower\n
 839:../Drivers/STM32N6xx_HAL_Driver/Inc/stm32n6xx_ll_bus.h ****   *         MEMLPENCR    FLEXRAMLPENC  LL_MEM_DisableClockLowPower\n
 840:../Drivers/STM32N6xx_HAL_Driver/Inc/stm32n6xx_ll_bus.h ****   *         MEMLPENCR    CACHEAXIRAMLPENC LL_MEM_DisableClockLowPower\n
 841:../Drivers/STM32N6xx_HAL_Driver/Inc/stm32n6xx_ll_bus.h ****   *         MEMLPENCR    VENCRAMLPENC  LL_MEM_DisableClockLowPower
 842:../Drivers/STM32N6xx_HAL_Driver/Inc/stm32n6xx_ll_bus.h ****   * @param  Memories This parameter can be a combination of the following values:
 843:../Drivers/STM32N6xx_HAL_Driver/Inc/stm32n6xx_ll_bus.h ****   *         @arg @ref LL_MEM_AXISRAM1
 844:../Drivers/STM32N6xx_HAL_Driver/Inc/stm32n6xx_ll_bus.h ****   *         @arg @ref LL_MEM_AXISRAM2
 845:../Drivers/STM32N6xx_HAL_Driver/Inc/stm32n6xx_ll_bus.h ****   *         @arg @ref LL_MEM_AXISRAM3
 846:../Drivers/STM32N6xx_HAL_Driver/Inc/stm32n6xx_ll_bus.h ****   *         @arg @ref LL_MEM_AXISRAM4
 847:../Drivers/STM32N6xx_HAL_Driver/Inc/stm32n6xx_ll_bus.h ****   *         @arg @ref LL_MEM_AXISRAM5
 848:../Drivers/STM32N6xx_HAL_Driver/Inc/stm32n6xx_ll_bus.h ****   *         @arg @ref LL_MEM_AXISRAM6
 849:../Drivers/STM32N6xx_HAL_Driver/Inc/stm32n6xx_ll_bus.h ****   *         @arg @ref LL_MEM_AHBSRAM1
 850:../Drivers/STM32N6xx_HAL_Driver/Inc/stm32n6xx_ll_bus.h ****   *         @arg @ref LL_MEM_AHBSRAM2
 851:../Drivers/STM32N6xx_HAL_Driver/Inc/stm32n6xx_ll_bus.h ****   *         @arg @ref LL_MEM_BKPSRAM
 852:../Drivers/STM32N6xx_HAL_Driver/Inc/stm32n6xx_ll_bus.h ****   *         @arg @ref LL_MEM_FLEXRAM
 853:../Drivers/STM32N6xx_HAL_Driver/Inc/stm32n6xx_ll_bus.h ****   *         @arg @ref LL_MEM_CACHEAXIRAM
 854:../Drivers/STM32N6xx_HAL_Driver/Inc/stm32n6xx_ll_bus.h ****   *         @arg @ref LL_MEM_VENCRAM
 855:../Drivers/STM32N6xx_HAL_Driver/Inc/stm32n6xx_ll_bus.h ****   * @retval None
 856:../Drivers/STM32N6xx_HAL_Driver/Inc/stm32n6xx_ll_bus.h ****   */
 857:../Drivers/STM32N6xx_HAL_Driver/Inc/stm32n6xx_ll_bus.h **** __STATIC_INLINE void LL_MEM_DisableClockLowPower(uint32_t Memories)
 858:../Drivers/STM32N6xx_HAL_Driver/Inc/stm32n6xx_ll_bus.h **** {
 859:../Drivers/STM32N6xx_HAL_Driver/Inc/stm32n6xx_ll_bus.h ****   WRITE_REG(RCC->MEMLPENCR, Memories);
 860:../Drivers/STM32N6xx_HAL_Driver/Inc/stm32n6xx_ll_bus.h **** }
 861:../Drivers/STM32N6xx_HAL_Driver/Inc/stm32n6xx_ll_bus.h **** 
 862:../Drivers/STM32N6xx_HAL_Driver/Inc/stm32n6xx_ll_bus.h **** /**
 863:../Drivers/STM32N6xx_HAL_Driver/Inc/stm32n6xx_ll_bus.h ****   * @}
 864:../Drivers/STM32N6xx_HAL_Driver/Inc/stm32n6xx_ll_bus.h ****   */
 865:../Drivers/STM32N6xx_HAL_Driver/Inc/stm32n6xx_ll_bus.h **** 
 866:../Drivers/STM32N6xx_HAL_Driver/Inc/stm32n6xx_ll_bus.h **** /** @defgroup BUS_LL_EF_AHB1 AHB1
ARM GAS  /tmp/ccFnPEzn.s 			page 46


 867:../Drivers/STM32N6xx_HAL_Driver/Inc/stm32n6xx_ll_bus.h ****   * @{
 868:../Drivers/STM32N6xx_HAL_Driver/Inc/stm32n6xx_ll_bus.h ****   */
 869:../Drivers/STM32N6xx_HAL_Driver/Inc/stm32n6xx_ll_bus.h **** 
 870:../Drivers/STM32N6xx_HAL_Driver/Inc/stm32n6xx_ll_bus.h **** /**
 871:../Drivers/STM32N6xx_HAL_Driver/Inc/stm32n6xx_ll_bus.h ****   * @brief  Enable AHB1 peripherals clock.
 872:../Drivers/STM32N6xx_HAL_Driver/Inc/stm32n6xx_ll_bus.h ****   * @rmtoll AHB1ENSR     GPDMA1ENS     LL_AHB1_GRP1_EnableClock\n
 873:../Drivers/STM32N6xx_HAL_Driver/Inc/stm32n6xx_ll_bus.h ****   *         AHB1ENSR     ADC12ENS      LL_AHB1_GRP1_EnableClock
 874:../Drivers/STM32N6xx_HAL_Driver/Inc/stm32n6xx_ll_bus.h ****   * @param  Periphs This parameter can be a combination of the following values:
 875:../Drivers/STM32N6xx_HAL_Driver/Inc/stm32n6xx_ll_bus.h ****   *         @arg @ref LL_AHB1_GRP1_PERIPH_GPDMA1
 876:../Drivers/STM32N6xx_HAL_Driver/Inc/stm32n6xx_ll_bus.h ****   *         @arg @ref LL_AHB1_GRP1_PERIPH_ADC12
 877:../Drivers/STM32N6xx_HAL_Driver/Inc/stm32n6xx_ll_bus.h ****   * @retval None
 878:../Drivers/STM32N6xx_HAL_Driver/Inc/stm32n6xx_ll_bus.h ****   */
 879:../Drivers/STM32N6xx_HAL_Driver/Inc/stm32n6xx_ll_bus.h **** __STATIC_INLINE void LL_AHB1_GRP1_EnableClock(uint32_t Periphs)
 880:../Drivers/STM32N6xx_HAL_Driver/Inc/stm32n6xx_ll_bus.h **** {
 881:../Drivers/STM32N6xx_HAL_Driver/Inc/stm32n6xx_ll_bus.h ****   __IO uint32_t tmpreg;
 882:../Drivers/STM32N6xx_HAL_Driver/Inc/stm32n6xx_ll_bus.h ****   WRITE_REG(RCC->AHB1ENSR, Periphs);
 883:../Drivers/STM32N6xx_HAL_Driver/Inc/stm32n6xx_ll_bus.h ****   /* Delay after an RCC peripheral clock enabling */
 884:../Drivers/STM32N6xx_HAL_Driver/Inc/stm32n6xx_ll_bus.h ****   tmpreg = READ_REG(RCC->AHB1ENR);
 885:../Drivers/STM32N6xx_HAL_Driver/Inc/stm32n6xx_ll_bus.h ****   (void)tmpreg;
 886:../Drivers/STM32N6xx_HAL_Driver/Inc/stm32n6xx_ll_bus.h **** }
 887:../Drivers/STM32N6xx_HAL_Driver/Inc/stm32n6xx_ll_bus.h **** 
 888:../Drivers/STM32N6xx_HAL_Driver/Inc/stm32n6xx_ll_bus.h **** /**
 889:../Drivers/STM32N6xx_HAL_Driver/Inc/stm32n6xx_ll_bus.h ****   * @brief  Check if AHB1 peripheral clock is enabled or not
 890:../Drivers/STM32N6xx_HAL_Driver/Inc/stm32n6xx_ll_bus.h ****   * @rmtoll AHB1ENR      GPDMA1EN      LL_AHB1_GRP1_IsEnabledClock\n
 891:../Drivers/STM32N6xx_HAL_Driver/Inc/stm32n6xx_ll_bus.h ****   *         AHB1ENR      ADC12EN       LL_AHB1_GRP1_IsEnabledClock
 892:../Drivers/STM32N6xx_HAL_Driver/Inc/stm32n6xx_ll_bus.h ****   * @param  Periphs This parameter can be a combination of the following values:
 893:../Drivers/STM32N6xx_HAL_Driver/Inc/stm32n6xx_ll_bus.h ****   *         @arg @ref LL_AHB1_GRP1_PERIPH_GPDMA1
 894:../Drivers/STM32N6xx_HAL_Driver/Inc/stm32n6xx_ll_bus.h ****   *         @arg @ref LL_AHB1_GRP1_PERIPH_ADC12
 895:../Drivers/STM32N6xx_HAL_Driver/Inc/stm32n6xx_ll_bus.h ****   * @retval uint32_t
 896:../Drivers/STM32N6xx_HAL_Driver/Inc/stm32n6xx_ll_bus.h ****   */
 897:../Drivers/STM32N6xx_HAL_Driver/Inc/stm32n6xx_ll_bus.h **** __STATIC_INLINE uint32_t LL_AHB1_GRP1_IsEnabledClock(uint32_t Periphs)
 898:../Drivers/STM32N6xx_HAL_Driver/Inc/stm32n6xx_ll_bus.h **** {
 899:../Drivers/STM32N6xx_HAL_Driver/Inc/stm32n6xx_ll_bus.h ****   return ((READ_BIT(RCC->AHB1ENR, Periphs) == Periphs) ? 1UL : 0UL);
 900:../Drivers/STM32N6xx_HAL_Driver/Inc/stm32n6xx_ll_bus.h **** }
 901:../Drivers/STM32N6xx_HAL_Driver/Inc/stm32n6xx_ll_bus.h **** 
 902:../Drivers/STM32N6xx_HAL_Driver/Inc/stm32n6xx_ll_bus.h **** /**
 903:../Drivers/STM32N6xx_HAL_Driver/Inc/stm32n6xx_ll_bus.h ****   * @brief  Disable AHB1 peripherals clock.
 904:../Drivers/STM32N6xx_HAL_Driver/Inc/stm32n6xx_ll_bus.h ****   * @rmtoll AHB1ENCR     GPDMA1ENC     LL_AHB1_GRP1_DisableClock\n
 905:../Drivers/STM32N6xx_HAL_Driver/Inc/stm32n6xx_ll_bus.h ****   *         AHB1ENCR     ADC12ENC      LL_AHB1_GRP1_DisableClock
 906:../Drivers/STM32N6xx_HAL_Driver/Inc/stm32n6xx_ll_bus.h ****   * @param  Periphs This parameter can be a combination of the following values:
 907:../Drivers/STM32N6xx_HAL_Driver/Inc/stm32n6xx_ll_bus.h ****   *         @arg @ref LL_AHB1_GRP1_PERIPH_GPDMA1
 908:../Drivers/STM32N6xx_HAL_Driver/Inc/stm32n6xx_ll_bus.h ****   *         @arg @ref LL_AHB1_GRP1_PERIPH_ADC12
 909:../Drivers/STM32N6xx_HAL_Driver/Inc/stm32n6xx_ll_bus.h ****   * @retval None
 910:../Drivers/STM32N6xx_HAL_Driver/Inc/stm32n6xx_ll_bus.h ****   */
 911:../Drivers/STM32N6xx_HAL_Driver/Inc/stm32n6xx_ll_bus.h **** __STATIC_INLINE void LL_AHB1_GRP1_DisableClock(uint32_t Periphs)
 912:../Drivers/STM32N6xx_HAL_Driver/Inc/stm32n6xx_ll_bus.h **** {
 913:../Drivers/STM32N6xx_HAL_Driver/Inc/stm32n6xx_ll_bus.h ****   WRITE_REG(RCC->AHB1ENCR, Periphs);
 914:../Drivers/STM32N6xx_HAL_Driver/Inc/stm32n6xx_ll_bus.h **** }
 915:../Drivers/STM32N6xx_HAL_Driver/Inc/stm32n6xx_ll_bus.h **** 
 916:../Drivers/STM32N6xx_HAL_Driver/Inc/stm32n6xx_ll_bus.h **** /**
 917:../Drivers/STM32N6xx_HAL_Driver/Inc/stm32n6xx_ll_bus.h ****   * @brief  Force AHB1 peripherals reset.
 918:../Drivers/STM32N6xx_HAL_Driver/Inc/stm32n6xx_ll_bus.h ****   * @rmtoll AHB1RSTSR    GPDMA1RSTS    LL_AHB1_GRP1_ForceReset\n
 919:../Drivers/STM32N6xx_HAL_Driver/Inc/stm32n6xx_ll_bus.h ****   *         AHB1RSTSR    ADC12RSTS     LL_AHB1_GRP1_ForceReset
 920:../Drivers/STM32N6xx_HAL_Driver/Inc/stm32n6xx_ll_bus.h ****   * @param  Periphs This parameter can be a combination of the following values:
 921:../Drivers/STM32N6xx_HAL_Driver/Inc/stm32n6xx_ll_bus.h ****   *         @arg @ref LL_AHB1_GRP1_PERIPH_GPDMA1
 922:../Drivers/STM32N6xx_HAL_Driver/Inc/stm32n6xx_ll_bus.h ****   *         @arg @ref LL_AHB1_GRP1_PERIPH_ADC12
 923:../Drivers/STM32N6xx_HAL_Driver/Inc/stm32n6xx_ll_bus.h ****   * @retval None
ARM GAS  /tmp/ccFnPEzn.s 			page 47


 924:../Drivers/STM32N6xx_HAL_Driver/Inc/stm32n6xx_ll_bus.h ****   */
 925:../Drivers/STM32N6xx_HAL_Driver/Inc/stm32n6xx_ll_bus.h **** __STATIC_INLINE void LL_AHB1_GRP1_ForceReset(uint32_t Periphs)
 926:../Drivers/STM32N6xx_HAL_Driver/Inc/stm32n6xx_ll_bus.h **** {
 927:../Drivers/STM32N6xx_HAL_Driver/Inc/stm32n6xx_ll_bus.h ****   WRITE_REG(RCC->AHB1RSTSR, Periphs);
 928:../Drivers/STM32N6xx_HAL_Driver/Inc/stm32n6xx_ll_bus.h **** }
 929:../Drivers/STM32N6xx_HAL_Driver/Inc/stm32n6xx_ll_bus.h **** 
 930:../Drivers/STM32N6xx_HAL_Driver/Inc/stm32n6xx_ll_bus.h **** /**
 931:../Drivers/STM32N6xx_HAL_Driver/Inc/stm32n6xx_ll_bus.h ****   * @brief  Release AHB1 peripherals reset.
 932:../Drivers/STM32N6xx_HAL_Driver/Inc/stm32n6xx_ll_bus.h ****   * @rmtoll AHB1RSTCR    GPDMA1RSTC    LL_AHB1_GRP1_ReleaseReset\n
 933:../Drivers/STM32N6xx_HAL_Driver/Inc/stm32n6xx_ll_bus.h ****   *         AHB1RSTCR    ADC12RSTC     LL_AHB1_GRP1_ReleaseReset
 934:../Drivers/STM32N6xx_HAL_Driver/Inc/stm32n6xx_ll_bus.h ****   * @param  Periphs This parameter can be a combination of the following values:
 935:../Drivers/STM32N6xx_HAL_Driver/Inc/stm32n6xx_ll_bus.h ****   *         @arg @ref LL_AHB1_GRP1_PERIPH_GPDMA1
 936:../Drivers/STM32N6xx_HAL_Driver/Inc/stm32n6xx_ll_bus.h ****   *         @arg @ref LL_AHB1_GRP1_PERIPH_ADC12
 937:../Drivers/STM32N6xx_HAL_Driver/Inc/stm32n6xx_ll_bus.h ****   * @retval None
 938:../Drivers/STM32N6xx_HAL_Driver/Inc/stm32n6xx_ll_bus.h ****   */
 939:../Drivers/STM32N6xx_HAL_Driver/Inc/stm32n6xx_ll_bus.h **** __STATIC_INLINE void LL_AHB1_GRP1_ReleaseReset(uint32_t Periphs)
 940:../Drivers/STM32N6xx_HAL_Driver/Inc/stm32n6xx_ll_bus.h **** {
 941:../Drivers/STM32N6xx_HAL_Driver/Inc/stm32n6xx_ll_bus.h ****   WRITE_REG(RCC->AHB1RSTCR, Periphs);
 942:../Drivers/STM32N6xx_HAL_Driver/Inc/stm32n6xx_ll_bus.h **** }
 943:../Drivers/STM32N6xx_HAL_Driver/Inc/stm32n6xx_ll_bus.h **** 
 944:../Drivers/STM32N6xx_HAL_Driver/Inc/stm32n6xx_ll_bus.h **** /**
 945:../Drivers/STM32N6xx_HAL_Driver/Inc/stm32n6xx_ll_bus.h ****   * @brief  Enable AHB1 peripherals clock during Low Power mode.
 946:../Drivers/STM32N6xx_HAL_Driver/Inc/stm32n6xx_ll_bus.h ****   * @rmtoll AHB1LPENSR   GPDMA1LPENS   LL_AHB1_GRP1_EnableClockLowPower\n
 947:../Drivers/STM32N6xx_HAL_Driver/Inc/stm32n6xx_ll_bus.h ****   *         AHB1LPENSR   ADC12LPENS    LL_AHB1_GRP1_EnableClockLowPower
 948:../Drivers/STM32N6xx_HAL_Driver/Inc/stm32n6xx_ll_bus.h ****   * @param  Periphs This parameter can be a combination of the following values:
 949:../Drivers/STM32N6xx_HAL_Driver/Inc/stm32n6xx_ll_bus.h ****   *         @arg @ref LL_AHB1_GRP1_PERIPH_GPDMA1
 950:../Drivers/STM32N6xx_HAL_Driver/Inc/stm32n6xx_ll_bus.h ****   *         @arg @ref LL_AHB1_GRP1_PERIPH_ADC12
 951:../Drivers/STM32N6xx_HAL_Driver/Inc/stm32n6xx_ll_bus.h ****   * @retval None
 952:../Drivers/STM32N6xx_HAL_Driver/Inc/stm32n6xx_ll_bus.h ****   */
 953:../Drivers/STM32N6xx_HAL_Driver/Inc/stm32n6xx_ll_bus.h **** __STATIC_INLINE void LL_AHB1_GRP1_EnableClockLowPower(uint32_t Periphs)
 954:../Drivers/STM32N6xx_HAL_Driver/Inc/stm32n6xx_ll_bus.h **** {
 955:../Drivers/STM32N6xx_HAL_Driver/Inc/stm32n6xx_ll_bus.h ****   __IO uint32_t tmpreg;
 956:../Drivers/STM32N6xx_HAL_Driver/Inc/stm32n6xx_ll_bus.h ****   WRITE_REG(RCC->AHB1LPENSR, Periphs);
 957:../Drivers/STM32N6xx_HAL_Driver/Inc/stm32n6xx_ll_bus.h ****   /* Delay after an RCC peripheral clock enabling */
 958:../Drivers/STM32N6xx_HAL_Driver/Inc/stm32n6xx_ll_bus.h ****   tmpreg = READ_REG(RCC->AHB1LPENR);
 959:../Drivers/STM32N6xx_HAL_Driver/Inc/stm32n6xx_ll_bus.h ****   (void)tmpreg;
 960:../Drivers/STM32N6xx_HAL_Driver/Inc/stm32n6xx_ll_bus.h **** }
 961:../Drivers/STM32N6xx_HAL_Driver/Inc/stm32n6xx_ll_bus.h **** 
 962:../Drivers/STM32N6xx_HAL_Driver/Inc/stm32n6xx_ll_bus.h **** /**
 963:../Drivers/STM32N6xx_HAL_Driver/Inc/stm32n6xx_ll_bus.h ****   * @brief  Check if AHB1 peripheral clock during Low Power mode is enabled or not .
 964:../Drivers/STM32N6xx_HAL_Driver/Inc/stm32n6xx_ll_bus.h ****   * @rmtoll AHB1LPENR    GPDMA1LPEN    LL_AHB1_GRP1_IsEnabledClockLowPower\n
 965:../Drivers/STM32N6xx_HAL_Driver/Inc/stm32n6xx_ll_bus.h ****   *         AHB1LPENR    ADC12LPEN     LL_AHB1_GRP1_IsEnabledClockLowPower
 966:../Drivers/STM32N6xx_HAL_Driver/Inc/stm32n6xx_ll_bus.h ****   * @param  Periphs This parameter can be a combination of the following values:
 967:../Drivers/STM32N6xx_HAL_Driver/Inc/stm32n6xx_ll_bus.h ****   *         @arg @ref LL_AHB1_GRP1_PERIPH_GPDMA1
 968:../Drivers/STM32N6xx_HAL_Driver/Inc/stm32n6xx_ll_bus.h ****   *         @arg @ref LL_AHB1_GRP1_PERIPH_ADC12
 969:../Drivers/STM32N6xx_HAL_Driver/Inc/stm32n6xx_ll_bus.h ****   * @retval uint32_t
 970:../Drivers/STM32N6xx_HAL_Driver/Inc/stm32n6xx_ll_bus.h ****   */
 971:../Drivers/STM32N6xx_HAL_Driver/Inc/stm32n6xx_ll_bus.h **** __STATIC_INLINE uint32_t LL_AHB1_GRP1_IsEnabledClockLowPower(uint32_t Periphs)
 972:../Drivers/STM32N6xx_HAL_Driver/Inc/stm32n6xx_ll_bus.h **** {
 973:../Drivers/STM32N6xx_HAL_Driver/Inc/stm32n6xx_ll_bus.h ****   return ((READ_BIT(RCC->AHB1LPENR, Periphs) == Periphs) ? 1UL : 0UL);
 974:../Drivers/STM32N6xx_HAL_Driver/Inc/stm32n6xx_ll_bus.h **** }
 975:../Drivers/STM32N6xx_HAL_Driver/Inc/stm32n6xx_ll_bus.h **** 
 976:../Drivers/STM32N6xx_HAL_Driver/Inc/stm32n6xx_ll_bus.h **** /**
 977:../Drivers/STM32N6xx_HAL_Driver/Inc/stm32n6xx_ll_bus.h ****   * @brief  Disable AHB1 peripherals clock during Low Power mode.
 978:../Drivers/STM32N6xx_HAL_Driver/Inc/stm32n6xx_ll_bus.h ****   * @rmtoll AHB1LPENCR   GPDMA1LPENC   LL_AHB1_GRP1_DisableClockLowPower\n
 979:../Drivers/STM32N6xx_HAL_Driver/Inc/stm32n6xx_ll_bus.h ****   *         AHB1LPENCR   ADC12LPENC    LL_AHB1_GRP1_DisableClockLowPower
 980:../Drivers/STM32N6xx_HAL_Driver/Inc/stm32n6xx_ll_bus.h ****   * @param  Periphs This parameter can be a combination of the following values:
ARM GAS  /tmp/ccFnPEzn.s 			page 48


 981:../Drivers/STM32N6xx_HAL_Driver/Inc/stm32n6xx_ll_bus.h ****   *         @arg @ref LL_AHB1_GRP1_PERIPH_GPDMA1
 982:../Drivers/STM32N6xx_HAL_Driver/Inc/stm32n6xx_ll_bus.h ****   *         @arg @ref LL_AHB1_GRP1_PERIPH_ADC12
 983:../Drivers/STM32N6xx_HAL_Driver/Inc/stm32n6xx_ll_bus.h ****   * @retval None
 984:../Drivers/STM32N6xx_HAL_Driver/Inc/stm32n6xx_ll_bus.h ****   */
 985:../Drivers/STM32N6xx_HAL_Driver/Inc/stm32n6xx_ll_bus.h **** __STATIC_INLINE void LL_AHB1_GRP1_DisableClockLowPower(uint32_t Periphs)
 986:../Drivers/STM32N6xx_HAL_Driver/Inc/stm32n6xx_ll_bus.h **** {
 987:../Drivers/STM32N6xx_HAL_Driver/Inc/stm32n6xx_ll_bus.h ****   WRITE_REG(RCC->AHB1LPENCR, Periphs);
 988:../Drivers/STM32N6xx_HAL_Driver/Inc/stm32n6xx_ll_bus.h **** }
 989:../Drivers/STM32N6xx_HAL_Driver/Inc/stm32n6xx_ll_bus.h **** 
 990:../Drivers/STM32N6xx_HAL_Driver/Inc/stm32n6xx_ll_bus.h **** /**
 991:../Drivers/STM32N6xx_HAL_Driver/Inc/stm32n6xx_ll_bus.h ****   * @}
 992:../Drivers/STM32N6xx_HAL_Driver/Inc/stm32n6xx_ll_bus.h ****   */
 993:../Drivers/STM32N6xx_HAL_Driver/Inc/stm32n6xx_ll_bus.h **** 
 994:../Drivers/STM32N6xx_HAL_Driver/Inc/stm32n6xx_ll_bus.h **** /** @defgroup BUS_LL_EF_AHB2 AHB2
 995:../Drivers/STM32N6xx_HAL_Driver/Inc/stm32n6xx_ll_bus.h ****   * @{
 996:../Drivers/STM32N6xx_HAL_Driver/Inc/stm32n6xx_ll_bus.h ****   */
 997:../Drivers/STM32N6xx_HAL_Driver/Inc/stm32n6xx_ll_bus.h **** 
 998:../Drivers/STM32N6xx_HAL_Driver/Inc/stm32n6xx_ll_bus.h **** /**
 999:../Drivers/STM32N6xx_HAL_Driver/Inc/stm32n6xx_ll_bus.h ****   * @brief  Enable AHB2 peripherals clock.
1000:../Drivers/STM32N6xx_HAL_Driver/Inc/stm32n6xx_ll_bus.h ****   * @rmtoll AHB2ENSR     RAMCFGENS     LL_AHB2_GRP1_EnableClock\n
1001:../Drivers/STM32N6xx_HAL_Driver/Inc/stm32n6xx_ll_bus.h ****   *         AHB2ENSR     MDF1ENS       LL_AHB2_GRP1_EnableClock\n
1002:../Drivers/STM32N6xx_HAL_Driver/Inc/stm32n6xx_ll_bus.h ****   *         AHB2ENSR     ADF1ENS       LL_AHB2_GRP1_EnableClock
1003:../Drivers/STM32N6xx_HAL_Driver/Inc/stm32n6xx_ll_bus.h ****   * @param  Periphs This parameter can be a combination of the following values:
1004:../Drivers/STM32N6xx_HAL_Driver/Inc/stm32n6xx_ll_bus.h ****   *         @arg @ref LL_AHB2_GRP1_PERIPH_RAMCFG
1005:../Drivers/STM32N6xx_HAL_Driver/Inc/stm32n6xx_ll_bus.h ****   *         @arg @ref LL_AHB2_GRP1_PERIPH_MDF1
1006:../Drivers/STM32N6xx_HAL_Driver/Inc/stm32n6xx_ll_bus.h ****   *         @arg @ref LL_AHB2_GRP1_PERIPH_ADF1
1007:../Drivers/STM32N6xx_HAL_Driver/Inc/stm32n6xx_ll_bus.h ****   * @retval None
1008:../Drivers/STM32N6xx_HAL_Driver/Inc/stm32n6xx_ll_bus.h ****   */
1009:../Drivers/STM32N6xx_HAL_Driver/Inc/stm32n6xx_ll_bus.h **** __STATIC_INLINE void LL_AHB2_GRP1_EnableClock(uint32_t Periphs)
1010:../Drivers/STM32N6xx_HAL_Driver/Inc/stm32n6xx_ll_bus.h **** {
1011:../Drivers/STM32N6xx_HAL_Driver/Inc/stm32n6xx_ll_bus.h ****   __IO uint32_t tmpreg;
1012:../Drivers/STM32N6xx_HAL_Driver/Inc/stm32n6xx_ll_bus.h ****   WRITE_REG(RCC->AHB2ENSR, Periphs);
1013:../Drivers/STM32N6xx_HAL_Driver/Inc/stm32n6xx_ll_bus.h ****   /* Delay after an RCC peripheral clock enabling */
1014:../Drivers/STM32N6xx_HAL_Driver/Inc/stm32n6xx_ll_bus.h ****   tmpreg = READ_REG(RCC->AHB2ENR);
1015:../Drivers/STM32N6xx_HAL_Driver/Inc/stm32n6xx_ll_bus.h ****   (void)tmpreg;
1016:../Drivers/STM32N6xx_HAL_Driver/Inc/stm32n6xx_ll_bus.h **** }
1017:../Drivers/STM32N6xx_HAL_Driver/Inc/stm32n6xx_ll_bus.h **** 
1018:../Drivers/STM32N6xx_HAL_Driver/Inc/stm32n6xx_ll_bus.h **** /**
1019:../Drivers/STM32N6xx_HAL_Driver/Inc/stm32n6xx_ll_bus.h ****   * @brief  Check if AHB2 peripheral clock is enabled or not
1020:../Drivers/STM32N6xx_HAL_Driver/Inc/stm32n6xx_ll_bus.h ****   * @rmtoll AHB2ENR      RAMCFGEN      LL_AHB2_GRP1_IsEnabledClock\n
1021:../Drivers/STM32N6xx_HAL_Driver/Inc/stm32n6xx_ll_bus.h ****   *         AHB2ENR      MDF1EN        LL_AHB2_GRP1_IsEnabledClock\n
1022:../Drivers/STM32N6xx_HAL_Driver/Inc/stm32n6xx_ll_bus.h ****   *         AHB2ENR      ADF1EN        LL_AHB2_GRP1_IsEnabledClock
1023:../Drivers/STM32N6xx_HAL_Driver/Inc/stm32n6xx_ll_bus.h ****   * @param  Periphs This parameter can be a combination of the following values:
1024:../Drivers/STM32N6xx_HAL_Driver/Inc/stm32n6xx_ll_bus.h ****   *         @arg @ref LL_AHB2_GRP1_PERIPH_RAMCFG
1025:../Drivers/STM32N6xx_HAL_Driver/Inc/stm32n6xx_ll_bus.h ****   *         @arg @ref LL_AHB2_GRP1_PERIPH_MDF1
1026:../Drivers/STM32N6xx_HAL_Driver/Inc/stm32n6xx_ll_bus.h ****   *         @arg @ref LL_AHB2_GRP1_PERIPH_ADF1
1027:../Drivers/STM32N6xx_HAL_Driver/Inc/stm32n6xx_ll_bus.h ****   * @retval uint32_t
1028:../Drivers/STM32N6xx_HAL_Driver/Inc/stm32n6xx_ll_bus.h ****   */
1029:../Drivers/STM32N6xx_HAL_Driver/Inc/stm32n6xx_ll_bus.h **** __STATIC_INLINE uint32_t LL_AHB2_GRP1_IsEnabledClock(uint32_t Periphs)
1030:../Drivers/STM32N6xx_HAL_Driver/Inc/stm32n6xx_ll_bus.h **** {
1031:../Drivers/STM32N6xx_HAL_Driver/Inc/stm32n6xx_ll_bus.h ****   return ((READ_BIT(RCC->AHB2ENR, Periphs) == Periphs) ? 1UL : 0UL);
1032:../Drivers/STM32N6xx_HAL_Driver/Inc/stm32n6xx_ll_bus.h **** }
1033:../Drivers/STM32N6xx_HAL_Driver/Inc/stm32n6xx_ll_bus.h **** 
1034:../Drivers/STM32N6xx_HAL_Driver/Inc/stm32n6xx_ll_bus.h **** /**
1035:../Drivers/STM32N6xx_HAL_Driver/Inc/stm32n6xx_ll_bus.h ****   * @brief  Disable AHB2 peripherals clock.
1036:../Drivers/STM32N6xx_HAL_Driver/Inc/stm32n6xx_ll_bus.h ****   * @rmtoll AHB2ENCR     RAMCFGENC     LL_AHB2_GRP1_DisableClock\n
1037:../Drivers/STM32N6xx_HAL_Driver/Inc/stm32n6xx_ll_bus.h ****   *         AHB2ENCR     MDF1ENC       LL_AHB2_GRP1_DisableClock\n
ARM GAS  /tmp/ccFnPEzn.s 			page 49


1038:../Drivers/STM32N6xx_HAL_Driver/Inc/stm32n6xx_ll_bus.h ****   *         AHB2ENCR     ADF1ENC       LL_AHB2_GRP1_DisableClock
1039:../Drivers/STM32N6xx_HAL_Driver/Inc/stm32n6xx_ll_bus.h ****   * @param  Periphs This parameter can be a combination of the following values:
1040:../Drivers/STM32N6xx_HAL_Driver/Inc/stm32n6xx_ll_bus.h ****   *         @arg @ref LL_AHB2_GRP1_PERIPH_RAMCFG
1041:../Drivers/STM32N6xx_HAL_Driver/Inc/stm32n6xx_ll_bus.h ****   *         @arg @ref LL_AHB2_GRP1_PERIPH_MDF1
1042:../Drivers/STM32N6xx_HAL_Driver/Inc/stm32n6xx_ll_bus.h ****   *         @arg @ref LL_AHB2_GRP1_PERIPH_ADF1
1043:../Drivers/STM32N6xx_HAL_Driver/Inc/stm32n6xx_ll_bus.h ****   * @retval None
1044:../Drivers/STM32N6xx_HAL_Driver/Inc/stm32n6xx_ll_bus.h ****   */
1045:../Drivers/STM32N6xx_HAL_Driver/Inc/stm32n6xx_ll_bus.h **** __STATIC_INLINE void LL_AHB2_GRP1_DisableClock(uint32_t Periphs)
1046:../Drivers/STM32N6xx_HAL_Driver/Inc/stm32n6xx_ll_bus.h **** {
1047:../Drivers/STM32N6xx_HAL_Driver/Inc/stm32n6xx_ll_bus.h ****   WRITE_REG(RCC->AHB2ENCR, Periphs);
1048:../Drivers/STM32N6xx_HAL_Driver/Inc/stm32n6xx_ll_bus.h **** }
1049:../Drivers/STM32N6xx_HAL_Driver/Inc/stm32n6xx_ll_bus.h **** 
1050:../Drivers/STM32N6xx_HAL_Driver/Inc/stm32n6xx_ll_bus.h **** /**
1051:../Drivers/STM32N6xx_HAL_Driver/Inc/stm32n6xx_ll_bus.h ****   * @brief  Force AHB2 peripherals reset.
1052:../Drivers/STM32N6xx_HAL_Driver/Inc/stm32n6xx_ll_bus.h ****   * @rmtoll AHB2RSTSR    RAMCFGRSTS     LL_AHB2_GRP1_ForceReset\n
1053:../Drivers/STM32N6xx_HAL_Driver/Inc/stm32n6xx_ll_bus.h ****   *         AHB2RSTSR    MDF1RSTS       LL_AHB2_GRP1_ForceReset\n
1054:../Drivers/STM32N6xx_HAL_Driver/Inc/stm32n6xx_ll_bus.h ****   *         AHB2RSTSR    ADF1RSTS       LL_AHB2_GRP1_ForceReset
1055:../Drivers/STM32N6xx_HAL_Driver/Inc/stm32n6xx_ll_bus.h ****   * @param  Periphs This parameter can be a combination of the following values:
1056:../Drivers/STM32N6xx_HAL_Driver/Inc/stm32n6xx_ll_bus.h ****   *         @arg @ref LL_AHB2_GRP1_PERIPH_RAMCFG
1057:../Drivers/STM32N6xx_HAL_Driver/Inc/stm32n6xx_ll_bus.h ****   *         @arg @ref LL_AHB2_GRP1_PERIPH_MDF1
1058:../Drivers/STM32N6xx_HAL_Driver/Inc/stm32n6xx_ll_bus.h ****   *         @arg @ref LL_AHB2_GRP1_PERIPH_ADF1
1059:../Drivers/STM32N6xx_HAL_Driver/Inc/stm32n6xx_ll_bus.h ****   * @retval None
1060:../Drivers/STM32N6xx_HAL_Driver/Inc/stm32n6xx_ll_bus.h ****   */
1061:../Drivers/STM32N6xx_HAL_Driver/Inc/stm32n6xx_ll_bus.h **** __STATIC_INLINE void LL_AHB2_GRP1_ForceReset(uint32_t Periphs)
1062:../Drivers/STM32N6xx_HAL_Driver/Inc/stm32n6xx_ll_bus.h **** {
1063:../Drivers/STM32N6xx_HAL_Driver/Inc/stm32n6xx_ll_bus.h ****   WRITE_REG(RCC->AHB2RSTSR, Periphs);
1064:../Drivers/STM32N6xx_HAL_Driver/Inc/stm32n6xx_ll_bus.h **** }
1065:../Drivers/STM32N6xx_HAL_Driver/Inc/stm32n6xx_ll_bus.h **** 
1066:../Drivers/STM32N6xx_HAL_Driver/Inc/stm32n6xx_ll_bus.h **** /**
1067:../Drivers/STM32N6xx_HAL_Driver/Inc/stm32n6xx_ll_bus.h ****   * @brief  Release AHB2 peripherals reset.
1068:../Drivers/STM32N6xx_HAL_Driver/Inc/stm32n6xx_ll_bus.h ****   * @rmtoll AHB2RSTCR     RAMCFGRSTC    LL_AHB2_GRP1_ReleaseReset\n
1069:../Drivers/STM32N6xx_HAL_Driver/Inc/stm32n6xx_ll_bus.h ****   *         AHB2RSTCR     MDF1RSTC      LL_AHB2_GRP1_ReleaseReset\n
1070:../Drivers/STM32N6xx_HAL_Driver/Inc/stm32n6xx_ll_bus.h ****   *         AHB2RSTCR     ADF1RSTC      LL_AHB2_GRP1_ReleaseReset
1071:../Drivers/STM32N6xx_HAL_Driver/Inc/stm32n6xx_ll_bus.h ****   * @param  Periphs This parameter can be a combination of the following values:
1072:../Drivers/STM32N6xx_HAL_Driver/Inc/stm32n6xx_ll_bus.h ****   *         @arg @ref LL_AHB2_GRP1_PERIPH_RAMCFG
1073:../Drivers/STM32N6xx_HAL_Driver/Inc/stm32n6xx_ll_bus.h ****   *         @arg @ref LL_AHB2_GRP1_PERIPH_MDF1
1074:../Drivers/STM32N6xx_HAL_Driver/Inc/stm32n6xx_ll_bus.h ****   *         @arg @ref LL_AHB2_GRP1_PERIPH_ADF1
1075:../Drivers/STM32N6xx_HAL_Driver/Inc/stm32n6xx_ll_bus.h ****   * @retval None
1076:../Drivers/STM32N6xx_HAL_Driver/Inc/stm32n6xx_ll_bus.h ****   */
1077:../Drivers/STM32N6xx_HAL_Driver/Inc/stm32n6xx_ll_bus.h **** __STATIC_INLINE void LL_AHB2_GRP1_ReleaseReset(uint32_t Periphs)
1078:../Drivers/STM32N6xx_HAL_Driver/Inc/stm32n6xx_ll_bus.h **** {
1079:../Drivers/STM32N6xx_HAL_Driver/Inc/stm32n6xx_ll_bus.h ****   WRITE_REG(RCC->AHB2RSTCR, Periphs);
1080:../Drivers/STM32N6xx_HAL_Driver/Inc/stm32n6xx_ll_bus.h **** }
1081:../Drivers/STM32N6xx_HAL_Driver/Inc/stm32n6xx_ll_bus.h **** 
1082:../Drivers/STM32N6xx_HAL_Driver/Inc/stm32n6xx_ll_bus.h **** /**
1083:../Drivers/STM32N6xx_HAL_Driver/Inc/stm32n6xx_ll_bus.h ****   * @brief  Enable AHB2 peripherals clock during Low Power mode.
1084:../Drivers/STM32N6xx_HAL_Driver/Inc/stm32n6xx_ll_bus.h ****   * @rmtoll AHB2LPENSR   RAMCFGLPENC   LL_AHB2_GRP1_EnableClockLowPower\n
1085:../Drivers/STM32N6xx_HAL_Driver/Inc/stm32n6xx_ll_bus.h ****   *         AHB2LPENSR   MDF1LPENC     LL_AHB2_GRP1_EnableClockLowPower\n
1086:../Drivers/STM32N6xx_HAL_Driver/Inc/stm32n6xx_ll_bus.h ****   *         AHB2LPENSR   ADF1LPENC     LL_AHB2_GRP1_EnableClockLowPower
1087:../Drivers/STM32N6xx_HAL_Driver/Inc/stm32n6xx_ll_bus.h ****   * @param  Periphs This parameter can be a combination of the following values:
1088:../Drivers/STM32N6xx_HAL_Driver/Inc/stm32n6xx_ll_bus.h ****   *         @arg @ref LL_AHB2_GRP1_PERIPH_RAMCFG
1089:../Drivers/STM32N6xx_HAL_Driver/Inc/stm32n6xx_ll_bus.h ****   *         @arg @ref LL_AHB2_GRP1_PERIPH_MDF1
1090:../Drivers/STM32N6xx_HAL_Driver/Inc/stm32n6xx_ll_bus.h ****   *         @arg @ref LL_AHB2_GRP1_PERIPH_ADF1
1091:../Drivers/STM32N6xx_HAL_Driver/Inc/stm32n6xx_ll_bus.h ****   * @retval None
1092:../Drivers/STM32N6xx_HAL_Driver/Inc/stm32n6xx_ll_bus.h ****   */
1093:../Drivers/STM32N6xx_HAL_Driver/Inc/stm32n6xx_ll_bus.h **** __STATIC_INLINE void LL_AHB2_GRP1_EnableClockLowPower(uint32_t Periphs)
1094:../Drivers/STM32N6xx_HAL_Driver/Inc/stm32n6xx_ll_bus.h **** {
ARM GAS  /tmp/ccFnPEzn.s 			page 50


1095:../Drivers/STM32N6xx_HAL_Driver/Inc/stm32n6xx_ll_bus.h ****   __IO uint32_t tmpreg;
1096:../Drivers/STM32N6xx_HAL_Driver/Inc/stm32n6xx_ll_bus.h ****   WRITE_REG(RCC->AHB2LPENSR, Periphs);
1097:../Drivers/STM32N6xx_HAL_Driver/Inc/stm32n6xx_ll_bus.h ****   /* Delay after an RCC peripheral clock enabling */
1098:../Drivers/STM32N6xx_HAL_Driver/Inc/stm32n6xx_ll_bus.h ****   tmpreg = READ_REG(RCC->AHB2LPENR);
1099:../Drivers/STM32N6xx_HAL_Driver/Inc/stm32n6xx_ll_bus.h ****   (void)tmpreg;
1100:../Drivers/STM32N6xx_HAL_Driver/Inc/stm32n6xx_ll_bus.h **** }
1101:../Drivers/STM32N6xx_HAL_Driver/Inc/stm32n6xx_ll_bus.h **** 
1102:../Drivers/STM32N6xx_HAL_Driver/Inc/stm32n6xx_ll_bus.h **** /**
1103:../Drivers/STM32N6xx_HAL_Driver/Inc/stm32n6xx_ll_bus.h ****   * @brief  Check if AHB2 peripheral clock during Low Power mode is enabled or not .
1104:../Drivers/STM32N6xx_HAL_Driver/Inc/stm32n6xx_ll_bus.h ****   * @rmtoll AHB2LPENR    RAMCFGLPEN    LL_AHB2_GRP1_IsEnabledClockLowPower\n
1105:../Drivers/STM32N6xx_HAL_Driver/Inc/stm32n6xx_ll_bus.h ****   *         AHB2LPENR    MDF1LPEN      LL_AHB2_GRP1_IsEnabledClockLowPower\n
1106:../Drivers/STM32N6xx_HAL_Driver/Inc/stm32n6xx_ll_bus.h ****   *         AHB2LPENR    ADF1LPEN      LL_AHB2_GRP1_IsEnabledClockLowPower
1107:../Drivers/STM32N6xx_HAL_Driver/Inc/stm32n6xx_ll_bus.h ****   * @param  Periphs This parameter can be a combination of the following values:
1108:../Drivers/STM32N6xx_HAL_Driver/Inc/stm32n6xx_ll_bus.h ****   *         @arg @ref LL_AHB2_GRP1_PERIPH_RAMCFG
1109:../Drivers/STM32N6xx_HAL_Driver/Inc/stm32n6xx_ll_bus.h ****   *         @arg @ref LL_AHB2_GRP1_PERIPH_MDF1
1110:../Drivers/STM32N6xx_HAL_Driver/Inc/stm32n6xx_ll_bus.h ****   *         @arg @ref LL_AHB2_GRP1_PERIPH_ADF1
1111:../Drivers/STM32N6xx_HAL_Driver/Inc/stm32n6xx_ll_bus.h ****   * @retval uint32_t
1112:../Drivers/STM32N6xx_HAL_Driver/Inc/stm32n6xx_ll_bus.h ****   */
1113:../Drivers/STM32N6xx_HAL_Driver/Inc/stm32n6xx_ll_bus.h **** __STATIC_INLINE uint32_t LL_AHB2_GRP1_IsEnabledClockLowPower(uint32_t Periphs)
1114:../Drivers/STM32N6xx_HAL_Driver/Inc/stm32n6xx_ll_bus.h **** {
1115:../Drivers/STM32N6xx_HAL_Driver/Inc/stm32n6xx_ll_bus.h ****   return ((READ_BIT(RCC->AHB2LPENR, Periphs) == Periphs) ? 1UL : 0UL);
1116:../Drivers/STM32N6xx_HAL_Driver/Inc/stm32n6xx_ll_bus.h **** }
1117:../Drivers/STM32N6xx_HAL_Driver/Inc/stm32n6xx_ll_bus.h **** 
1118:../Drivers/STM32N6xx_HAL_Driver/Inc/stm32n6xx_ll_bus.h **** /**
1119:../Drivers/STM32N6xx_HAL_Driver/Inc/stm32n6xx_ll_bus.h ****   * @brief  Disable AHB2 peripherals clock during Low Power mode.
1120:../Drivers/STM32N6xx_HAL_Driver/Inc/stm32n6xx_ll_bus.h ****   * @rmtoll AHB2LPENCR   RAMCFGLPENC   LL_AHB2_GRP1_DisableClockLowPower\n
1121:../Drivers/STM32N6xx_HAL_Driver/Inc/stm32n6xx_ll_bus.h ****   *         AHB2LPENCR   MDF1LPENC     LL_AHB2_GRP1_DisableClockLowPower\n
1122:../Drivers/STM32N6xx_HAL_Driver/Inc/stm32n6xx_ll_bus.h ****   *         AHB2LPENCR   ADF1LPENC     LL_AHB2_GRP1_DisableClockLowPower
1123:../Drivers/STM32N6xx_HAL_Driver/Inc/stm32n6xx_ll_bus.h ****   * @param  Periphs This parameter can be a combination of the following values:
1124:../Drivers/STM32N6xx_HAL_Driver/Inc/stm32n6xx_ll_bus.h ****   *         @arg @ref LL_AHB2_GRP1_PERIPH_RAMCFG
1125:../Drivers/STM32N6xx_HAL_Driver/Inc/stm32n6xx_ll_bus.h ****   *         @arg @ref LL_AHB2_GRP1_PERIPH_MDF1
1126:../Drivers/STM32N6xx_HAL_Driver/Inc/stm32n6xx_ll_bus.h ****   *         @arg @ref LL_AHB2_GRP1_PERIPH_ADF1
1127:../Drivers/STM32N6xx_HAL_Driver/Inc/stm32n6xx_ll_bus.h ****   * @retval None
1128:../Drivers/STM32N6xx_HAL_Driver/Inc/stm32n6xx_ll_bus.h ****   */
1129:../Drivers/STM32N6xx_HAL_Driver/Inc/stm32n6xx_ll_bus.h **** __STATIC_INLINE void LL_AHB2_GRP1_DisableClockLowPower(uint32_t Periphs)
1130:../Drivers/STM32N6xx_HAL_Driver/Inc/stm32n6xx_ll_bus.h **** {
1131:../Drivers/STM32N6xx_HAL_Driver/Inc/stm32n6xx_ll_bus.h ****   WRITE_REG(RCC->AHB2LPENCR, Periphs);
1132:../Drivers/STM32N6xx_HAL_Driver/Inc/stm32n6xx_ll_bus.h **** }
1133:../Drivers/STM32N6xx_HAL_Driver/Inc/stm32n6xx_ll_bus.h **** 
1134:../Drivers/STM32N6xx_HAL_Driver/Inc/stm32n6xx_ll_bus.h **** /**
1135:../Drivers/STM32N6xx_HAL_Driver/Inc/stm32n6xx_ll_bus.h ****   * @}
1136:../Drivers/STM32N6xx_HAL_Driver/Inc/stm32n6xx_ll_bus.h ****   */
1137:../Drivers/STM32N6xx_HAL_Driver/Inc/stm32n6xx_ll_bus.h **** 
1138:../Drivers/STM32N6xx_HAL_Driver/Inc/stm32n6xx_ll_bus.h **** /** @defgroup BUS_LL_EF_AHB3 AHB3
1139:../Drivers/STM32N6xx_HAL_Driver/Inc/stm32n6xx_ll_bus.h ****   * @{
1140:../Drivers/STM32N6xx_HAL_Driver/Inc/stm32n6xx_ll_bus.h ****   */
1141:../Drivers/STM32N6xx_HAL_Driver/Inc/stm32n6xx_ll_bus.h **** 
1142:../Drivers/STM32N6xx_HAL_Driver/Inc/stm32n6xx_ll_bus.h **** /**
1143:../Drivers/STM32N6xx_HAL_Driver/Inc/stm32n6xx_ll_bus.h ****   * @brief  Enable AHB3 peripherals clock.
1144:../Drivers/STM32N6xx_HAL_Driver/Inc/stm32n6xx_ll_bus.h ****   * @rmtoll AHB3ENSR     RNGENS        LL_AHB3_GRP1_EnableClock\n
1145:../Drivers/STM32N6xx_HAL_Driver/Inc/stm32n6xx_ll_bus.h ****   *         AHB3ENSR     HASHENS       LL_AHB3_GRP1_EnableClock\n
1146:../Drivers/STM32N6xx_HAL_Driver/Inc/stm32n6xx_ll_bus.h ****   *         AHB3ENSR     CRYPENS       LL_AHB3_GRP1_EnableClock\n  (*)
1147:../Drivers/STM32N6xx_HAL_Driver/Inc/stm32n6xx_ll_bus.h ****   *         AHB3ENSR     SAESENS       LL_AHB3_GRP1_EnableClock\n  (*)
1148:../Drivers/STM32N6xx_HAL_Driver/Inc/stm32n6xx_ll_bus.h ****   *         AHB3ENSR     PKAENS        LL_AHB3_GRP1_EnableClock\n
1149:../Drivers/STM32N6xx_HAL_Driver/Inc/stm32n6xx_ll_bus.h ****   *         AHB3ENSR     RIFSCENS      LL_AHB3_GRP1_EnableClock\n
1150:../Drivers/STM32N6xx_HAL_Driver/Inc/stm32n6xx_ll_bus.h ****   *         AHB3ENSR     RISAFENS      LL_AHB3_GRP1_EnableClock\n
1151:../Drivers/STM32N6xx_HAL_Driver/Inc/stm32n6xx_ll_bus.h ****   *         AHB3ENSR     IACENS        LL_AHB3_GRP1_EnableClock
ARM GAS  /tmp/ccFnPEzn.s 			page 51


1152:../Drivers/STM32N6xx_HAL_Driver/Inc/stm32n6xx_ll_bus.h ****   * @param  Periphs This parameter can be a combination of the following values:
1153:../Drivers/STM32N6xx_HAL_Driver/Inc/stm32n6xx_ll_bus.h ****   *         @arg @ref LL_AHB3_GRP1_PERIPH_RNG
1154:../Drivers/STM32N6xx_HAL_Driver/Inc/stm32n6xx_ll_bus.h ****   *         @arg @ref LL_AHB3_GRP1_PERIPH_HASH
1155:../Drivers/STM32N6xx_HAL_Driver/Inc/stm32n6xx_ll_bus.h ****   *         @arg @ref LL_AHB3_GRP1_PERIPH_CRYP (*)
1156:../Drivers/STM32N6xx_HAL_Driver/Inc/stm32n6xx_ll_bus.h ****   *         @arg @ref LL_AHB3_GRP1_PERIPH_SAES (*)
1157:../Drivers/STM32N6xx_HAL_Driver/Inc/stm32n6xx_ll_bus.h ****   *         @arg @ref LL_AHB3_GRP1_PERIPH_PKA
1158:../Drivers/STM32N6xx_HAL_Driver/Inc/stm32n6xx_ll_bus.h ****   *         @arg @ref LL_AHB3_GRP1_PERIPH_RIFSC
1159:../Drivers/STM32N6xx_HAL_Driver/Inc/stm32n6xx_ll_bus.h ****   *         @arg @ref LL_AHB3_GRP1_PERIPH_RISAF
1160:../Drivers/STM32N6xx_HAL_Driver/Inc/stm32n6xx_ll_bus.h ****   *         @arg @ref LL_AHB3_GRP1_PERIPH_IAC
1161:../Drivers/STM32N6xx_HAL_Driver/Inc/stm32n6xx_ll_bus.h ****   *
1162:../Drivers/STM32N6xx_HAL_Driver/Inc/stm32n6xx_ll_bus.h ****   *         (*) value not defined in all devices.
1163:../Drivers/STM32N6xx_HAL_Driver/Inc/stm32n6xx_ll_bus.h ****   * @retval None
1164:../Drivers/STM32N6xx_HAL_Driver/Inc/stm32n6xx_ll_bus.h ****   */
1165:../Drivers/STM32N6xx_HAL_Driver/Inc/stm32n6xx_ll_bus.h **** __STATIC_INLINE void LL_AHB3_GRP1_EnableClock(uint32_t Periphs)
1166:../Drivers/STM32N6xx_HAL_Driver/Inc/stm32n6xx_ll_bus.h **** {
1167:../Drivers/STM32N6xx_HAL_Driver/Inc/stm32n6xx_ll_bus.h ****   __IO uint32_t tmpreg;
1168:../Drivers/STM32N6xx_HAL_Driver/Inc/stm32n6xx_ll_bus.h ****   WRITE_REG(RCC->AHB3ENSR, Periphs);
1169:../Drivers/STM32N6xx_HAL_Driver/Inc/stm32n6xx_ll_bus.h ****   /* Delay after an RCC peripheral clock enabling */
1170:../Drivers/STM32N6xx_HAL_Driver/Inc/stm32n6xx_ll_bus.h ****   tmpreg = READ_REG(RCC->AHB3ENR);
1171:../Drivers/STM32N6xx_HAL_Driver/Inc/stm32n6xx_ll_bus.h ****   (void)tmpreg;
1172:../Drivers/STM32N6xx_HAL_Driver/Inc/stm32n6xx_ll_bus.h **** }
1173:../Drivers/STM32N6xx_HAL_Driver/Inc/stm32n6xx_ll_bus.h **** 
1174:../Drivers/STM32N6xx_HAL_Driver/Inc/stm32n6xx_ll_bus.h **** /**
1175:../Drivers/STM32N6xx_HAL_Driver/Inc/stm32n6xx_ll_bus.h ****   * @brief  Check if AHB3 peripheral clock is enabled or not
1176:../Drivers/STM32N6xx_HAL_Driver/Inc/stm32n6xx_ll_bus.h ****   * @rmtoll AHB3ENR      RNGEN         LL_AHB3_GRP1_IsEnabledClock\n
1177:../Drivers/STM32N6xx_HAL_Driver/Inc/stm32n6xx_ll_bus.h ****   *         AHB3ENR      HASHEN        LL_AHB3_GRP1_IsEnabledClock\n
1178:../Drivers/STM32N6xx_HAL_Driver/Inc/stm32n6xx_ll_bus.h ****   *         AHB3ENR      CRYPEN        LL_AHB3_GRP1_IsEnabledClock\n  (*)
1179:../Drivers/STM32N6xx_HAL_Driver/Inc/stm32n6xx_ll_bus.h ****   *         AHB3ENR      SAESEN        LL_AHB3_GRP1_IsEnabledClock\n  (*)
1180:../Drivers/STM32N6xx_HAL_Driver/Inc/stm32n6xx_ll_bus.h ****   *         AHB3ENR      PKAEN         LL_AHB3_GRP1_IsEnabledClock\n
1181:../Drivers/STM32N6xx_HAL_Driver/Inc/stm32n6xx_ll_bus.h ****   *         AHB3ENR      RIFSCEN       LL_AHB3_GRP1_IsEnabledClock\n
1182:../Drivers/STM32N6xx_HAL_Driver/Inc/stm32n6xx_ll_bus.h ****   *         AHB3ENR      RISAFEN       LL_AHB3_GRP1_IsEnabledClock\n
1183:../Drivers/STM32N6xx_HAL_Driver/Inc/stm32n6xx_ll_bus.h ****   *         AHB3ENR      IACEN         LL_AHB3_GRP1_IsEnabledClock
1184:../Drivers/STM32N6xx_HAL_Driver/Inc/stm32n6xx_ll_bus.h ****   * @param  Periphs This parameter can be a combination of the following values:
1185:../Drivers/STM32N6xx_HAL_Driver/Inc/stm32n6xx_ll_bus.h ****   *         @arg @ref LL_AHB3_GRP1_PERIPH_RNG
1186:../Drivers/STM32N6xx_HAL_Driver/Inc/stm32n6xx_ll_bus.h ****   *         @arg @ref LL_AHB3_GRP1_PERIPH_HASH
1187:../Drivers/STM32N6xx_HAL_Driver/Inc/stm32n6xx_ll_bus.h ****   *         @arg @ref LL_AHB3_GRP1_PERIPH_CRYP (*)
1188:../Drivers/STM32N6xx_HAL_Driver/Inc/stm32n6xx_ll_bus.h ****   *         @arg @ref LL_AHB3_GRP1_PERIPH_SAES (*)
1189:../Drivers/STM32N6xx_HAL_Driver/Inc/stm32n6xx_ll_bus.h ****   *         @arg @ref LL_AHB3_GRP1_PERIPH_PKA
1190:../Drivers/STM32N6xx_HAL_Driver/Inc/stm32n6xx_ll_bus.h ****   *         @arg @ref LL_AHB3_GRP1_PERIPH_RIFSC
1191:../Drivers/STM32N6xx_HAL_Driver/Inc/stm32n6xx_ll_bus.h ****   *         @arg @ref LL_AHB3_GRP1_PERIPH_RISAF
1192:../Drivers/STM32N6xx_HAL_Driver/Inc/stm32n6xx_ll_bus.h ****   *         @arg @ref LL_AHB3_GRP1_PERIPH_IAC
1193:../Drivers/STM32N6xx_HAL_Driver/Inc/stm32n6xx_ll_bus.h ****   *
1194:../Drivers/STM32N6xx_HAL_Driver/Inc/stm32n6xx_ll_bus.h ****   *         (*) value not defined in all devices.
1195:../Drivers/STM32N6xx_HAL_Driver/Inc/stm32n6xx_ll_bus.h ****   * @retval uint32_t
1196:../Drivers/STM32N6xx_HAL_Driver/Inc/stm32n6xx_ll_bus.h ****   */
1197:../Drivers/STM32N6xx_HAL_Driver/Inc/stm32n6xx_ll_bus.h **** __STATIC_INLINE uint32_t LL_AHB3_GRP1_IsEnabledClock(uint32_t Periphs)
1198:../Drivers/STM32N6xx_HAL_Driver/Inc/stm32n6xx_ll_bus.h **** {
1199:../Drivers/STM32N6xx_HAL_Driver/Inc/stm32n6xx_ll_bus.h ****   return ((READ_BIT(RCC->AHB3ENR, Periphs) == Periphs) ? 1UL : 0UL);
1200:../Drivers/STM32N6xx_HAL_Driver/Inc/stm32n6xx_ll_bus.h **** }
1201:../Drivers/STM32N6xx_HAL_Driver/Inc/stm32n6xx_ll_bus.h **** 
1202:../Drivers/STM32N6xx_HAL_Driver/Inc/stm32n6xx_ll_bus.h **** /**
1203:../Drivers/STM32N6xx_HAL_Driver/Inc/stm32n6xx_ll_bus.h ****   * @brief  Disable AHB3 peripherals clock.
1204:../Drivers/STM32N6xx_HAL_Driver/Inc/stm32n6xx_ll_bus.h ****   * @rmtoll AHB3ENCR     RNGENC        LL_AHB3_GRP1_DisableClock\n
1205:../Drivers/STM32N6xx_HAL_Driver/Inc/stm32n6xx_ll_bus.h ****   *         AHB3ENCR     HASHENC       LL_AHB3_GRP1_DisableClock\n
1206:../Drivers/STM32N6xx_HAL_Driver/Inc/stm32n6xx_ll_bus.h ****   *         AHB3ENCR     CRYPENC       LL_AHB3_GRP1_DisableClock\n  (*)
1207:../Drivers/STM32N6xx_HAL_Driver/Inc/stm32n6xx_ll_bus.h ****   *         AHB3ENCR     SAESENC       LL_AHB3_GRP1_DisableClock\n  (*)
1208:../Drivers/STM32N6xx_HAL_Driver/Inc/stm32n6xx_ll_bus.h ****   *         AHB3ENCR     PKAENC        LL_AHB3_GRP1_DisableClock\n
ARM GAS  /tmp/ccFnPEzn.s 			page 52


1209:../Drivers/STM32N6xx_HAL_Driver/Inc/stm32n6xx_ll_bus.h ****   *         AHB3ENCR     RIFSCENC      LL_AHB3_GRP1_DisableClock\n
1210:../Drivers/STM32N6xx_HAL_Driver/Inc/stm32n6xx_ll_bus.h ****   *         AHB3ENCR     RISAFENC      LL_AHB3_GRP1_DisableClock\n
1211:../Drivers/STM32N6xx_HAL_Driver/Inc/stm32n6xx_ll_bus.h ****   *         AHB3ENCR     IACENC        LL_AHB3_GRP1_DisableClock
1212:../Drivers/STM32N6xx_HAL_Driver/Inc/stm32n6xx_ll_bus.h ****   * @param  Periphs This parameter can be a combination of the following values:
1213:../Drivers/STM32N6xx_HAL_Driver/Inc/stm32n6xx_ll_bus.h ****   *         @arg @ref LL_AHB3_GRP1_PERIPH_RNG
1214:../Drivers/STM32N6xx_HAL_Driver/Inc/stm32n6xx_ll_bus.h ****   *         @arg @ref LL_AHB3_GRP1_PERIPH_HASH
1215:../Drivers/STM32N6xx_HAL_Driver/Inc/stm32n6xx_ll_bus.h ****   *         @arg @ref LL_AHB3_GRP1_PERIPH_CRYP (*)
1216:../Drivers/STM32N6xx_HAL_Driver/Inc/stm32n6xx_ll_bus.h ****   *         @arg @ref LL_AHB3_GRP1_PERIPH_SAES (*)
1217:../Drivers/STM32N6xx_HAL_Driver/Inc/stm32n6xx_ll_bus.h ****   *         @arg @ref LL_AHB3_GRP1_PERIPH_PKA
1218:../Drivers/STM32N6xx_HAL_Driver/Inc/stm32n6xx_ll_bus.h ****   *         @arg @ref LL_AHB3_GRP1_PERIPH_RIFSC
1219:../Drivers/STM32N6xx_HAL_Driver/Inc/stm32n6xx_ll_bus.h ****   *         @arg @ref LL_AHB3_GRP1_PERIPH_RISAF
1220:../Drivers/STM32N6xx_HAL_Driver/Inc/stm32n6xx_ll_bus.h ****   *         @arg @ref LL_AHB3_GRP1_PERIPH_IAC
1221:../Drivers/STM32N6xx_HAL_Driver/Inc/stm32n6xx_ll_bus.h ****   *
1222:../Drivers/STM32N6xx_HAL_Driver/Inc/stm32n6xx_ll_bus.h ****   *         (*) value not defined in all devices.
1223:../Drivers/STM32N6xx_HAL_Driver/Inc/stm32n6xx_ll_bus.h ****   * @retval None
1224:../Drivers/STM32N6xx_HAL_Driver/Inc/stm32n6xx_ll_bus.h ****   */
1225:../Drivers/STM32N6xx_HAL_Driver/Inc/stm32n6xx_ll_bus.h **** __STATIC_INLINE void LL_AHB3_GRP1_DisableClock(uint32_t Periphs)
1226:../Drivers/STM32N6xx_HAL_Driver/Inc/stm32n6xx_ll_bus.h **** {
1227:../Drivers/STM32N6xx_HAL_Driver/Inc/stm32n6xx_ll_bus.h ****   WRITE_REG(RCC->AHB3ENCR, Periphs);
1228:../Drivers/STM32N6xx_HAL_Driver/Inc/stm32n6xx_ll_bus.h **** }
1229:../Drivers/STM32N6xx_HAL_Driver/Inc/stm32n6xx_ll_bus.h **** 
1230:../Drivers/STM32N6xx_HAL_Driver/Inc/stm32n6xx_ll_bus.h **** /**
1231:../Drivers/STM32N6xx_HAL_Driver/Inc/stm32n6xx_ll_bus.h ****   * @brief  Force AHB3 peripherals reset.
1232:../Drivers/STM32N6xx_HAL_Driver/Inc/stm32n6xx_ll_bus.h ****   * @rmtoll AHB3RSTSR    RNGRSTS       LL_AHB3_GRP1_ForceReset\n
1233:../Drivers/STM32N6xx_HAL_Driver/Inc/stm32n6xx_ll_bus.h ****   *         AHB3RSTSR    HASHRSTS      LL_AHB3_GRP1_ForceReset\n
1234:../Drivers/STM32N6xx_HAL_Driver/Inc/stm32n6xx_ll_bus.h ****   *         AHB3RSTSR    CRYPRSTS      LL_AHB3_GRP1_ForceReset\n  (*)
1235:../Drivers/STM32N6xx_HAL_Driver/Inc/stm32n6xx_ll_bus.h ****   *         AHB3RSTSR    SAESRSTS      LL_AHB3_GRP1_ForceReset\n  (*)
1236:../Drivers/STM32N6xx_HAL_Driver/Inc/stm32n6xx_ll_bus.h ****   *         AHB3RSTSR    PKARSTS       LL_AHB3_GRP1_ForceReset\n
1237:../Drivers/STM32N6xx_HAL_Driver/Inc/stm32n6xx_ll_bus.h ****   *         AHB3RSTSR    IACRSTS       LL_AHB3_GRP1_ForceReset
1238:../Drivers/STM32N6xx_HAL_Driver/Inc/stm32n6xx_ll_bus.h ****   * @param  Periphs This parameter can be a combination of the following values:
1239:../Drivers/STM32N6xx_HAL_Driver/Inc/stm32n6xx_ll_bus.h ****   *         @arg @ref LL_AHB3_GRP1_PERIPH_RNG
1240:../Drivers/STM32N6xx_HAL_Driver/Inc/stm32n6xx_ll_bus.h ****   *         @arg @ref LL_AHB3_GRP1_PERIPH_HASH
1241:../Drivers/STM32N6xx_HAL_Driver/Inc/stm32n6xx_ll_bus.h ****   *         @arg @ref LL_AHB3_GRP1_PERIPH_CRYP (*)
1242:../Drivers/STM32N6xx_HAL_Driver/Inc/stm32n6xx_ll_bus.h ****   *         @arg @ref LL_AHB3_GRP1_PERIPH_SAES (*)
1243:../Drivers/STM32N6xx_HAL_Driver/Inc/stm32n6xx_ll_bus.h ****   *         @arg @ref LL_AHB3_GRP1_PERIPH_PKA
1244:../Drivers/STM32N6xx_HAL_Driver/Inc/stm32n6xx_ll_bus.h ****   *         @arg @ref LL_AHB3_GRP1_PERIPH_IAC
1245:../Drivers/STM32N6xx_HAL_Driver/Inc/stm32n6xx_ll_bus.h ****   *
1246:../Drivers/STM32N6xx_HAL_Driver/Inc/stm32n6xx_ll_bus.h ****   *         (*) value not defined in all devices.
1247:../Drivers/STM32N6xx_HAL_Driver/Inc/stm32n6xx_ll_bus.h ****   * @retval None
1248:../Drivers/STM32N6xx_HAL_Driver/Inc/stm32n6xx_ll_bus.h ****   */
1249:../Drivers/STM32N6xx_HAL_Driver/Inc/stm32n6xx_ll_bus.h **** __STATIC_INLINE void LL_AHB3_GRP1_ForceReset(uint32_t Periphs)
1250:../Drivers/STM32N6xx_HAL_Driver/Inc/stm32n6xx_ll_bus.h **** {
1251:../Drivers/STM32N6xx_HAL_Driver/Inc/stm32n6xx_ll_bus.h ****   WRITE_REG(RCC->AHB3RSTSR, Periphs);
1252:../Drivers/STM32N6xx_HAL_Driver/Inc/stm32n6xx_ll_bus.h **** }
1253:../Drivers/STM32N6xx_HAL_Driver/Inc/stm32n6xx_ll_bus.h **** 
1254:../Drivers/STM32N6xx_HAL_Driver/Inc/stm32n6xx_ll_bus.h **** /**
1255:../Drivers/STM32N6xx_HAL_Driver/Inc/stm32n6xx_ll_bus.h ****   * @brief  Release AHB3 peripherals reset.
1256:../Drivers/STM32N6xx_HAL_Driver/Inc/stm32n6xx_ll_bus.h ****   * @rmtoll AHB3RSTCR    RNGRSTC       LL_AHB3_GRP1_ReleaseReset\n
1257:../Drivers/STM32N6xx_HAL_Driver/Inc/stm32n6xx_ll_bus.h ****   *         AHB3RSTCR    HASHRSTC      LL_AHB3_GRP1_ReleaseReset\n
1258:../Drivers/STM32N6xx_HAL_Driver/Inc/stm32n6xx_ll_bus.h ****   *         AHB3RSTCR    CRYPRSTC      LL_AHB3_GRP1_ReleaseReset\n  (*)
1259:../Drivers/STM32N6xx_HAL_Driver/Inc/stm32n6xx_ll_bus.h ****   *         AHB3RSTCR    SAESRSTC      LL_AHB3_GRP1_ReleaseReset\n  (*)
1260:../Drivers/STM32N6xx_HAL_Driver/Inc/stm32n6xx_ll_bus.h ****   *         AHB3RSTCR    PKARSTC       LL_AHB3_GRP1_ReleaseReset\n
1261:../Drivers/STM32N6xx_HAL_Driver/Inc/stm32n6xx_ll_bus.h ****   *         AHB3RSTCR    IACRSTC       LL_AHB3_GRP1_ReleaseReset
1262:../Drivers/STM32N6xx_HAL_Driver/Inc/stm32n6xx_ll_bus.h ****   * @param  Periphs This parameter can be a combination of the following values:
1263:../Drivers/STM32N6xx_HAL_Driver/Inc/stm32n6xx_ll_bus.h ****   *         @arg @ref LL_AHB3_GRP1_PERIPH_RNG
1264:../Drivers/STM32N6xx_HAL_Driver/Inc/stm32n6xx_ll_bus.h ****   *         @arg @ref LL_AHB3_GRP1_PERIPH_HASH
1265:../Drivers/STM32N6xx_HAL_Driver/Inc/stm32n6xx_ll_bus.h ****   *         @arg @ref LL_AHB3_GRP1_PERIPH_CRYP (*)
ARM GAS  /tmp/ccFnPEzn.s 			page 53


1266:../Drivers/STM32N6xx_HAL_Driver/Inc/stm32n6xx_ll_bus.h ****   *         @arg @ref LL_AHB3_GRP1_PERIPH_SAES (*)
1267:../Drivers/STM32N6xx_HAL_Driver/Inc/stm32n6xx_ll_bus.h ****   *         @arg @ref LL_AHB3_GRP1_PERIPH_PKA
1268:../Drivers/STM32N6xx_HAL_Driver/Inc/stm32n6xx_ll_bus.h ****   *         @arg @ref LL_AHB3_GRP1_PERIPH_IAC
1269:../Drivers/STM32N6xx_HAL_Driver/Inc/stm32n6xx_ll_bus.h ****   *
1270:../Drivers/STM32N6xx_HAL_Driver/Inc/stm32n6xx_ll_bus.h ****   *         (*) value not defined in all devices.
1271:../Drivers/STM32N6xx_HAL_Driver/Inc/stm32n6xx_ll_bus.h ****   * @retval None
1272:../Drivers/STM32N6xx_HAL_Driver/Inc/stm32n6xx_ll_bus.h ****   */
1273:../Drivers/STM32N6xx_HAL_Driver/Inc/stm32n6xx_ll_bus.h **** __STATIC_INLINE void LL_AHB3_GRP1_ReleaseReset(uint32_t Periphs)
1274:../Drivers/STM32N6xx_HAL_Driver/Inc/stm32n6xx_ll_bus.h **** {
1275:../Drivers/STM32N6xx_HAL_Driver/Inc/stm32n6xx_ll_bus.h ****   WRITE_REG(RCC->AHB3RSTCR, Periphs);
1276:../Drivers/STM32N6xx_HAL_Driver/Inc/stm32n6xx_ll_bus.h **** }
1277:../Drivers/STM32N6xx_HAL_Driver/Inc/stm32n6xx_ll_bus.h **** 
1278:../Drivers/STM32N6xx_HAL_Driver/Inc/stm32n6xx_ll_bus.h **** /**
1279:../Drivers/STM32N6xx_HAL_Driver/Inc/stm32n6xx_ll_bus.h ****   * @brief  Enable AHB3 peripherals clock during Low Power mode.
1280:../Drivers/STM32N6xx_HAL_Driver/Inc/stm32n6xx_ll_bus.h ****   * @rmtoll AHB3LPENSR   RNGLPENS      LL_AHB3_GRP1_EnableClockLowPower\n
1281:../Drivers/STM32N6xx_HAL_Driver/Inc/stm32n6xx_ll_bus.h ****   *         AHB3LPENSR   HASHLPENS     LL_AHB3_GRP1_EnableClockLowPower\n
1282:../Drivers/STM32N6xx_HAL_Driver/Inc/stm32n6xx_ll_bus.h ****   *         AHB3LPENSR   CRYPLPENS     LL_AHB3_GRP1_EnableClockLowPower\n  (*)
1283:../Drivers/STM32N6xx_HAL_Driver/Inc/stm32n6xx_ll_bus.h ****   *         AHB3LPENSR   SAESLPENS     LL_AHB3_GRP1_EnableClockLowPower\n  (*)
1284:../Drivers/STM32N6xx_HAL_Driver/Inc/stm32n6xx_ll_bus.h ****   *         AHB3LPENSR   PKALPENS      LL_AHB3_GRP1_EnableClockLowPower\n
1285:../Drivers/STM32N6xx_HAL_Driver/Inc/stm32n6xx_ll_bus.h ****   *         AHB3LPENSR   RIFSCLPENS    LL_AHB3_GRP1_EnableClockLowPower\n
1286:../Drivers/STM32N6xx_HAL_Driver/Inc/stm32n6xx_ll_bus.h ****   *         AHB3LPENSR   RISAFLPENS    LL_AHB3_GRP1_EnableClockLowPower\n
1287:../Drivers/STM32N6xx_HAL_Driver/Inc/stm32n6xx_ll_bus.h ****   *         AHB3LPENSR   IACLPENS      LL_AHB3_GRP1_EnableClockLowPower
1288:../Drivers/STM32N6xx_HAL_Driver/Inc/stm32n6xx_ll_bus.h ****   * @param  Periphs This parameter can be a combination of the following values:
1289:../Drivers/STM32N6xx_HAL_Driver/Inc/stm32n6xx_ll_bus.h ****   *         @arg @ref LL_AHB3_GRP1_PERIPH_RNG
1290:../Drivers/STM32N6xx_HAL_Driver/Inc/stm32n6xx_ll_bus.h ****   *         @arg @ref LL_AHB3_GRP1_PERIPH_HASH
1291:../Drivers/STM32N6xx_HAL_Driver/Inc/stm32n6xx_ll_bus.h ****   *         @arg @ref LL_AHB3_GRP1_PERIPH_CRYP (*)
1292:../Drivers/STM32N6xx_HAL_Driver/Inc/stm32n6xx_ll_bus.h ****   *         @arg @ref LL_AHB3_GRP1_PERIPH_SAES (*)
1293:../Drivers/STM32N6xx_HAL_Driver/Inc/stm32n6xx_ll_bus.h ****   *         @arg @ref LL_AHB3_GRP1_PERIPH_PKA
1294:../Drivers/STM32N6xx_HAL_Driver/Inc/stm32n6xx_ll_bus.h ****   *         @arg @ref LL_AHB3_GRP1_PERIPH_RIFSC
1295:../Drivers/STM32N6xx_HAL_Driver/Inc/stm32n6xx_ll_bus.h ****   *         @arg @ref LL_AHB3_GRP1_PERIPH_RISAF
1296:../Drivers/STM32N6xx_HAL_Driver/Inc/stm32n6xx_ll_bus.h ****   *         @arg @ref LL_AHB3_GRP1_PERIPH_IAC
1297:../Drivers/STM32N6xx_HAL_Driver/Inc/stm32n6xx_ll_bus.h ****   *
1298:../Drivers/STM32N6xx_HAL_Driver/Inc/stm32n6xx_ll_bus.h ****   *         (*) value not defined in all devices.
1299:../Drivers/STM32N6xx_HAL_Driver/Inc/stm32n6xx_ll_bus.h ****   * @retval None
1300:../Drivers/STM32N6xx_HAL_Driver/Inc/stm32n6xx_ll_bus.h ****   */
1301:../Drivers/STM32N6xx_HAL_Driver/Inc/stm32n6xx_ll_bus.h **** __STATIC_INLINE void LL_AHB3_GRP1_EnableClockLowPower(uint32_t Periphs)
1302:../Drivers/STM32N6xx_HAL_Driver/Inc/stm32n6xx_ll_bus.h **** {
1303:../Drivers/STM32N6xx_HAL_Driver/Inc/stm32n6xx_ll_bus.h ****   __IO uint32_t tmpreg;
1304:../Drivers/STM32N6xx_HAL_Driver/Inc/stm32n6xx_ll_bus.h ****   WRITE_REG(RCC->AHB3LPENSR, Periphs);
1305:../Drivers/STM32N6xx_HAL_Driver/Inc/stm32n6xx_ll_bus.h ****   /* Delay after an RCC peripheral clock enabling */
1306:../Drivers/STM32N6xx_HAL_Driver/Inc/stm32n6xx_ll_bus.h ****   tmpreg = READ_REG(RCC->AHB3LPENR);
1307:../Drivers/STM32N6xx_HAL_Driver/Inc/stm32n6xx_ll_bus.h ****   (void)tmpreg;
1308:../Drivers/STM32N6xx_HAL_Driver/Inc/stm32n6xx_ll_bus.h **** }
1309:../Drivers/STM32N6xx_HAL_Driver/Inc/stm32n6xx_ll_bus.h **** 
1310:../Drivers/STM32N6xx_HAL_Driver/Inc/stm32n6xx_ll_bus.h **** /**
1311:../Drivers/STM32N6xx_HAL_Driver/Inc/stm32n6xx_ll_bus.h ****   * @brief  Check if AHB3 peripheral clock during Low Power mode is enabled or not .
1312:../Drivers/STM32N6xx_HAL_Driver/Inc/stm32n6xx_ll_bus.h ****   * @rmtoll AHB3LPENR    RNGLPEN       LL_AHB3_GRP1_IsEnabledClockLowPower\n
1313:../Drivers/STM32N6xx_HAL_Driver/Inc/stm32n6xx_ll_bus.h ****   *         AHB3LPENR    HASHLPEN      LL_AHB3_GRP1_IsEnabledClockLowPower\n
1314:../Drivers/STM32N6xx_HAL_Driver/Inc/stm32n6xx_ll_bus.h ****   *         AHB3LPENR    CRYPLPEN      LL_AHB3_GRP1_IsEnabledClockLowPower\n  (*)
1315:../Drivers/STM32N6xx_HAL_Driver/Inc/stm32n6xx_ll_bus.h ****   *         AHB3LPENR    SAESLPEN      LL_AHB3_GRP1_IsEnabledClockLowPower\n  (*)
1316:../Drivers/STM32N6xx_HAL_Driver/Inc/stm32n6xx_ll_bus.h ****   *         AHB3LPENR    PKALPEN       LL_AHB3_GRP1_IsEnabledClockLowPower\n
1317:../Drivers/STM32N6xx_HAL_Driver/Inc/stm32n6xx_ll_bus.h ****   *         AHB3LPENR    RIFSCLPEN     LL_AHB3_GRP1_IsEnabledClockLowPower\n
1318:../Drivers/STM32N6xx_HAL_Driver/Inc/stm32n6xx_ll_bus.h ****   *         AHB3LPENR    RISAFLPEN     LL_AHB3_GRP1_IsEnabledClockLowPower\n
1319:../Drivers/STM32N6xx_HAL_Driver/Inc/stm32n6xx_ll_bus.h ****   *         AHB3LPENR    IACLPEN       LL_AHB3_GRP1_IsEnabledClockLowPower
1320:../Drivers/STM32N6xx_HAL_Driver/Inc/stm32n6xx_ll_bus.h ****   * @param  Periphs This parameter can be a combination of the following values:
1321:../Drivers/STM32N6xx_HAL_Driver/Inc/stm32n6xx_ll_bus.h ****   *         @arg @ref LL_AHB3_GRP1_PERIPH_RNG
1322:../Drivers/STM32N6xx_HAL_Driver/Inc/stm32n6xx_ll_bus.h ****   *         @arg @ref LL_AHB3_GRP1_PERIPH_HASH
ARM GAS  /tmp/ccFnPEzn.s 			page 54


1323:../Drivers/STM32N6xx_HAL_Driver/Inc/stm32n6xx_ll_bus.h ****   *         @arg @ref LL_AHB3_GRP1_PERIPH_CRYP (*)
1324:../Drivers/STM32N6xx_HAL_Driver/Inc/stm32n6xx_ll_bus.h ****   *         @arg @ref LL_AHB3_GRP1_PERIPH_SAES (*)
1325:../Drivers/STM32N6xx_HAL_Driver/Inc/stm32n6xx_ll_bus.h ****   *         @arg @ref LL_AHB3_GRP1_PERIPH_PKA
1326:../Drivers/STM32N6xx_HAL_Driver/Inc/stm32n6xx_ll_bus.h ****   *         @arg @ref LL_AHB3_GRP1_PERIPH_RIFSC
1327:../Drivers/STM32N6xx_HAL_Driver/Inc/stm32n6xx_ll_bus.h ****   *         @arg @ref LL_AHB3_GRP1_PERIPH_RISAF
1328:../Drivers/STM32N6xx_HAL_Driver/Inc/stm32n6xx_ll_bus.h ****   *         @arg @ref LL_AHB3_GRP1_PERIPH_IAC
1329:../Drivers/STM32N6xx_HAL_Driver/Inc/stm32n6xx_ll_bus.h ****   *
1330:../Drivers/STM32N6xx_HAL_Driver/Inc/stm32n6xx_ll_bus.h ****   *         (*) value not defined in all devices.
1331:../Drivers/STM32N6xx_HAL_Driver/Inc/stm32n6xx_ll_bus.h ****   * @retval uint32_t
1332:../Drivers/STM32N6xx_HAL_Driver/Inc/stm32n6xx_ll_bus.h ****   */
1333:../Drivers/STM32N6xx_HAL_Driver/Inc/stm32n6xx_ll_bus.h **** __STATIC_INLINE uint32_t LL_AHB3_GRP1_IsEnabledClockLowPower(uint32_t Periphs)
1334:../Drivers/STM32N6xx_HAL_Driver/Inc/stm32n6xx_ll_bus.h **** {
1335:../Drivers/STM32N6xx_HAL_Driver/Inc/stm32n6xx_ll_bus.h ****   return ((READ_BIT(RCC->AHB3LPENR, Periphs) == Periphs) ? 1UL : 0UL);
1336:../Drivers/STM32N6xx_HAL_Driver/Inc/stm32n6xx_ll_bus.h **** }
1337:../Drivers/STM32N6xx_HAL_Driver/Inc/stm32n6xx_ll_bus.h **** 
1338:../Drivers/STM32N6xx_HAL_Driver/Inc/stm32n6xx_ll_bus.h **** /**
1339:../Drivers/STM32N6xx_HAL_Driver/Inc/stm32n6xx_ll_bus.h ****   * @brief  Disable AHB3 peripherals clock during Low Power mode.
1340:../Drivers/STM32N6xx_HAL_Driver/Inc/stm32n6xx_ll_bus.h ****   * @rmtoll AHB3LPENCR   RNGLPENC      LL_AHB3_GRP1_DisableClockLowPower\n
1341:../Drivers/STM32N6xx_HAL_Driver/Inc/stm32n6xx_ll_bus.h ****   *         AHB3LPENCR   HASHLPENC     LL_AHB3_GRP1_DisableClockLowPower\n
1342:../Drivers/STM32N6xx_HAL_Driver/Inc/stm32n6xx_ll_bus.h ****   *         AHB3LPENCR   CRYPLPENC     LL_AHB3_GRP1_DisableClockLowPower\n  (*)
1343:../Drivers/STM32N6xx_HAL_Driver/Inc/stm32n6xx_ll_bus.h ****   *         AHB3LPENCR   SAESLPENC     LL_AHB3_GRP1_DisableClockLowPower\n  (*)
1344:../Drivers/STM32N6xx_HAL_Driver/Inc/stm32n6xx_ll_bus.h ****   *         AHB3LPENCR   PKALPENC      LL_AHB3_GRP1_DisableClockLowPower\n
1345:../Drivers/STM32N6xx_HAL_Driver/Inc/stm32n6xx_ll_bus.h ****   *         AHB3LPENCR   RIFSCLPENC    LL_AHB3_GRP1_DisableClockLowPower\n
1346:../Drivers/STM32N6xx_HAL_Driver/Inc/stm32n6xx_ll_bus.h ****   *         AHB3LPENCR   RISAFLPENC    LL_AHB3_GRP1_DisableClockLowPower\n
1347:../Drivers/STM32N6xx_HAL_Driver/Inc/stm32n6xx_ll_bus.h ****   *         AHB3LPENCR   IACLPENC      LL_AHB3_GRP1_DisableClockLowPower
1348:../Drivers/STM32N6xx_HAL_Driver/Inc/stm32n6xx_ll_bus.h ****   * @param  Periphs This parameter can be a combination of the following values:
1349:../Drivers/STM32N6xx_HAL_Driver/Inc/stm32n6xx_ll_bus.h ****   *         @arg @ref LL_AHB3_GRP1_PERIPH_RNG
1350:../Drivers/STM32N6xx_HAL_Driver/Inc/stm32n6xx_ll_bus.h ****   *         @arg @ref LL_AHB3_GRP1_PERIPH_HASH
1351:../Drivers/STM32N6xx_HAL_Driver/Inc/stm32n6xx_ll_bus.h ****   *         @arg @ref LL_AHB3_GRP1_PERIPH_CRYP (*)
1352:../Drivers/STM32N6xx_HAL_Driver/Inc/stm32n6xx_ll_bus.h ****   *         @arg @ref LL_AHB3_GRP1_PERIPH_SAES (*)
1353:../Drivers/STM32N6xx_HAL_Driver/Inc/stm32n6xx_ll_bus.h ****   *         @arg @ref LL_AHB3_GRP1_PERIPH_PKA
1354:../Drivers/STM32N6xx_HAL_Driver/Inc/stm32n6xx_ll_bus.h ****   *         @arg @ref LL_AHB3_GRP1_PERIPH_RIFSC
1355:../Drivers/STM32N6xx_HAL_Driver/Inc/stm32n6xx_ll_bus.h ****   *         @arg @ref LL_AHB3_GRP1_PERIPH_RISAF
1356:../Drivers/STM32N6xx_HAL_Driver/Inc/stm32n6xx_ll_bus.h ****   *         @arg @ref LL_AHB3_GRP1_PERIPH_IAC
1357:../Drivers/STM32N6xx_HAL_Driver/Inc/stm32n6xx_ll_bus.h ****   *
1358:../Drivers/STM32N6xx_HAL_Driver/Inc/stm32n6xx_ll_bus.h ****   *         (*) value not defined in all devices.
1359:../Drivers/STM32N6xx_HAL_Driver/Inc/stm32n6xx_ll_bus.h ****   * @retval None
1360:../Drivers/STM32N6xx_HAL_Driver/Inc/stm32n6xx_ll_bus.h ****   */
1361:../Drivers/STM32N6xx_HAL_Driver/Inc/stm32n6xx_ll_bus.h **** __STATIC_INLINE void LL_AHB3_GRP1_DisableClockLowPower(uint32_t Periphs)
1362:../Drivers/STM32N6xx_HAL_Driver/Inc/stm32n6xx_ll_bus.h **** {
1363:../Drivers/STM32N6xx_HAL_Driver/Inc/stm32n6xx_ll_bus.h ****   WRITE_REG(RCC->AHB3LPENCR, Periphs);
1364:../Drivers/STM32N6xx_HAL_Driver/Inc/stm32n6xx_ll_bus.h **** }
1365:../Drivers/STM32N6xx_HAL_Driver/Inc/stm32n6xx_ll_bus.h **** 
1366:../Drivers/STM32N6xx_HAL_Driver/Inc/stm32n6xx_ll_bus.h **** /**
1367:../Drivers/STM32N6xx_HAL_Driver/Inc/stm32n6xx_ll_bus.h ****   * @}
1368:../Drivers/STM32N6xx_HAL_Driver/Inc/stm32n6xx_ll_bus.h ****   */
1369:../Drivers/STM32N6xx_HAL_Driver/Inc/stm32n6xx_ll_bus.h **** 
1370:../Drivers/STM32N6xx_HAL_Driver/Inc/stm32n6xx_ll_bus.h **** /** @defgroup BUS_LL_EF_AHB4 AHB4
1371:../Drivers/STM32N6xx_HAL_Driver/Inc/stm32n6xx_ll_bus.h ****   * @{
1372:../Drivers/STM32N6xx_HAL_Driver/Inc/stm32n6xx_ll_bus.h ****   */
1373:../Drivers/STM32N6xx_HAL_Driver/Inc/stm32n6xx_ll_bus.h **** 
1374:../Drivers/STM32N6xx_HAL_Driver/Inc/stm32n6xx_ll_bus.h **** /**
1375:../Drivers/STM32N6xx_HAL_Driver/Inc/stm32n6xx_ll_bus.h ****   * @brief  Enable AHB4 peripherals clock.
1376:../Drivers/STM32N6xx_HAL_Driver/Inc/stm32n6xx_ll_bus.h ****   * @rmtoll AHB4ENSR     GPIOAENS      LL_AHB4_GRP1_EnableClock\n
1377:../Drivers/STM32N6xx_HAL_Driver/Inc/stm32n6xx_ll_bus.h ****   *         AHB4ENSR     GPIOBENS      LL_AHB4_GRP1_EnableClock\n
1378:../Drivers/STM32N6xx_HAL_Driver/Inc/stm32n6xx_ll_bus.h ****   *         AHB4ENSR     GPIOCENS      LL_AHB4_GRP1_EnableClock\n
1379:../Drivers/STM32N6xx_HAL_Driver/Inc/stm32n6xx_ll_bus.h ****   *         AHB4ENSR     GPIODENS      LL_AHB4_GRP1_EnableClock\n
ARM GAS  /tmp/ccFnPEzn.s 			page 55


1380:../Drivers/STM32N6xx_HAL_Driver/Inc/stm32n6xx_ll_bus.h ****   *         AHB4ENSR     GPIOEENS      LL_AHB4_GRP1_EnableClock\n
1381:../Drivers/STM32N6xx_HAL_Driver/Inc/stm32n6xx_ll_bus.h ****   *         AHB4ENSR     GPIOFENS      LL_AHB4_GRP1_EnableClock\n
1382:../Drivers/STM32N6xx_HAL_Driver/Inc/stm32n6xx_ll_bus.h ****   *         AHB4ENSR     GPIOGENS      LL_AHB4_GRP1_EnableClock\n
1383:../Drivers/STM32N6xx_HAL_Driver/Inc/stm32n6xx_ll_bus.h ****   *         AHB4ENSR     GPIOHENS      LL_AHB4_GRP1_EnableClock\n
1384:../Drivers/STM32N6xx_HAL_Driver/Inc/stm32n6xx_ll_bus.h ****   *         AHB4ENSR     GPIONENS      LL_AHB4_GRP1_EnableClock\n
1385:../Drivers/STM32N6xx_HAL_Driver/Inc/stm32n6xx_ll_bus.h ****   *         AHB4ENSR     GPIOOENS      LL_AHB4_GRP1_EnableClock\n
1386:../Drivers/STM32N6xx_HAL_Driver/Inc/stm32n6xx_ll_bus.h ****   *         AHB4ENSR     GPIOPENS      LL_AHB4_GRP1_EnableClock\n
1387:../Drivers/STM32N6xx_HAL_Driver/Inc/stm32n6xx_ll_bus.h ****   *         AHB4ENSR     GPIOQENS      LL_AHB4_GRP1_EnableClock\n
1388:../Drivers/STM32N6xx_HAL_Driver/Inc/stm32n6xx_ll_bus.h ****   *         AHB4ENSR     PWRENS        LL_AHB4_GRP1_EnableClock\n
1389:../Drivers/STM32N6xx_HAL_Driver/Inc/stm32n6xx_ll_bus.h ****   *         AHB4ENSR     CRCENS        LL_AHB4_GRP1_EnableClock
1390:../Drivers/STM32N6xx_HAL_Driver/Inc/stm32n6xx_ll_bus.h ****   * @param  Periphs This parameter can be a combination of the following values:
1391:../Drivers/STM32N6xx_HAL_Driver/Inc/stm32n6xx_ll_bus.h ****   *         @arg @ref LL_AHB4_GRP1_PERIPH_GPIOA
1392:../Drivers/STM32N6xx_HAL_Driver/Inc/stm32n6xx_ll_bus.h ****   *         @arg @ref LL_AHB4_GRP1_PERIPH_GPIOB
1393:../Drivers/STM32N6xx_HAL_Driver/Inc/stm32n6xx_ll_bus.h ****   *         @arg @ref LL_AHB4_GRP1_PERIPH_GPIOC
1394:../Drivers/STM32N6xx_HAL_Driver/Inc/stm32n6xx_ll_bus.h ****   *         @arg @ref LL_AHB4_GRP1_PERIPH_GPIOD
1395:../Drivers/STM32N6xx_HAL_Driver/Inc/stm32n6xx_ll_bus.h ****   *         @arg @ref LL_AHB4_GRP1_PERIPH_GPIOE
1396:../Drivers/STM32N6xx_HAL_Driver/Inc/stm32n6xx_ll_bus.h ****   *         @arg @ref LL_AHB4_GRP1_PERIPH_GPIOF
1397:../Drivers/STM32N6xx_HAL_Driver/Inc/stm32n6xx_ll_bus.h ****   *         @arg @ref LL_AHB4_GRP1_PERIPH_GPIOG
1398:../Drivers/STM32N6xx_HAL_Driver/Inc/stm32n6xx_ll_bus.h ****   *         @arg @ref LL_AHB4_GRP1_PERIPH_GPIOH
1399:../Drivers/STM32N6xx_HAL_Driver/Inc/stm32n6xx_ll_bus.h ****   *         @arg @ref LL_AHB4_GRP1_PERIPH_GPION
1400:../Drivers/STM32N6xx_HAL_Driver/Inc/stm32n6xx_ll_bus.h ****   *         @arg @ref LL_AHB4_GRP1_PERIPH_GPIOO
